ARM GAS  C:\Users\jens-\AppData\Local\Temp\cc4C0Tnp.s 			page 1


   1              		.cpu cortex-m3
   2              		.eabi_attribute 20, 1
   3              		.eabi_attribute 21, 1
   4              		.eabi_attribute 23, 3
   5              		.eabi_attribute 24, 1
   6              		.eabi_attribute 25, 1
   7              		.eabi_attribute 26, 1
   8              		.eabi_attribute 30, 1
   9              		.eabi_attribute 34, 1
  10              		.eabi_attribute 18, 4
  11              		.file	"cy_em_eeprom.c"
  12              		.text
  13              	.Ltext0:
  14              		.cfi_sections	.debug_frame
  15              		.section	.text.FindLastWrittenRow,"ax",%progbits
  16              		.align	1
  17              		.arch armv7-m
  18              		.syntax unified
  19              		.thumb
  20              		.thumb_func
  21              		.fpu softvfp
  22              		.type	FindLastWrittenRow, %function
  23              	FindLastWrittenRow:
  24              	.LVL0:
  25              	.LFB5:
  26              		.file 1 "Generated_Source\\PSoC5\\cy_em_eeprom.c"
   1:Generated_Source\PSoC5/cy_em_eeprom.c **** /***************************************************************************//**
   2:Generated_Source\PSoC5/cy_em_eeprom.c **** * \file cy_em_eeprom.c
   3:Generated_Source\PSoC5/cy_em_eeprom.c **** * \version 2.0
   4:Generated_Source\PSoC5/cy_em_eeprom.c **** *
   5:Generated_Source\PSoC5/cy_em_eeprom.c **** * \brief
   6:Generated_Source\PSoC5/cy_em_eeprom.c **** *  This file provides source code of the API for the Emulated EEPROM library.
   7:Generated_Source\PSoC5/cy_em_eeprom.c **** *  The Emulated EEPROM API allows creating of an emulated EEPROM in flash that
   8:Generated_Source\PSoC5/cy_em_eeprom.c **** *  has the ability to do wear leveling and restore corrupted data from a
   9:Generated_Source\PSoC5/cy_em_eeprom.c **** *  redundant copy.
  10:Generated_Source\PSoC5/cy_em_eeprom.c **** *
  11:Generated_Source\PSoC5/cy_em_eeprom.c **** ********************************************************************************
  12:Generated_Source\PSoC5/cy_em_eeprom.c **** * \copyright
  13:Generated_Source\PSoC5/cy_em_eeprom.c **** * Copyright 2017, Cypress Semiconductor Corporation.  All rights reserved.
  14:Generated_Source\PSoC5/cy_em_eeprom.c **** * You may use this file only in accordance with the license, terms, conditions,
  15:Generated_Source\PSoC5/cy_em_eeprom.c **** * disclaimers, and limitations in the end user license agreement accompanying
  16:Generated_Source\PSoC5/cy_em_eeprom.c **** * the software package with which this file was provided.
  17:Generated_Source\PSoC5/cy_em_eeprom.c **** *******************************************************************************/
  18:Generated_Source\PSoC5/cy_em_eeprom.c **** 
  19:Generated_Source\PSoC5/cy_em_eeprom.c **** 
  20:Generated_Source\PSoC5/cy_em_eeprom.c **** #include "cytypes.h"
  21:Generated_Source\PSoC5/cy_em_eeprom.c **** #include <string.h>
  22:Generated_Source\PSoC5/cy_em_eeprom.c **** 
  23:Generated_Source\PSoC5/cy_em_eeprom.c **** #if (CYDEV_CHIP_FAMILY_USED == CYDEV_CHIP_FAMILY_PSOC6)
  24:Generated_Source\PSoC5/cy_em_eeprom.c ****     #include "em_eeprom/cy_em_eeprom.h"
  25:Generated_Source\PSoC5/cy_em_eeprom.c **** #else
  26:Generated_Source\PSoC5/cy_em_eeprom.c ****     #include "cy_em_eeprom.h"
  27:Generated_Source\PSoC5/cy_em_eeprom.c **** #endif /* (CYDEV_CHIP_FAMILY_USED == CYDEV_CHIP_FAMILY_PSOC6) */
  28:Generated_Source\PSoC5/cy_em_eeprom.c **** 
  29:Generated_Source\PSoC5/cy_em_eeprom.c **** 
  30:Generated_Source\PSoC5/cy_em_eeprom.c **** #if defined(__cplusplus)
  31:Generated_Source\PSoC5/cy_em_eeprom.c **** extern "C" {
ARM GAS  C:\Users\jens-\AppData\Local\Temp\cc4C0Tnp.s 			page 2


  32:Generated_Source\PSoC5/cy_em_eeprom.c **** #endif
  33:Generated_Source\PSoC5/cy_em_eeprom.c **** 
  34:Generated_Source\PSoC5/cy_em_eeprom.c **** 
  35:Generated_Source\PSoC5/cy_em_eeprom.c **** /***************************************
  36:Generated_Source\PSoC5/cy_em_eeprom.c **** * Private Function Prototypes
  37:Generated_Source\PSoC5/cy_em_eeprom.c **** ***************************************/
  38:Generated_Source\PSoC5/cy_em_eeprom.c **** static void FindLastWrittenRow(uint32 * lastWrRowPtr, cy_stc_eeprom_context_t * context);
  39:Generated_Source\PSoC5/cy_em_eeprom.c **** static uint32 GetRowAddrBySeqNum(uint32 seqNum, cy_stc_eeprom_context_t * context);
  40:Generated_Source\PSoC5/cy_em_eeprom.c **** static uint8 CalcChecksum(uint8 rowData[], uint32 len);
  41:Generated_Source\PSoC5/cy_em_eeprom.c **** static void GetNextRowToWrite(uint32 seqNum,
  42:Generated_Source\PSoC5/cy_em_eeprom.c ****                             uint32 * rowToWrPtr,
  43:Generated_Source\PSoC5/cy_em_eeprom.c ****                             uint32 * rowToRdPtr,
  44:Generated_Source\PSoC5/cy_em_eeprom.c ****                             cy_stc_eeprom_context_t * context);
  45:Generated_Source\PSoC5/cy_em_eeprom.c **** static cy_en_em_eeprom_status_t CheckRanges(cy_stc_eeprom_config_t* config);
  46:Generated_Source\PSoC5/cy_em_eeprom.c **** static cy_en_em_eeprom_status_t WriteRow(uint32 rowAddr, uint32 *rowData, cy_stc_eeprom_context_t *
  47:Generated_Source\PSoC5/cy_em_eeprom.c **** static cy_en_em_eeprom_status_t EraseRow(uint32 rowAddr, uint32 ramBuffAddr, cy_stc_eeprom_context_
  48:Generated_Source\PSoC5/cy_em_eeprom.c **** static cy_en_em_eeprom_status_t CheckCrcAndCopy(uint32 startAddr,
  49:Generated_Source\PSoC5/cy_em_eeprom.c ****                                                 uint32 dstAddr,
  50:Generated_Source\PSoC5/cy_em_eeprom.c ****                                                 uint32 rowOffset,
  51:Generated_Source\PSoC5/cy_em_eeprom.c ****                                                 uint32 numBytes,
  52:Generated_Source\PSoC5/cy_em_eeprom.c ****                                                 cy_stc_eeprom_context_t * context);
  53:Generated_Source\PSoC5/cy_em_eeprom.c **** static uint32 GetAddresses(uint32 *startAddr, uint32 *endAddr, uint32 *offset, uint32 rowNum, uint3
  54:Generated_Source\PSoC5/cy_em_eeprom.c **** static cy_en_em_eeprom_status_t FillChecksum(cy_stc_eeprom_context_t * context);
  55:Generated_Source\PSoC5/cy_em_eeprom.c **** 
  56:Generated_Source\PSoC5/cy_em_eeprom.c **** /**
  57:Generated_Source\PSoC5/cy_em_eeprom.c **** * \addtogroup group_em_eeprom_functions
  58:Generated_Source\PSoC5/cy_em_eeprom.c **** * \{
  59:Generated_Source\PSoC5/cy_em_eeprom.c **** */
  60:Generated_Source\PSoC5/cy_em_eeprom.c **** 
  61:Generated_Source\PSoC5/cy_em_eeprom.c **** /*******************************************************************************
  62:Generated_Source\PSoC5/cy_em_eeprom.c **** * Function Name: Cy_Em_EEPROM_Init
  63:Generated_Source\PSoC5/cy_em_eeprom.c **** ****************************************************************************//**
  64:Generated_Source\PSoC5/cy_em_eeprom.c **** *
  65:Generated_Source\PSoC5/cy_em_eeprom.c **** * Initializes the Emulated EEPROM library by filling the context structure. 
  66:Generated_Source\PSoC5/cy_em_eeprom.c **** *
  67:Generated_Source\PSoC5/cy_em_eeprom.c **** * \param config
  68:Generated_Source\PSoC5/cy_em_eeprom.c **** * The pointer to a configuration structure. See \ref cy_stc_eeprom_config_t.
  69:Generated_Source\PSoC5/cy_em_eeprom.c **** *
  70:Generated_Source\PSoC5/cy_em_eeprom.c **** * \param context
  71:Generated_Source\PSoC5/cy_em_eeprom.c **** * The pointer to the EEPROM context structure to be filled by the function.
  72:Generated_Source\PSoC5/cy_em_eeprom.c **** * \ref cy_stc_eeprom_context_t.
  73:Generated_Source\PSoC5/cy_em_eeprom.c **** *
  74:Generated_Source\PSoC5/cy_em_eeprom.c **** * \return
  75:Generated_Source\PSoC5/cy_em_eeprom.c **** * error / status code. See \ref cy_en_em_eeprom_status_t.
  76:Generated_Source\PSoC5/cy_em_eeprom.c **** *
  77:Generated_Source\PSoC5/cy_em_eeprom.c **** * \note
  78:Generated_Source\PSoC5/cy_em_eeprom.c **** * The context structure should not be modified by the user after it is filled
  79:Generated_Source\PSoC5/cy_em_eeprom.c **** * with this function. Modification of context structure may cause the 
  80:Generated_Source\PSoC5/cy_em_eeprom.c **** * unexpected behavior of the Cy_Em_EEPROM API functions which rely on it.
  81:Generated_Source\PSoC5/cy_em_eeprom.c **** *
  82:Generated_Source\PSoC5/cy_em_eeprom.c **** * \note
  83:Generated_Source\PSoC5/cy_em_eeprom.c **** * This function uses a buffer of the flash row size to perform read
  84:Generated_Source\PSoC5/cy_em_eeprom.c **** * operation. For the size of the row refer to the specific PSoC device
  85:Generated_Source\PSoC5/cy_em_eeprom.c **** * datasheet.
  86:Generated_Source\PSoC5/cy_em_eeprom.c **** *
  87:Generated_Source\PSoC5/cy_em_eeprom.c **** * \sideeffect 
  88:Generated_Source\PSoC5/cy_em_eeprom.c **** * If the "Redundant Copy" option is used, the function performs a number of 
ARM GAS  C:\Users\jens-\AppData\Local\Temp\cc4C0Tnp.s 			page 3


  89:Generated_Source\PSoC5/cy_em_eeprom.c **** * write operations to the EEPROM to initialize flash rows checksums. Therefore,
  90:Generated_Source\PSoC5/cy_em_eeprom.c **** * Cy_Em_EEPROM_NumWrites(), when it is called right after Cy_Em_EEPROM_Init(), 
  91:Generated_Source\PSoC5/cy_em_eeprom.c **** * will return a non-zero value that identifies the number of writes performed 
  92:Generated_Source\PSoC5/cy_em_eeprom.c **** * by Cy_Em_EEPROM_Init().
  93:Generated_Source\PSoC5/cy_em_eeprom.c **** *
  94:Generated_Source\PSoC5/cy_em_eeprom.c **** *******************************************************************************/
  95:Generated_Source\PSoC5/cy_em_eeprom.c **** cy_en_em_eeprom_status_t Cy_Em_EEPROM_Init(cy_stc_eeprom_config_t* config, cy_stc_eeprom_context_t 
  96:Generated_Source\PSoC5/cy_em_eeprom.c **** {
  97:Generated_Source\PSoC5/cy_em_eeprom.c ****     cy_en_em_eeprom_status_t ret = CY_EM_EEPROM_BAD_PARAM;
  98:Generated_Source\PSoC5/cy_em_eeprom.c **** 
  99:Generated_Source\PSoC5/cy_em_eeprom.c ****     if((NULL != context) && (NULL != config) && (NULL != ((uint32 *)config->userFlashStartAddr)) &&
 100:Generated_Source\PSoC5/cy_em_eeprom.c ****         (config->wearLevelingFactor <= CY_EM_EEPROM_MAX_WEAR_LEVELING_FACTOR) && (config->eepromSiz
 101:Generated_Source\PSoC5/cy_em_eeprom.c ****     {
 102:Generated_Source\PSoC5/cy_em_eeprom.c ****         ret = CheckRanges(config);
 103:Generated_Source\PSoC5/cy_em_eeprom.c **** 
 104:Generated_Source\PSoC5/cy_em_eeprom.c ****         if(CY_EM_EEPROM_SUCCESS == ret)
 105:Generated_Source\PSoC5/cy_em_eeprom.c ****         {
 106:Generated_Source\PSoC5/cy_em_eeprom.c ****             /* Copy the user config structure fields into context */
 107:Generated_Source\PSoC5/cy_em_eeprom.c ****             context->eepromSize = config->eepromSize;
 108:Generated_Source\PSoC5/cy_em_eeprom.c ****             context->wearLevelingFactor = config->wearLevelingFactor;
 109:Generated_Source\PSoC5/cy_em_eeprom.c ****             context->redundantCopy = config->redundantCopy;
 110:Generated_Source\PSoC5/cy_em_eeprom.c ****             context->blockingWrite = config->blockingWrite;
 111:Generated_Source\PSoC5/cy_em_eeprom.c ****             context->userFlashStartAddr = config->userFlashStartAddr;
 112:Generated_Source\PSoC5/cy_em_eeprom.c ****             /* Store frequently used data for internal use */
 113:Generated_Source\PSoC5/cy_em_eeprom.c ****             context->numberOfRows = CY_EM_EEPROM_GET_NUM_ROWS_IN_EEPROM(config->eepromSize);
 114:Generated_Source\PSoC5/cy_em_eeprom.c ****             context->wlEndAddr = ((CY_EM_EEPROM_GET_EEPROM_SIZE(context->numberOfRows) * config->we
 115:Generated_Source\PSoC5/cy_em_eeprom.c ****                     config->userFlashStartAddr);
 116:Generated_Source\PSoC5/cy_em_eeprom.c ****             /* Find last written EEPROM row and store it for quick access */
 117:Generated_Source\PSoC5/cy_em_eeprom.c ****             FindLastWrittenRow(&context->lastWrRowAddr, context);
 118:Generated_Source\PSoC5/cy_em_eeprom.c **** 
 119:Generated_Source\PSoC5/cy_em_eeprom.c ****             if((0u == CY_EM_EEPROM_GET_SEQ_NUM(context->lastWrRowAddr)) && (0u != context->redundan
 120:Generated_Source\PSoC5/cy_em_eeprom.c ****             {
 121:Generated_Source\PSoC5/cy_em_eeprom.c ****                 /* Call the function only after device reprogramming in case
 122:Generated_Source\PSoC5/cy_em_eeprom.c ****                 * if redundant copy is enabled.
 123:Generated_Source\PSoC5/cy_em_eeprom.c ****                 */
 124:Generated_Source\PSoC5/cy_em_eeprom.c ****                 ret = FillChecksum(context);
 125:Generated_Source\PSoC5/cy_em_eeprom.c ****                 
 126:Generated_Source\PSoC5/cy_em_eeprom.c ****                 /* Update the last written EEPROM row for Cy_Em_EEPROM_NumWrites() */
 127:Generated_Source\PSoC5/cy_em_eeprom.c ****                 FindLastWrittenRow(&context->lastWrRowAddr, context);
 128:Generated_Source\PSoC5/cy_em_eeprom.c ****             }
 129:Generated_Source\PSoC5/cy_em_eeprom.c ****         }
 130:Generated_Source\PSoC5/cy_em_eeprom.c ****     }
 131:Generated_Source\PSoC5/cy_em_eeprom.c **** 
 132:Generated_Source\PSoC5/cy_em_eeprom.c ****     return(ret);
 133:Generated_Source\PSoC5/cy_em_eeprom.c **** }
 134:Generated_Source\PSoC5/cy_em_eeprom.c **** 
 135:Generated_Source\PSoC5/cy_em_eeprom.c **** 
 136:Generated_Source\PSoC5/cy_em_eeprom.c **** /*******************************************************************************
 137:Generated_Source\PSoC5/cy_em_eeprom.c **** * Function Name: Cy_Em_EEPROM_Read
 138:Generated_Source\PSoC5/cy_em_eeprom.c **** ****************************************************************************//**
 139:Generated_Source\PSoC5/cy_em_eeprom.c **** *
 140:Generated_Source\PSoC5/cy_em_eeprom.c **** * This function takes the logical EEPROM address, converts it to the actual
 141:Generated_Source\PSoC5/cy_em_eeprom.c **** * physical address where the data is stored and returns the data to the user.
 142:Generated_Source\PSoC5/cy_em_eeprom.c **** *
 143:Generated_Source\PSoC5/cy_em_eeprom.c **** * \param addr
 144:Generated_Source\PSoC5/cy_em_eeprom.c **** * The logical start address in EEPROM to start reading data from.
 145:Generated_Source\PSoC5/cy_em_eeprom.c **** *
ARM GAS  C:\Users\jens-\AppData\Local\Temp\cc4C0Tnp.s 			page 4


 146:Generated_Source\PSoC5/cy_em_eeprom.c **** * \param eepromData
 147:Generated_Source\PSoC5/cy_em_eeprom.c **** * The pointer to a user array to write data to.
 148:Generated_Source\PSoC5/cy_em_eeprom.c **** *
 149:Generated_Source\PSoC5/cy_em_eeprom.c **** * \param size
 150:Generated_Source\PSoC5/cy_em_eeprom.c **** * The amount of data to read.
 151:Generated_Source\PSoC5/cy_em_eeprom.c **** *
 152:Generated_Source\PSoC5/cy_em_eeprom.c **** * \param context
 153:Generated_Source\PSoC5/cy_em_eeprom.c **** * The pointer to the EEPROM context structure \ref cy_stc_eeprom_context_t.
 154:Generated_Source\PSoC5/cy_em_eeprom.c **** *
 155:Generated_Source\PSoC5/cy_em_eeprom.c **** * \return
 156:Generated_Source\PSoC5/cy_em_eeprom.c **** * This function returns \ref cy_en_em_eeprom_status_t.
 157:Generated_Source\PSoC5/cy_em_eeprom.c **** *
 158:Generated_Source\PSoC5/cy_em_eeprom.c **** * \note
 159:Generated_Source\PSoC5/cy_em_eeprom.c **** * This function uses a buffer of the flash row size to perform read
 160:Generated_Source\PSoC5/cy_em_eeprom.c **** * operation. For the size of the row refer to the specific PSoC device
 161:Generated_Source\PSoC5/cy_em_eeprom.c **** * datasheet.
 162:Generated_Source\PSoC5/cy_em_eeprom.c **** *
 163:Generated_Source\PSoC5/cy_em_eeprom.c **** * \note
 164:Generated_Source\PSoC5/cy_em_eeprom.c **** * In case if redundant copy option is enabled the function may perform writes
 165:Generated_Source\PSoC5/cy_em_eeprom.c **** * to EEPROM. This is done in case if the data in the EEPPROM is corrupted and
 166:Generated_Source\PSoC5/cy_em_eeprom.c **** * the data in redundant copy is valid based on CRC-8 data integrity check.
 167:Generated_Source\PSoC5/cy_em_eeprom.c **** *
 168:Generated_Source\PSoC5/cy_em_eeprom.c **** *******************************************************************************/
 169:Generated_Source\PSoC5/cy_em_eeprom.c **** cy_en_em_eeprom_status_t Cy_Em_EEPROM_Read(uint32 addr, 
 170:Generated_Source\PSoC5/cy_em_eeprom.c ****                                         void * eepromData, 
 171:Generated_Source\PSoC5/cy_em_eeprom.c ****                                         uint32 size,
 172:Generated_Source\PSoC5/cy_em_eeprom.c ****                                         cy_stc_eeprom_context_t * context)
 173:Generated_Source\PSoC5/cy_em_eeprom.c **** {
 174:Generated_Source\PSoC5/cy_em_eeprom.c ****     cy_en_em_eeprom_status_t ret = CY_EM_EEPROM_BAD_PARAM;
 175:Generated_Source\PSoC5/cy_em_eeprom.c ****     uint32 i;
 176:Generated_Source\PSoC5/cy_em_eeprom.c ****     uint32 numBytesToRead;
 177:Generated_Source\PSoC5/cy_em_eeprom.c ****     uint32 curEepromBaseAddr;
 178:Generated_Source\PSoC5/cy_em_eeprom.c ****     uint32 curRowOffset;
 179:Generated_Source\PSoC5/cy_em_eeprom.c ****     uint32 startRowAddr;
 180:Generated_Source\PSoC5/cy_em_eeprom.c ****     uint32 actEepromRowNum;
 181:Generated_Source\PSoC5/cy_em_eeprom.c ****     uint32 curRdEepromRowNum = 0u;
 182:Generated_Source\PSoC5/cy_em_eeprom.c ****     uint32 dataStartEepromRowNum = 0u;
 183:Generated_Source\PSoC5/cy_em_eeprom.c ****     uint32 eeData = (uint32) eepromData; /* To avoid the pointer arithmetic with void */
 184:Generated_Source\PSoC5/cy_em_eeprom.c **** 
 185:Generated_Source\PSoC5/cy_em_eeprom.c ****     /* Validate input parameters */
 186:Generated_Source\PSoC5/cy_em_eeprom.c ****     if((0u != size) && ((addr + size) <= (context->eepromSize)) && (NULL != eepromData))
 187:Generated_Source\PSoC5/cy_em_eeprom.c ****     {
 188:Generated_Source\PSoC5/cy_em_eeprom.c ****         uint32 rdAddr = addr;
 189:Generated_Source\PSoC5/cy_em_eeprom.c ****         uint32 rdSize = size;
 190:Generated_Source\PSoC5/cy_em_eeprom.c ****         /* Get the sequence number of the last written row */
 191:Generated_Source\PSoC5/cy_em_eeprom.c ****         uint32 seqNum = CY_EM_EEPROM_GET_SEQ_NUM(context->lastWrRowAddr);
 192:Generated_Source\PSoC5/cy_em_eeprom.c ****         uint32 updateAddrFlag = 0u;
 193:Generated_Source\PSoC5/cy_em_eeprom.c **** 
 194:Generated_Source\PSoC5/cy_em_eeprom.c ****         /* Calculate the number of the row read operations. Currently this only concerns
 195:Generated_Source\PSoC5/cy_em_eeprom.c ****         * the reads from the EEPROM data locations.
 196:Generated_Source\PSoC5/cy_em_eeprom.c ****         */
 197:Generated_Source\PSoC5/cy_em_eeprom.c ****         uint32 numRowReads = ((((rdAddr + rdSize) - 1u) / CY_EM_EEPROM_EEPROM_DATA_LEN) -
 198:Generated_Source\PSoC5/cy_em_eeprom.c ****                               (rdAddr / CY_EM_EEPROM_EEPROM_DATA_LEN)) + 1u;
 199:Generated_Source\PSoC5/cy_em_eeprom.c **** 
 200:Generated_Source\PSoC5/cy_em_eeprom.c ****         /* Get the address of the first row of the currently active EEPROM sector. If
 201:Generated_Source\PSoC5/cy_em_eeprom.c ****         * no wear leveling is used - the EEPROM has only one sector, so use the base
 202:Generated_Source\PSoC5/cy_em_eeprom.c ****         * addr stored in "context->userFlashStartAddr".
ARM GAS  C:\Users\jens-\AppData\Local\Temp\cc4C0Tnp.s 			page 5


 203:Generated_Source\PSoC5/cy_em_eeprom.c ****         */
 204:Generated_Source\PSoC5/cy_em_eeprom.c ****         curEepromBaseAddr = (((context->lastWrRowAddr - context->userFlashStartAddr) /
 205:Generated_Source\PSoC5/cy_em_eeprom.c ****                               (CY_EM_EEPROM_FLASH_SIZEOF_ROW * context->numberOfRows)) *
 206:Generated_Source\PSoC5/cy_em_eeprom.c ****                               (CY_EM_EEPROM_FLASH_SIZEOF_ROW * context->numberOfRows)) +
 207:Generated_Source\PSoC5/cy_em_eeprom.c ****                                context->userFlashStartAddr;
 208:Generated_Source\PSoC5/cy_em_eeprom.c **** 
 209:Generated_Source\PSoC5/cy_em_eeprom.c ****         /* Find the number of the row that contains the start address of the data */
 210:Generated_Source\PSoC5/cy_em_eeprom.c ****         for(i = 0u; i < context->numberOfRows; i++)
 211:Generated_Source\PSoC5/cy_em_eeprom.c ****         {
 212:Generated_Source\PSoC5/cy_em_eeprom.c ****             if(0u != CY_EM_EEPROM_IS_ADDR_IN_ROW_RANGE(rdAddr, i))
 213:Generated_Source\PSoC5/cy_em_eeprom.c ****             {
 214:Generated_Source\PSoC5/cy_em_eeprom.c ****                 dataStartEepromRowNum = i;
 215:Generated_Source\PSoC5/cy_em_eeprom.c ****                 curRdEepromRowNum = dataStartEepromRowNum;
 216:Generated_Source\PSoC5/cy_em_eeprom.c ****                 break;
 217:Generated_Source\PSoC5/cy_em_eeprom.c ****             }
 218:Generated_Source\PSoC5/cy_em_eeprom.c ****         }
 219:Generated_Source\PSoC5/cy_em_eeprom.c **** 
 220:Generated_Source\PSoC5/cy_em_eeprom.c ****         /* Find the row number of the last written row */
 221:Generated_Source\PSoC5/cy_em_eeprom.c ****         actEepromRowNum = (context->lastWrRowAddr - curEepromBaseAddr) / CY_EM_EEPROM_FLASH_SIZEOF_
 222:Generated_Source\PSoC5/cy_em_eeprom.c **** 
 223:Generated_Source\PSoC5/cy_em_eeprom.c ****         /* Check if wear leveling is used */
 224:Generated_Source\PSoC5/cy_em_eeprom.c ****         if(context->wearLevelingFactor > 1u)
 225:Generated_Source\PSoC5/cy_em_eeprom.c ****         {
 226:Generated_Source\PSoC5/cy_em_eeprom.c ****             uint32 dataEndEepromRowNum = dataStartEepromRowNum + (numRowReads - 1u);
 227:Generated_Source\PSoC5/cy_em_eeprom.c **** 
 228:Generated_Source\PSoC5/cy_em_eeprom.c ****             /* Check if the future validation of the read address is required. */
 229:Generated_Source\PSoC5/cy_em_eeprom.c ****             updateAddrFlag = (dataStartEepromRowNum > actEepromRowNum) ? 1u :
 230:Generated_Source\PSoC5/cy_em_eeprom.c ****                               ((dataEndEepromRowNum > actEepromRowNum) ? 1u : 0u);
 231:Generated_Source\PSoC5/cy_em_eeprom.c ****         }
 232:Generated_Source\PSoC5/cy_em_eeprom.c **** 
 233:Generated_Source\PSoC5/cy_em_eeprom.c ****         /* Copy data from the EEPROM data locations to the user buffer */
 234:Generated_Source\PSoC5/cy_em_eeprom.c ****         for(i = 0u; i < numRowReads; i++)
 235:Generated_Source\PSoC5/cy_em_eeprom.c ****         {
 236:Generated_Source\PSoC5/cy_em_eeprom.c ****             startRowAddr = curEepromBaseAddr + (curRdEepromRowNum * CY_EM_EEPROM_FLASH_SIZEOF_ROW);
 237:Generated_Source\PSoC5/cy_em_eeprom.c ****             curRowOffset = CY_EM_EEPROM_EEPROM_DATA_LEN + (rdAddr % CY_EM_EEPROM_EEPROM_DATA_LEN);
 238:Generated_Source\PSoC5/cy_em_eeprom.c **** 
 239:Generated_Source\PSoC5/cy_em_eeprom.c ****             /* Check if there are more reads pending and update the number of the
 240:Generated_Source\PSoC5/cy_em_eeprom.c ****             * remaining bytes to read respectively.
 241:Generated_Source\PSoC5/cy_em_eeprom.c ****             */
 242:Generated_Source\PSoC5/cy_em_eeprom.c ****             if((i + 1u) < numRowReads)
 243:Generated_Source\PSoC5/cy_em_eeprom.c ****             {
 244:Generated_Source\PSoC5/cy_em_eeprom.c ****                 numBytesToRead = CY_EM_EEPROM_EEPROM_DATA_LEN - (rdAddr % CY_EM_EEPROM_EEPROM_DATA_
 245:Generated_Source\PSoC5/cy_em_eeprom.c ****             }
 246:Generated_Source\PSoC5/cy_em_eeprom.c ****             else
 247:Generated_Source\PSoC5/cy_em_eeprom.c ****             {
 248:Generated_Source\PSoC5/cy_em_eeprom.c ****                 numBytesToRead = rdSize;
 249:Generated_Source\PSoC5/cy_em_eeprom.c ****             }
 250:Generated_Source\PSoC5/cy_em_eeprom.c **** 
 251:Generated_Source\PSoC5/cy_em_eeprom.c ****             /* Check if the read address needs to be updated to point to the correct
 252:Generated_Source\PSoC5/cy_em_eeprom.c ****             * EEPROM sector.
 253:Generated_Source\PSoC5/cy_em_eeprom.c ****             */
 254:Generated_Source\PSoC5/cy_em_eeprom.c ****             if((0u != updateAddrFlag) && (curRdEepromRowNum > actEepromRowNum))
 255:Generated_Source\PSoC5/cy_em_eeprom.c ****             {
 256:Generated_Source\PSoC5/cy_em_eeprom.c ****                 startRowAddr -= context->numberOfRows * CY_EM_EEPROM_FLASH_SIZEOF_ROW;
 257:Generated_Source\PSoC5/cy_em_eeprom.c **** 
 258:Generated_Source\PSoC5/cy_em_eeprom.c ****                 if(startRowAddr < context->userFlashStartAddr)
 259:Generated_Source\PSoC5/cy_em_eeprom.c ****                 {
ARM GAS  C:\Users\jens-\AppData\Local\Temp\cc4C0Tnp.s 			page 6


 260:Generated_Source\PSoC5/cy_em_eeprom.c ****                     startRowAddr = context->wlEndAddr -
 261:Generated_Source\PSoC5/cy_em_eeprom.c ****                         ((context->numberOfRows - curRdEepromRowNum) * CY_EM_EEPROM_FLASH_SIZEOF_RO
 262:Generated_Source\PSoC5/cy_em_eeprom.c ****                 }
 263:Generated_Source\PSoC5/cy_em_eeprom.c ****             }
 264:Generated_Source\PSoC5/cy_em_eeprom.c **** 
 265:Generated_Source\PSoC5/cy_em_eeprom.c ****             if(0u != context->redundantCopy)
 266:Generated_Source\PSoC5/cy_em_eeprom.c ****             {
 267:Generated_Source\PSoC5/cy_em_eeprom.c ****                 /* Check a checksum of the EEPROM row and if it is bad, check a checksum in
 268:Generated_Source\PSoC5/cy_em_eeprom.c ****                 * the corresponding row in redundant copy, otherwise return failure.
 269:Generated_Source\PSoC5/cy_em_eeprom.c ****                 */
 270:Generated_Source\PSoC5/cy_em_eeprom.c ****                 ret = CheckCrcAndCopy(startRowAddr, eeData, curRowOffset, numBytesToRead, context);
 271:Generated_Source\PSoC5/cy_em_eeprom.c **** 
 272:Generated_Source\PSoC5/cy_em_eeprom.c ****                 if(CY_EM_EEPROM_SUCCESS != ret)
 273:Generated_Source\PSoC5/cy_em_eeprom.c ****                 {
 274:Generated_Source\PSoC5/cy_em_eeprom.c ****                     break;
 275:Generated_Source\PSoC5/cy_em_eeprom.c ****                 }
 276:Generated_Source\PSoC5/cy_em_eeprom.c ****             }
 277:Generated_Source\PSoC5/cy_em_eeprom.c ****             else
 278:Generated_Source\PSoC5/cy_em_eeprom.c ****             {
 279:Generated_Source\PSoC5/cy_em_eeprom.c ****                 /* Copy the data to the user buffer */
 280:Generated_Source\PSoC5/cy_em_eeprom.c ****                 (void)memcpy((void *)(eeData),
 281:Generated_Source\PSoC5/cy_em_eeprom.c ****                              (void *)(startRowAddr + curRowOffset),
 282:Generated_Source\PSoC5/cy_em_eeprom.c ****                              numBytesToRead);
 283:Generated_Source\PSoC5/cy_em_eeprom.c **** 
 284:Generated_Source\PSoC5/cy_em_eeprom.c ****                 /* Indicate success to be able to execute next code block */
 285:Generated_Source\PSoC5/cy_em_eeprom.c ****                 ret = CY_EM_EEPROM_SUCCESS;
 286:Generated_Source\PSoC5/cy_em_eeprom.c ****             }
 287:Generated_Source\PSoC5/cy_em_eeprom.c **** 
 288:Generated_Source\PSoC5/cy_em_eeprom.c ****             /* Update variables anticipated in the read operation */
 289:Generated_Source\PSoC5/cy_em_eeprom.c ****             rdAddr += numBytesToRead;
 290:Generated_Source\PSoC5/cy_em_eeprom.c ****             rdSize -= numBytesToRead;
 291:Generated_Source\PSoC5/cy_em_eeprom.c ****             eeData += numBytesToRead;
 292:Generated_Source\PSoC5/cy_em_eeprom.c ****             curRdEepromRowNum++;
 293:Generated_Source\PSoC5/cy_em_eeprom.c ****         }
 294:Generated_Source\PSoC5/cy_em_eeprom.c **** 
 295:Generated_Source\PSoC5/cy_em_eeprom.c ****         /* This code block will copy the latest data from the EEPROM headers into the
 296:Generated_Source\PSoC5/cy_em_eeprom.c ****         * user buffer. The data previously copied into the user buffer may be updated
 297:Generated_Source\PSoC5/cy_em_eeprom.c ****         * as the EEPROM headers contain more recent data. 
 298:Generated_Source\PSoC5/cy_em_eeprom.c ****         * The code block is executed when two following conditions are true:
 299:Generated_Source\PSoC5/cy_em_eeprom.c ****         *  1) The reads from "historic" data locations were successful;
 300:Generated_Source\PSoC5/cy_em_eeprom.c ****         *  2) The user performed at least one write operation to Em_EEPROM (0u !=
 301:Generated_Source\PSoC5/cy_em_eeprom.c ****         *     seqNum).        
 302:Generated_Source\PSoC5/cy_em_eeprom.c ****         */
 303:Generated_Source\PSoC5/cy_em_eeprom.c ****         if((CY_EM_EEPROM_SUCCESS == ret) && (0u != seqNum))
 304:Generated_Source\PSoC5/cy_em_eeprom.c ****         {
 305:Generated_Source\PSoC5/cy_em_eeprom.c ****             numRowReads = (context->numberOfRows <= seqNum) ? (context->numberOfRows) : (seqNum);
 306:Generated_Source\PSoC5/cy_em_eeprom.c ****             numRowReads--;
 307:Generated_Source\PSoC5/cy_em_eeprom.c **** 
 308:Generated_Source\PSoC5/cy_em_eeprom.c ****             for(i = (seqNum - numRowReads); i <= seqNum; i++)
 309:Generated_Source\PSoC5/cy_em_eeprom.c ****             {
 310:Generated_Source\PSoC5/cy_em_eeprom.c ****                 startRowAddr = GetRowAddrBySeqNum(i, context);
 311:Generated_Source\PSoC5/cy_em_eeprom.c **** 
 312:Generated_Source\PSoC5/cy_em_eeprom.c ****                 if (0u != startRowAddr)
 313:Generated_Source\PSoC5/cy_em_eeprom.c ****                 {
 314:Generated_Source\PSoC5/cy_em_eeprom.c ****                     /* The following variables are introduced to increase code readability. */
 315:Generated_Source\PSoC5/cy_em_eeprom.c ****                     uint32 startAddr  = *(uint32 *)(startRowAddr + CY_EM_EEPROM_HEADER_ADDR_OFFSET)
 316:Generated_Source\PSoC5/cy_em_eeprom.c ****                     uint32 endAddr    = startAddr + (*(uint32 *)(startRowAddr + CY_EM_EEPROM_HEADER
ARM GAS  C:\Users\jens-\AppData\Local\Temp\cc4C0Tnp.s 			page 7


 317:Generated_Source\PSoC5/cy_em_eeprom.c **** 
 318:Generated_Source\PSoC5/cy_em_eeprom.c ****                     /* Check if the current row EEPROM header contains the data requested for read 
 319:Generated_Source\PSoC5/cy_em_eeprom.c ****                     if(0u != CY_EM_EEPROM_IS_ADDRESES_CROSSING(startAddr, endAddr, addr, addr + siz
 320:Generated_Source\PSoC5/cy_em_eeprom.c ****                     {
 321:Generated_Source\PSoC5/cy_em_eeprom.c ****                         uint32 srcOffset = (startAddr > addr) ? (0u) : (addr - startAddr);
 322:Generated_Source\PSoC5/cy_em_eeprom.c ****                         uint32 dstOffset = (startAddr > addr) ? (startAddr - addr): (0u);
 323:Generated_Source\PSoC5/cy_em_eeprom.c ****                         rdAddr = (startAddr > addr) ? (startAddr) : (addr);
 324:Generated_Source\PSoC5/cy_em_eeprom.c **** 
 325:Generated_Source\PSoC5/cy_em_eeprom.c ****                         srcOffset += CY_EM_EEPROM_HEADER_DATA_OFFSET;
 326:Generated_Source\PSoC5/cy_em_eeprom.c **** 
 327:Generated_Source\PSoC5/cy_em_eeprom.c ****                         /* Calculate the number of bytes to be read from the current row's EEPROM h
 328:Generated_Source\PSoC5/cy_em_eeprom.c ****                         numBytesToRead = ((endAddr < (addr + size)) ? endAddr : (addr + size)) - rd
 329:Generated_Source\PSoC5/cy_em_eeprom.c **** 
 330:Generated_Source\PSoC5/cy_em_eeprom.c ****                         /* Calculate the offset in the user buffer from which the data will be upda
 331:Generated_Source\PSoC5/cy_em_eeprom.c ****                         eeData = ((uint32)eepromData) + dstOffset;
 332:Generated_Source\PSoC5/cy_em_eeprom.c **** 
 333:Generated_Source\PSoC5/cy_em_eeprom.c ****                         /* Check a checksum of the EEPROM row and if it is bad, check a checksum in
 334:Generated_Source\PSoC5/cy_em_eeprom.c ****                         * corresponding row in redundant copy, otherwise return failure. Copy the d
 335:Generated_Source\PSoC5/cy_em_eeprom.c ****                         * from the recent EEPROM headers to the user buffer. This will overwrite th
 336:Generated_Source\PSoC5/cy_em_eeprom.c ****                         * data copied form EEPROM data locations as the data in EEPROM headers is n
 337:Generated_Source\PSoC5/cy_em_eeprom.c ****                         */
 338:Generated_Source\PSoC5/cy_em_eeprom.c ****                         if(0u != context->redundantCopy)
 339:Generated_Source\PSoC5/cy_em_eeprom.c ****                         {
 340:Generated_Source\PSoC5/cy_em_eeprom.c ****                             ret = CheckCrcAndCopy(startRowAddr, eeData, srcOffset, numBytesToRead, 
 341:Generated_Source\PSoC5/cy_em_eeprom.c **** 
 342:Generated_Source\PSoC5/cy_em_eeprom.c ****                             if(CY_EM_EEPROM_SUCCESS != ret)
 343:Generated_Source\PSoC5/cy_em_eeprom.c ****                             {
 344:Generated_Source\PSoC5/cy_em_eeprom.c ****                                 break;
 345:Generated_Source\PSoC5/cy_em_eeprom.c ****                             }
 346:Generated_Source\PSoC5/cy_em_eeprom.c ****                         }
 347:Generated_Source\PSoC5/cy_em_eeprom.c ****                         else
 348:Generated_Source\PSoC5/cy_em_eeprom.c ****                         {
 349:Generated_Source\PSoC5/cy_em_eeprom.c ****                             (void)memcpy((void *)(eeData), (void *)(startRowAddr + srcOffset), numB
 350:Generated_Source\PSoC5/cy_em_eeprom.c ****                         }
 351:Generated_Source\PSoC5/cy_em_eeprom.c ****                     }
 352:Generated_Source\PSoC5/cy_em_eeprom.c ****                 }
 353:Generated_Source\PSoC5/cy_em_eeprom.c ****             }
 354:Generated_Source\PSoC5/cy_em_eeprom.c ****         }
 355:Generated_Source\PSoC5/cy_em_eeprom.c ****     }
 356:Generated_Source\PSoC5/cy_em_eeprom.c **** 
 357:Generated_Source\PSoC5/cy_em_eeprom.c ****     return(ret);
 358:Generated_Source\PSoC5/cy_em_eeprom.c **** }
 359:Generated_Source\PSoC5/cy_em_eeprom.c **** 
 360:Generated_Source\PSoC5/cy_em_eeprom.c **** 
 361:Generated_Source\PSoC5/cy_em_eeprom.c **** /*******************************************************************************
 362:Generated_Source\PSoC5/cy_em_eeprom.c **** * Function Name: Cy_Em_EEPROM_Write
 363:Generated_Source\PSoC5/cy_em_eeprom.c **** ****************************************************************************//**
 364:Generated_Source\PSoC5/cy_em_eeprom.c **** *
 365:Generated_Source\PSoC5/cy_em_eeprom.c **** * This function takes the logical EEPROM address and converts it to the actual
 366:Generated_Source\PSoC5/cy_em_eeprom.c **** * physical address and writes data there. If wear leveling is implemented, the
 367:Generated_Source\PSoC5/cy_em_eeprom.c **** * writing process will use the wear leveling techniques. This is a blocking
 368:Generated_Source\PSoC5/cy_em_eeprom.c **** * function and it does not return until the write operation is completed. The
 369:Generated_Source\PSoC5/cy_em_eeprom.c **** * user firmware should not enter Hibernate mode until write is completed. The
 370:Generated_Source\PSoC5/cy_em_eeprom.c **** * write operation is allowed in Sleep and Deep-Sleep modes. During the flash
 371:Generated_Source\PSoC5/cy_em_eeprom.c **** * operation, the device should not be reset, including the XRES pin, a software
 372:Generated_Source\PSoC5/cy_em_eeprom.c **** * reset, and watchdog reset sources. Also, low-voltage detect circuits should
 373:Generated_Source\PSoC5/cy_em_eeprom.c **** * be configured to generate an interrupt instead of a reset. Otherwise, portions
ARM GAS  C:\Users\jens-\AppData\Local\Temp\cc4C0Tnp.s 			page 8


 374:Generated_Source\PSoC5/cy_em_eeprom.c **** * of flash may undergo unexpected changes.
 375:Generated_Source\PSoC5/cy_em_eeprom.c **** *
 376:Generated_Source\PSoC5/cy_em_eeprom.c **** * \param addr
 377:Generated_Source\PSoC5/cy_em_eeprom.c **** * The logical start address in EEPROM to start writing data from.
 378:Generated_Source\PSoC5/cy_em_eeprom.c **** *
 379:Generated_Source\PSoC5/cy_em_eeprom.c **** * \param eepromData
 380:Generated_Source\PSoC5/cy_em_eeprom.c **** * Data to write to EEPROM.
 381:Generated_Source\PSoC5/cy_em_eeprom.c **** *
 382:Generated_Source\PSoC5/cy_em_eeprom.c **** * \param size
 383:Generated_Source\PSoC5/cy_em_eeprom.c **** * The amount of data to write to EEPROM.
 384:Generated_Source\PSoC5/cy_em_eeprom.c **** *
 385:Generated_Source\PSoC5/cy_em_eeprom.c **** * \param context
 386:Generated_Source\PSoC5/cy_em_eeprom.c **** * The pointer to the EEPROM context structure \ref cy_stc_eeprom_context_t.
 387:Generated_Source\PSoC5/cy_em_eeprom.c **** *
 388:Generated_Source\PSoC5/cy_em_eeprom.c **** * \return
 389:Generated_Source\PSoC5/cy_em_eeprom.c **** * This function returns \ref cy_en_em_eeprom_status_t.
 390:Generated_Source\PSoC5/cy_em_eeprom.c **** *
 391:Generated_Source\PSoC5/cy_em_eeprom.c **** * \note
 392:Generated_Source\PSoC5/cy_em_eeprom.c **** * This function uses a buffer of the flash row size to perform write
 393:Generated_Source\PSoC5/cy_em_eeprom.c **** * operation. For the size of the row refer to the specific PSoC device
 394:Generated_Source\PSoC5/cy_em_eeprom.c **** * datasheet.
 395:Generated_Source\PSoC5/cy_em_eeprom.c **** *
 396:Generated_Source\PSoC5/cy_em_eeprom.c **** * \sideeffect
 397:Generated_Source\PSoC5/cy_em_eeprom.c **** * In case when blocking write option is used, if this function is called by
 398:Generated_Source\PSoC5/cy_em_eeprom.c **** * the CM4 the user code on CM0P and the user code on CM4 are blocked until erase
 399:Generated_Source\PSoC5/cy_em_eeprom.c **** * flash row operation is finished. If this function is called by the CM0P the
 400:Generated_Source\PSoC5/cy_em_eeprom.c **** * user code on CM4 is not blocked and the user code on CM0P is blocked until
 401:Generated_Source\PSoC5/cy_em_eeprom.c **** * erase flash row operation is finished. Plan your task allocation accordingly.
 402:Generated_Source\PSoC5/cy_em_eeprom.c **** *
 403:Generated_Source\PSoC5/cy_em_eeprom.c **** * \sideeffect
 404:Generated_Source\PSoC5/cy_em_eeprom.c **** * In case if non-blocking write option is used and when user flash is used as
 405:Generated_Source\PSoC5/cy_em_eeprom.c **** * an EEPROM storage care should be taken to prevent the read while write (RWW)
 406:Generated_Source\PSoC5/cy_em_eeprom.c **** * exception. To prevent the RWW exception the user flash macro that includes
 407:Generated_Source\PSoC5/cy_em_eeprom.c **** * the EEPROM storage should not be read while the EEPROM write is not completed.
 408:Generated_Source\PSoC5/cy_em_eeprom.c **** * The read also means the user code execution from the respective flash macro.
 409:Generated_Source\PSoC5/cy_em_eeprom.c **** *
 410:Generated_Source\PSoC5/cy_em_eeprom.c **** *******************************************************************************/
 411:Generated_Source\PSoC5/cy_em_eeprom.c **** cy_en_em_eeprom_status_t Cy_Em_EEPROM_Write(uint32 addr,
 412:Generated_Source\PSoC5/cy_em_eeprom.c ****                                             void * eepromData,
 413:Generated_Source\PSoC5/cy_em_eeprom.c ****                                             uint32 size,
 414:Generated_Source\PSoC5/cy_em_eeprom.c ****                                             cy_stc_eeprom_context_t * context)
 415:Generated_Source\PSoC5/cy_em_eeprom.c **** {
 416:Generated_Source\PSoC5/cy_em_eeprom.c ****     cy_en_em_eeprom_status_t ret = CY_EM_EEPROM_BAD_PARAM;
 417:Generated_Source\PSoC5/cy_em_eeprom.c ****     uint32 i;
 418:Generated_Source\PSoC5/cy_em_eeprom.c ****     uint32 wrCnt;
 419:Generated_Source\PSoC5/cy_em_eeprom.c ****     uint32 actEmEepromRowNum;
 420:Generated_Source\PSoC5/cy_em_eeprom.c ****     uint32 writeRamBuffer[CY_EM_EEPROM_FLASH_SIZEOF_ROW / CY_EM_EEPROM_U32_DIV];
 421:Generated_Source\PSoC5/cy_em_eeprom.c ****     uint32 startAddr = 0u;
 422:Generated_Source\PSoC5/cy_em_eeprom.c ****     uint32 endAddr = 0u;
 423:Generated_Source\PSoC5/cy_em_eeprom.c ****     uint32 tmpRowAddr;
 424:Generated_Source\PSoC5/cy_em_eeprom.c ****     uint32 emEepromRowAddr = context->lastWrRowAddr;
 425:Generated_Source\PSoC5/cy_em_eeprom.c ****     uint32 emEepromRowRdAddr;
 426:Generated_Source\PSoC5/cy_em_eeprom.c ****     void * tmpData;
 427:Generated_Source\PSoC5/cy_em_eeprom.c ****     uint32 eeData = (uint32) eepromData; /* To avoid the pointer arithmetic with void */
 428:Generated_Source\PSoC5/cy_em_eeprom.c **** 
 429:Generated_Source\PSoC5/cy_em_eeprom.c ****     /* Check if the EEPROM data does not exceed the EEPROM capacity */
 430:Generated_Source\PSoC5/cy_em_eeprom.c ****     if((0u != size) && ((addr + size) <= (context->eepromSize)) && (NULL != eepromData))
ARM GAS  C:\Users\jens-\AppData\Local\Temp\cc4C0Tnp.s 			page 9


 431:Generated_Source\PSoC5/cy_em_eeprom.c ****     {
 432:Generated_Source\PSoC5/cy_em_eeprom.c ****         uint32 numWrites = ((size - 1u) / CY_EM_EEPROM_HEADER_DATA_LEN) + 1u;
 433:Generated_Source\PSoC5/cy_em_eeprom.c ****         uint32 eeHeaderDataOffset = 0u;
 434:Generated_Source\PSoC5/cy_em_eeprom.c **** 
 435:Generated_Source\PSoC5/cy_em_eeprom.c ****         for(wrCnt = 0u; wrCnt < numWrites; wrCnt++)
 436:Generated_Source\PSoC5/cy_em_eeprom.c ****         {
 437:Generated_Source\PSoC5/cy_em_eeprom.c ****             uint32 skipOperation = 0u;
 438:Generated_Source\PSoC5/cy_em_eeprom.c ****             /* Get the sequence number of the last written row */
 439:Generated_Source\PSoC5/cy_em_eeprom.c ****             uint32 seqNum = CY_EM_EEPROM_GET_SEQ_NUM(emEepromRowAddr);
 440:Generated_Source\PSoC5/cy_em_eeprom.c **** 
 441:Generated_Source\PSoC5/cy_em_eeprom.c ****             /* Get the address of the row to be written. The "emEepromRowAddr" may be
 442:Generated_Source\PSoC5/cy_em_eeprom.c ****             * updated with the proper address (if wear leveling is used). The
 443:Generated_Source\PSoC5/cy_em_eeprom.c ****             * "emEepromRowRdAddr" will point to the row address from which the historic
 444:Generated_Source\PSoC5/cy_em_eeprom.c ****             * data will be read into the RAM buffer.
 445:Generated_Source\PSoC5/cy_em_eeprom.c ****             */
 446:Generated_Source\PSoC5/cy_em_eeprom.c ****             GetNextRowToWrite(seqNum, &emEepromRowAddr, &emEepromRowRdAddr, context);
 447:Generated_Source\PSoC5/cy_em_eeprom.c **** 
 448:Generated_Source\PSoC5/cy_em_eeprom.c ****             /* Clear the RAM buffer so to not put junk into flash */
 449:Generated_Source\PSoC5/cy_em_eeprom.c ****             (void)memset(writeRamBuffer, 0, CY_EM_EEPROM_FLASH_SIZEOF_ROW);
 450:Generated_Source\PSoC5/cy_em_eeprom.c **** 
 451:Generated_Source\PSoC5/cy_em_eeprom.c ****             /* Fill the EM_EEPROM header info for the row in the RAM buffer */
 452:Generated_Source\PSoC5/cy_em_eeprom.c ****             seqNum++;
 453:Generated_Source\PSoC5/cy_em_eeprom.c ****             writeRamBuffer[CY_EM_EEPROM_HEADER_SEQ_NUM_OFFSET_U32] = seqNum;
 454:Generated_Source\PSoC5/cy_em_eeprom.c ****             writeRamBuffer[CY_EM_EEPROM_HEADER_ADDR_OFFSET_U32] = addr;
 455:Generated_Source\PSoC5/cy_em_eeprom.c ****             tmpData = (void *) eeData;
 456:Generated_Source\PSoC5/cy_em_eeprom.c **** 
 457:Generated_Source\PSoC5/cy_em_eeprom.c ****             /* Check if this is the last row to write */
 458:Generated_Source\PSoC5/cy_em_eeprom.c ****             if(wrCnt == (numWrites - 1u))
 459:Generated_Source\PSoC5/cy_em_eeprom.c ****             {
 460:Generated_Source\PSoC5/cy_em_eeprom.c ****                 /* Fill in the remaining size value to the EEPROM header. */
 461:Generated_Source\PSoC5/cy_em_eeprom.c ****                 writeRamBuffer[CY_EM_EEPROM_HEADER_LEN_OFFSET_U32] = size;
 462:Generated_Source\PSoC5/cy_em_eeprom.c ****             }
 463:Generated_Source\PSoC5/cy_em_eeprom.c ****             else
 464:Generated_Source\PSoC5/cy_em_eeprom.c ****             {
 465:Generated_Source\PSoC5/cy_em_eeprom.c ****                 /* This is not the last row to write in the current EEPROM write operation.
 466:Generated_Source\PSoC5/cy_em_eeprom.c ****                 * Write the maximum possible data size to the EEPROM header. Update the
 467:Generated_Source\PSoC5/cy_em_eeprom.c ****                 * size, eeData and addr respectively.
 468:Generated_Source\PSoC5/cy_em_eeprom.c ****                 */
 469:Generated_Source\PSoC5/cy_em_eeprom.c ****                 writeRamBuffer[CY_EM_EEPROM_HEADER_LEN_OFFSET_U32] = CY_EM_EEPROM_HEADER_DATA_LEN;
 470:Generated_Source\PSoC5/cy_em_eeprom.c ****                 size -= CY_EM_EEPROM_HEADER_DATA_LEN;
 471:Generated_Source\PSoC5/cy_em_eeprom.c ****                 addr += CY_EM_EEPROM_HEADER_DATA_LEN;
 472:Generated_Source\PSoC5/cy_em_eeprom.c ****                 eeData += CY_EM_EEPROM_HEADER_DATA_LEN;
 473:Generated_Source\PSoC5/cy_em_eeprom.c ****             }
 474:Generated_Source\PSoC5/cy_em_eeprom.c **** 
 475:Generated_Source\PSoC5/cy_em_eeprom.c ****             /* Write the data to the EEPROM header */
 476:Generated_Source\PSoC5/cy_em_eeprom.c ****             (void)memcpy((void *)&writeRamBuffer[CY_EM_EEPROM_HEADER_DATA_OFFSET_U32],
 477:Generated_Source\PSoC5/cy_em_eeprom.c ****                          tmpData,
 478:Generated_Source\PSoC5/cy_em_eeprom.c ****                          writeRamBuffer[CY_EM_EEPROM_HEADER_LEN_OFFSET_U32]);
 479:Generated_Source\PSoC5/cy_em_eeprom.c **** 
 480:Generated_Source\PSoC5/cy_em_eeprom.c ****             if(emEepromRowRdAddr != 0UL)
 481:Generated_Source\PSoC5/cy_em_eeprom.c ****             {
 482:Generated_Source\PSoC5/cy_em_eeprom.c ****                 /* Copy the EEPROM historic data for this row from flash to RAM */
 483:Generated_Source\PSoC5/cy_em_eeprom.c ****                 (void)memcpy((void *)&writeRamBuffer[CY_EM_EEPROM_EEPROM_DATA_OFFSET_U32],
 484:Generated_Source\PSoC5/cy_em_eeprom.c ****                              (void *)(emEepromRowRdAddr + CY_EM_EEPROM_EEPROM_DATA_LEN),
 485:Generated_Source\PSoC5/cy_em_eeprom.c ****                              CY_EM_EEPROM_EEPROM_DATA_LEN);
 486:Generated_Source\PSoC5/cy_em_eeprom.c ****             }
 487:Generated_Source\PSoC5/cy_em_eeprom.c **** 
ARM GAS  C:\Users\jens-\AppData\Local\Temp\cc4C0Tnp.s 			page 10


 488:Generated_Source\PSoC5/cy_em_eeprom.c ****             /* Check if there is data for this location in other EEPROM headers:
 489:Generated_Source\PSoC5/cy_em_eeprom.c ****             * find out the row with the lowest possible sequence number which
 490:Generated_Source\PSoC5/cy_em_eeprom.c ****             * may contain the data for the current row.
 491:Generated_Source\PSoC5/cy_em_eeprom.c ****             */
 492:Generated_Source\PSoC5/cy_em_eeprom.c ****             i = (seqNum > context->numberOfRows) ? ((seqNum - (context->numberOfRows)) + 1u) : 1u;
 493:Generated_Source\PSoC5/cy_em_eeprom.c **** 
 494:Generated_Source\PSoC5/cy_em_eeprom.c ****             for(; i <= seqNum; i++)
 495:Generated_Source\PSoC5/cy_em_eeprom.c ****             {
 496:Generated_Source\PSoC5/cy_em_eeprom.c ****                 if(i == seqNum)
 497:Generated_Source\PSoC5/cy_em_eeprom.c ****                 {
 498:Generated_Source\PSoC5/cy_em_eeprom.c ****                     /* The code reached the row that is about to be written. Analyze the recently
 499:Generated_Source\PSoC5/cy_em_eeprom.c ****                     * created EEPROM header (stored in the RAM buffer currently): if it contains
 500:Generated_Source\PSoC5/cy_em_eeprom.c ****                     * the data for EEPROM data locations in the row that is about to be written.
 501:Generated_Source\PSoC5/cy_em_eeprom.c ****                     */
 502:Generated_Source\PSoC5/cy_em_eeprom.c ****                     tmpRowAddr = (uint32) writeRamBuffer;
 503:Generated_Source\PSoC5/cy_em_eeprom.c ****                 }
 504:Generated_Source\PSoC5/cy_em_eeprom.c ****                 else
 505:Generated_Source\PSoC5/cy_em_eeprom.c ****                 {
 506:Generated_Source\PSoC5/cy_em_eeprom.c ****                     /* Retrieve the address of the previously written row by its sequence number.
 507:Generated_Source\PSoC5/cy_em_eeprom.c ****                     * The pointer will be used to get data from the respective EEPROM header.
 508:Generated_Source\PSoC5/cy_em_eeprom.c ****                     */
 509:Generated_Source\PSoC5/cy_em_eeprom.c ****                     tmpRowAddr = GetRowAddrBySeqNum(i, context);
 510:Generated_Source\PSoC5/cy_em_eeprom.c ****                 }
 511:Generated_Source\PSoC5/cy_em_eeprom.c **** 
 512:Generated_Source\PSoC5/cy_em_eeprom.c ****                 actEmEepromRowNum = CY_EM_EEPROM_GET_ACT_ROW_NUM_FROM_ADDR(emEepromRowAddr,
 513:Generated_Source\PSoC5/cy_em_eeprom.c ****                                                                            context->numberOfRows,
 514:Generated_Source\PSoC5/cy_em_eeprom.c ****                                                                            context->userFlashStartA
 515:Generated_Source\PSoC5/cy_em_eeprom.c ****                 if(0UL != tmpRowAddr)
 516:Generated_Source\PSoC5/cy_em_eeprom.c ****                 {
 517:Generated_Source\PSoC5/cy_em_eeprom.c ****                     /* Calculate the required addressed for the later EEPROM historic data update *
 518:Generated_Source\PSoC5/cy_em_eeprom.c ****                     skipOperation = GetAddresses(
 519:Generated_Source\PSoC5/cy_em_eeprom.c ****                                               &startAddr,
 520:Generated_Source\PSoC5/cy_em_eeprom.c ****                                               &endAddr,
 521:Generated_Source\PSoC5/cy_em_eeprom.c ****                                               &eeHeaderDataOffset,
 522:Generated_Source\PSoC5/cy_em_eeprom.c ****                                               actEmEepromRowNum,
 523:Generated_Source\PSoC5/cy_em_eeprom.c ****                                               *(uint32 *)(tmpRowAddr + CY_EM_EEPROM_HEADER_ADDR_OFF
 524:Generated_Source\PSoC5/cy_em_eeprom.c ****                                               *(uint32 *)(tmpRowAddr + CY_EM_EEPROM_HEADER_LEN_OFFS
 525:Generated_Source\PSoC5/cy_em_eeprom.c ****                 }
 526:Generated_Source\PSoC5/cy_em_eeprom.c ****                 else
 527:Generated_Source\PSoC5/cy_em_eeprom.c ****                 {
 528:Generated_Source\PSoC5/cy_em_eeprom.c ****                     /* Skip writes to the RAM buffer */
 529:Generated_Source\PSoC5/cy_em_eeprom.c ****                     skipOperation++;
 530:Generated_Source\PSoC5/cy_em_eeprom.c ****                 }
 531:Generated_Source\PSoC5/cy_em_eeprom.c **** 
 532:Generated_Source\PSoC5/cy_em_eeprom.c ****                 /* Write data to the RAM buffer */
 533:Generated_Source\PSoC5/cy_em_eeprom.c ****                 if(0u == skipOperation)
 534:Generated_Source\PSoC5/cy_em_eeprom.c ****                 {
 535:Generated_Source\PSoC5/cy_em_eeprom.c ****                     uint32 dataAddr = ((uint32)((uint8 *)&writeRamBuffer)) + startAddr;
 536:Generated_Source\PSoC5/cy_em_eeprom.c **** 
 537:Generated_Source\PSoC5/cy_em_eeprom.c ****                     /* Update the address to point to the EEPROM header data and not to
 538:Generated_Source\PSoC5/cy_em_eeprom.c ****                     * the start of the row.
 539:Generated_Source\PSoC5/cy_em_eeprom.c ****                     */
 540:Generated_Source\PSoC5/cy_em_eeprom.c ****                     tmpRowAddr = tmpRowAddr + CY_EM_EEPROM_HEADER_DATA_OFFSET + eeHeaderDataOffset;
 541:Generated_Source\PSoC5/cy_em_eeprom.c ****                     (void)memcpy((void *)(dataAddr), (void *)(tmpRowAddr), endAddr - startAddr);
 542:Generated_Source\PSoC5/cy_em_eeprom.c ****                 }
 543:Generated_Source\PSoC5/cy_em_eeprom.c **** 
 544:Generated_Source\PSoC5/cy_em_eeprom.c ****                 /* Calculate the checksum if redundant copy is enabled */
ARM GAS  C:\Users\jens-\AppData\Local\Temp\cc4C0Tnp.s 			page 11


 545:Generated_Source\PSoC5/cy_em_eeprom.c ****                 if(0u != context->redundantCopy)
 546:Generated_Source\PSoC5/cy_em_eeprom.c ****                 {
 547:Generated_Source\PSoC5/cy_em_eeprom.c ****                     writeRamBuffer[CY_EM_EEPROM_HEADER_CHECKSUM_OFFSET_U32] = (uint32)
 548:Generated_Source\PSoC5/cy_em_eeprom.c ****                         CalcChecksum((uint8 *) &writeRamBuffer[CY_EM_EEPROM_EEPROM_DATA_OFFSET_U32]
 549:Generated_Source\PSoC5/cy_em_eeprom.c ****                                                   CY_EM_EEPROM_EEPROM_DATA_LEN);
 550:Generated_Source\PSoC5/cy_em_eeprom.c ****                 }
 551:Generated_Source\PSoC5/cy_em_eeprom.c ****             }
 552:Generated_Source\PSoC5/cy_em_eeprom.c **** 
 553:Generated_Source\PSoC5/cy_em_eeprom.c ****             /* Write the data to the specified flash row */
 554:Generated_Source\PSoC5/cy_em_eeprom.c ****             ret = WriteRow(emEepromRowAddr, writeRamBuffer, context);
 555:Generated_Source\PSoC5/cy_em_eeprom.c ****             tmpRowAddr = emEepromRowAddr;
 556:Generated_Source\PSoC5/cy_em_eeprom.c **** 
 557:Generated_Source\PSoC5/cy_em_eeprom.c ****             /* Check if redundant copy is used */
 558:Generated_Source\PSoC5/cy_em_eeprom.c ****             if((0u != context->redundantCopy) && (CY_EM_EEPROM_SUCCESS == ret))
 559:Generated_Source\PSoC5/cy_em_eeprom.c ****             {
 560:Generated_Source\PSoC5/cy_em_eeprom.c ****                 /* Update the row address to point to the row in the redundant EEPROM's copy */
 561:Generated_Source\PSoC5/cy_em_eeprom.c ****                 tmpRowAddr = (emEepromRowAddr - context->userFlashStartAddr) + context->wlEndAddr;
 562:Generated_Source\PSoC5/cy_em_eeprom.c **** 
 563:Generated_Source\PSoC5/cy_em_eeprom.c ****                 /* Write the data to the specified flash row */
 564:Generated_Source\PSoC5/cy_em_eeprom.c ****                 ret = WriteRow(tmpRowAddr, writeRamBuffer, context);
 565:Generated_Source\PSoC5/cy_em_eeprom.c ****             }
 566:Generated_Source\PSoC5/cy_em_eeprom.c **** 
 567:Generated_Source\PSoC5/cy_em_eeprom.c ****             if(CY_EM_EEPROM_SUCCESS == ret)
 568:Generated_Source\PSoC5/cy_em_eeprom.c ****             {
 569:Generated_Source\PSoC5/cy_em_eeprom.c ****                 /* Store last written row address only when EEPROM and redundant
 570:Generated_Source\PSoC5/cy_em_eeprom.c ****                 * copy writes were successful.
 571:Generated_Source\PSoC5/cy_em_eeprom.c ****                 */
 572:Generated_Source\PSoC5/cy_em_eeprom.c ****                 context->lastWrRowAddr = emEepromRowAddr;
 573:Generated_Source\PSoC5/cy_em_eeprom.c ****             }
 574:Generated_Source\PSoC5/cy_em_eeprom.c ****             else
 575:Generated_Source\PSoC5/cy_em_eeprom.c ****             {
 576:Generated_Source\PSoC5/cy_em_eeprom.c ****                 break;
 577:Generated_Source\PSoC5/cy_em_eeprom.c ****             }
 578:Generated_Source\PSoC5/cy_em_eeprom.c ****         }
 579:Generated_Source\PSoC5/cy_em_eeprom.c ****     }
 580:Generated_Source\PSoC5/cy_em_eeprom.c ****     return(ret);
 581:Generated_Source\PSoC5/cy_em_eeprom.c **** }
 582:Generated_Source\PSoC5/cy_em_eeprom.c **** 
 583:Generated_Source\PSoC5/cy_em_eeprom.c **** 
 584:Generated_Source\PSoC5/cy_em_eeprom.c **** /*******************************************************************************
 585:Generated_Source\PSoC5/cy_em_eeprom.c **** * Function Name: Cy_Em_EEPROM_Erase
 586:Generated_Source\PSoC5/cy_em_eeprom.c **** ****************************************************************************//**
 587:Generated_Source\PSoC5/cy_em_eeprom.c **** *
 588:Generated_Source\PSoC5/cy_em_eeprom.c **** * This function erases the entire contents of the EEPROM. Erased values are all
 589:Generated_Source\PSoC5/cy_em_eeprom.c **** * zeros. This is a blocking function and it does not return until the write
 590:Generated_Source\PSoC5/cy_em_eeprom.c **** * operation is completed. The user firmware should not enter Hibernate mode until
 591:Generated_Source\PSoC5/cy_em_eeprom.c **** * erase is completed. The erase operation is allowed in Sleep and Deep-Sleep modes.
 592:Generated_Source\PSoC5/cy_em_eeprom.c **** * During the flash operation, the device should not be reset, including the
 593:Generated_Source\PSoC5/cy_em_eeprom.c **** * XRES pin, a software reset, and watchdog reset sources. Also, low-voltage
 594:Generated_Source\PSoC5/cy_em_eeprom.c **** * detect circuits should be configured to generate an interrupt instead of a
 595:Generated_Source\PSoC5/cy_em_eeprom.c **** * reset. Otherwise, portions of flash may undergo unexpected changes.
 596:Generated_Source\PSoC5/cy_em_eeprom.c **** *
 597:Generated_Source\PSoC5/cy_em_eeprom.c **** * \param context
 598:Generated_Source\PSoC5/cy_em_eeprom.c **** * The pointer to the EEPROM context structure \ref cy_stc_eeprom_context_t.
 599:Generated_Source\PSoC5/cy_em_eeprom.c **** *
 600:Generated_Source\PSoC5/cy_em_eeprom.c **** * \return
 601:Generated_Source\PSoC5/cy_em_eeprom.c **** * This function returns \ref cy_en_em_eeprom_status_t.
ARM GAS  C:\Users\jens-\AppData\Local\Temp\cc4C0Tnp.s 			page 12


 602:Generated_Source\PSoC5/cy_em_eeprom.c **** *
 603:Generated_Source\PSoC5/cy_em_eeprom.c **** * \note
 604:Generated_Source\PSoC5/cy_em_eeprom.c **** * For all non PSoC 6 devices the erase operation is performed by clearing
 605:Generated_Source\PSoC5/cy_em_eeprom.c **** * the EEPROM data using flash write. This affects the flash durability.
 606:Generated_Source\PSoC5/cy_em_eeprom.c **** * So it is recommended to use this function in utmost case to prolongate
 607:Generated_Source\PSoC5/cy_em_eeprom.c **** * flash life.
 608:Generated_Source\PSoC5/cy_em_eeprom.c **** *
 609:Generated_Source\PSoC5/cy_em_eeprom.c **** * \note
 610:Generated_Source\PSoC5/cy_em_eeprom.c **** * This function uses a buffer of the flash row size to perform erase
 611:Generated_Source\PSoC5/cy_em_eeprom.c **** * operation. For the size of the row refer to the specific PSoC device
 612:Generated_Source\PSoC5/cy_em_eeprom.c **** * datasheet.
 613:Generated_Source\PSoC5/cy_em_eeprom.c **** *
 614:Generated_Source\PSoC5/cy_em_eeprom.c **** * \sideeffect
 615:Generated_Source\PSoC5/cy_em_eeprom.c **** * In case when blocking write option is used, if this function is called by
 616:Generated_Source\PSoC5/cy_em_eeprom.c **** * the CM4 the user code on CM0P and the user code on CM4 are blocked until erase
 617:Generated_Source\PSoC5/cy_em_eeprom.c **** * flash row operation is finished. If this function is called by the CM0P the
 618:Generated_Source\PSoC5/cy_em_eeprom.c **** * user code on CM4 is not blocked and the user code on CM0P is blocked until
 619:Generated_Source\PSoC5/cy_em_eeprom.c **** * erase flash row operation is finished. Plan your task allocation accordingly.
 620:Generated_Source\PSoC5/cy_em_eeprom.c **** *
 621:Generated_Source\PSoC5/cy_em_eeprom.c **** * \sideeffect
 622:Generated_Source\PSoC5/cy_em_eeprom.c **** * In case if non-blocking write option is used and when user flash is used as
 623:Generated_Source\PSoC5/cy_em_eeprom.c **** * an EEPROM storage care should be taken to prevent the read while write (RWW)
 624:Generated_Source\PSoC5/cy_em_eeprom.c **** * exception. To prevent the RWW exception the user flash macro that includes
 625:Generated_Source\PSoC5/cy_em_eeprom.c **** * the EEPROM storage should not be read while the EEPROM erase is not completed.
 626:Generated_Source\PSoC5/cy_em_eeprom.c **** * The read also means the user code execution from the respective flash macro.
 627:Generated_Source\PSoC5/cy_em_eeprom.c **** *
 628:Generated_Source\PSoC5/cy_em_eeprom.c **** *******************************************************************************/
 629:Generated_Source\PSoC5/cy_em_eeprom.c **** cy_en_em_eeprom_status_t Cy_Em_EEPROM_Erase(cy_stc_eeprom_context_t * context)
 630:Generated_Source\PSoC5/cy_em_eeprom.c **** {
 631:Generated_Source\PSoC5/cy_em_eeprom.c ****     uint32 i;
 632:Generated_Source\PSoC5/cy_em_eeprom.c ****     uint32 seqNum;
 633:Generated_Source\PSoC5/cy_em_eeprom.c ****     uint32 emEepromRowAddr = context->lastWrRowAddr;
 634:Generated_Source\PSoC5/cy_em_eeprom.c ****     uint32 emEepromRowRdAddr;
 635:Generated_Source\PSoC5/cy_em_eeprom.c ****     cy_en_em_eeprom_status_t ret = CY_EM_EEPROM_WRITE_FAIL;
 636:Generated_Source\PSoC5/cy_em_eeprom.c ****     uint32 writeRamBuffer[CY_EM_EEPROM_FLASH_SIZEOF_ROW / CY_EM_EEPROM_U32_DIV] = {0u};
 637:Generated_Source\PSoC5/cy_em_eeprom.c **** #if (CY_PSOC6)
 638:Generated_Source\PSoC5/cy_em_eeprom.c ****     uint32 emEepromStoredRowAddr = context->lastWrRowAddr;
 639:Generated_Source\PSoC5/cy_em_eeprom.c ****     uint32 storedSeqNum;
 640:Generated_Source\PSoC5/cy_em_eeprom.c **** #endif /* (!CY_PSOC6) */
 641:Generated_Source\PSoC5/cy_em_eeprom.c **** 
 642:Generated_Source\PSoC5/cy_em_eeprom.c ****     /* Get the sequence number of the last written row */
 643:Generated_Source\PSoC5/cy_em_eeprom.c ****     seqNum = CY_EM_EEPROM_GET_SEQ_NUM(emEepromRowAddr);
 644:Generated_Source\PSoC5/cy_em_eeprom.c **** 
 645:Generated_Source\PSoC5/cy_em_eeprom.c ****     /* If there were no writes to EEPROM - nothing to erase */
 646:Generated_Source\PSoC5/cy_em_eeprom.c ****     if(0u != seqNum)
 647:Generated_Source\PSoC5/cy_em_eeprom.c ****     {
 648:Generated_Source\PSoC5/cy_em_eeprom.c ****         /* Calculate the number of row erase operations required */
 649:Generated_Source\PSoC5/cy_em_eeprom.c ****         uint32 numWrites = context->numberOfRows * context->wearLevelingFactor;
 650:Generated_Source\PSoC5/cy_em_eeprom.c **** 
 651:Generated_Source\PSoC5/cy_em_eeprom.c ****     #if (CY_PSOC6)
 652:Generated_Source\PSoC5/cy_em_eeprom.c ****         GetNextRowToWrite(seqNum, &emEepromStoredRowAddr, &emEepromRowRdAddr, context);
 653:Generated_Source\PSoC5/cy_em_eeprom.c ****         storedSeqNum = seqNum + 1u;
 654:Generated_Source\PSoC5/cy_em_eeprom.c ****     #endif /* (CY_PSOC6) */
 655:Generated_Source\PSoC5/cy_em_eeprom.c **** 
 656:Generated_Source\PSoC5/cy_em_eeprom.c ****         if(0u != context->redundantCopy)
 657:Generated_Source\PSoC5/cy_em_eeprom.c ****         {
 658:Generated_Source\PSoC5/cy_em_eeprom.c ****             writeRamBuffer[CY_EM_EEPROM_HEADER_CHECKSUM_OFFSET_U32] = (uint32)
ARM GAS  C:\Users\jens-\AppData\Local\Temp\cc4C0Tnp.s 			page 13


 659:Generated_Source\PSoC5/cy_em_eeprom.c ****                         CalcChecksum((uint8 *) &writeRamBuffer[CY_EM_EEPROM_EEPROM_DATA_OFFSET_U32]
 660:Generated_Source\PSoC5/cy_em_eeprom.c ****                                                   CY_EM_EEPROM_EEPROM_DATA_LEN);
 661:Generated_Source\PSoC5/cy_em_eeprom.c ****         }
 662:Generated_Source\PSoC5/cy_em_eeprom.c **** 
 663:Generated_Source\PSoC5/cy_em_eeprom.c ****         for(i = 0u; i < numWrites; i++)
 664:Generated_Source\PSoC5/cy_em_eeprom.c ****         {
 665:Generated_Source\PSoC5/cy_em_eeprom.c ****         #if (CY_PSOC6)
 666:Generated_Source\PSoC5/cy_em_eeprom.c ****             /* For PSoC 6 the erase operation moves backwards. From last written row
 667:Generated_Source\PSoC5/cy_em_eeprom.c ****             * identified by "seqNum" down to "seqNum" - "numWrites". If "emEepromRowAddr"
 668:Generated_Source\PSoC5/cy_em_eeprom.c ****             * is zero this means that the row identified by "seqNum" was previously 
 669:Generated_Source\PSoC5/cy_em_eeprom.c ****             * erased.
 670:Generated_Source\PSoC5/cy_em_eeprom.c ****             */
 671:Generated_Source\PSoC5/cy_em_eeprom.c ****             if(0u != emEepromRowAddr)
 672:Generated_Source\PSoC5/cy_em_eeprom.c ****             {
 673:Generated_Source\PSoC5/cy_em_eeprom.c ****                 ret = EraseRow(emEepromRowAddr, (uint32)writeRamBuffer, context);
 674:Generated_Source\PSoC5/cy_em_eeprom.c ****             }
 675:Generated_Source\PSoC5/cy_em_eeprom.c **** 
 676:Generated_Source\PSoC5/cy_em_eeprom.c ****             seqNum--;
 677:Generated_Source\PSoC5/cy_em_eeprom.c **** 
 678:Generated_Source\PSoC5/cy_em_eeprom.c ****             if(0u == seqNum)
 679:Generated_Source\PSoC5/cy_em_eeprom.c ****             {
 680:Generated_Source\PSoC5/cy_em_eeprom.c ****                 /* Exit the loop as there is no more row is EEPROM to be erased */
 681:Generated_Source\PSoC5/cy_em_eeprom.c ****                 break;
 682:Generated_Source\PSoC5/cy_em_eeprom.c ****             }
 683:Generated_Source\PSoC5/cy_em_eeprom.c ****             emEepromRowAddr = GetRowAddrBySeqNum(seqNum, context);
 684:Generated_Source\PSoC5/cy_em_eeprom.c ****         #else
 685:Generated_Source\PSoC5/cy_em_eeprom.c ****             seqNum = CY_EM_EEPROM_GET_SEQ_NUM(emEepromRowAddr);
 686:Generated_Source\PSoC5/cy_em_eeprom.c ****             /* Get the address of the row to be erased. "emEepromRowAddr" may be updated
 687:Generated_Source\PSoC5/cy_em_eeprom.c ****             * with the proper address (if wear leveling is used).
 688:Generated_Source\PSoC5/cy_em_eeprom.c ****             */
 689:Generated_Source\PSoC5/cy_em_eeprom.c ****             GetNextRowToWrite(seqNum, &emEepromRowAddr, &emEepromRowRdAddr, context);
 690:Generated_Source\PSoC5/cy_em_eeprom.c ****             seqNum++;
 691:Generated_Source\PSoC5/cy_em_eeprom.c ****             writeRamBuffer[0u] = seqNum;
 692:Generated_Source\PSoC5/cy_em_eeprom.c ****             ret = EraseRow(emEepromRowAddr, (uint32)writeRamBuffer, context);
 693:Generated_Source\PSoC5/cy_em_eeprom.c ****         #endif /* (CY_PSOC6) */
 694:Generated_Source\PSoC5/cy_em_eeprom.c ****         }
 695:Generated_Source\PSoC5/cy_em_eeprom.c **** 
 696:Generated_Source\PSoC5/cy_em_eeprom.c ****     #if (CY_PSOC6)
 697:Generated_Source\PSoC5/cy_em_eeprom.c ****         if(CY_EM_EEPROM_SUCCESS == ret)
 698:Generated_Source\PSoC5/cy_em_eeprom.c ****         {
 699:Generated_Source\PSoC5/cy_em_eeprom.c ****             writeRamBuffer[0u] = storedSeqNum;
 700:Generated_Source\PSoC5/cy_em_eeprom.c **** 
 701:Generated_Source\PSoC5/cy_em_eeprom.c ****             /* Write the previously stored sequence number to the flash row which would be
 702:Generated_Source\PSoC5/cy_em_eeprom.c ****             * written next if the erase wouldn't happen. In this case the write to
 703:Generated_Source\PSoC5/cy_em_eeprom.c ****             * redundant copy can be skipped as it does not add any value.
 704:Generated_Source\PSoC5/cy_em_eeprom.c ****             */
 705:Generated_Source\PSoC5/cy_em_eeprom.c ****             ret = WriteRow(emEepromStoredRowAddr, writeRamBuffer, context);
 706:Generated_Source\PSoC5/cy_em_eeprom.c **** 
 707:Generated_Source\PSoC5/cy_em_eeprom.c ****             if(CY_EM_EEPROM_SUCCESS == ret)
 708:Generated_Source\PSoC5/cy_em_eeprom.c ****             {
 709:Generated_Source\PSoC5/cy_em_eeprom.c ****                 context->lastWrRowAddr = emEepromStoredRowAddr;
 710:Generated_Source\PSoC5/cy_em_eeprom.c ****             }
 711:Generated_Source\PSoC5/cy_em_eeprom.c ****         }
 712:Generated_Source\PSoC5/cy_em_eeprom.c ****     #endif /* (CY_PSOC6) */
 713:Generated_Source\PSoC5/cy_em_eeprom.c **** 
 714:Generated_Source\PSoC5/cy_em_eeprom.c ****     }
 715:Generated_Source\PSoC5/cy_em_eeprom.c ****     return(ret);
ARM GAS  C:\Users\jens-\AppData\Local\Temp\cc4C0Tnp.s 			page 14


 716:Generated_Source\PSoC5/cy_em_eeprom.c **** }
 717:Generated_Source\PSoC5/cy_em_eeprom.c **** 
 718:Generated_Source\PSoC5/cy_em_eeprom.c **** 
 719:Generated_Source\PSoC5/cy_em_eeprom.c **** /*******************************************************************************
 720:Generated_Source\PSoC5/cy_em_eeprom.c **** * Function Name: Cy_Em_EEPROM_NumWrites
 721:Generated_Source\PSoC5/cy_em_eeprom.c **** ****************************************************************************//**
 722:Generated_Source\PSoC5/cy_em_eeprom.c **** *
 723:Generated_Source\PSoC5/cy_em_eeprom.c **** * Returns the number of the EEPROM writes completed so far.
 724:Generated_Source\PSoC5/cy_em_eeprom.c **** *
 725:Generated_Source\PSoC5/cy_em_eeprom.c **** * \param context
 726:Generated_Source\PSoC5/cy_em_eeprom.c **** * The pointer to the EEPROM context structure \ref cy_stc_eeprom_context_t.
 727:Generated_Source\PSoC5/cy_em_eeprom.c **** *
 728:Generated_Source\PSoC5/cy_em_eeprom.c **** * \return
 729:Generated_Source\PSoC5/cy_em_eeprom.c **** * The number of writes performed to the EEPROM.
 730:Generated_Source\PSoC5/cy_em_eeprom.c **** *
 731:Generated_Source\PSoC5/cy_em_eeprom.c **** *******************************************************************************/
 732:Generated_Source\PSoC5/cy_em_eeprom.c **** uint32 Cy_Em_EEPROM_NumWrites(cy_stc_eeprom_context_t * context)
 733:Generated_Source\PSoC5/cy_em_eeprom.c **** {
 734:Generated_Source\PSoC5/cy_em_eeprom.c ****     return(CY_EM_EEPROM_GET_SEQ_NUM(context->lastWrRowAddr));
 735:Generated_Source\PSoC5/cy_em_eeprom.c **** }
 736:Generated_Source\PSoC5/cy_em_eeprom.c **** 
 737:Generated_Source\PSoC5/cy_em_eeprom.c **** /** \} */
 738:Generated_Source\PSoC5/cy_em_eeprom.c **** 
 739:Generated_Source\PSoC5/cy_em_eeprom.c **** /** \cond INTERNAL */
 740:Generated_Source\PSoC5/cy_em_eeprom.c **** 
 741:Generated_Source\PSoC5/cy_em_eeprom.c **** 
 742:Generated_Source\PSoC5/cy_em_eeprom.c **** /*******************************************************************************
 743:Generated_Source\PSoC5/cy_em_eeprom.c **** * Function Name: FindLastWrittenRow
 744:Generated_Source\PSoC5/cy_em_eeprom.c **** ****************************************************************************//**
 745:Generated_Source\PSoC5/cy_em_eeprom.c **** *
 746:Generated_Source\PSoC5/cy_em_eeprom.c **** * Performs a search of the last written row address of the EEPROM associated
 747:Generated_Source\PSoC5/cy_em_eeprom.c **** * with the context structure. If there were no writes to the EEPROM the
 748:Generated_Source\PSoC5/cy_em_eeprom.c **** * function returns the start address of the EEPROM. The row address is returned
 749:Generated_Source\PSoC5/cy_em_eeprom.c **** * in the input parameter.
 750:Generated_Source\PSoC5/cy_em_eeprom.c **** *
 751:Generated_Source\PSoC5/cy_em_eeprom.c **** * \param lastWrRowPtr
 752:Generated_Source\PSoC5/cy_em_eeprom.c **** * The pointer to a memory where the last written row will be returned.
 753:Generated_Source\PSoC5/cy_em_eeprom.c **** *
 754:Generated_Source\PSoC5/cy_em_eeprom.c **** * \param context
 755:Generated_Source\PSoC5/cy_em_eeprom.c **** * The pointer to the EEPROM context structure \ref cy_stc_eeprom_context_t.
 756:Generated_Source\PSoC5/cy_em_eeprom.c **** *
 757:Generated_Source\PSoC5/cy_em_eeprom.c **** *******************************************************************************/
 758:Generated_Source\PSoC5/cy_em_eeprom.c **** static void FindLastWrittenRow(uint32 * lastWrRowPtr, cy_stc_eeprom_context_t * context)
 759:Generated_Source\PSoC5/cy_em_eeprom.c **** {
  27              		.loc 1 759 1 view -0
  28              		.cfi_startproc
  29              		@ args = 0, pretend = 0, frame = 0
  30              		@ frame_needed = 0, uses_anonymous_args = 0
  31              		@ link register save eliminated.
  32              		.loc 1 759 1 is_stmt 0 view .LVU1
  33 0000 70B4     		push	{r4, r5, r6}
  34              		.cfi_def_cfa_offset 12
  35              		.cfi_offset 4, -12
  36              		.cfi_offset 5, -8
  37              		.cfi_offset 6, -4
 760:Generated_Source\PSoC5/cy_em_eeprom.c ****     uint32 seqNum = 0u;
  38              		.loc 1 760 5 is_stmt 1 view .LVU2
ARM GAS  C:\Users\jens-\AppData\Local\Temp\cc4C0Tnp.s 			page 15


  39              	.LVL1:
 761:Generated_Source\PSoC5/cy_em_eeprom.c ****     uint32 prevSeqNum = 0u;
  40              		.loc 1 761 5 view .LVU3
 762:Generated_Source\PSoC5/cy_em_eeprom.c ****     uint32 numRows;
  41              		.loc 1 762 5 view .LVU4
 763:Generated_Source\PSoC5/cy_em_eeprom.c ****     uint32 emEepromAddr = context->userFlashStartAddr;
  42              		.loc 1 763 5 view .LVU5
  43              		.loc 1 763 12 is_stmt 0 view .LVU6
  44 0002 8A69     		ldr	r2, [r1, #24]
  45              	.LVL2:
 764:Generated_Source\PSoC5/cy_em_eeprom.c **** 
 765:Generated_Source\PSoC5/cy_em_eeprom.c ****     *lastWrRowPtr = emEepromAddr;
  46              		.loc 1 765 5 is_stmt 1 view .LVU7
  47              		.loc 1 765 19 is_stmt 0 view .LVU8
  48 0004 0260     		str	r2, [r0]
 766:Generated_Source\PSoC5/cy_em_eeprom.c **** 
 767:Generated_Source\PSoC5/cy_em_eeprom.c ****     for(numRows = 0u; numRows < (context->numberOfRows * context->wearLevelingFactor); numRows++)
  49              		.loc 1 767 5 is_stmt 1 view .LVU9
  50              	.LVL3:
  51              		.loc 1 767 17 is_stmt 0 view .LVU10
  52 0006 0024     		movs	r4, #0
 761:Generated_Source\PSoC5/cy_em_eeprom.c ****     uint32 numRows;
  53              		.loc 1 761 12 view .LVU11
  54 0008 2646     		mov	r6, r4
  55              		.loc 1 767 5 view .LVU12
  56 000a 02E0     		b	.L2
  57              	.LVL4:
  58              	.L3:
 768:Generated_Source\PSoC5/cy_em_eeprom.c ****     {
 769:Generated_Source\PSoC5/cy_em_eeprom.c ****         seqNum = CY_EM_EEPROM_GET_SEQ_NUM(emEepromAddr);
 770:Generated_Source\PSoC5/cy_em_eeprom.c ****         if((0u != seqNum) && (seqNum > prevSeqNum))
 771:Generated_Source\PSoC5/cy_em_eeprom.c ****         {
 772:Generated_Source\PSoC5/cy_em_eeprom.c ****             /* Some record in EEPROM was found. Store found sequence
 773:Generated_Source\PSoC5/cy_em_eeprom.c ****             * number and row address.
 774:Generated_Source\PSoC5/cy_em_eeprom.c ****             */
 775:Generated_Source\PSoC5/cy_em_eeprom.c ****             prevSeqNum = seqNum;
 776:Generated_Source\PSoC5/cy_em_eeprom.c ****             *lastWrRowPtr = emEepromAddr;
 777:Generated_Source\PSoC5/cy_em_eeprom.c ****         }
 778:Generated_Source\PSoC5/cy_em_eeprom.c **** 
 779:Generated_Source\PSoC5/cy_em_eeprom.c ****         /* Switch to the next row */
 780:Generated_Source\PSoC5/cy_em_eeprom.c ****         emEepromAddr = emEepromAddr + CY_EM_EEPROM_FLASH_SIZEOF_ROW;
  59              		.loc 1 780 9 is_stmt 1 discriminator 2 view .LVU13
  60              		.loc 1 780 22 is_stmt 0 discriminator 2 view .LVU14
  61 000c 02F58072 		add	r2, r2, #256
  62              	.LVL5:
 767:Generated_Source\PSoC5/cy_em_eeprom.c ****     {
  63              		.loc 1 767 88 is_stmt 1 discriminator 2 view .LVU15
 767:Generated_Source\PSoC5/cy_em_eeprom.c ****     {
  64              		.loc 1 767 95 is_stmt 0 discriminator 2 view .LVU16
  65 0010 0134     		adds	r4, r4, #1
  66              	.LVL6:
  67              	.L2:
 767:Generated_Source\PSoC5/cy_em_eeprom.c ****     {
  68              		.loc 1 767 23 is_stmt 1 discriminator 1 view .LVU17
 767:Generated_Source\PSoC5/cy_em_eeprom.c ****     {
  69              		.loc 1 767 41 is_stmt 0 discriminator 1 view .LVU18
  70 0012 4D68     		ldr	r5, [r1, #4]
ARM GAS  C:\Users\jens-\AppData\Local\Temp\cc4C0Tnp.s 			page 16


 767:Generated_Source\PSoC5/cy_em_eeprom.c ****     {
  71              		.loc 1 767 65 discriminator 1 view .LVU19
  72 0014 0B69     		ldr	r3, [r1, #16]
 767:Generated_Source\PSoC5/cy_em_eeprom.c ****     {
  73              		.loc 1 767 56 discriminator 1 view .LVU20
  74 0016 03FB05F3 		mul	r3, r3, r5
 767:Generated_Source\PSoC5/cy_em_eeprom.c ****     {
  75              		.loc 1 767 5 discriminator 1 view .LVU21
  76 001a A342     		cmp	r3, r4
  77 001c 07D9     		bls	.L6
 769:Generated_Source\PSoC5/cy_em_eeprom.c ****         if((0u != seqNum) && (seqNum > prevSeqNum))
  78              		.loc 1 769 9 is_stmt 1 view .LVU22
 769:Generated_Source\PSoC5/cy_em_eeprom.c ****         if((0u != seqNum) && (seqNum > prevSeqNum))
  79              		.loc 1 769 16 is_stmt 0 view .LVU23
  80 001e 1368     		ldr	r3, [r2]
  81              	.LVL7:
 770:Generated_Source\PSoC5/cy_em_eeprom.c ****         {
  82              		.loc 1 770 9 is_stmt 1 view .LVU24
 770:Generated_Source\PSoC5/cy_em_eeprom.c ****         {
  83              		.loc 1 770 11 is_stmt 0 view .LVU25
  84 0020 002B     		cmp	r3, #0
  85 0022 F3D0     		beq	.L3
 770:Generated_Source\PSoC5/cy_em_eeprom.c ****         {
  86              		.loc 1 770 27 discriminator 1 view .LVU26
  87 0024 9E42     		cmp	r6, r3
  88 0026 F1D2     		bcs	.L3
 775:Generated_Source\PSoC5/cy_em_eeprom.c ****             *lastWrRowPtr = emEepromAddr;
  89              		.loc 1 775 13 is_stmt 1 view .LVU27
  90              	.LVL8:
 776:Generated_Source\PSoC5/cy_em_eeprom.c ****         }
  91              		.loc 1 776 13 view .LVU28
 776:Generated_Source\PSoC5/cy_em_eeprom.c ****         }
  92              		.loc 1 776 27 is_stmt 0 view .LVU29
  93 0028 0260     		str	r2, [r0]
 775:Generated_Source\PSoC5/cy_em_eeprom.c ****             *lastWrRowPtr = emEepromAddr;
  94              		.loc 1 775 24 view .LVU30
  95 002a 1E46     		mov	r6, r3
  96 002c EEE7     		b	.L3
  97              	.LVL9:
  98              	.L6:
 781:Generated_Source\PSoC5/cy_em_eeprom.c ****     }
 782:Generated_Source\PSoC5/cy_em_eeprom.c **** }
  99              		.loc 1 782 1 view .LVU31
 100 002e 70BC     		pop	{r4, r5, r6}
 101              		.cfi_restore 6
 102              		.cfi_restore 5
 103              		.cfi_restore 4
 104              		.cfi_def_cfa_offset 0
 105              	.LVL10:
 106              		.loc 1 782 1 view .LVU32
 107 0030 7047     		bx	lr
 108              		.cfi_endproc
 109              	.LFE5:
 110              		.size	FindLastWrittenRow, .-FindLastWrittenRow
 111              		.section	.text.GetRowAddrBySeqNum,"ax",%progbits
 112              		.align	1
 113              		.syntax unified
ARM GAS  C:\Users\jens-\AppData\Local\Temp\cc4C0Tnp.s 			page 17


 114              		.thumb
 115              		.thumb_func
 116              		.fpu softvfp
 117              		.type	GetRowAddrBySeqNum, %function
 118              	GetRowAddrBySeqNum:
 119              	.LVL11:
 120              	.LFB6:
 783:Generated_Source\PSoC5/cy_em_eeprom.c **** 
 784:Generated_Source\PSoC5/cy_em_eeprom.c **** 
 785:Generated_Source\PSoC5/cy_em_eeprom.c **** /*******************************************************************************
 786:Generated_Source\PSoC5/cy_em_eeprom.c **** * Function Name: GetRowAddrBySeqNum
 787:Generated_Source\PSoC5/cy_em_eeprom.c **** ****************************************************************************//**
 788:Generated_Source\PSoC5/cy_em_eeprom.c **** *
 789:Generated_Source\PSoC5/cy_em_eeprom.c **** * Returns the address of the row in EEPROM using its sequence number.
 790:Generated_Source\PSoC5/cy_em_eeprom.c **** *
 791:Generated_Source\PSoC5/cy_em_eeprom.c **** * \param seqNum
 792:Generated_Source\PSoC5/cy_em_eeprom.c **** * The sequence number of the row.
 793:Generated_Source\PSoC5/cy_em_eeprom.c **** *
 794:Generated_Source\PSoC5/cy_em_eeprom.c **** * \param context
 795:Generated_Source\PSoC5/cy_em_eeprom.c **** * The pointer to the EEPROM context structure.
 796:Generated_Source\PSoC5/cy_em_eeprom.c **** *
 797:Generated_Source\PSoC5/cy_em_eeprom.c **** * \return
 798:Generated_Source\PSoC5/cy_em_eeprom.c **** * The address of the row or zero if the row with the sequence number was not
 799:Generated_Source\PSoC5/cy_em_eeprom.c **** * found.
 800:Generated_Source\PSoC5/cy_em_eeprom.c **** *
 801:Generated_Source\PSoC5/cy_em_eeprom.c **** *******************************************************************************/
 802:Generated_Source\PSoC5/cy_em_eeprom.c **** static uint32 GetRowAddrBySeqNum(uint32 seqNum, cy_stc_eeprom_context_t * context)
 803:Generated_Source\PSoC5/cy_em_eeprom.c **** {
 121              		.loc 1 803 1 is_stmt 1 view -0
 122              		.cfi_startproc
 123              		@ args = 0, pretend = 0, frame = 0
 124              		@ frame_needed = 0, uses_anonymous_args = 0
 125              		@ link register save eliminated.
 126              		.loc 1 803 1 is_stmt 0 view .LVU34
 127 0000 0246     		mov	r2, r0
 804:Generated_Source\PSoC5/cy_em_eeprom.c ****     uint32 emEepromAddr = context->userFlashStartAddr;
 128              		.loc 1 804 5 is_stmt 1 view .LVU35
 129              		.loc 1 804 12 is_stmt 0 view .LVU36
 130 0002 8869     		ldr	r0, [r1, #24]
 131              	.LVL12:
 805:Generated_Source\PSoC5/cy_em_eeprom.c **** 
 806:Generated_Source\PSoC5/cy_em_eeprom.c ****     while(CY_EM_EEPROM_GET_SEQ_NUM(emEepromAddr) != seqNum)
 132              		.loc 1 806 5 is_stmt 1 view .LVU37
 133              	.L8:
 134              		.loc 1 806 10 view .LVU38
 135              		.loc 1 806 11 is_stmt 0 view .LVU39
 136 0004 0368     		ldr	r3, [r0]
 137              		.loc 1 806 10 view .LVU40
 138 0006 9342     		cmp	r3, r2
 139 0008 06D0     		beq	.L12
 807:Generated_Source\PSoC5/cy_em_eeprom.c ****     {
 808:Generated_Source\PSoC5/cy_em_eeprom.c ****         /* Switch to the next row */
 809:Generated_Source\PSoC5/cy_em_eeprom.c ****         emEepromAddr = emEepromAddr + CY_EM_EEPROM_FLASH_SIZEOF_ROW;
 140              		.loc 1 809 9 is_stmt 1 view .LVU41
 141              		.loc 1 809 22 is_stmt 0 view .LVU42
 142 000a 00F58070 		add	r0, r0, #256
 143              	.LVL13:
ARM GAS  C:\Users\jens-\AppData\Local\Temp\cc4C0Tnp.s 			page 18


 810:Generated_Source\PSoC5/cy_em_eeprom.c **** 
 811:Generated_Source\PSoC5/cy_em_eeprom.c ****         if (CY_EM_EEPROM_ADDR_IN_RANGE !=
 144              		.loc 1 811 9 is_stmt 1 view .LVU43
 812:Generated_Source\PSoC5/cy_em_eeprom.c ****             CY_EM_EEPROM_IS_ADDR_EXCEED_RANGE(emEepromAddr, context->wlEndAddr))
 145              		.loc 1 812 13 is_stmt 0 view .LVU44
 146 000e 0B68     		ldr	r3, [r1]
 811:Generated_Source\PSoC5/cy_em_eeprom.c ****             CY_EM_EEPROM_IS_ADDR_EXCEED_RANGE(emEepromAddr, context->wlEndAddr))
 147              		.loc 1 811 12 view .LVU45
 148 0010 8342     		cmp	r3, r0
 149 0012 F7D8     		bhi	.L8
 813:Generated_Source\PSoC5/cy_em_eeprom.c ****         {
 814:Generated_Source\PSoC5/cy_em_eeprom.c ****             emEepromAddr = 0u;
 150              		.loc 1 814 26 view .LVU46
 151 0014 0020     		movs	r0, #0
 152              	.LVL14:
 815:Generated_Source\PSoC5/cy_em_eeprom.c ****             /* Exit the loop as we reached the end of EEPROM */
 816:Generated_Source\PSoC5/cy_em_eeprom.c ****             break;
 817:Generated_Source\PSoC5/cy_em_eeprom.c ****         }
 818:Generated_Source\PSoC5/cy_em_eeprom.c ****     }
 819:Generated_Source\PSoC5/cy_em_eeprom.c **** 
 820:Generated_Source\PSoC5/cy_em_eeprom.c ****     return (emEepromAddr);
 153              		.loc 1 820 5 is_stmt 1 view .LVU47
 821:Generated_Source\PSoC5/cy_em_eeprom.c **** }
 154              		.loc 1 821 1 is_stmt 0 view .LVU48
 155 0016 7047     		bx	lr
 156              	.LVL15:
 157              	.L12:
 158              		.loc 1 821 1 view .LVU49
 159 0018 7047     		bx	lr
 160              		.cfi_endproc
 161              	.LFE6:
 162              		.size	GetRowAddrBySeqNum, .-GetRowAddrBySeqNum
 163              		.section	.text.GetNextRowToWrite,"ax",%progbits
 164              		.align	1
 165              		.syntax unified
 166              		.thumb
 167              		.thumb_func
 168              		.fpu softvfp
 169              		.type	GetNextRowToWrite, %function
 170              	GetNextRowToWrite:
 171              	.LVL16:
 172              	.LFB7:
 822:Generated_Source\PSoC5/cy_em_eeprom.c **** 
 823:Generated_Source\PSoC5/cy_em_eeprom.c **** 
 824:Generated_Source\PSoC5/cy_em_eeprom.c **** /*******************************************************************************
 825:Generated_Source\PSoC5/cy_em_eeprom.c **** * Function Name: GetNextRowToWrite
 826:Generated_Source\PSoC5/cy_em_eeprom.c **** ****************************************************************************//**
 827:Generated_Source\PSoC5/cy_em_eeprom.c **** *
 828:Generated_Source\PSoC5/cy_em_eeprom.c **** * Performs a range check of the row that should be written and updates the
 829:Generated_Source\PSoC5/cy_em_eeprom.c **** * address to the row respectively. The similar actions are done for the read
 830:Generated_Source\PSoC5/cy_em_eeprom.c **** * address.
 831:Generated_Source\PSoC5/cy_em_eeprom.c **** *
 832:Generated_Source\PSoC5/cy_em_eeprom.c **** * \param seqNum
 833:Generated_Source\PSoC5/cy_em_eeprom.c **** * The sequence number of the last written row.
 834:Generated_Source\PSoC5/cy_em_eeprom.c **** *
 835:Generated_Source\PSoC5/cy_em_eeprom.c **** * \param rowToWrPtr
 836:Generated_Source\PSoC5/cy_em_eeprom.c **** * The address of the last written row (input). The address of the row to be 
ARM GAS  C:\Users\jens-\AppData\Local\Temp\cc4C0Tnp.s 			page 19


 837:Generated_Source\PSoC5/cy_em_eeprom.c **** * written (output).
 838:Generated_Source\PSoC5/cy_em_eeprom.c **** *
 839:Generated_Source\PSoC5/cy_em_eeprom.c **** * \param rowToRdPtr
 840:Generated_Source\PSoC5/cy_em_eeprom.c **** * The address of the row from which the data should be read into the RAM buffer
 841:Generated_Source\PSoC5/cy_em_eeprom.c **** * in a later write operation. Out parameter.
 842:Generated_Source\PSoC5/cy_em_eeprom.c **** *
 843:Generated_Source\PSoC5/cy_em_eeprom.c **** * \param context
 844:Generated_Source\PSoC5/cy_em_eeprom.c **** * The pointer to the EEPROM context structure \ref cy_stc_eeprom_context_t.
 845:Generated_Source\PSoC5/cy_em_eeprom.c **** *
 846:Generated_Source\PSoC5/cy_em_eeprom.c **** *******************************************************************************/
 847:Generated_Source\PSoC5/cy_em_eeprom.c **** static void GetNextRowToWrite(uint32 seqNum,
 848:Generated_Source\PSoC5/cy_em_eeprom.c ****                             uint32 * rowToWrPtr,
 849:Generated_Source\PSoC5/cy_em_eeprom.c ****                             uint32 * rowToRdPtr,
 850:Generated_Source\PSoC5/cy_em_eeprom.c ****                             cy_stc_eeprom_context_t * context)
 851:Generated_Source\PSoC5/cy_em_eeprom.c **** {
 173              		.loc 1 851 1 is_stmt 1 view -0
 174              		.cfi_startproc
 175              		@ args = 0, pretend = 0, frame = 0
 176              		@ frame_needed = 0, uses_anonymous_args = 0
 177              		@ link register save eliminated.
 178              		.loc 1 851 1 is_stmt 0 view .LVU51
 179 0000 30B4     		push	{r4, r5}
 180              		.cfi_def_cfa_offset 8
 181              		.cfi_offset 4, -8
 182              		.cfi_offset 5, -4
 852:Generated_Source\PSoC5/cy_em_eeprom.c ****     /* Switch to the next row to be written if the current sequence number is
 853:Generated_Source\PSoC5/cy_em_eeprom.c ****     * not zero.
 854:Generated_Source\PSoC5/cy_em_eeprom.c ****     */
 855:Generated_Source\PSoC5/cy_em_eeprom.c ****     if(0u != seqNum)
 183              		.loc 1 855 5 is_stmt 1 view .LVU52
 184              		.loc 1 855 7 is_stmt 0 view .LVU53
 185 0002 0446     		mov	r4, r0
 186 0004 18B1     		cbz	r0, .L14
 856:Generated_Source\PSoC5/cy_em_eeprom.c ****     {
 857:Generated_Source\PSoC5/cy_em_eeprom.c ****         *rowToWrPtr = (*rowToWrPtr + CY_EM_EEPROM_FLASH_SIZEOF_ROW);
 187              		.loc 1 857 9 is_stmt 1 view .LVU54
 188              		.loc 1 857 24 is_stmt 0 view .LVU55
 189 0006 0868     		ldr	r0, [r1]
 190              	.LVL17:
 191              		.loc 1 857 36 view .LVU56
 192 0008 00F58070 		add	r0, r0, #256
 193              		.loc 1 857 21 view .LVU57
 194 000c 0860     		str	r0, [r1]
 195              	.L14:
 858:Generated_Source\PSoC5/cy_em_eeprom.c ****     }
 859:Generated_Source\PSoC5/cy_em_eeprom.c **** 
 860:Generated_Source\PSoC5/cy_em_eeprom.c ****     /* If the resulting row address is out of EEPROM, then switch to the base
 861:Generated_Source\PSoC5/cy_em_eeprom.c ****     * EEPROM address (Row#0).
 862:Generated_Source\PSoC5/cy_em_eeprom.c ****     */
 863:Generated_Source\PSoC5/cy_em_eeprom.c ****     if(CY_EM_EEPROM_ADDR_IN_RANGE !=
 196              		.loc 1 863 5 is_stmt 1 view .LVU58
 864:Generated_Source\PSoC5/cy_em_eeprom.c ****             CY_EM_EEPROM_IS_ADDR_EXCEED_RANGE(*rowToWrPtr, context->wlEndAddr))
 197              		.loc 1 864 13 is_stmt 0 view .LVU59
 198 000e 0D68     		ldr	r5, [r1]
 199 0010 1868     		ldr	r0, [r3]
 863:Generated_Source\PSoC5/cy_em_eeprom.c ****             CY_EM_EEPROM_IS_ADDR_EXCEED_RANGE(*rowToWrPtr, context->wlEndAddr))
 200              		.loc 1 863 7 view .LVU60
ARM GAS  C:\Users\jens-\AppData\Local\Temp\cc4C0Tnp.s 			page 20


 201 0012 8542     		cmp	r5, r0
 202 0014 01D3     		bcc	.L15
 865:Generated_Source\PSoC5/cy_em_eeprom.c ****     {
 866:Generated_Source\PSoC5/cy_em_eeprom.c ****         *rowToWrPtr = context->userFlashStartAddr;
 203              		.loc 1 866 9 is_stmt 1 view .LVU61
 204              		.loc 1 866 30 is_stmt 0 view .LVU62
 205 0016 9869     		ldr	r0, [r3, #24]
 206              		.loc 1 866 21 view .LVU63
 207 0018 0860     		str	r0, [r1]
 208              	.L15:
 867:Generated_Source\PSoC5/cy_em_eeprom.c ****     }
 868:Generated_Source\PSoC5/cy_em_eeprom.c **** 
 869:Generated_Source\PSoC5/cy_em_eeprom.c ****     *rowToRdPtr = 0u;
 209              		.loc 1 869 5 is_stmt 1 view .LVU64
 210              		.loc 1 869 17 is_stmt 0 view .LVU65
 211 001a 0020     		movs	r0, #0
 212 001c 1060     		str	r0, [r2]
 870:Generated_Source\PSoC5/cy_em_eeprom.c **** 
 871:Generated_Source\PSoC5/cy_em_eeprom.c ****     /* Check if the sequence number is larger than the number of rows in the EEPROM.
 872:Generated_Source\PSoC5/cy_em_eeprom.c ****     * If not, do not update the row read address because there is no historic
 873:Generated_Source\PSoC5/cy_em_eeprom.c ****     * data to be read.
 874:Generated_Source\PSoC5/cy_em_eeprom.c ****     */
 875:Generated_Source\PSoC5/cy_em_eeprom.c ****     if(context->numberOfRows <= seqNum)
 213              		.loc 1 875 5 is_stmt 1 view .LVU66
 214              		.loc 1 875 15 is_stmt 0 view .LVU67
 215 001e 5868     		ldr	r0, [r3, #4]
 216              		.loc 1 875 7 view .LVU68
 217 0020 A042     		cmp	r0, r4
 218 0022 15D8     		bhi	.L13
 876:Generated_Source\PSoC5/cy_em_eeprom.c ****     {
 877:Generated_Source\PSoC5/cy_em_eeprom.c ****         /* Check if wear leveling is used in EEPROM */
 878:Generated_Source\PSoC5/cy_em_eeprom.c ****         if(context->wearLevelingFactor > 1u)
 219              		.loc 1 878 9 is_stmt 1 view .LVU69
 220              		.loc 1 878 19 is_stmt 0 view .LVU70
 221 0024 1C69     		ldr	r4, [r3, #16]
 222              	.LVL18:
 223              		.loc 1 878 11 view .LVU71
 224 0026 012C     		cmp	r4, #1
 225 0028 10D9     		bls	.L17
 879:Generated_Source\PSoC5/cy_em_eeprom.c ****         {
 880:Generated_Source\PSoC5/cy_em_eeprom.c ****             /* The read row address should be taken from an EEPROM copy that became
 881:Generated_Source\PSoC5/cy_em_eeprom.c ****             * inactive recently. This condition check handles that.
 882:Generated_Source\PSoC5/cy_em_eeprom.c ****             */
 883:Generated_Source\PSoC5/cy_em_eeprom.c ****             if((*rowToWrPtr - (context->numberOfRows * CY_EM_EEPROM_FLASH_SIZEOF_ROW)) <
 226              		.loc 1 883 13 is_stmt 1 view .LVU72
 227              		.loc 1 883 17 is_stmt 0 view .LVU73
 228 002a 0968     		ldr	r1, [r1]
 229              	.LVL19:
 230              		.loc 1 883 29 view .LVU74
 231 002c A1EB0025 		sub	r5, r1, r0, lsl #8
 884:Generated_Source\PSoC5/cy_em_eeprom.c ****                 context->userFlashStartAddr)
 232              		.loc 1 884 24 view .LVU75
 233 0030 9B69     		ldr	r3, [r3, #24]
 234              	.LVL20:
 883:Generated_Source\PSoC5/cy_em_eeprom.c ****                 context->userFlashStartAddr)
 235              		.loc 1 883 15 view .LVU76
 236 0032 9D42     		cmp	r5, r3
ARM GAS  C:\Users\jens-\AppData\Local\Temp\cc4C0Tnp.s 			page 21


 237 0034 08D2     		bcs	.L18
 885:Generated_Source\PSoC5/cy_em_eeprom.c ****             {
 886:Generated_Source\PSoC5/cy_em_eeprom.c ****                 *rowToRdPtr = context->userFlashStartAddr +
 238              		.loc 1 886 17 is_stmt 1 view .LVU77
 887:Generated_Source\PSoC5/cy_em_eeprom.c ****                     (context->numberOfRows * (context->wearLevelingFactor - 1u) *
 239              		.loc 1 887 75 is_stmt 0 view .LVU78
 240 0036 013C     		subs	r4, r4, #1
 241              		.loc 1 887 44 view .LVU79
 242 0038 04FB00F0 		mul	r0, r4, r0
 886:Generated_Source\PSoC5/cy_em_eeprom.c ****                     (context->numberOfRows * (context->wearLevelingFactor - 1u) *
 243              		.loc 1 886 59 view .LVU80
 244 003c 03EB0020 		add	r0, r3, r0, lsl #8
 888:Generated_Source\PSoC5/cy_em_eeprom.c ****                         CY_EM_EEPROM_FLASH_SIZEOF_ROW) + (*rowToWrPtr - context->userFlashStartAddr
 245              		.loc 1 888 71 view .LVU81
 246 0040 C91A     		subs	r1, r1, r3
 247              		.loc 1 888 56 view .LVU82
 248 0042 0844     		add	r0, r0, r1
 886:Generated_Source\PSoC5/cy_em_eeprom.c ****                     (context->numberOfRows * (context->wearLevelingFactor - 1u) *
 249              		.loc 1 886 29 view .LVU83
 250 0044 1060     		str	r0, [r2]
 251 0046 03E0     		b	.L13
 252              	.L18:
 889:Generated_Source\PSoC5/cy_em_eeprom.c ****             }
 890:Generated_Source\PSoC5/cy_em_eeprom.c ****             else
 891:Generated_Source\PSoC5/cy_em_eeprom.c ****             {
 892:Generated_Source\PSoC5/cy_em_eeprom.c ****                 *rowToRdPtr = *rowToWrPtr - (context->numberOfRows * CY_EM_EEPROM_FLASH_SIZEOF_ROW)
 253              		.loc 1 892 17 is_stmt 1 view .LVU84
 254              		.loc 1 892 29 is_stmt 0 view .LVU85
 255 0048 1560     		str	r5, [r2]
 256 004a 01E0     		b	.L13
 257              	.LVL21:
 258              	.L17:
 893:Generated_Source\PSoC5/cy_em_eeprom.c ****             }
 894:Generated_Source\PSoC5/cy_em_eeprom.c ****         }
 895:Generated_Source\PSoC5/cy_em_eeprom.c ****         else
 896:Generated_Source\PSoC5/cy_em_eeprom.c ****         {
 897:Generated_Source\PSoC5/cy_em_eeprom.c ****             /* If no wear leveling, always read from the same flash row that
 898:Generated_Source\PSoC5/cy_em_eeprom.c ****             * should be written.
 899:Generated_Source\PSoC5/cy_em_eeprom.c ****             */
 900:Generated_Source\PSoC5/cy_em_eeprom.c ****             *rowToRdPtr = *rowToWrPtr;
 259              		.loc 1 900 13 is_stmt 1 view .LVU86
 260              		.loc 1 900 27 is_stmt 0 view .LVU87
 261 004c 0B68     		ldr	r3, [r1]
 262              	.LVL22:
 263              		.loc 1 900 25 view .LVU88
 264 004e 1360     		str	r3, [r2]
 265              	.LVL23:
 266              	.L13:
 901:Generated_Source\PSoC5/cy_em_eeprom.c ****         }
 902:Generated_Source\PSoC5/cy_em_eeprom.c ****     }
 903:Generated_Source\PSoC5/cy_em_eeprom.c **** }
 267              		.loc 1 903 1 view .LVU89
 268 0050 30BC     		pop	{r4, r5}
 269              		.cfi_restore 5
 270              		.cfi_restore 4
 271              		.cfi_def_cfa_offset 0
 272 0052 7047     		bx	lr
ARM GAS  C:\Users\jens-\AppData\Local\Temp\cc4C0Tnp.s 			page 22


 273              		.cfi_endproc
 274              	.LFE7:
 275              		.size	GetNextRowToWrite, .-GetNextRowToWrite
 276              		.section	.text.CalcChecksum,"ax",%progbits
 277              		.align	1
 278              		.syntax unified
 279              		.thumb
 280              		.thumb_func
 281              		.fpu softvfp
 282              		.type	CalcChecksum, %function
 283              	CalcChecksum:
 284              	.LVL24:
 285              	.LFB8:
 904:Generated_Source\PSoC5/cy_em_eeprom.c **** 
 905:Generated_Source\PSoC5/cy_em_eeprom.c **** 
 906:Generated_Source\PSoC5/cy_em_eeprom.c **** /*******************************************************************************
 907:Generated_Source\PSoC5/cy_em_eeprom.c **** * Function Name: CalcChecksum
 908:Generated_Source\PSoC5/cy_em_eeprom.c **** ****************************************************************************//**
 909:Generated_Source\PSoC5/cy_em_eeprom.c **** *
 910:Generated_Source\PSoC5/cy_em_eeprom.c **** * Implements CRC-8 that is used in checksum calculation for the redundant copy
 911:Generated_Source\PSoC5/cy_em_eeprom.c **** * algorithm.
 912:Generated_Source\PSoC5/cy_em_eeprom.c **** *
 913:Generated_Source\PSoC5/cy_em_eeprom.c **** * \param rowData
 914:Generated_Source\PSoC5/cy_em_eeprom.c **** * The row data to be used to calculate the checksum.
 915:Generated_Source\PSoC5/cy_em_eeprom.c **** *
 916:Generated_Source\PSoC5/cy_em_eeprom.c **** * \param len
 917:Generated_Source\PSoC5/cy_em_eeprom.c **** * The length of rowData.
 918:Generated_Source\PSoC5/cy_em_eeprom.c **** *
 919:Generated_Source\PSoC5/cy_em_eeprom.c **** * \return
 920:Generated_Source\PSoC5/cy_em_eeprom.c **** * The calculated value of CRC-8.
 921:Generated_Source\PSoC5/cy_em_eeprom.c **** *
 922:Generated_Source\PSoC5/cy_em_eeprom.c **** *******************************************************************************/
 923:Generated_Source\PSoC5/cy_em_eeprom.c **** static uint8 CalcChecksum(uint8 rowData[], uint32 len)
 924:Generated_Source\PSoC5/cy_em_eeprom.c **** {
 286              		.loc 1 924 1 is_stmt 1 view -0
 287              		.cfi_startproc
 288              		@ args = 0, pretend = 0, frame = 0
 289              		@ frame_needed = 0, uses_anonymous_args = 0
 290              		@ link register save eliminated.
 291              		.loc 1 924 1 is_stmt 0 view .LVU91
 292 0000 10B4     		push	{r4}
 293              		.cfi_def_cfa_offset 4
 294              		.cfi_offset 4, -4
 295 0002 0446     		mov	r4, r0
 925:Generated_Source\PSoC5/cy_em_eeprom.c ****     uint8 crc = CY_EM_EEPROM_CRC8_SEED;
 296              		.loc 1 925 5 is_stmt 1 view .LVU92
 297              	.LVL25:
 926:Generated_Source\PSoC5/cy_em_eeprom.c ****     uint8 i;
 298              		.loc 1 926 5 view .LVU93
 927:Generated_Source\PSoC5/cy_em_eeprom.c ****     uint16 cnt = 0u;
 299              		.loc 1 927 5 view .LVU94
 928:Generated_Source\PSoC5/cy_em_eeprom.c **** 
 929:Generated_Source\PSoC5/cy_em_eeprom.c ****     while(cnt != len)
 300              		.loc 1 929 5 view .LVU95
 927:Generated_Source\PSoC5/cy_em_eeprom.c ****     uint16 cnt = 0u;
 301              		.loc 1 927 12 is_stmt 0 view .LVU96
 302 0004 0022     		movs	r2, #0
ARM GAS  C:\Users\jens-\AppData\Local\Temp\cc4C0Tnp.s 			page 23


 925:Generated_Source\PSoC5/cy_em_eeprom.c ****     uint8 i;
 303              		.loc 1 925 11 view .LVU97
 304 0006 FF20     		movs	r0, #255
 305              	.LVL26:
 306              		.loc 1 929 10 view .LVU98
 307 0008 0FE0     		b	.L21
 308              	.LVL27:
 309              	.L29:
 930:Generated_Source\PSoC5/cy_em_eeprom.c ****     {
 931:Generated_Source\PSoC5/cy_em_eeprom.c ****         crc ^= rowData[cnt];
 932:Generated_Source\PSoC5/cy_em_eeprom.c ****         for (i = 0u; i < CY_EM_EEPROM_CRC8_POLYNOM_LEN; i++)
 933:Generated_Source\PSoC5/cy_em_eeprom.c ****         {
 934:Generated_Source\PSoC5/cy_em_eeprom.c ****             crc = CY_EM_EEPROM_CALCULATE_CRC8(crc);
 310              		.loc 1 934 19 discriminator 1 view .LVU99
 311 000a 4000     		lsls	r0, r0, #1
 312              	.LVL28:
 313              		.loc 1 934 19 discriminator 1 view .LVU100
 314 000c C0B2     		uxtb	r0, r0
 315              		.loc 1 934 17 discriminator 1 view .LVU101
 316 000e 80F03100 		eor	r0, r0, #49
 317              	.L24:
 318              	.LVL29:
 932:Generated_Source\PSoC5/cy_em_eeprom.c ****         {
 319              		.loc 1 932 57 is_stmt 1 discriminator 4 view .LVU102
 932:Generated_Source\PSoC5/cy_em_eeprom.c ****         {
 320              		.loc 1 932 58 is_stmt 0 discriminator 4 view .LVU103
 321 0012 0133     		adds	r3, r3, #1
 322              	.LVL30:
 932:Generated_Source\PSoC5/cy_em_eeprom.c ****         {
 323              		.loc 1 932 58 discriminator 4 view .LVU104
 324 0014 DBB2     		uxtb	r3, r3
 325              	.LVL31:
 326              	.L22:
 932:Generated_Source\PSoC5/cy_em_eeprom.c ****         {
 327              		.loc 1 932 22 is_stmt 1 discriminator 2 view .LVU105
 932:Generated_Source\PSoC5/cy_em_eeprom.c ****         {
 328              		.loc 1 932 9 is_stmt 0 discriminator 2 view .LVU106
 329 0016 072B     		cmp	r3, #7
 330 0018 05D8     		bhi	.L28
 331              		.loc 1 934 13 is_stmt 1 view .LVU107
 332              		.loc 1 934 17 is_stmt 0 view .LVU108
 333 001a 10F0800F 		tst	r0, #128
 334 001e F4D1     		bne	.L29
 335              		.loc 1 934 17 discriminator 2 view .LVU109
 336 0020 4000     		lsls	r0, r0, #1
 337              	.LVL32:
 338              		.loc 1 934 17 discriminator 2 view .LVU110
 339 0022 C0B2     		uxtb	r0, r0
 340 0024 F5E7     		b	.L24
 341              	.LVL33:
 342              	.L28:
 935:Generated_Source\PSoC5/cy_em_eeprom.c ****         }
 936:Generated_Source\PSoC5/cy_em_eeprom.c ****         cnt++;
 343              		.loc 1 936 9 is_stmt 1 view .LVU111
 344              		.loc 1 936 12 is_stmt 0 view .LVU112
 345 0026 0132     		adds	r2, r2, #1
 346              	.LVL34:
ARM GAS  C:\Users\jens-\AppData\Local\Temp\cc4C0Tnp.s 			page 24


 347              		.loc 1 936 12 view .LVU113
 348 0028 92B2     		uxth	r2, r2
 349              	.LVL35:
 350              	.L21:
 929:Generated_Source\PSoC5/cy_em_eeprom.c ****     {
 351              		.loc 1 929 10 is_stmt 1 view .LVU114
 352 002a 8A42     		cmp	r2, r1
 353 002c 03D0     		beq	.L30
 931:Generated_Source\PSoC5/cy_em_eeprom.c ****         for (i = 0u; i < CY_EM_EEPROM_CRC8_POLYNOM_LEN; i++)
 354              		.loc 1 931 9 view .LVU115
 931:Generated_Source\PSoC5/cy_em_eeprom.c ****         for (i = 0u; i < CY_EM_EEPROM_CRC8_POLYNOM_LEN; i++)
 355              		.loc 1 931 23 is_stmt 0 view .LVU116
 356 002e A35C     		ldrb	r3, [r4, r2]	@ zero_extendqisi2
 931:Generated_Source\PSoC5/cy_em_eeprom.c ****         for (i = 0u; i < CY_EM_EEPROM_CRC8_POLYNOM_LEN; i++)
 357              		.loc 1 931 13 view .LVU117
 358 0030 5840     		eors	r0, r0, r3
 359              	.LVL36:
 932:Generated_Source\PSoC5/cy_em_eeprom.c ****         {
 360              		.loc 1 932 9 is_stmt 1 view .LVU118
 932:Generated_Source\PSoC5/cy_em_eeprom.c ****         {
 361              		.loc 1 932 16 is_stmt 0 view .LVU119
 362 0032 0023     		movs	r3, #0
 932:Generated_Source\PSoC5/cy_em_eeprom.c ****         {
 363              		.loc 1 932 9 view .LVU120
 364 0034 EFE7     		b	.L22
 365              	.LVL37:
 366              	.L30:
 937:Generated_Source\PSoC5/cy_em_eeprom.c ****     }
 938:Generated_Source\PSoC5/cy_em_eeprom.c **** 
 939:Generated_Source\PSoC5/cy_em_eeprom.c ****     return (crc);
 940:Generated_Source\PSoC5/cy_em_eeprom.c **** }
 367              		.loc 1 940 1 view .LVU121
 368 0036 10BC     		pop	{r4}
 369              		.cfi_restore 4
 370              		.cfi_def_cfa_offset 0
 371              	.LVL38:
 372              		.loc 1 940 1 view .LVU122
 373 0038 7047     		bx	lr
 374              		.cfi_endproc
 375              	.LFE8:
 376              		.size	CalcChecksum, .-CalcChecksum
 377              		.section	.text.CheckRanges,"ax",%progbits
 378              		.align	1
 379              		.syntax unified
 380              		.thumb
 381              		.thumb_func
 382              		.fpu softvfp
 383              		.type	CheckRanges, %function
 384              	CheckRanges:
 385              	.LVL39:
 386              	.LFB9:
 941:Generated_Source\PSoC5/cy_em_eeprom.c **** 
 942:Generated_Source\PSoC5/cy_em_eeprom.c **** 
 943:Generated_Source\PSoC5/cy_em_eeprom.c **** /*******************************************************************************
 944:Generated_Source\PSoC5/cy_em_eeprom.c **** * Function Name: CheckRanges
 945:Generated_Source\PSoC5/cy_em_eeprom.c **** ****************************************************************************//**
 946:Generated_Source\PSoC5/cy_em_eeprom.c **** *
ARM GAS  C:\Users\jens-\AppData\Local\Temp\cc4C0Tnp.s 			page 25


 947:Generated_Source\PSoC5/cy_em_eeprom.c **** * Checks if the EEPROM of the requested size can be placed in flash.
 948:Generated_Source\PSoC5/cy_em_eeprom.c **** *
 949:Generated_Source\PSoC5/cy_em_eeprom.c **** * \param config
 950:Generated_Source\PSoC5/cy_em_eeprom.c **** * The pointer to a configuration structure. See \ref cy_stc_eeprom_config_t.
 951:Generated_Source\PSoC5/cy_em_eeprom.c **** *
 952:Generated_Source\PSoC5/cy_em_eeprom.c **** * \return
 953:Generated_Source\PSoC5/cy_em_eeprom.c **** * error / status code. See \ref cy_en_em_eeprom_status_t.
 954:Generated_Source\PSoC5/cy_em_eeprom.c **** *
 955:Generated_Source\PSoC5/cy_em_eeprom.c **** *******************************************************************************/
 956:Generated_Source\PSoC5/cy_em_eeprom.c **** static cy_en_em_eeprom_status_t CheckRanges(cy_stc_eeprom_config_t* config)
 957:Generated_Source\PSoC5/cy_em_eeprom.c **** {
 387              		.loc 1 957 1 is_stmt 1 view -0
 388              		.cfi_startproc
 389              		@ args = 0, pretend = 0, frame = 0
 390              		@ frame_needed = 0, uses_anonymous_args = 0
 391              		@ link register save eliminated.
 958:Generated_Source\PSoC5/cy_em_eeprom.c ****     cy_en_em_eeprom_status_t ret = CY_EM_EEPROM_BAD_DATA;
 392              		.loc 1 958 5 view .LVU124
 959:Generated_Source\PSoC5/cy_em_eeprom.c ****     uint32 startAddr = config->userFlashStartAddr;
 393              		.loc 1 959 5 view .LVU125
 394              		.loc 1 959 12 is_stmt 0 view .LVU126
 395 0000 C168     		ldr	r1, [r0, #12]
 396              	.LVL40:
 960:Generated_Source\PSoC5/cy_em_eeprom.c ****     uint32 endAddr = startAddr + CY_EM_EEPROM_GET_PHYSICAL_SIZE(config->eepromSize,
 397              		.loc 1 960 5 is_stmt 1 view .LVU127
 398              		.loc 1 960 34 is_stmt 0 view .LVU128
 399 0002 0268     		ldr	r2, [r0]
 400 0004 D309     		lsrs	r3, r2, #7
 401 0006 12F07F02 		ands	r2, r2, #127
 402 000a 00D0     		beq	.L32
 403 000c 0122     		movs	r2, #1
 404              	.L32:
 405              		.loc 1 960 34 discriminator 4 view .LVU129
 406 000e 1A44     		add	r2, r2, r3
 407 0010 4368     		ldr	r3, [r0, #4]
 408 0012 03FB02F3 		mul	r3, r3, r2
 409 0016 027A     		ldrb	r2, [r0, #8]	@ zero_extendqisi2
 410 0018 02FB0333 		mla	r3, r2, r3, r3
 411              		.loc 1 960 12 discriminator 4 view .LVU130
 412 001c 01EB0323 		add	r3, r1, r3, lsl #8
 413              	.LVL41:
 961:Generated_Source\PSoC5/cy_em_eeprom.c ****             config->wearLevelingFactor, config->redundantCopy);
 962:Generated_Source\PSoC5/cy_em_eeprom.c **** 
 963:Generated_Source\PSoC5/cy_em_eeprom.c ****     /* Range check if there is enough flash for EEPROM */
 964:Generated_Source\PSoC5/cy_em_eeprom.c ****     if (CY_EM_EEPROM_IS_IN_FLASH_RANGE(startAddr, endAddr))
 414              		.loc 1 964 5 is_stmt 1 discriminator 4 view .LVU131
 415              		.loc 1 964 8 is_stmt 0 discriminator 4 view .LVU132
 416 0020 31B1     		cbz	r1, .L34
 417              		.loc 1 964 9 discriminator 1 view .LVU133
 418 0022 B3F5802F 		cmp	r3, #262144
 419 0026 01D8     		bhi	.L36
 965:Generated_Source\PSoC5/cy_em_eeprom.c ****     {
 966:Generated_Source\PSoC5/cy_em_eeprom.c ****         ret = CY_EM_EEPROM_SUCCESS;
 420              		.loc 1 966 13 view .LVU134
 421 0028 0020     		movs	r0, #0
 422              	.LVL42:
 967:Generated_Source\PSoC5/cy_em_eeprom.c ****     }
ARM GAS  C:\Users\jens-\AppData\Local\Temp\cc4C0Tnp.s 			page 26


 968:Generated_Source\PSoC5/cy_em_eeprom.c ****     return (ret);
 423              		.loc 1 968 5 is_stmt 1 view .LVU135
 969:Generated_Source\PSoC5/cy_em_eeprom.c **** }
 424              		.loc 1 969 1 is_stmt 0 view .LVU136
 425 002a 7047     		bx	lr
 426              	.LVL43:
 427              	.L36:
 958:Generated_Source\PSoC5/cy_em_eeprom.c ****     uint32 startAddr = config->userFlashStartAddr;
 428              		.loc 1 958 30 view .LVU137
 429 002c 0320     		movs	r0, #3
 430              	.LVL44:
 958:Generated_Source\PSoC5/cy_em_eeprom.c ****     uint32 startAddr = config->userFlashStartAddr;
 431              		.loc 1 958 30 view .LVU138
 432 002e 7047     		bx	lr
 433              	.LVL45:
 434              	.L34:
 958:Generated_Source\PSoC5/cy_em_eeprom.c ****     uint32 startAddr = config->userFlashStartAddr;
 435              		.loc 1 958 30 view .LVU139
 436 0030 0320     		movs	r0, #3
 437              	.LVL46:
 958:Generated_Source\PSoC5/cy_em_eeprom.c ****     uint32 startAddr = config->userFlashStartAddr;
 438              		.loc 1 958 30 view .LVU140
 439 0032 7047     		bx	lr
 440              		.cfi_endproc
 441              	.LFE9:
 442              		.size	CheckRanges, .-CheckRanges
 443              		.section	.text.GetAddresses,"ax",%progbits
 444              		.align	1
 445              		.syntax unified
 446              		.thumb
 447              		.thumb_func
 448              		.fpu softvfp
 449              		.type	GetAddresses, %function
 450              	GetAddresses:
 451              	.LVL47:
 452              	.LFB13:
 970:Generated_Source\PSoC5/cy_em_eeprom.c **** 
 971:Generated_Source\PSoC5/cy_em_eeprom.c **** 
 972:Generated_Source\PSoC5/cy_em_eeprom.c **** /*******************************************************************************
 973:Generated_Source\PSoC5/cy_em_eeprom.c **** * Function Name: WriteRow
 974:Generated_Source\PSoC5/cy_em_eeprom.c **** ****************************************************************************//**
 975:Generated_Source\PSoC5/cy_em_eeprom.c **** *
 976:Generated_Source\PSoC5/cy_em_eeprom.c **** * Writes one flash row starting from the specified row address.
 977:Generated_Source\PSoC5/cy_em_eeprom.c **** *
 978:Generated_Source\PSoC5/cy_em_eeprom.c **** * \param rowAdd
 979:Generated_Source\PSoC5/cy_em_eeprom.c **** * The address of the flash row.
 980:Generated_Source\PSoC5/cy_em_eeprom.c **** *
 981:Generated_Source\PSoC5/cy_em_eeprom.c **** * \param rowData
 982:Generated_Source\PSoC5/cy_em_eeprom.c **** * The pointer to the data to be written to the row.
 983:Generated_Source\PSoC5/cy_em_eeprom.c **** *
 984:Generated_Source\PSoC5/cy_em_eeprom.c **** * \param context
 985:Generated_Source\PSoC5/cy_em_eeprom.c **** * The pointer to the EEPROM context structure \ref cy_stc_eeprom_context_t.
 986:Generated_Source\PSoC5/cy_em_eeprom.c **** *
 987:Generated_Source\PSoC5/cy_em_eeprom.c **** * \return
 988:Generated_Source\PSoC5/cy_em_eeprom.c **** * error / status code. See \ref cy_en_em_eeprom_status_t.
 989:Generated_Source\PSoC5/cy_em_eeprom.c **** *
 990:Generated_Source\PSoC5/cy_em_eeprom.c **** *******************************************************************************/
ARM GAS  C:\Users\jens-\AppData\Local\Temp\cc4C0Tnp.s 			page 27


 991:Generated_Source\PSoC5/cy_em_eeprom.c **** static cy_en_em_eeprom_status_t WriteRow(uint32 rowAddr,
 992:Generated_Source\PSoC5/cy_em_eeprom.c ****                                         uint32 *rowData,
 993:Generated_Source\PSoC5/cy_em_eeprom.c ****                                         cy_stc_eeprom_context_t * context)
 994:Generated_Source\PSoC5/cy_em_eeprom.c **** {
 995:Generated_Source\PSoC5/cy_em_eeprom.c ****     cy_en_em_eeprom_status_t ret = CY_EM_EEPROM_WRITE_FAIL;
 996:Generated_Source\PSoC5/cy_em_eeprom.c **** #if (!CY_PSOC6)
 997:Generated_Source\PSoC5/cy_em_eeprom.c ****     cystatus rc;
 998:Generated_Source\PSoC5/cy_em_eeprom.c ****     uint32 rowId;
 999:Generated_Source\PSoC5/cy_em_eeprom.c ****     #if ((CY_PSOC3) || (CY_PSOC5))
1000:Generated_Source\PSoC5/cy_em_eeprom.c ****         uint32 arrayId;
1001:Generated_Source\PSoC5/cy_em_eeprom.c ****     #endif /* (CY_PSOC3) */
1002:Generated_Source\PSoC5/cy_em_eeprom.c ****     
1003:Generated_Source\PSoC5/cy_em_eeprom.c ****     #if (CY_PSOC3)
1004:Generated_Source\PSoC5/cy_em_eeprom.c ****         rowAddr &= CY_EM_EEPROM_CODE_ADDR_MASK;
1005:Generated_Source\PSoC5/cy_em_eeprom.c ****         context = context;      /* To avoid compiler warning generation */
1006:Generated_Source\PSoC5/cy_em_eeprom.c ****     #else
1007:Generated_Source\PSoC5/cy_em_eeprom.c ****         (void)context;          /* To avoid compiler warning generation */
1008:Generated_Source\PSoC5/cy_em_eeprom.c ****     #endif /* ((CY_PSOC3) */
1009:Generated_Source\PSoC5/cy_em_eeprom.c ****     
1010:Generated_Source\PSoC5/cy_em_eeprom.c ****     /* For non-PSoC 6 devices, the Array ID and Row ID needed to write the row */
1011:Generated_Source\PSoC5/cy_em_eeprom.c ****     rowId = (rowAddr / CY_EM_EEPROM_FLASH_SIZEOF_ROW) % CY_EM_EEPROM_ROWS_IN_ARRAY;
1012:Generated_Source\PSoC5/cy_em_eeprom.c **** 
1013:Generated_Source\PSoC5/cy_em_eeprom.c ****     /* Write the flash row */
1014:Generated_Source\PSoC5/cy_em_eeprom.c ****     #if (CY_PSOC4)
1015:Generated_Source\PSoC5/cy_em_eeprom.c ****         rc = CySysFlashWriteRow(rowId, (uint8 *)rowData);
1016:Generated_Source\PSoC5/cy_em_eeprom.c ****     #else
1017:Generated_Source\PSoC5/cy_em_eeprom.c **** 
1018:Generated_Source\PSoC5/cy_em_eeprom.c ****         #ifndef CY_EM_EEPROM_SKIP_TEMP_MEASUREMENT
1019:Generated_Source\PSoC5/cy_em_eeprom.c ****             (void)CySetTemp();
1020:Generated_Source\PSoC5/cy_em_eeprom.c ****         #endif /* (CY_EM_EEPROM_SKIP_TEMP_MEASUREMENT) */
1021:Generated_Source\PSoC5/cy_em_eeprom.c **** 
1022:Generated_Source\PSoC5/cy_em_eeprom.c ****         arrayId = rowAddr / CY_FLASH_SIZEOF_ARRAY;
1023:Generated_Source\PSoC5/cy_em_eeprom.c ****         rc = CyWriteRowData((uint8)arrayId, (uint16)rowId, (uint8 *)rowData);
1024:Generated_Source\PSoC5/cy_em_eeprom.c ****         
1025:Generated_Source\PSoC5/cy_em_eeprom.c ****         #if (CY_PSOC5)
1026:Generated_Source\PSoC5/cy_em_eeprom.c ****             CyFlushCache();
1027:Generated_Source\PSoC5/cy_em_eeprom.c ****         #endif /* (CY_PSOC5) */
1028:Generated_Source\PSoC5/cy_em_eeprom.c ****     #endif /* (CY_PSOC4) */
1029:Generated_Source\PSoC5/cy_em_eeprom.c **** 
1030:Generated_Source\PSoC5/cy_em_eeprom.c ****     if(CYRET_SUCCESS == rc)
1031:Generated_Source\PSoC5/cy_em_eeprom.c ****     {
1032:Generated_Source\PSoC5/cy_em_eeprom.c ****         ret = CY_EM_EEPROM_SUCCESS;
1033:Generated_Source\PSoC5/cy_em_eeprom.c ****     }
1034:Generated_Source\PSoC5/cy_em_eeprom.c **** #else /* PSoC 6 */
1035:Generated_Source\PSoC5/cy_em_eeprom.c ****     if(0u != context->blockingWrite)
1036:Generated_Source\PSoC5/cy_em_eeprom.c ****     {
1037:Generated_Source\PSoC5/cy_em_eeprom.c ****         /* Do blocking write */
1038:Generated_Source\PSoC5/cy_em_eeprom.c ****         if(CY_FLASH_DRV_SUCCESS == Cy_Flash_WriteRow(rowAddr, (const uint32 *)rowData))
1039:Generated_Source\PSoC5/cy_em_eeprom.c ****         {
1040:Generated_Source\PSoC5/cy_em_eeprom.c ****             ret = CY_EM_EEPROM_SUCCESS;
1041:Generated_Source\PSoC5/cy_em_eeprom.c ****         }
1042:Generated_Source\PSoC5/cy_em_eeprom.c ****     }
1043:Generated_Source\PSoC5/cy_em_eeprom.c ****     else
1044:Generated_Source\PSoC5/cy_em_eeprom.c ****     {
1045:Generated_Source\PSoC5/cy_em_eeprom.c ****         /* Initiate write */
1046:Generated_Source\PSoC5/cy_em_eeprom.c ****         if(CY_FLASH_DRV_OPERATION_STARTED == Cy_Flash_StartWrite(rowAddr, (const uint32 *)rowData))
1047:Generated_Source\PSoC5/cy_em_eeprom.c ****         {
ARM GAS  C:\Users\jens-\AppData\Local\Temp\cc4C0Tnp.s 			page 28


1048:Generated_Source\PSoC5/cy_em_eeprom.c ****             uint32 countMs = CY_EM_EEPROM_MAX_WRITE_DURATION_MS;
1049:Generated_Source\PSoC5/cy_em_eeprom.c ****             cy_en_flashdrv_status_t rc;
1050:Generated_Source\PSoC5/cy_em_eeprom.c **** 
1051:Generated_Source\PSoC5/cy_em_eeprom.c ****             do
1052:Generated_Source\PSoC5/cy_em_eeprom.c ****             {
1053:Generated_Source\PSoC5/cy_em_eeprom.c ****                 CyDelay(1u);                         /* Wait 1ms */
1054:Generated_Source\PSoC5/cy_em_eeprom.c ****                 rc = Cy_Flash_IsWriteComplete();     /* Check if write completed */
1055:Generated_Source\PSoC5/cy_em_eeprom.c ****                 countMs--;
1056:Generated_Source\PSoC5/cy_em_eeprom.c ****             }
1057:Generated_Source\PSoC5/cy_em_eeprom.c ****             while ((rc == CY_FLASH_DRV_OPCODE_BUSY) && (0u != countMs));
1058:Generated_Source\PSoC5/cy_em_eeprom.c **** 
1059:Generated_Source\PSoC5/cy_em_eeprom.c ****             if(CY_FLASH_DRV_SUCCESS == rc)
1060:Generated_Source\PSoC5/cy_em_eeprom.c ****             {
1061:Generated_Source\PSoC5/cy_em_eeprom.c ****                 ret = CY_EM_EEPROM_SUCCESS;
1062:Generated_Source\PSoC5/cy_em_eeprom.c ****             }
1063:Generated_Source\PSoC5/cy_em_eeprom.c ****         }
1064:Generated_Source\PSoC5/cy_em_eeprom.c ****     }
1065:Generated_Source\PSoC5/cy_em_eeprom.c **** #endif /* (CY_PSOC6) */
1066:Generated_Source\PSoC5/cy_em_eeprom.c **** 
1067:Generated_Source\PSoC5/cy_em_eeprom.c ****     return (ret);
1068:Generated_Source\PSoC5/cy_em_eeprom.c **** }
1069:Generated_Source\PSoC5/cy_em_eeprom.c **** 
1070:Generated_Source\PSoC5/cy_em_eeprom.c **** 
1071:Generated_Source\PSoC5/cy_em_eeprom.c **** /*******************************************************************************
1072:Generated_Source\PSoC5/cy_em_eeprom.c **** * Function Name: EraseRow
1073:Generated_Source\PSoC5/cy_em_eeprom.c **** ****************************************************************************//**
1074:Generated_Source\PSoC5/cy_em_eeprom.c **** *
1075:Generated_Source\PSoC5/cy_em_eeprom.c **** * Erases one flash row starting from the specified row address. If the redundant
1076:Generated_Source\PSoC5/cy_em_eeprom.c **** * copy option is enabled the corresponding row in the redundant copy will also
1077:Generated_Source\PSoC5/cy_em_eeprom.c **** * be erased.
1078:Generated_Source\PSoC5/cy_em_eeprom.c **** *
1079:Generated_Source\PSoC5/cy_em_eeprom.c **** * \param rowAdd
1080:Generated_Source\PSoC5/cy_em_eeprom.c **** * The address of the flash row.
1081:Generated_Source\PSoC5/cy_em_eeprom.c **** *
1082:Generated_Source\PSoC5/cy_em_eeprom.c **** * \param ramBuffAddr
1083:Generated_Source\PSoC5/cy_em_eeprom.c **** * The address of the RAM buffer that contains zeroed data (used only for
1084:Generated_Source\PSoC5/cy_em_eeprom.c **** * non-PSoC 6 devices).
1085:Generated_Source\PSoC5/cy_em_eeprom.c **** *
1086:Generated_Source\PSoC5/cy_em_eeprom.c **** * \param context
1087:Generated_Source\PSoC5/cy_em_eeprom.c **** * The pointer to the EEPROM context structure \ref cy_stc_eeprom_context_t.
1088:Generated_Source\PSoC5/cy_em_eeprom.c **** *
1089:Generated_Source\PSoC5/cy_em_eeprom.c **** * \return
1090:Generated_Source\PSoC5/cy_em_eeprom.c **** * error / status code. See \ref cy_en_em_eeprom_status_t.
1091:Generated_Source\PSoC5/cy_em_eeprom.c **** *
1092:Generated_Source\PSoC5/cy_em_eeprom.c **** *******************************************************************************/
1093:Generated_Source\PSoC5/cy_em_eeprom.c **** static cy_en_em_eeprom_status_t EraseRow(uint32 rowAddr,
1094:Generated_Source\PSoC5/cy_em_eeprom.c ****                                         uint32 ramBuffAddr,
1095:Generated_Source\PSoC5/cy_em_eeprom.c ****                                         cy_stc_eeprom_context_t * context)
1096:Generated_Source\PSoC5/cy_em_eeprom.c **** {
1097:Generated_Source\PSoC5/cy_em_eeprom.c ****     uint32 emEepromRowAddr = rowAddr;
1098:Generated_Source\PSoC5/cy_em_eeprom.c ****     cy_en_em_eeprom_status_t ret = CY_EM_EEPROM_WRITE_FAIL;
1099:Generated_Source\PSoC5/cy_em_eeprom.c **** #if (CY_PSOC6)
1100:Generated_Source\PSoC5/cy_em_eeprom.c ****     uint32 i = 1u;
1101:Generated_Source\PSoC5/cy_em_eeprom.c **** 
1102:Generated_Source\PSoC5/cy_em_eeprom.c ****     (void)ramBuffAddr; /* To avoid compiler warning */
1103:Generated_Source\PSoC5/cy_em_eeprom.c **** 
1104:Generated_Source\PSoC5/cy_em_eeprom.c ****     if(0u != context->redundantCopy)
ARM GAS  C:\Users\jens-\AppData\Local\Temp\cc4C0Tnp.s 			page 29


1105:Generated_Source\PSoC5/cy_em_eeprom.c ****     {
1106:Generated_Source\PSoC5/cy_em_eeprom.c ****         i++;
1107:Generated_Source\PSoC5/cy_em_eeprom.c ****     }
1108:Generated_Source\PSoC5/cy_em_eeprom.c **** 
1109:Generated_Source\PSoC5/cy_em_eeprom.c ****     do
1110:Generated_Source\PSoC5/cy_em_eeprom.c ****     {
1111:Generated_Source\PSoC5/cy_em_eeprom.c ****         if(0u != context->blockingWrite)
1112:Generated_Source\PSoC5/cy_em_eeprom.c ****         {
1113:Generated_Source\PSoC5/cy_em_eeprom.c ****             /* Erase the flash row */
1114:Generated_Source\PSoC5/cy_em_eeprom.c ****             if(CY_FLASH_DRV_SUCCESS == Cy_Flash_EraseRow(emEepromRowAddr))
1115:Generated_Source\PSoC5/cy_em_eeprom.c ****             {
1116:Generated_Source\PSoC5/cy_em_eeprom.c ****                 ret = CY_EM_EEPROM_SUCCESS;
1117:Generated_Source\PSoC5/cy_em_eeprom.c ****             }
1118:Generated_Source\PSoC5/cy_em_eeprom.c ****         }
1119:Generated_Source\PSoC5/cy_em_eeprom.c ****         else
1120:Generated_Source\PSoC5/cy_em_eeprom.c ****         {
1121:Generated_Source\PSoC5/cy_em_eeprom.c ****             /* Initiate erase */
1122:Generated_Source\PSoC5/cy_em_eeprom.c ****             if(CY_FLASH_DRV_OPERATION_STARTED == Cy_Flash_StartErase(emEepromRowAddr))
1123:Generated_Source\PSoC5/cy_em_eeprom.c ****             {
1124:Generated_Source\PSoC5/cy_em_eeprom.c ****                 uint32 countMs = CY_EM_EEPROM_MAX_WRITE_DURATION_MS;
1125:Generated_Source\PSoC5/cy_em_eeprom.c ****                 cy_en_flashdrv_status_t rc;
1126:Generated_Source\PSoC5/cy_em_eeprom.c **** 
1127:Generated_Source\PSoC5/cy_em_eeprom.c ****                 do
1128:Generated_Source\PSoC5/cy_em_eeprom.c ****                 {
1129:Generated_Source\PSoC5/cy_em_eeprom.c ****                     CyDelay(1u);                         /* Wait 1ms */
1130:Generated_Source\PSoC5/cy_em_eeprom.c ****                     rc = Cy_Flash_IsWriteComplete();     /* Check if erase completed */
1131:Generated_Source\PSoC5/cy_em_eeprom.c ****                     countMs--;
1132:Generated_Source\PSoC5/cy_em_eeprom.c ****                 }
1133:Generated_Source\PSoC5/cy_em_eeprom.c ****                 while ((rc == CY_FLASH_DRV_OPCODE_BUSY) && (0u != countMs));
1134:Generated_Source\PSoC5/cy_em_eeprom.c **** 
1135:Generated_Source\PSoC5/cy_em_eeprom.c ****                 if(CY_FLASH_DRV_SUCCESS == rc)
1136:Generated_Source\PSoC5/cy_em_eeprom.c ****                 {
1137:Generated_Source\PSoC5/cy_em_eeprom.c ****                     ret = CY_EM_EEPROM_SUCCESS;
1138:Generated_Source\PSoC5/cy_em_eeprom.c ****                 }
1139:Generated_Source\PSoC5/cy_em_eeprom.c ****             }
1140:Generated_Source\PSoC5/cy_em_eeprom.c ****         }
1141:Generated_Source\PSoC5/cy_em_eeprom.c **** 
1142:Generated_Source\PSoC5/cy_em_eeprom.c ****         if(CY_EM_EEPROM_SUCCESS == ret)
1143:Generated_Source\PSoC5/cy_em_eeprom.c ****         {
1144:Generated_Source\PSoC5/cy_em_eeprom.c ****             /* Update the address to point to the redundant copy row */
1145:Generated_Source\PSoC5/cy_em_eeprom.c ****             emEepromRowAddr = (emEepromRowAddr - context->userFlashStartAddr) + context->wlEndAddr;
1146:Generated_Source\PSoC5/cy_em_eeprom.c ****         }
1147:Generated_Source\PSoC5/cy_em_eeprom.c ****         else
1148:Generated_Source\PSoC5/cy_em_eeprom.c ****         {
1149:Generated_Source\PSoC5/cy_em_eeprom.c ****             break;
1150:Generated_Source\PSoC5/cy_em_eeprom.c ****         }
1151:Generated_Source\PSoC5/cy_em_eeprom.c ****         i--;
1152:Generated_Source\PSoC5/cy_em_eeprom.c ****     } while (0u != i);
1153:Generated_Source\PSoC5/cy_em_eeprom.c **** #else
1154:Generated_Source\PSoC5/cy_em_eeprom.c ****     /* Write the data to the specified flash row */
1155:Generated_Source\PSoC5/cy_em_eeprom.c ****     ret = WriteRow(emEepromRowAddr, (uint32 *)ramBuffAddr, context);
1156:Generated_Source\PSoC5/cy_em_eeprom.c **** 
1157:Generated_Source\PSoC5/cy_em_eeprom.c ****     if((CY_EM_EEPROM_SUCCESS == ret) && (0u != context->redundantCopy))
1158:Generated_Source\PSoC5/cy_em_eeprom.c ****     {
1159:Generated_Source\PSoC5/cy_em_eeprom.c ****         /* Update the address to point to the redundant copy row */
1160:Generated_Source\PSoC5/cy_em_eeprom.c ****         emEepromRowAddr = (emEepromRowAddr - context->userFlashStartAddr) + context->wlEndAddr;
1161:Generated_Source\PSoC5/cy_em_eeprom.c ****         ret = WriteRow(emEepromRowAddr, (uint32 *)ramBuffAddr, context);
ARM GAS  C:\Users\jens-\AppData\Local\Temp\cc4C0Tnp.s 			page 30


1162:Generated_Source\PSoC5/cy_em_eeprom.c ****     }
1163:Generated_Source\PSoC5/cy_em_eeprom.c **** 
1164:Generated_Source\PSoC5/cy_em_eeprom.c ****     if(CY_EM_EEPROM_SUCCESS == ret)
1165:Generated_Source\PSoC5/cy_em_eeprom.c ****     {
1166:Generated_Source\PSoC5/cy_em_eeprom.c ****         context->lastWrRowAddr = rowAddr;
1167:Generated_Source\PSoC5/cy_em_eeprom.c ****     }
1168:Generated_Source\PSoC5/cy_em_eeprom.c **** #endif /* (CY_PSOC6) */
1169:Generated_Source\PSoC5/cy_em_eeprom.c **** 
1170:Generated_Source\PSoC5/cy_em_eeprom.c ****     return(ret);
1171:Generated_Source\PSoC5/cy_em_eeprom.c **** }
1172:Generated_Source\PSoC5/cy_em_eeprom.c **** 
1173:Generated_Source\PSoC5/cy_em_eeprom.c **** 
1174:Generated_Source\PSoC5/cy_em_eeprom.c **** /*******************************************************************************
1175:Generated_Source\PSoC5/cy_em_eeprom.c **** * Function Name: CheckCrcAndCopy
1176:Generated_Source\PSoC5/cy_em_eeprom.c **** ****************************************************************************//**
1177:Generated_Source\PSoC5/cy_em_eeprom.c **** *
1178:Generated_Source\PSoC5/cy_em_eeprom.c **** * Checks the checksum of the specific row in EEPROM. If the CRC matches - copies
1179:Generated_Source\PSoC5/cy_em_eeprom.c **** * the data to the "datAddr" from EEPROM. f the CRC does not match checks the
1180:Generated_Source\PSoC5/cy_em_eeprom.c **** * CRC of the corresponding row in the EEPROM's redundant copy. If the CRC
1181:Generated_Source\PSoC5/cy_em_eeprom.c **** * matches - copies the data to the "datAddr" from EEPROM redundant copy. If the
1182:Generated_Source\PSoC5/cy_em_eeprom.c **** * CRC of the redundant copy does not match - returns bad checksum.
1183:Generated_Source\PSoC5/cy_em_eeprom.c **** *
1184:Generated_Source\PSoC5/cy_em_eeprom.c **** * \param startAddr
1185:Generated_Source\PSoC5/cy_em_eeprom.c **** * The address that points to the start of the specified row.
1186:Generated_Source\PSoC5/cy_em_eeprom.c **** *
1187:Generated_Source\PSoC5/cy_em_eeprom.c **** * \param datAddr
1188:Generated_Source\PSoC5/cy_em_eeprom.c **** * The start address of where the row data will be copied if the CRC check
1189:Generated_Source\PSoC5/cy_em_eeprom.c **** * will succeed.
1190:Generated_Source\PSoC5/cy_em_eeprom.c **** *
1191:Generated_Source\PSoC5/cy_em_eeprom.c **** * \param rowOffset
1192:Generated_Source\PSoC5/cy_em_eeprom.c **** * The offset in the row from which the data should be copied.
1193:Generated_Source\PSoC5/cy_em_eeprom.c **** *
1194:Generated_Source\PSoC5/cy_em_eeprom.c **** * \param numBytes
1195:Generated_Source\PSoC5/cy_em_eeprom.c **** * The number of bytes to be copied.
1196:Generated_Source\PSoC5/cy_em_eeprom.c **** *
1197:Generated_Source\PSoC5/cy_em_eeprom.c **** * \param context
1198:Generated_Source\PSoC5/cy_em_eeprom.c **** * The pointer to the EEPROM context structure \ref cy_stc_eeprom_context_t.
1199:Generated_Source\PSoC5/cy_em_eeprom.c **** *
1200:Generated_Source\PSoC5/cy_em_eeprom.c **** * \return
1201:Generated_Source\PSoC5/cy_em_eeprom.c **** * error / status code. See \ref cy_en_em_eeprom_status_t.
1202:Generated_Source\PSoC5/cy_em_eeprom.c **** *
1203:Generated_Source\PSoC5/cy_em_eeprom.c **** * \note
1204:Generated_Source\PSoC5/cy_em_eeprom.c **** * This function uses a buffer of the flash row size to perform read
1205:Generated_Source\PSoC5/cy_em_eeprom.c **** * operation. For the size of the row refer to the specific PSoC device
1206:Generated_Source\PSoC5/cy_em_eeprom.c **** * datasheet.
1207:Generated_Source\PSoC5/cy_em_eeprom.c **** *
1208:Generated_Source\PSoC5/cy_em_eeprom.c **** *******************************************************************************/
1209:Generated_Source\PSoC5/cy_em_eeprom.c **** static cy_en_em_eeprom_status_t CheckCrcAndCopy(uint32 startAddr,
1210:Generated_Source\PSoC5/cy_em_eeprom.c ****                                                 uint32 dstAddr,
1211:Generated_Source\PSoC5/cy_em_eeprom.c ****                                                 uint32 rowOffset,
1212:Generated_Source\PSoC5/cy_em_eeprom.c ****                                                 uint32 numBytes,
1213:Generated_Source\PSoC5/cy_em_eeprom.c ****                                                 cy_stc_eeprom_context_t * context)
1214:Generated_Source\PSoC5/cy_em_eeprom.c **** {
1215:Generated_Source\PSoC5/cy_em_eeprom.c ****     cy_en_em_eeprom_status_t ret;
1216:Generated_Source\PSoC5/cy_em_eeprom.c ****     uint32 writeRamBuffer[CY_EM_EEPROM_FLASH_SIZEOF_ROW / CY_EM_EEPROM_U32_DIV];
1217:Generated_Source\PSoC5/cy_em_eeprom.c **** 
1218:Generated_Source\PSoC5/cy_em_eeprom.c ****     /* Calculate the row address in the EEPROM's redundant copy */
ARM GAS  C:\Users\jens-\AppData\Local\Temp\cc4C0Tnp.s 			page 31


1219:Generated_Source\PSoC5/cy_em_eeprom.c ****     uint32 rcStartRowAddr = (startAddr - context->userFlashStartAddr) + context->wlEndAddr;
1220:Generated_Source\PSoC5/cy_em_eeprom.c **** 
1221:Generated_Source\PSoC5/cy_em_eeprom.c ****     /* Check the row data CRC in the EEPROM */
1222:Generated_Source\PSoC5/cy_em_eeprom.c ****     if((*(uint32 *)(startAddr + CY_EM_EEPROM_HEADER_CHECKSUM_OFFSET)) ==
1223:Generated_Source\PSoC5/cy_em_eeprom.c ****         ((uint32) CalcChecksum((uint8 *)(startAddr + CY_EM_EEPROM_EEPROM_DATA_OFFSET),
1224:Generated_Source\PSoC5/cy_em_eeprom.c ****             CY_EM_EEPROM_EEPROM_DATA_LEN)))
1225:Generated_Source\PSoC5/cy_em_eeprom.c ****     {
1226:Generated_Source\PSoC5/cy_em_eeprom.c ****         (void)memcpy((void *)(dstAddr), (void *)(startAddr + rowOffset), numBytes);
1227:Generated_Source\PSoC5/cy_em_eeprom.c **** 
1228:Generated_Source\PSoC5/cy_em_eeprom.c ****         ret = CY_EM_EEPROM_SUCCESS;
1229:Generated_Source\PSoC5/cy_em_eeprom.c ****     }
1230:Generated_Source\PSoC5/cy_em_eeprom.c ****     /* Check the row data CRC in the EEPROM's redundant copy */
1231:Generated_Source\PSoC5/cy_em_eeprom.c ****     else if((*(uint32 *)(rcStartRowAddr + CY_EM_EEPROM_HEADER_CHECKSUM_OFFSET)) ==
1232:Generated_Source\PSoC5/cy_em_eeprom.c ****             ((uint32) CalcChecksum((uint8 *)(rcStartRowAddr + CY_EM_EEPROM_EEPROM_DATA_OFFSET),
1233:Generated_Source\PSoC5/cy_em_eeprom.c ****                 CY_EM_EEPROM_EEPROM_DATA_LEN)))
1234:Generated_Source\PSoC5/cy_em_eeprom.c ****     {
1235:Generated_Source\PSoC5/cy_em_eeprom.c ****         /* Copy the redundant copy row to RAM buffer to avoid read while write (RWW)
1236:Generated_Source\PSoC5/cy_em_eeprom.c ****         * flash exception. The RWW occurs while trying to write and read the data from
1237:Generated_Source\PSoC5/cy_em_eeprom.c ****         * same flash macro.
1238:Generated_Source\PSoC5/cy_em_eeprom.c ****         */
1239:Generated_Source\PSoC5/cy_em_eeprom.c ****         (void)memcpy((void *)(writeRamBuffer), (void *)(rcStartRowAddr), CY_EM_EEPROM_FLASH_SIZEOF_
1240:Generated_Source\PSoC5/cy_em_eeprom.c **** 
1241:Generated_Source\PSoC5/cy_em_eeprom.c ****         /* Restore bad row data from the RAM buffer */
1242:Generated_Source\PSoC5/cy_em_eeprom.c ****         ret = WriteRow(startAddr, (uint32 *)writeRamBuffer, context);
1243:Generated_Source\PSoC5/cy_em_eeprom.c **** 
1244:Generated_Source\PSoC5/cy_em_eeprom.c ****         if(CY_EM_EEPROM_SUCCESS == ret)
1245:Generated_Source\PSoC5/cy_em_eeprom.c ****         {
1246:Generated_Source\PSoC5/cy_em_eeprom.c ****             (void)memcpy((void *)(dstAddr), (void *)(writeRamBuffer + rowOffset), numBytes);
1247:Generated_Source\PSoC5/cy_em_eeprom.c ****         }
1248:Generated_Source\PSoC5/cy_em_eeprom.c ****     }
1249:Generated_Source\PSoC5/cy_em_eeprom.c ****     else
1250:Generated_Source\PSoC5/cy_em_eeprom.c ****     {
1251:Generated_Source\PSoC5/cy_em_eeprom.c ****         ret = CY_EM_EEPROM_BAD_CHECKSUM;
1252:Generated_Source\PSoC5/cy_em_eeprom.c ****     }
1253:Generated_Source\PSoC5/cy_em_eeprom.c **** 
1254:Generated_Source\PSoC5/cy_em_eeprom.c ****     return(ret);
1255:Generated_Source\PSoC5/cy_em_eeprom.c **** }
1256:Generated_Source\PSoC5/cy_em_eeprom.c **** 
1257:Generated_Source\PSoC5/cy_em_eeprom.c **** 
1258:Generated_Source\PSoC5/cy_em_eeprom.c **** /*******************************************************************************
1259:Generated_Source\PSoC5/cy_em_eeprom.c **** * Function Name: GetAddresses
1260:Generated_Source\PSoC5/cy_em_eeprom.c **** ****************************************************************************//**
1261:Generated_Source\PSoC5/cy_em_eeprom.c **** *
1262:Generated_Source\PSoC5/cy_em_eeprom.c **** * Calculates the start and end address of the row's EEPROM data to be updated.
1263:Generated_Source\PSoC5/cy_em_eeprom.c **** * The start and end are not absolute addresses but a relative addresses in a
1264:Generated_Source\PSoC5/cy_em_eeprom.c **** * flash row.
1265:Generated_Source\PSoC5/cy_em_eeprom.c **** *
1266:Generated_Source\PSoC5/cy_em_eeprom.c **** * \param startAddr
1267:Generated_Source\PSoC5/cy_em_eeprom.c **** * The pointer the address where the EEPROM data start address will be returned.
1268:Generated_Source\PSoC5/cy_em_eeprom.c **** *
1269:Generated_Source\PSoC5/cy_em_eeprom.c **** * \param endAddr
1270:Generated_Source\PSoC5/cy_em_eeprom.c **** * The pointer the address where the EEPROM data end address will be returned.
1271:Generated_Source\PSoC5/cy_em_eeprom.c **** *
1272:Generated_Source\PSoC5/cy_em_eeprom.c **** * \param offset
1273:Generated_Source\PSoC5/cy_em_eeprom.c **** * The pointer the address where the calculated offset of the EEPROM header data
1274:Generated_Source\PSoC5/cy_em_eeprom.c **** * will be returned.
1275:Generated_Source\PSoC5/cy_em_eeprom.c **** *
ARM GAS  C:\Users\jens-\AppData\Local\Temp\cc4C0Tnp.s 			page 32


1276:Generated_Source\PSoC5/cy_em_eeprom.c **** * \param rowNum
1277:Generated_Source\PSoC5/cy_em_eeprom.c **** * The row number that is about to be written.
1278:Generated_Source\PSoC5/cy_em_eeprom.c **** *
1279:Generated_Source\PSoC5/cy_em_eeprom.c **** * \param addr
1280:Generated_Source\PSoC5/cy_em_eeprom.c **** * The address of the EEPROM header data in the currently analyzed row that may
1281:Generated_Source\PSoC5/cy_em_eeprom.c **** * concern to the row about to be written.
1282:Generated_Source\PSoC5/cy_em_eeprom.c **** *
1283:Generated_Source\PSoC5/cy_em_eeprom.c **** * \param len
1284:Generated_Source\PSoC5/cy_em_eeprom.c **** * The length of the EEPROM header data in the currently analyzed row that may
1285:Generated_Source\PSoC5/cy_em_eeprom.c **** * concern to the row about to be written.
1286:Generated_Source\PSoC5/cy_em_eeprom.c **** *
1287:Generated_Source\PSoC5/cy_em_eeprom.c **** * \return
1288:Generated_Source\PSoC5/cy_em_eeprom.c **** * Zero indicates that the currently analyzed row has the data to be written to
1289:Generated_Source\PSoC5/cy_em_eeprom.c **** * the active EEPROM row data locations. Non zero value indicates that there is
1290:Generated_Source\PSoC5/cy_em_eeprom.c **** * no data to be written
1291:Generated_Source\PSoC5/cy_em_eeprom.c **** *
1292:Generated_Source\PSoC5/cy_em_eeprom.c **** *******************************************************************************/
1293:Generated_Source\PSoC5/cy_em_eeprom.c **** static uint32 GetAddresses(uint32 *startAddr, 
1294:Generated_Source\PSoC5/cy_em_eeprom.c ****                         uint32 *endAddr, 
1295:Generated_Source\PSoC5/cy_em_eeprom.c ****                         uint32 *offset,
1296:Generated_Source\PSoC5/cy_em_eeprom.c ****                         uint32 rowNum,
1297:Generated_Source\PSoC5/cy_em_eeprom.c ****                         uint32 addr,
1298:Generated_Source\PSoC5/cy_em_eeprom.c ****                         uint32 len)
1299:Generated_Source\PSoC5/cy_em_eeprom.c **** {
 453              		.loc 1 1299 1 is_stmt 1 view -0
 454              		.cfi_startproc
 455              		@ args = 8, pretend = 0, frame = 0
 456              		@ frame_needed = 0, uses_anonymous_args = 0
 457              		@ link register save eliminated.
 458              		.loc 1 1299 1 is_stmt 0 view .LVU142
 459 0000 F0B4     		push	{r4, r5, r6, r7}
 460              		.cfi_def_cfa_offset 16
 461              		.cfi_offset 4, -16
 462              		.cfi_offset 5, -12
 463              		.cfi_offset 6, -8
 464              		.cfi_offset 7, -4
 465 0002 049C     		ldr	r4, [sp, #16]
 466 0004 059E     		ldr	r6, [sp, #20]
1300:Generated_Source\PSoC5/cy_em_eeprom.c ****     uint32 skip = 0u;
 467              		.loc 1 1300 5 is_stmt 1 view .LVU143
 468              	.LVL48:
1301:Generated_Source\PSoC5/cy_em_eeprom.c **** 
1302:Generated_Source\PSoC5/cy_em_eeprom.c ****     *offset =0u;
 469              		.loc 1 1302 5 view .LVU144
 470              		.loc 1 1302 13 is_stmt 0 view .LVU145
 471 0006 0025     		movs	r5, #0
 472 0008 1560     		str	r5, [r2]
1303:Generated_Source\PSoC5/cy_em_eeprom.c **** 
1304:Generated_Source\PSoC5/cy_em_eeprom.c ****     if(0u != CY_EM_EEPROM_IS_ADDR_IN_ROW_RANGE(addr, rowNum))
 473              		.loc 1 1304 5 is_stmt 1 view .LVU146
 474              		.loc 1 1304 14 is_stmt 0 view .LVU147
 475 000a DF01     		lsls	r7, r3, #7
 476 000c B4EBC31F 		cmp	r4, r3, lsl #7
 477 0010 10D3     		bcc	.L38
 478              		.loc 1 1304 14 discriminator 1 view .LVU148
 479 0012 5D1C     		adds	r5, r3, #1
 480 0014 ED01     		lsls	r5, r5, #7
ARM GAS  C:\Users\jens-\AppData\Local\Temp\cc4C0Tnp.s 			page 33


 481 0016 013D     		subs	r5, r5, #1
 482 0018 A542     		cmp	r5, r4
 483 001a 0BD3     		bcc	.L38
1305:Generated_Source\PSoC5/cy_em_eeprom.c ****     {
1306:Generated_Source\PSoC5/cy_em_eeprom.c ****         *startAddr = CY_EM_EEPROM_EEPROM_DATA_LEN + (addr % CY_EM_EEPROM_EEPROM_DATA_LEN);
 484              		.loc 1 1306 9 is_stmt 1 view .LVU149
 485              		.loc 1 1306 59 is_stmt 0 view .LVU150
 486 001c 04F07F03 		and	r3, r4, #127
 487              	.LVL49:
 488              		.loc 1 1306 51 view .LVU151
 489 0020 8033     		adds	r3, r3, #128
 490              		.loc 1 1306 20 view .LVU152
 491 0022 0360     		str	r3, [r0]
1307:Generated_Source\PSoC5/cy_em_eeprom.c **** 
1308:Generated_Source\PSoC5/cy_em_eeprom.c ****         if(0u != CY_EM_EEPROM_IS_ADDR_IN_ROW_RANGE(addr + len, rowNum))
 492              		.loc 1 1308 9 is_stmt 1 view .LVU153
 493              		.loc 1 1308 18 is_stmt 0 view .LVU154
 494 0024 3444     		add	r4, r4, r6
 495 0026 A742     		cmp	r7, r4
 496 0028 0AD9     		bls	.L39
 497              	.L40:
1309:Generated_Source\PSoC5/cy_em_eeprom.c ****         {
1310:Generated_Source\PSoC5/cy_em_eeprom.c ****             *endAddr = *startAddr + len;
1311:Generated_Source\PSoC5/cy_em_eeprom.c ****         }
1312:Generated_Source\PSoC5/cy_em_eeprom.c ****         else
1313:Generated_Source\PSoC5/cy_em_eeprom.c ****         {
1314:Generated_Source\PSoC5/cy_em_eeprom.c ****             *endAddr = CY_EM_EEPROM_FLASH_SIZEOF_ROW;
 498              		.loc 1 1314 13 is_stmt 1 view .LVU155
 499              		.loc 1 1314 22 is_stmt 0 view .LVU156
 500 002a 4FF48073 		mov	r3, #256
 501 002e 0B60     		str	r3, [r1]
1300:Generated_Source\PSoC5/cy_em_eeprom.c **** 
 502              		.loc 1 1300 12 view .LVU157
 503 0030 0020     		movs	r0, #0
 504              	.LVL50:
1300:Generated_Source\PSoC5/cy_em_eeprom.c **** 
 505              		.loc 1 1300 12 view .LVU158
 506 0032 03E0     		b	.L37
 507              	.LVL51:
 508              	.L38:
1315:Generated_Source\PSoC5/cy_em_eeprom.c ****         }
1316:Generated_Source\PSoC5/cy_em_eeprom.c ****     }
1317:Generated_Source\PSoC5/cy_em_eeprom.c ****     else
1318:Generated_Source\PSoC5/cy_em_eeprom.c ****     {
1319:Generated_Source\PSoC5/cy_em_eeprom.c **** 
1320:Generated_Source\PSoC5/cy_em_eeprom.c ****         if(0u != CY_EM_EEPROM_IS_ADDR_IN_ROW_RANGE(addr + len, rowNum))
 509              		.loc 1 1320 9 is_stmt 1 view .LVU159
 510              		.loc 1 1320 18 is_stmt 0 view .LVU160
 511 0034 A519     		adds	r5, r4, r6
 512 0036 AF42     		cmp	r7, r5
 513 0038 08D9     		bls	.L41
1321:Generated_Source\PSoC5/cy_em_eeprom.c ****         {
1322:Generated_Source\PSoC5/cy_em_eeprom.c ****             *startAddr = CY_EM_EEPROM_EEPROM_DATA_LEN;
1323:Generated_Source\PSoC5/cy_em_eeprom.c ****             *endAddr = (*startAddr + len) - (*startAddr - (addr % CY_EM_EEPROM_EEPROM_DATA_LEN));
1324:Generated_Source\PSoC5/cy_em_eeprom.c ****             *offset = len - (*endAddr - *startAddr);
1325:Generated_Source\PSoC5/cy_em_eeprom.c ****         }
1326:Generated_Source\PSoC5/cy_em_eeprom.c ****         else
ARM GAS  C:\Users\jens-\AppData\Local\Temp\cc4C0Tnp.s 			page 34


1327:Generated_Source\PSoC5/cy_em_eeprom.c ****         {
1328:Generated_Source\PSoC5/cy_em_eeprom.c ****             skip++;
 514              		.loc 1 1328 17 view .LVU161
 515 003a 0120     		movs	r0, #1
 516              	.LVL52:
 517              	.L37:
1329:Generated_Source\PSoC5/cy_em_eeprom.c ****         }
1330:Generated_Source\PSoC5/cy_em_eeprom.c ****     }
1331:Generated_Source\PSoC5/cy_em_eeprom.c **** 
1332:Generated_Source\PSoC5/cy_em_eeprom.c ****     return (skip);
1333:Generated_Source\PSoC5/cy_em_eeprom.c **** }
 518              		.loc 1 1333 1 view .LVU162
 519 003c F0BC     		pop	{r4, r5, r6, r7}
 520              		.cfi_remember_state
 521              		.cfi_restore 7
 522              		.cfi_restore 6
 523              		.cfi_restore 5
 524              		.cfi_restore 4
 525              		.cfi_def_cfa_offset 0
 526              	.LVL53:
 527              		.loc 1 1333 1 view .LVU163
 528 003e 7047     		bx	lr
 529              	.LVL54:
 530              	.L39:
 531              		.cfi_restore_state
1308:Generated_Source\PSoC5/cy_em_eeprom.c ****         {
 532              		.loc 1 1308 18 discriminator 1 view .LVU164
 533 0040 A542     		cmp	r5, r4
 534 0042 F2D3     		bcc	.L40
1310:Generated_Source\PSoC5/cy_em_eeprom.c ****         }
 535              		.loc 1 1310 13 is_stmt 1 view .LVU165
1310:Generated_Source\PSoC5/cy_em_eeprom.c ****         }
 536              		.loc 1 1310 35 is_stmt 0 view .LVU166
 537 0044 1E44     		add	r6, r6, r3
1310:Generated_Source\PSoC5/cy_em_eeprom.c ****         }
 538              		.loc 1 1310 22 view .LVU167
 539 0046 0E60     		str	r6, [r1]
1300:Generated_Source\PSoC5/cy_em_eeprom.c **** 
 540              		.loc 1 1300 12 view .LVU168
 541 0048 0020     		movs	r0, #0
 542              	.LVL55:
1300:Generated_Source\PSoC5/cy_em_eeprom.c **** 
 543              		.loc 1 1300 12 view .LVU169
 544 004a F7E7     		b	.L37
 545              	.LVL56:
 546              	.L41:
1320:Generated_Source\PSoC5/cy_em_eeprom.c ****         {
 547              		.loc 1 1320 18 discriminator 1 view .LVU170
 548 004c 0133     		adds	r3, r3, #1
 549              	.LVL57:
1320:Generated_Source\PSoC5/cy_em_eeprom.c ****         {
 550              		.loc 1 1320 18 discriminator 1 view .LVU171
 551 004e DB01     		lsls	r3, r3, #7
 552              	.LVL58:
1320:Generated_Source\PSoC5/cy_em_eeprom.c ****         {
 553              		.loc 1 1320 18 discriminator 1 view .LVU172
 554 0050 013B     		subs	r3, r3, #1
ARM GAS  C:\Users\jens-\AppData\Local\Temp\cc4C0Tnp.s 			page 35


 555 0052 9D42     		cmp	r5, r3
 556 0054 0CD8     		bhi	.L44
1322:Generated_Source\PSoC5/cy_em_eeprom.c ****             *endAddr = (*startAddr + len) - (*startAddr - (addr % CY_EM_EEPROM_EEPROM_DATA_LEN));
 557              		.loc 1 1322 13 is_stmt 1 view .LVU173
1322:Generated_Source\PSoC5/cy_em_eeprom.c ****             *endAddr = (*startAddr + len) - (*startAddr - (addr % CY_EM_EEPROM_EEPROM_DATA_LEN));
 558              		.loc 1 1322 24 is_stmt 0 view .LVU174
 559 0056 8023     		movs	r3, #128
 560 0058 0360     		str	r3, [r0]
1323:Generated_Source\PSoC5/cy_em_eeprom.c ****             *offset = len - (*endAddr - *startAddr);
 561              		.loc 1 1323 13 is_stmt 1 view .LVU175
1323:Generated_Source\PSoC5/cy_em_eeprom.c ****             *offset = len - (*endAddr - *startAddr);
 562              		.loc 1 1323 36 is_stmt 0 view .LVU176
 563 005a F318     		adds	r3, r6, r3
1323:Generated_Source\PSoC5/cy_em_eeprom.c ****             *offset = len - (*endAddr - *startAddr);
 564              		.loc 1 1323 43 view .LVU177
 565 005c 64F07F04 		orn	r4, r4, #127
 566 0060 1C44     		add	r4, r4, r3
1323:Generated_Source\PSoC5/cy_em_eeprom.c ****             *offset = len - (*endAddr - *startAddr);
 567              		.loc 1 1323 22 view .LVU178
 568 0062 0C60     		str	r4, [r1]
1324:Generated_Source\PSoC5/cy_em_eeprom.c ****         }
 569              		.loc 1 1324 13 is_stmt 1 view .LVU179
1324:Generated_Source\PSoC5/cy_em_eeprom.c ****         }
 570              		.loc 1 1324 41 is_stmt 0 view .LVU180
 571 0064 0368     		ldr	r3, [r0]
1324:Generated_Source\PSoC5/cy_em_eeprom.c ****         }
 572              		.loc 1 1324 27 view .LVU181
 573 0066 1C1B     		subs	r4, r3, r4
 574 0068 2644     		add	r6, r6, r4
1324:Generated_Source\PSoC5/cy_em_eeprom.c ****         }
 575              		.loc 1 1324 21 view .LVU182
 576 006a 1660     		str	r6, [r2]
1300:Generated_Source\PSoC5/cy_em_eeprom.c **** 
 577              		.loc 1 1300 12 view .LVU183
 578 006c 0020     		movs	r0, #0
 579              	.LVL59:
1300:Generated_Source\PSoC5/cy_em_eeprom.c **** 
 580              		.loc 1 1300 12 view .LVU184
 581 006e E5E7     		b	.L37
 582              	.LVL60:
 583              	.L44:
1328:Generated_Source\PSoC5/cy_em_eeprom.c ****         }
 584              		.loc 1 1328 17 view .LVU185
 585 0070 0120     		movs	r0, #1
 586              	.LVL61:
1332:Generated_Source\PSoC5/cy_em_eeprom.c **** }
 587              		.loc 1 1332 5 is_stmt 1 view .LVU186
1332:Generated_Source\PSoC5/cy_em_eeprom.c **** }
 588              		.loc 1 1332 12 is_stmt 0 view .LVU187
 589 0072 E3E7     		b	.L37
 590              		.cfi_endproc
 591              	.LFE13:
 592              		.size	GetAddresses, .-GetAddresses
 593              		.section	.text.WriteRow,"ax",%progbits
 594              		.align	1
 595              		.syntax unified
 596              		.thumb
ARM GAS  C:\Users\jens-\AppData\Local\Temp\cc4C0Tnp.s 			page 36


 597              		.thumb_func
 598              		.fpu softvfp
 599              		.type	WriteRow, %function
 600              	WriteRow:
 601              	.LVL62:
 602              	.LFB10:
 994:Generated_Source\PSoC5/cy_em_eeprom.c ****     cy_en_em_eeprom_status_t ret = CY_EM_EEPROM_WRITE_FAIL;
 603              		.loc 1 994 1 is_stmt 1 view -0
 604              		.cfi_startproc
 605              		@ args = 0, pretend = 0, frame = 0
 606              		@ frame_needed = 0, uses_anonymous_args = 0
 994:Generated_Source\PSoC5/cy_em_eeprom.c ****     cy_en_em_eeprom_status_t ret = CY_EM_EEPROM_WRITE_FAIL;
 607              		.loc 1 994 1 is_stmt 0 view .LVU189
 608 0000 70B5     		push	{r4, r5, r6, lr}
 609              		.cfi_def_cfa_offset 16
 610              		.cfi_offset 4, -16
 611              		.cfi_offset 5, -12
 612              		.cfi_offset 6, -8
 613              		.cfi_offset 14, -4
 614 0002 0446     		mov	r4, r0
 615 0004 0D46     		mov	r5, r1
 995:Generated_Source\PSoC5/cy_em_eeprom.c **** #if (!CY_PSOC6)
 616              		.loc 1 995 5 is_stmt 1 view .LVU190
 617              	.LVL63:
 997:Generated_Source\PSoC5/cy_em_eeprom.c ****     uint32 rowId;
 618              		.loc 1 997 5 view .LVU191
 998:Generated_Source\PSoC5/cy_em_eeprom.c ****     #if ((CY_PSOC3) || (CY_PSOC5))
 619              		.loc 1 998 5 view .LVU192
1000:Generated_Source\PSoC5/cy_em_eeprom.c ****     #endif /* (CY_PSOC3) */
 620              		.loc 1 1000 9 view .LVU193
1007:Generated_Source\PSoC5/cy_em_eeprom.c ****     #endif /* ((CY_PSOC3) */
 621              		.loc 1 1007 9 view .LVU194
1011:Generated_Source\PSoC5/cy_em_eeprom.c **** 
 622              		.loc 1 1011 5 view .LVU195
1011:Generated_Source\PSoC5/cy_em_eeprom.c **** 
 623              		.loc 1 1011 11 is_stmt 0 view .LVU196
 624 0006 C0F30726 		ubfx	r6, r0, #8, #8
 625              	.LVL64:
1019:Generated_Source\PSoC5/cy_em_eeprom.c ****         #endif /* (CY_EM_EEPROM_SKIP_TEMP_MEASUREMENT) */
 626              		.loc 1 1019 13 is_stmt 1 view .LVU197
1019:Generated_Source\PSoC5/cy_em_eeprom.c ****         #endif /* (CY_EM_EEPROM_SKIP_TEMP_MEASUREMENT) */
 627              		.loc 1 1019 19 is_stmt 0 view .LVU198
 628 000a FFF7FEFF 		bl	CySetTemp
 629              	.LVL65:
1022:Generated_Source\PSoC5/cy_em_eeprom.c ****         rc = CyWriteRowData((uint8)arrayId, (uint16)rowId, (uint8 *)rowData);
 630              		.loc 1 1022 9 is_stmt 1 view .LVU199
1023:Generated_Source\PSoC5/cy_em_eeprom.c ****         
 631              		.loc 1 1023 9 view .LVU200
1023:Generated_Source\PSoC5/cy_em_eeprom.c ****         
 632              		.loc 1 1023 14 is_stmt 0 view .LVU201
 633 000e 2A46     		mov	r2, r5
 634 0010 3146     		mov	r1, r6
 635 0012 C4F30740 		ubfx	r0, r4, #16, #8
 636 0016 FFF7FEFF 		bl	CyWriteRowData
 637              	.LVL66:
 638 001a 0446     		mov	r4, r0
 639              	.LVL67:
ARM GAS  C:\Users\jens-\AppData\Local\Temp\cc4C0Tnp.s 			page 37


1026:Generated_Source\PSoC5/cy_em_eeprom.c ****         #endif /* (CY_PSOC5) */
 640              		.loc 1 1026 13 is_stmt 1 view .LVU202
 641 001c FFF7FEFF 		bl	CyFlushCache
 642              	.LVL68:
1030:Generated_Source\PSoC5/cy_em_eeprom.c ****     {
 643              		.loc 1 1030 5 view .LVU203
1030:Generated_Source\PSoC5/cy_em_eeprom.c ****     {
 644              		.loc 1 1030 7 is_stmt 0 view .LVU204
 645 0020 0CB9     		cbnz	r4, .L50
1032:Generated_Source\PSoC5/cy_em_eeprom.c ****     }
 646              		.loc 1 1032 13 view .LVU205
 647 0022 0020     		movs	r0, #0
 648              	.L47:
 649              	.LVL69:
1067:Generated_Source\PSoC5/cy_em_eeprom.c **** }
 650              		.loc 1 1067 5 is_stmt 1 view .LVU206
1068:Generated_Source\PSoC5/cy_em_eeprom.c **** 
 651              		.loc 1 1068 1 is_stmt 0 view .LVU207
 652 0024 70BD     		pop	{r4, r5, r6, pc}
 653              	.LVL70:
 654              	.L50:
 995:Generated_Source\PSoC5/cy_em_eeprom.c **** #if (!CY_PSOC6)
 655              		.loc 1 995 30 view .LVU208
 656 0026 0420     		movs	r0, #4
 657 0028 FCE7     		b	.L47
 658              		.cfi_endproc
 659              	.LFE10:
 660              		.size	WriteRow, .-WriteRow
 661              		.section	.text.FillChecksum,"ax",%progbits
 662              		.align	1
 663              		.syntax unified
 664              		.thumb
 665              		.thumb_func
 666              		.fpu softvfp
 667              		.type	FillChecksum, %function
 668              	FillChecksum:
 669              	.LVL71:
 670              	.LFB14:
1334:Generated_Source\PSoC5/cy_em_eeprom.c **** 
1335:Generated_Source\PSoC5/cy_em_eeprom.c **** 
1336:Generated_Source\PSoC5/cy_em_eeprom.c **** /*******************************************************************************
1337:Generated_Source\PSoC5/cy_em_eeprom.c **** * Function Name: FillChecksum
1338:Generated_Source\PSoC5/cy_em_eeprom.c **** ****************************************************************************//**
1339:Generated_Source\PSoC5/cy_em_eeprom.c **** *
1340:Generated_Source\PSoC5/cy_em_eeprom.c **** * Performs calculation of the checksum on each row in the Em_EEPROM and fills
1341:Generated_Source\PSoC5/cy_em_eeprom.c **** * the Em_EEPROM headers checksum field with the calculated checksums.
1342:Generated_Source\PSoC5/cy_em_eeprom.c **** *
1343:Generated_Source\PSoC5/cy_em_eeprom.c **** * \param context
1344:Generated_Source\PSoC5/cy_em_eeprom.c **** * The pointer to the EEPROM context structure.
1345:Generated_Source\PSoC5/cy_em_eeprom.c **** *
1346:Generated_Source\PSoC5/cy_em_eeprom.c **** * \return
1347:Generated_Source\PSoC5/cy_em_eeprom.c **** * error / status code. See \ref cy_en_em_eeprom_status_t.
1348:Generated_Source\PSoC5/cy_em_eeprom.c **** *
1349:Generated_Source\PSoC5/cy_em_eeprom.c **** * \theory 
1350:Generated_Source\PSoC5/cy_em_eeprom.c **** * In case if redundant copy option is used the Em_EEPROM would return bad 
1351:Generated_Source\PSoC5/cy_em_eeprom.c **** * checksum while trying to read the EEPROM rows which were not yet written by 
1352:Generated_Source\PSoC5/cy_em_eeprom.c **** * the user. E.g. any read after device reprogramming without previous Write() 
ARM GAS  C:\Users\jens-\AppData\Local\Temp\cc4C0Tnp.s 			page 38


1353:Generated_Source\PSoC5/cy_em_eeprom.c **** * operation to the EEPROM would fail. This would happen because the Em_EEPROM 
1354:Generated_Source\PSoC5/cy_em_eeprom.c **** * headers checksum field values (which is zero at the moment) would not be 
1355:Generated_Source\PSoC5/cy_em_eeprom.c **** * equal to the actual data checksum. This function allows to avoid read failure
1356:Generated_Source\PSoC5/cy_em_eeprom.c **** * after device reprogramming. 
1357:Generated_Source\PSoC5/cy_em_eeprom.c **** *
1358:Generated_Source\PSoC5/cy_em_eeprom.c **** * \note
1359:Generated_Source\PSoC5/cy_em_eeprom.c **** * This function uses a buffer of the flash row size to perform read
1360:Generated_Source\PSoC5/cy_em_eeprom.c **** * operation. For the size of the row refer to the specific PSoC device
1361:Generated_Source\PSoC5/cy_em_eeprom.c **** * datasheet.
1362:Generated_Source\PSoC5/cy_em_eeprom.c **** *
1363:Generated_Source\PSoC5/cy_em_eeprom.c **** *******************************************************************************/
1364:Generated_Source\PSoC5/cy_em_eeprom.c **** static cy_en_em_eeprom_status_t FillChecksum(cy_stc_eeprom_context_t * context)
1365:Generated_Source\PSoC5/cy_em_eeprom.c **** {
 671              		.loc 1 1365 1 is_stmt 1 view -0
 672              		.cfi_startproc
 673              		@ args = 0, pretend = 0, frame = 264
 674              		@ frame_needed = 0, uses_anonymous_args = 0
 675              		.loc 1 1365 1 is_stmt 0 view .LVU210
 676 0000 F0B5     		push	{r4, r5, r6, r7, lr}
 677              		.cfi_def_cfa_offset 20
 678              		.cfi_offset 4, -20
 679              		.cfi_offset 5, -16
 680              		.cfi_offset 6, -12
 681              		.cfi_offset 7, -8
 682              		.cfi_offset 14, -4
 683 0002 C3B0     		sub	sp, sp, #268
 684              		.cfi_def_cfa_offset 288
 685 0004 0446     		mov	r4, r0
1366:Generated_Source\PSoC5/cy_em_eeprom.c ****     uint32 i;
 686              		.loc 1 1366 5 is_stmt 1 view .LVU211
1367:Generated_Source\PSoC5/cy_em_eeprom.c ****     uint32 rdAddr;
 687              		.loc 1 1367 5 view .LVU212
1368:Generated_Source\PSoC5/cy_em_eeprom.c ****     uint32 writeRamBuffer[CY_EM_EEPROM_FLASH_SIZEOF_ROW / CY_EM_EEPROM_U32_DIV];
 688              		.loc 1 1368 5 view .LVU213
1369:Generated_Source\PSoC5/cy_em_eeprom.c ****     uint32 wrAddr = context->lastWrRowAddr;
 689              		.loc 1 1369 5 view .LVU214
 690              		.loc 1 1369 28 is_stmt 0 view .LVU215
 691 0006 8368     		ldr	r3, [r0, #8]
 692              		.loc 1 1369 12 view .LVU216
 693 0008 0093     		str	r3, [sp]
1370:Generated_Source\PSoC5/cy_em_eeprom.c ****     uint32 tmpRowAddr;
 694              		.loc 1 1370 5 is_stmt 1 view .LVU217
1371:Generated_Source\PSoC5/cy_em_eeprom.c ****     /* Get the sequence number (number of writes) */
1372:Generated_Source\PSoC5/cy_em_eeprom.c ****     uint32 seqNum = CY_EM_EEPROM_GET_SEQ_NUM(wrAddr);
 695              		.loc 1 1372 5 view .LVU218
 696              		.loc 1 1372 12 is_stmt 0 view .LVU219
 697 000a 1D68     		ldr	r5, [r3]
 698              	.LVL72:
1373:Generated_Source\PSoC5/cy_em_eeprom.c ****     cy_en_em_eeprom_status_t ret = CY_EM_EEPROM_BAD_PARAM;
 699              		.loc 1 1373 5 is_stmt 1 view .LVU220
1374:Generated_Source\PSoC5/cy_em_eeprom.c **** 
1375:Generated_Source\PSoC5/cy_em_eeprom.c ****     for(i = 0u; i < (context->numberOfRows * context->wearLevelingFactor); i++)
 700              		.loc 1 1375 5 view .LVU221
1373:Generated_Source\PSoC5/cy_em_eeprom.c ****     cy_en_em_eeprom_status_t ret = CY_EM_EEPROM_BAD_PARAM;
 701              		.loc 1 1373 30 is_stmt 0 view .LVU222
 702 000c 0127     		movs	r7, #1
 703              		.loc 1 1375 11 view .LVU223
ARM GAS  C:\Users\jens-\AppData\Local\Temp\cc4C0Tnp.s 			page 39


 704 000e 0026     		movs	r6, #0
 705              	.LVL73:
 706              	.L52:
 707              		.loc 1 1375 17 is_stmt 1 discriminator 1 view .LVU224
 708              		.loc 1 1375 29 is_stmt 0 discriminator 1 view .LVU225
 709 0010 6268     		ldr	r2, [r4, #4]
 710              		.loc 1 1375 53 discriminator 1 view .LVU226
 711 0012 2369     		ldr	r3, [r4, #16]
 712              		.loc 1 1375 44 discriminator 1 view .LVU227
 713 0014 03FB02F3 		mul	r3, r3, r2
 714              		.loc 1 1375 5 discriminator 1 view .LVU228
 715 0018 B342     		cmp	r3, r6
 716 001a 23D9     		bls	.L55
1376:Generated_Source\PSoC5/cy_em_eeprom.c ****     {
1377:Generated_Source\PSoC5/cy_em_eeprom.c ****         /* Copy the EEPROM row from Flash to RAM */
1378:Generated_Source\PSoC5/cy_em_eeprom.c ****         (void)memcpy((void *)&writeRamBuffer[0u], (void *)(wrAddr), CY_EM_EEPROM_FLASH_SIZEOF_ROW);
 717              		.loc 1 1378 9 is_stmt 1 discriminator 3 view .LVU229
 718              		.loc 1 1378 15 is_stmt 0 discriminator 3 view .LVU230
 719 001c 009F     		ldr	r7, [sp]
 720              	.LVL74:
 721              		.loc 1 1378 15 discriminator 3 view .LVU231
 722 001e FC22     		movs	r2, #252
 723 0020 391D     		adds	r1, r7, #4
 724 0022 02A8     		add	r0, sp, #8
 725 0024 FFF7FEFF 		bl	memcpy
 726              	.LVL75:
1379:Generated_Source\PSoC5/cy_em_eeprom.c **** 
1380:Generated_Source\PSoC5/cy_em_eeprom.c ****         /* Increment the sequence number */
1381:Generated_Source\PSoC5/cy_em_eeprom.c ****         seqNum++;
 727              		.loc 1 1381 9 is_stmt 1 discriminator 3 view .LVU232
 728              		.loc 1 1381 15 is_stmt 0 discriminator 3 view .LVU233
 729 0028 0135     		adds	r5, r5, #1
 730              	.LVL76:
1382:Generated_Source\PSoC5/cy_em_eeprom.c ****         writeRamBuffer[CY_EM_EEPROM_HEADER_SEQ_NUM_OFFSET_U32] = seqNum;
 731              		.loc 1 1382 9 is_stmt 1 discriminator 3 view .LVU234
 732              		.loc 1 1382 64 is_stmt 0 discriminator 3 view .LVU235
 733 002a 0195     		str	r5, [sp, #4]
1383:Generated_Source\PSoC5/cy_em_eeprom.c **** 
1384:Generated_Source\PSoC5/cy_em_eeprom.c ****         /* Calculate and fill the checksum to the Em_EEPROM header */
1385:Generated_Source\PSoC5/cy_em_eeprom.c ****         writeRamBuffer[CY_EM_EEPROM_HEADER_CHECKSUM_OFFSET_U32] = (uint32)
 734              		.loc 1 1385 9 is_stmt 1 discriminator 3 view .LVU236
1386:Generated_Source\PSoC5/cy_em_eeprom.c ****                     CalcChecksum((uint8 *) &writeRamBuffer[CY_EM_EEPROM_EEPROM_DATA_OFFSET_U32],
 735              		.loc 1 1386 21 is_stmt 0 discriminator 3 view .LVU237
 736 002c 8021     		movs	r1, #128
 737 002e 21A8     		add	r0, sp, #132
 738 0030 FFF7FEFF 		bl	CalcChecksum
 739              	.LVL77:
1385:Generated_Source\PSoC5/cy_em_eeprom.c ****                     CalcChecksum((uint8 *) &writeRamBuffer[CY_EM_EEPROM_EEPROM_DATA_OFFSET_U32],
 740              		.loc 1 1385 65 discriminator 3 view .LVU238
 741 0034 2090     		str	r0, [sp, #128]
1387:Generated_Source\PSoC5/cy_em_eeprom.c ****                                               CY_EM_EEPROM_EEPROM_DATA_LEN);
1388:Generated_Source\PSoC5/cy_em_eeprom.c **** 
1389:Generated_Source\PSoC5/cy_em_eeprom.c ****         /* Write the data to the specified flash row */
1390:Generated_Source\PSoC5/cy_em_eeprom.c ****         ret = WriteRow(wrAddr, writeRamBuffer, context);
 742              		.loc 1 1390 9 is_stmt 1 discriminator 3 view .LVU239
 743              		.loc 1 1390 15 is_stmt 0 discriminator 3 view .LVU240
 744 0036 2246     		mov	r2, r4
ARM GAS  C:\Users\jens-\AppData\Local\Temp\cc4C0Tnp.s 			page 40


 745 0038 01A9     		add	r1, sp, #4
 746 003a 3846     		mov	r0, r7
 747 003c FFF7FEFF 		bl	WriteRow
 748              	.LVL78:
1391:Generated_Source\PSoC5/cy_em_eeprom.c **** 
1392:Generated_Source\PSoC5/cy_em_eeprom.c ****         /* Update the row address to point to the relevant row in the redundant 
1393:Generated_Source\PSoC5/cy_em_eeprom.c ****         * EEPROM's copy.
1394:Generated_Source\PSoC5/cy_em_eeprom.c ****         */
1395:Generated_Source\PSoC5/cy_em_eeprom.c ****         tmpRowAddr = (wrAddr - context->userFlashStartAddr) + context->wlEndAddr;
 749              		.loc 1 1395 9 is_stmt 1 discriminator 3 view .LVU241
 750              		.loc 1 1395 39 is_stmt 0 discriminator 3 view .LVU242
 751 0040 A369     		ldr	r3, [r4, #24]
 752              		.loc 1 1395 30 discriminator 3 view .LVU243
 753 0042 0098     		ldr	r0, [sp]
 754 0044 C01A     		subs	r0, r0, r3
 755              		.loc 1 1395 70 discriminator 3 view .LVU244
 756 0046 2368     		ldr	r3, [r4]
 757              	.LVL79:
1396:Generated_Source\PSoC5/cy_em_eeprom.c **** 
1397:Generated_Source\PSoC5/cy_em_eeprom.c ****         /* Write the data to the specified flash row */
1398:Generated_Source\PSoC5/cy_em_eeprom.c ****         ret = WriteRow(tmpRowAddr, writeRamBuffer, context);
 758              		.loc 1 1398 9 is_stmt 1 discriminator 3 view .LVU245
 759              		.loc 1 1398 15 is_stmt 0 discriminator 3 view .LVU246
 760 0048 2246     		mov	r2, r4
 761 004a 01A9     		add	r1, sp, #4
 762 004c 1844     		add	r0, r0, r3
 763              	.LVL80:
 764              		.loc 1 1398 15 discriminator 3 view .LVU247
 765 004e FFF7FEFF 		bl	WriteRow
 766              	.LVL81:
 767              		.loc 1 1398 15 discriminator 3 view .LVU248
 768 0052 0746     		mov	r7, r0
 769              	.LVL82:
1399:Generated_Source\PSoC5/cy_em_eeprom.c **** 
1400:Generated_Source\PSoC5/cy_em_eeprom.c ****         /* Get the address of the next row to be written. 
1401:Generated_Source\PSoC5/cy_em_eeprom.c ****         * "rdAddr" is not used in this function but provided to prevent NULL 
1402:Generated_Source\PSoC5/cy_em_eeprom.c ****         * pointer exception in GetNextRowToWrite().
1403:Generated_Source\PSoC5/cy_em_eeprom.c ****         */
1404:Generated_Source\PSoC5/cy_em_eeprom.c ****         GetNextRowToWrite(seqNum, &wrAddr, &rdAddr, context);
 770              		.loc 1 1404 9 is_stmt 1 discriminator 3 view .LVU249
 771 0054 2346     		mov	r3, r4
 772 0056 41AA     		add	r2, sp, #260
 773 0058 6946     		mov	r1, sp
 774 005a 2846     		mov	r0, r5
 775 005c FFF7FEFF 		bl	GetNextRowToWrite
 776              	.LVL83:
1375:Generated_Source\PSoC5/cy_em_eeprom.c ****     {
 777              		.loc 1 1375 76 discriminator 3 view .LVU250
1375:Generated_Source\PSoC5/cy_em_eeprom.c ****     {
 778              		.loc 1 1375 77 is_stmt 0 discriminator 3 view .LVU251
 779 0060 0136     		adds	r6, r6, #1
 780              	.LVL84:
1375:Generated_Source\PSoC5/cy_em_eeprom.c ****     {
 781              		.loc 1 1375 77 discriminator 3 view .LVU252
 782 0062 D5E7     		b	.L52
 783              	.L55:
1405:Generated_Source\PSoC5/cy_em_eeprom.c ****     }
ARM GAS  C:\Users\jens-\AppData\Local\Temp\cc4C0Tnp.s 			page 41


1406:Generated_Source\PSoC5/cy_em_eeprom.c ****     
1407:Generated_Source\PSoC5/cy_em_eeprom.c ****     return(ret);
 784              		.loc 1 1407 5 is_stmt 1 view .LVU253
1408:Generated_Source\PSoC5/cy_em_eeprom.c **** }
 785              		.loc 1 1408 1 is_stmt 0 view .LVU254
 786 0064 3846     		mov	r0, r7
 787 0066 43B0     		add	sp, sp, #268
 788              		.cfi_def_cfa_offset 20
 789              		@ sp needed
 790 0068 F0BD     		pop	{r4, r5, r6, r7, pc}
 791              		.loc 1 1408 1 view .LVU255
 792              		.cfi_endproc
 793              	.LFE14:
 794              		.size	FillChecksum, .-FillChecksum
 795              		.section	.text.CheckCrcAndCopy,"ax",%progbits
 796              		.align	1
 797              		.syntax unified
 798              		.thumb
 799              		.thumb_func
 800              		.fpu softvfp
 801              		.type	CheckCrcAndCopy, %function
 802              	CheckCrcAndCopy:
 803              	.LVL85:
 804              	.LFB12:
1214:Generated_Source\PSoC5/cy_em_eeprom.c ****     cy_en_em_eeprom_status_t ret;
 805              		.loc 1 1214 1 is_stmt 1 view -0
 806              		.cfi_startproc
 807              		@ args = 4, pretend = 0, frame = 256
 808              		@ frame_needed = 0, uses_anonymous_args = 0
1214:Generated_Source\PSoC5/cy_em_eeprom.c ****     cy_en_em_eeprom_status_t ret;
 809              		.loc 1 1214 1 is_stmt 0 view .LVU257
 810 0000 2DE9F047 		push	{r4, r5, r6, r7, r8, r9, r10, lr}
 811              		.cfi_def_cfa_offset 32
 812              		.cfi_offset 4, -32
 813              		.cfi_offset 5, -28
 814              		.cfi_offset 6, -24
 815              		.cfi_offset 7, -20
 816              		.cfi_offset 8, -16
 817              		.cfi_offset 9, -12
 818              		.cfi_offset 10, -8
 819              		.cfi_offset 14, -4
 820 0004 C0B0     		sub	sp, sp, #256
 821              		.cfi_def_cfa_offset 288
 822 0006 0446     		mov	r4, r0
 823 0008 0E46     		mov	r6, r1
 824 000a 1746     		mov	r7, r2
 825 000c 9846     		mov	r8, r3
 826 000e DDF82091 		ldr	r9, [sp, #288]
1215:Generated_Source\PSoC5/cy_em_eeprom.c ****     uint32 writeRamBuffer[CY_EM_EEPROM_FLASH_SIZEOF_ROW / CY_EM_EEPROM_U32_DIV];
 827              		.loc 1 1215 5 is_stmt 1 view .LVU258
1216:Generated_Source\PSoC5/cy_em_eeprom.c **** 
 828              		.loc 1 1216 5 view .LVU259
1219:Generated_Source\PSoC5/cy_em_eeprom.c **** 
 829              		.loc 1 1219 5 view .LVU260
1219:Generated_Source\PSoC5/cy_em_eeprom.c **** 
 830              		.loc 1 1219 49 is_stmt 0 view .LVU261
 831 0012 D9F81850 		ldr	r5, [r9, #24]
ARM GAS  C:\Users\jens-\AppData\Local\Temp\cc4C0Tnp.s 			page 42


1219:Generated_Source\PSoC5/cy_em_eeprom.c **** 
 832              		.loc 1 1219 40 view .LVU262
 833 0016 451B     		subs	r5, r0, r5
1219:Generated_Source\PSoC5/cy_em_eeprom.c **** 
 834              		.loc 1 1219 80 view .LVU263
 835 0018 D9F80030 		ldr	r3, [r9]
 836              	.LVL86:
1219:Generated_Source\PSoC5/cy_em_eeprom.c **** 
 837              		.loc 1 1219 12 view .LVU264
 838 001c 1D44     		add	r5, r5, r3
 839              	.LVL87:
1222:Generated_Source\PSoC5/cy_em_eeprom.c ****         ((uint32) CalcChecksum((uint8 *)(startAddr + CY_EM_EEPROM_EEPROM_DATA_OFFSET),
 840              		.loc 1 1222 5 is_stmt 1 view .LVU265
1222:Generated_Source\PSoC5/cy_em_eeprom.c ****         ((uint32) CalcChecksum((uint8 *)(startAddr + CY_EM_EEPROM_EEPROM_DATA_OFFSET),
 841              		.loc 1 1222 9 is_stmt 0 view .LVU266
 842 001e D0F87CA0 		ldr	r10, [r0, #124]
1223:Generated_Source\PSoC5/cy_em_eeprom.c ****             CY_EM_EEPROM_EEPROM_DATA_LEN)))
 843              		.loc 1 1223 19 view .LVU267
 844 0022 8021     		movs	r1, #128
 845              	.LVL88:
1223:Generated_Source\PSoC5/cy_em_eeprom.c ****             CY_EM_EEPROM_EEPROM_DATA_LEN)))
 846              		.loc 1 1223 19 view .LVU268
 847 0024 0844     		add	r0, r0, r1
 848              	.LVL89:
1223:Generated_Source\PSoC5/cy_em_eeprom.c ****             CY_EM_EEPROM_EEPROM_DATA_LEN)))
 849              		.loc 1 1223 19 view .LVU269
 850 0026 FFF7FEFF 		bl	CalcChecksum
 851              	.LVL90:
1222:Generated_Source\PSoC5/cy_em_eeprom.c ****         ((uint32) CalcChecksum((uint8 *)(startAddr + CY_EM_EEPROM_EEPROM_DATA_OFFSET),
 852              		.loc 1 1222 7 view .LVU270
 853 002a 8245     		cmp	r10, r0
 854 002c 0CD0     		beq	.L61
1231:Generated_Source\PSoC5/cy_em_eeprom.c ****             ((uint32) CalcChecksum((uint8 *)(rcStartRowAddr + CY_EM_EEPROM_EEPROM_DATA_OFFSET),
 855              		.loc 1 1231 10 is_stmt 1 view .LVU271
1231:Generated_Source\PSoC5/cy_em_eeprom.c ****             ((uint32) CalcChecksum((uint8 *)(rcStartRowAddr + CY_EM_EEPROM_EEPROM_DATA_OFFSET),
 856              		.loc 1 1231 14 is_stmt 0 view .LVU272
 857 002e D5F87CA0 		ldr	r10, [r5, #124]
1232:Generated_Source\PSoC5/cy_em_eeprom.c ****                 CY_EM_EEPROM_EEPROM_DATA_LEN)))
 858              		.loc 1 1232 23 view .LVU273
 859 0032 8021     		movs	r1, #128
 860 0034 6818     		adds	r0, r5, r1
 861 0036 FFF7FEFF 		bl	CalcChecksum
 862              	.LVL91:
1231:Generated_Source\PSoC5/cy_em_eeprom.c ****             ((uint32) CalcChecksum((uint8 *)(rcStartRowAddr + CY_EM_EEPROM_EEPROM_DATA_OFFSET),
 863              		.loc 1 1231 12 view .LVU274
 864 003a 8245     		cmp	r10, r0
 865 003c 0BD0     		beq	.L62
1251:Generated_Source\PSoC5/cy_em_eeprom.c ****     }
 866              		.loc 1 1251 13 view .LVU275
 867 003e 0224     		movs	r4, #2
 868              	.LVL92:
 869              	.L58:
1254:Generated_Source\PSoC5/cy_em_eeprom.c **** }
 870              		.loc 1 1254 5 is_stmt 1 view .LVU276
1255:Generated_Source\PSoC5/cy_em_eeprom.c **** 
 871              		.loc 1 1255 1 is_stmt 0 view .LVU277
 872 0040 2046     		mov	r0, r4
ARM GAS  C:\Users\jens-\AppData\Local\Temp\cc4C0Tnp.s 			page 43


 873 0042 40B0     		add	sp, sp, #256
 874              		.cfi_remember_state
 875              		.cfi_def_cfa_offset 32
 876              		@ sp needed
 877 0044 BDE8F087 		pop	{r4, r5, r6, r7, r8, r9, r10, pc}
 878              	.LVL93:
 879              	.L61:
 880              		.cfi_restore_state
1226:Generated_Source\PSoC5/cy_em_eeprom.c **** 
 881              		.loc 1 1226 9 is_stmt 1 view .LVU278
1226:Generated_Source\PSoC5/cy_em_eeprom.c **** 
 882              		.loc 1 1226 15 is_stmt 0 view .LVU279
 883 0048 4246     		mov	r2, r8
 884 004a E119     		adds	r1, r4, r7
 885 004c 3046     		mov	r0, r6
 886 004e FFF7FEFF 		bl	memcpy
 887              	.LVL94:
1228:Generated_Source\PSoC5/cy_em_eeprom.c ****     }
 888              		.loc 1 1228 9 is_stmt 1 view .LVU280
1228:Generated_Source\PSoC5/cy_em_eeprom.c ****     }
 889              		.loc 1 1228 13 is_stmt 0 view .LVU281
 890 0052 0024     		movs	r4, #0
 891              	.LVL95:
1228:Generated_Source\PSoC5/cy_em_eeprom.c ****     }
 892              		.loc 1 1228 13 view .LVU282
 893 0054 F4E7     		b	.L58
 894              	.LVL96:
 895              	.L62:
1239:Generated_Source\PSoC5/cy_em_eeprom.c **** 
 896              		.loc 1 1239 9 is_stmt 1 view .LVU283
1239:Generated_Source\PSoC5/cy_em_eeprom.c **** 
 897              		.loc 1 1239 15 is_stmt 0 view .LVU284
 898 0056 4FF48072 		mov	r2, #256
 899 005a 2946     		mov	r1, r5
 900 005c 6846     		mov	r0, sp
 901 005e FFF7FEFF 		bl	memcpy
 902              	.LVL97:
1242:Generated_Source\PSoC5/cy_em_eeprom.c **** 
 903              		.loc 1 1242 9 is_stmt 1 view .LVU285
1242:Generated_Source\PSoC5/cy_em_eeprom.c **** 
 904              		.loc 1 1242 15 is_stmt 0 view .LVU286
 905 0062 4A46     		mov	r2, r9
 906 0064 6946     		mov	r1, sp
 907 0066 2046     		mov	r0, r4
 908 0068 FFF7FEFF 		bl	WriteRow
 909              	.LVL98:
1244:Generated_Source\PSoC5/cy_em_eeprom.c ****         {
 910              		.loc 1 1244 9 is_stmt 1 view .LVU287
1244:Generated_Source\PSoC5/cy_em_eeprom.c ****         {
 911              		.loc 1 1244 11 is_stmt 0 view .LVU288
 912 006c 0446     		mov	r4, r0
 913              	.LVL99:
1244:Generated_Source\PSoC5/cy_em_eeprom.c ****         {
 914              		.loc 1 1244 11 view .LVU289
 915 006e 0028     		cmp	r0, #0
 916 0070 E6D1     		bne	.L58
1246:Generated_Source\PSoC5/cy_em_eeprom.c ****         }
ARM GAS  C:\Users\jens-\AppData\Local\Temp\cc4C0Tnp.s 			page 44


 917              		.loc 1 1246 13 is_stmt 1 view .LVU290
1246:Generated_Source\PSoC5/cy_em_eeprom.c ****         }
 918              		.loc 1 1246 19 is_stmt 0 view .LVU291
 919 0072 4246     		mov	r2, r8
 920 0074 0DEB8701 		add	r1, sp, r7, lsl #2
 921 0078 3046     		mov	r0, r6
 922              	.LVL100:
1246:Generated_Source\PSoC5/cy_em_eeprom.c ****         }
 923              		.loc 1 1246 19 view .LVU292
 924 007a FFF7FEFF 		bl	memcpy
 925              	.LVL101:
 926 007e DFE7     		b	.L58
 927              		.cfi_endproc
 928              	.LFE12:
 929              		.size	CheckCrcAndCopy, .-CheckCrcAndCopy
 930              		.section	.text.EraseRow,"ax",%progbits
 931              		.align	1
 932              		.syntax unified
 933              		.thumb
 934              		.thumb_func
 935              		.fpu softvfp
 936              		.type	EraseRow, %function
 937              	EraseRow:
 938              	.LVL102:
 939              	.LFB11:
1096:Generated_Source\PSoC5/cy_em_eeprom.c ****     uint32 emEepromRowAddr = rowAddr;
 940              		.loc 1 1096 1 is_stmt 1 view -0
 941              		.cfi_startproc
 942              		@ args = 0, pretend = 0, frame = 0
 943              		@ frame_needed = 0, uses_anonymous_args = 0
1096:Generated_Source\PSoC5/cy_em_eeprom.c ****     uint32 emEepromRowAddr = rowAddr;
 944              		.loc 1 1096 1 is_stmt 0 view .LVU294
 945 0000 70B5     		push	{r4, r5, r6, lr}
 946              		.cfi_def_cfa_offset 16
 947              		.cfi_offset 4, -16
 948              		.cfi_offset 5, -12
 949              		.cfi_offset 6, -8
 950              		.cfi_offset 14, -4
 951 0002 0646     		mov	r6, r0
 952 0004 0D46     		mov	r5, r1
 953 0006 1446     		mov	r4, r2
1097:Generated_Source\PSoC5/cy_em_eeprom.c ****     cy_en_em_eeprom_status_t ret = CY_EM_EEPROM_WRITE_FAIL;
 954              		.loc 1 1097 5 is_stmt 1 view .LVU295
 955              	.LVL103:
1098:Generated_Source\PSoC5/cy_em_eeprom.c **** #if (CY_PSOC6)
 956              		.loc 1 1098 5 view .LVU296
1155:Generated_Source\PSoC5/cy_em_eeprom.c **** 
 957              		.loc 1 1155 5 view .LVU297
1155:Generated_Source\PSoC5/cy_em_eeprom.c **** 
 958              		.loc 1 1155 11 is_stmt 0 view .LVU298
 959 0008 FFF7FEFF 		bl	WriteRow
 960              	.LVL104:
1157:Generated_Source\PSoC5/cy_em_eeprom.c ****     {
 961              		.loc 1 1157 5 is_stmt 1 view .LVU299
1157:Generated_Source\PSoC5/cy_em_eeprom.c ****     {
 962              		.loc 1 1157 7 is_stmt 0 view .LVU300
 963 000c 0346     		mov	r3, r0
ARM GAS  C:\Users\jens-\AppData\Local\Temp\cc4C0Tnp.s 			page 45


 964 000e 08B9     		cbnz	r0, .L64
1157:Generated_Source\PSoC5/cy_em_eeprom.c ****     {
 965              		.loc 1 1157 55 discriminator 1 view .LVU301
 966 0010 227D     		ldrb	r2, [r4, #20]	@ zero_extendqisi2
1157:Generated_Source\PSoC5/cy_em_eeprom.c ****     {
 967              		.loc 1 1157 38 discriminator 1 view .LVU302
 968 0012 1AB9     		cbnz	r2, .L67
 969              	.LVL105:
 970              	.L64:
1164:Generated_Source\PSoC5/cy_em_eeprom.c ****     {
 971              		.loc 1 1164 5 is_stmt 1 view .LVU303
1164:Generated_Source\PSoC5/cy_em_eeprom.c ****     {
 972              		.loc 1 1164 7 is_stmt 0 view .LVU304
 973 0014 03B9     		cbnz	r3, .L65
1166:Generated_Source\PSoC5/cy_em_eeprom.c ****     }
 974              		.loc 1 1166 9 is_stmt 1 view .LVU305
1166:Generated_Source\PSoC5/cy_em_eeprom.c ****     }
 975              		.loc 1 1166 32 is_stmt 0 view .LVU306
 976 0016 A660     		str	r6, [r4, #8]
 977              	.L65:
1170:Generated_Source\PSoC5/cy_em_eeprom.c **** }
 978              		.loc 1 1170 5 is_stmt 1 view .LVU307
1171:Generated_Source\PSoC5/cy_em_eeprom.c **** 
 979              		.loc 1 1171 1 is_stmt 0 view .LVU308
 980 0018 1846     		mov	r0, r3
 981 001a 70BD     		pop	{r4, r5, r6, pc}
 982              	.LVL106:
 983              	.L67:
1160:Generated_Source\PSoC5/cy_em_eeprom.c ****         ret = WriteRow(emEepromRowAddr, (uint32 *)ramBuffAddr, context);
 984              		.loc 1 1160 9 is_stmt 1 view .LVU309
1160:Generated_Source\PSoC5/cy_em_eeprom.c ****         ret = WriteRow(emEepromRowAddr, (uint32 *)ramBuffAddr, context);
 985              		.loc 1 1160 53 is_stmt 0 view .LVU310
 986 001c A069     		ldr	r0, [r4, #24]
 987              	.LVL107:
1160:Generated_Source\PSoC5/cy_em_eeprom.c ****         ret = WriteRow(emEepromRowAddr, (uint32 *)ramBuffAddr, context);
 988              		.loc 1 1160 44 view .LVU311
 989 001e 301A     		subs	r0, r6, r0
1160:Generated_Source\PSoC5/cy_em_eeprom.c ****         ret = WriteRow(emEepromRowAddr, (uint32 *)ramBuffAddr, context);
 990              		.loc 1 1160 84 view .LVU312
 991 0020 2368     		ldr	r3, [r4]
 992              	.LVL108:
1161:Generated_Source\PSoC5/cy_em_eeprom.c ****     }
 993              		.loc 1 1161 9 is_stmt 1 view .LVU313
1161:Generated_Source\PSoC5/cy_em_eeprom.c ****     }
 994              		.loc 1 1161 15 is_stmt 0 view .LVU314
 995 0022 2246     		mov	r2, r4
 996 0024 2946     		mov	r1, r5
 997 0026 1844     		add	r0, r0, r3
 998              	.LVL109:
1161:Generated_Source\PSoC5/cy_em_eeprom.c ****     }
 999              		.loc 1 1161 15 view .LVU315
 1000 0028 FFF7FEFF 		bl	WriteRow
 1001              	.LVL110:
1161:Generated_Source\PSoC5/cy_em_eeprom.c ****     }
 1002              		.loc 1 1161 15 view .LVU316
 1003 002c 0346     		mov	r3, r0
 1004              	.LVL111:
ARM GAS  C:\Users\jens-\AppData\Local\Temp\cc4C0Tnp.s 			page 46


1161:Generated_Source\PSoC5/cy_em_eeprom.c ****     }
 1005              		.loc 1 1161 15 view .LVU317
 1006 002e F1E7     		b	.L64
 1007              		.cfi_endproc
 1008              	.LFE11:
 1009              		.size	EraseRow, .-EraseRow
 1010              		.section	.text.Cy_Em_EEPROM_Init,"ax",%progbits
 1011              		.align	1
 1012              		.global	Cy_Em_EEPROM_Init
 1013              		.syntax unified
 1014              		.thumb
 1015              		.thumb_func
 1016              		.fpu softvfp
 1017              		.type	Cy_Em_EEPROM_Init, %function
 1018              	Cy_Em_EEPROM_Init:
 1019              	.LVL112:
 1020              	.LFB0:
  96:Generated_Source\PSoC5/cy_em_eeprom.c ****     cy_en_em_eeprom_status_t ret = CY_EM_EEPROM_BAD_PARAM;
 1021              		.loc 1 96 1 is_stmt 1 view -0
 1022              		.cfi_startproc
 1023              		@ args = 0, pretend = 0, frame = 0
 1024              		@ frame_needed = 0, uses_anonymous_args = 0
  96:Generated_Source\PSoC5/cy_em_eeprom.c ****     cy_en_em_eeprom_status_t ret = CY_EM_EEPROM_BAD_PARAM;
 1025              		.loc 1 96 1 is_stmt 0 view .LVU319
 1026 0000 F8B5     		push	{r3, r4, r5, r6, r7, lr}
 1027              		.cfi_def_cfa_offset 24
 1028              		.cfi_offset 3, -24
 1029              		.cfi_offset 4, -20
 1030              		.cfi_offset 5, -16
 1031              		.cfi_offset 6, -12
 1032              		.cfi_offset 7, -8
 1033              		.cfi_offset 14, -4
  97:Generated_Source\PSoC5/cy_em_eeprom.c **** 
 1034              		.loc 1 97 5 is_stmt 1 view .LVU320
 1035              	.LVL113:
  99:Generated_Source\PSoC5/cy_em_eeprom.c ****         (config->wearLevelingFactor <= CY_EM_EEPROM_MAX_WEAR_LEVELING_FACTOR) && (config->eepromSiz
 1036              		.loc 1 99 5 view .LVU321
  99:Generated_Source\PSoC5/cy_em_eeprom.c ****         (config->wearLevelingFactor <= CY_EM_EEPROM_MAX_WEAR_LEVELING_FACTOR) && (config->eepromSiz
 1037              		.loc 1 99 7 is_stmt 0 view .LVU322
 1038 0002 0029     		cmp	r1, #0
 1039 0004 3CD0     		beq	.L71
 1040 0006 0446     		mov	r4, r0
 1041 0008 0E46     		mov	r6, r1
  99:Generated_Source\PSoC5/cy_em_eeprom.c ****         (config->wearLevelingFactor <= CY_EM_EEPROM_MAX_WEAR_LEVELING_FACTOR) && (config->eepromSiz
 1042              		.loc 1 99 26 discriminator 1 view .LVU323
 1043 000a 0028     		cmp	r0, #0
 1044 000c 3BD0     		beq	.L72
  99:Generated_Source\PSoC5/cy_em_eeprom.c ****         (config->wearLevelingFactor <= CY_EM_EEPROM_MAX_WEAR_LEVELING_FACTOR) && (config->eepromSiz
 1045              		.loc 1 99 75 discriminator 2 view .LVU324
 1046 000e C368     		ldr	r3, [r0, #12]
  99:Generated_Source\PSoC5/cy_em_eeprom.c ****         (config->wearLevelingFactor <= CY_EM_EEPROM_MAX_WEAR_LEVELING_FACTOR) && (config->eepromSiz
 1047              		.loc 1 99 46 discriminator 2 view .LVU325
 1048 0010 002B     		cmp	r3, #0
 1049 0012 3AD0     		beq	.L73
 100:Generated_Source\PSoC5/cy_em_eeprom.c ****     {
 1050              		.loc 1 100 16 discriminator 3 view .LVU326
 1051 0014 4368     		ldr	r3, [r0, #4]
ARM GAS  C:\Users\jens-\AppData\Local\Temp\cc4C0Tnp.s 			page 47


  99:Generated_Source\PSoC5/cy_em_eeprom.c ****         (config->wearLevelingFactor <= CY_EM_EEPROM_MAX_WEAR_LEVELING_FACTOR) && (config->eepromSiz
 1052              		.loc 1 99 98 discriminator 3 view .LVU327
 1053 0016 0A2B     		cmp	r3, #10
 1054 0018 39D8     		bhi	.L74
 100:Generated_Source\PSoC5/cy_em_eeprom.c ****     {
 1055              		.loc 1 100 89 view .LVU328
 1056 001a 0768     		ldr	r7, [r0]
 100:Generated_Source\PSoC5/cy_em_eeprom.c ****     {
 1057              		.loc 1 100 79 view .LVU329
 1058 001c 002F     		cmp	r7, #0
 1059 001e 38D0     		beq	.L75
 102:Generated_Source\PSoC5/cy_em_eeprom.c **** 
 1060              		.loc 1 102 9 is_stmt 1 view .LVU330
 102:Generated_Source\PSoC5/cy_em_eeprom.c **** 
 1061              		.loc 1 102 15 is_stmt 0 view .LVU331
 1062 0020 FFF7FEFF 		bl	CheckRanges
 1063              	.LVL114:
 104:Generated_Source\PSoC5/cy_em_eeprom.c ****         {
 1064              		.loc 1 104 9 is_stmt 1 view .LVU332
 104:Generated_Source\PSoC5/cy_em_eeprom.c ****         {
 1065              		.loc 1 104 11 is_stmt 0 view .LVU333
 1066 0024 0546     		mov	r5, r0
 1067 0026 60BB     		cbnz	r0, .L69
 107:Generated_Source\PSoC5/cy_em_eeprom.c ****             context->wearLevelingFactor = config->wearLevelingFactor;
 1068              		.loc 1 107 13 is_stmt 1 view .LVU334
 107:Generated_Source\PSoC5/cy_em_eeprom.c ****             context->wearLevelingFactor = config->wearLevelingFactor;
 1069              		.loc 1 107 33 is_stmt 0 view .LVU335
 1070 0028 F760     		str	r7, [r6, #12]
 108:Generated_Source\PSoC5/cy_em_eeprom.c ****             context->redundantCopy = config->redundantCopy;
 1071              		.loc 1 108 13 is_stmt 1 view .LVU336
 108:Generated_Source\PSoC5/cy_em_eeprom.c ****             context->redundantCopy = config->redundantCopy;
 1072              		.loc 1 108 49 is_stmt 0 view .LVU337
 1073 002a 6368     		ldr	r3, [r4, #4]
 108:Generated_Source\PSoC5/cy_em_eeprom.c ****             context->redundantCopy = config->redundantCopy;
 1074              		.loc 1 108 41 view .LVU338
 1075 002c 3361     		str	r3, [r6, #16]
 109:Generated_Source\PSoC5/cy_em_eeprom.c ****             context->blockingWrite = config->blockingWrite;
 1076              		.loc 1 109 13 is_stmt 1 view .LVU339
 109:Generated_Source\PSoC5/cy_em_eeprom.c ****             context->blockingWrite = config->blockingWrite;
 1077              		.loc 1 109 44 is_stmt 0 view .LVU340
 1078 002e 237A     		ldrb	r3, [r4, #8]	@ zero_extendqisi2
 109:Generated_Source\PSoC5/cy_em_eeprom.c ****             context->blockingWrite = config->blockingWrite;
 1079              		.loc 1 109 36 view .LVU341
 1080 0030 3375     		strb	r3, [r6, #20]
 110:Generated_Source\PSoC5/cy_em_eeprom.c ****             context->userFlashStartAddr = config->userFlashStartAddr;
 1081              		.loc 1 110 13 is_stmt 1 view .LVU342
 110:Generated_Source\PSoC5/cy_em_eeprom.c ****             context->userFlashStartAddr = config->userFlashStartAddr;
 1082              		.loc 1 110 44 is_stmt 0 view .LVU343
 1083 0032 637A     		ldrb	r3, [r4, #9]	@ zero_extendqisi2
 110:Generated_Source\PSoC5/cy_em_eeprom.c ****             context->userFlashStartAddr = config->userFlashStartAddr;
 1084              		.loc 1 110 36 view .LVU344
 1085 0034 7375     		strb	r3, [r6, #21]
 111:Generated_Source\PSoC5/cy_em_eeprom.c ****             /* Store frequently used data for internal use */
 1086              		.loc 1 111 13 is_stmt 1 view .LVU345
 111:Generated_Source\PSoC5/cy_em_eeprom.c ****             /* Store frequently used data for internal use */
 1087              		.loc 1 111 49 is_stmt 0 view .LVU346
 1088 0036 E368     		ldr	r3, [r4, #12]
ARM GAS  C:\Users\jens-\AppData\Local\Temp\cc4C0Tnp.s 			page 48


 111:Generated_Source\PSoC5/cy_em_eeprom.c ****             /* Store frequently used data for internal use */
 1089              		.loc 1 111 41 view .LVU347
 1090 0038 B361     		str	r3, [r6, #24]
 113:Generated_Source\PSoC5/cy_em_eeprom.c ****             context->wlEndAddr = ((CY_EM_EEPROM_GET_EEPROM_SIZE(context->numberOfRows) * config->we
 1091              		.loc 1 113 13 is_stmt 1 view .LVU348
 113:Generated_Source\PSoC5/cy_em_eeprom.c ****             context->wlEndAddr = ((CY_EM_EEPROM_GET_EEPROM_SIZE(context->numberOfRows) * config->we
 1092              		.loc 1 113 37 is_stmt 0 view .LVU349
 1093 003a 2368     		ldr	r3, [r4]
 1094 003c DA09     		lsrs	r2, r3, #7
 1095 003e 13F07F03 		ands	r3, r3, #127
 1096 0042 00D0     		beq	.L70
 1097 0044 0123     		movs	r3, #1
 1098              	.L70:
 113:Generated_Source\PSoC5/cy_em_eeprom.c ****             context->wlEndAddr = ((CY_EM_EEPROM_GET_EEPROM_SIZE(context->numberOfRows) * config->we
 1099              		.loc 1 113 37 discriminator 4 view .LVU350
 1100 0046 1344     		add	r3, r3, r2
 113:Generated_Source\PSoC5/cy_em_eeprom.c ****             context->wlEndAddr = ((CY_EM_EEPROM_GET_EEPROM_SIZE(context->numberOfRows) * config->we
 1101              		.loc 1 113 35 discriminator 4 view .LVU351
 1102 0048 7360     		str	r3, [r6, #4]
 114:Generated_Source\PSoC5/cy_em_eeprom.c ****                     config->userFlashStartAddr);
 1103              		.loc 1 114 13 is_stmt 1 discriminator 4 view .LVU352
 114:Generated_Source\PSoC5/cy_em_eeprom.c ****                     config->userFlashStartAddr);
 1104              		.loc 1 114 96 is_stmt 0 discriminator 4 view .LVU353
 1105 004a 6268     		ldr	r2, [r4, #4]
 114:Generated_Source\PSoC5/cy_em_eeprom.c ****                     config->userFlashStartAddr);
 1106              		.loc 1 114 88 discriminator 4 view .LVU354
 1107 004c 02FB03F2 		mul	r2, r2, r3
 115:Generated_Source\PSoC5/cy_em_eeprom.c ****             /* Find last written EEPROM row and store it for quick access */
 1108              		.loc 1 115 27 discriminator 4 view .LVU355
 1109 0050 E368     		ldr	r3, [r4, #12]
 114:Generated_Source\PSoC5/cy_em_eeprom.c ****                     config->userFlashStartAddr);
 1110              		.loc 1 114 118 discriminator 4 view .LVU356
 1111 0052 03EB0223 		add	r3, r3, r2, lsl #8
 114:Generated_Source\PSoC5/cy_em_eeprom.c ****                     config->userFlashStartAddr);
 1112              		.loc 1 114 32 discriminator 4 view .LVU357
 1113 0056 3446     		mov	r4, r6
 1114              	.LVL115:
 114:Generated_Source\PSoC5/cy_em_eeprom.c ****                     config->userFlashStartAddr);
 1115              		.loc 1 114 32 discriminator 4 view .LVU358
 1116 0058 44F8083B 		str	r3, [r4], #8
 117:Generated_Source\PSoC5/cy_em_eeprom.c **** 
 1117              		.loc 1 117 13 is_stmt 1 discriminator 4 view .LVU359
 1118 005c 3146     		mov	r1, r6
 1119 005e 2046     		mov	r0, r4
 1120              	.LVL116:
 117:Generated_Source\PSoC5/cy_em_eeprom.c **** 
 1121              		.loc 1 117 13 is_stmt 0 discriminator 4 view .LVU360
 1122 0060 FFF7FEFF 		bl	FindLastWrittenRow
 1123              	.LVL117:
 119:Generated_Source\PSoC5/cy_em_eeprom.c ****             {
 1124              		.loc 1 119 13 is_stmt 1 discriminator 4 view .LVU361
 119:Generated_Source\PSoC5/cy_em_eeprom.c ****             {
 1125              		.loc 1 119 23 is_stmt 0 discriminator 4 view .LVU362
 1126 0064 B368     		ldr	r3, [r6, #8]
 1127 0066 1B68     		ldr	r3, [r3]
 119:Generated_Source\PSoC5/cy_em_eeprom.c ****             {
 1128              		.loc 1 119 15 discriminator 4 view .LVU363
ARM GAS  C:\Users\jens-\AppData\Local\Temp\cc4C0Tnp.s 			page 49


 1129 0068 5BB9     		cbnz	r3, .L69
 119:Generated_Source\PSoC5/cy_em_eeprom.c ****             {
 1130              		.loc 1 119 90 discriminator 1 view .LVU364
 1131 006a 337D     		ldrb	r3, [r6, #20]	@ zero_extendqisi2
 119:Generated_Source\PSoC5/cy_em_eeprom.c ****             {
 1132              		.loc 1 119 73 discriminator 1 view .LVU365
 1133 006c 4BB1     		cbz	r3, .L69
 124:Generated_Source\PSoC5/cy_em_eeprom.c ****                 
 1134              		.loc 1 124 17 is_stmt 1 view .LVU366
 124:Generated_Source\PSoC5/cy_em_eeprom.c ****                 
 1135              		.loc 1 124 23 is_stmt 0 view .LVU367
 1136 006e 3046     		mov	r0, r6
 1137 0070 FFF7FEFF 		bl	FillChecksum
 1138              	.LVL118:
 1139 0074 0546     		mov	r5, r0
 1140              	.LVL119:
 127:Generated_Source\PSoC5/cy_em_eeprom.c ****             }
 1141              		.loc 1 127 17 is_stmt 1 view .LVU368
 1142 0076 3146     		mov	r1, r6
 1143 0078 2046     		mov	r0, r4
 1144 007a FFF7FEFF 		bl	FindLastWrittenRow
 1145              	.LVL120:
 1146 007e 00E0     		b	.L69
 1147              	.LVL121:
 1148              	.L71:
  97:Generated_Source\PSoC5/cy_em_eeprom.c **** 
 1149              		.loc 1 97 30 is_stmt 0 view .LVU369
 1150 0080 0125     		movs	r5, #1
 1151              	.LVL122:
 1152              	.L69:
 132:Generated_Source\PSoC5/cy_em_eeprom.c **** }
 1153              		.loc 1 132 5 is_stmt 1 view .LVU370
 133:Generated_Source\PSoC5/cy_em_eeprom.c **** 
 1154              		.loc 1 133 1 is_stmt 0 view .LVU371
 1155 0082 2846     		mov	r0, r5
 1156 0084 F8BD     		pop	{r3, r4, r5, r6, r7, pc}
 1157              	.LVL123:
 1158              	.L72:
  97:Generated_Source\PSoC5/cy_em_eeprom.c **** 
 1159              		.loc 1 97 30 view .LVU372
 1160 0086 0125     		movs	r5, #1
 1161 0088 FBE7     		b	.L69
 1162              	.L73:
 1163 008a 0125     		movs	r5, #1
 1164 008c F9E7     		b	.L69
 1165              	.L74:
 1166 008e 0125     		movs	r5, #1
 1167 0090 F7E7     		b	.L69
 1168              	.L75:
 1169 0092 0125     		movs	r5, #1
 1170 0094 F5E7     		b	.L69
 1171              		.cfi_endproc
 1172              	.LFE0:
 1173              		.size	Cy_Em_EEPROM_Init, .-Cy_Em_EEPROM_Init
 1174              		.section	.text.Cy_Em_EEPROM_Read,"ax",%progbits
 1175              		.align	1
 1176              		.global	Cy_Em_EEPROM_Read
ARM GAS  C:\Users\jens-\AppData\Local\Temp\cc4C0Tnp.s 			page 50


 1177              		.syntax unified
 1178              		.thumb
 1179              		.thumb_func
 1180              		.fpu softvfp
 1181              		.type	Cy_Em_EEPROM_Read, %function
 1182              	Cy_Em_EEPROM_Read:
 1183              	.LVL124:
 1184              	.LFB1:
 173:Generated_Source\PSoC5/cy_em_eeprom.c ****     cy_en_em_eeprom_status_t ret = CY_EM_EEPROM_BAD_PARAM;
 1185              		.loc 1 173 1 is_stmt 1 view -0
 1186              		.cfi_startproc
 1187              		@ args = 0, pretend = 0, frame = 32
 1188              		@ frame_needed = 0, uses_anonymous_args = 0
 173:Generated_Source\PSoC5/cy_em_eeprom.c ****     cy_en_em_eeprom_status_t ret = CY_EM_EEPROM_BAD_PARAM;
 1189              		.loc 1 173 1 is_stmt 0 view .LVU374
 1190 0000 2DE9F04F 		push	{r4, r5, r6, r7, r8, r9, r10, fp, lr}
 1191              		.cfi_def_cfa_offset 36
 1192              		.cfi_offset 4, -36
 1193              		.cfi_offset 5, -32
 1194              		.cfi_offset 6, -28
 1195              		.cfi_offset 7, -24
 1196              		.cfi_offset 8, -20
 1197              		.cfi_offset 9, -16
 1198              		.cfi_offset 10, -12
 1199              		.cfi_offset 11, -8
 1200              		.cfi_offset 14, -4
 1201 0004 8BB0     		sub	sp, sp, #44
 1202              		.cfi_def_cfa_offset 80
 174:Generated_Source\PSoC5/cy_em_eeprom.c ****     uint32 i;
 1203              		.loc 1 174 5 is_stmt 1 view .LVU375
 1204              	.LVL125:
 175:Generated_Source\PSoC5/cy_em_eeprom.c ****     uint32 numBytesToRead;
 1205              		.loc 1 175 5 view .LVU376
 176:Generated_Source\PSoC5/cy_em_eeprom.c ****     uint32 curEepromBaseAddr;
 1206              		.loc 1 176 5 view .LVU377
 177:Generated_Source\PSoC5/cy_em_eeprom.c ****     uint32 curRowOffset;
 1207              		.loc 1 177 5 view .LVU378
 178:Generated_Source\PSoC5/cy_em_eeprom.c ****     uint32 startRowAddr;
 1208              		.loc 1 178 5 view .LVU379
 179:Generated_Source\PSoC5/cy_em_eeprom.c ****     uint32 actEepromRowNum;
 1209              		.loc 1 179 5 view .LVU380
 180:Generated_Source\PSoC5/cy_em_eeprom.c ****     uint32 curRdEepromRowNum = 0u;
 1210              		.loc 1 180 5 view .LVU381
 181:Generated_Source\PSoC5/cy_em_eeprom.c ****     uint32 dataStartEepromRowNum = 0u;
 1211              		.loc 1 181 5 view .LVU382
 182:Generated_Source\PSoC5/cy_em_eeprom.c ****     uint32 eeData = (uint32) eepromData; /* To avoid the pointer arithmetic with void */
 1212              		.loc 1 182 5 view .LVU383
 183:Generated_Source\PSoC5/cy_em_eeprom.c **** 
 1213              		.loc 1 183 5 view .LVU384
 183:Generated_Source\PSoC5/cy_em_eeprom.c **** 
 1214              		.loc 1 183 12 is_stmt 0 view .LVU385
 1215 0006 0691     		str	r1, [sp, #24]
 1216              	.LVL126:
 186:Generated_Source\PSoC5/cy_em_eeprom.c ****     {
 1217              		.loc 1 186 5 is_stmt 1 view .LVU386
 186:Generated_Source\PSoC5/cy_em_eeprom.c ****     {
 1218              		.loc 1 186 7 is_stmt 0 view .LVU387
ARM GAS  C:\Users\jens-\AppData\Local\Temp\cc4C0Tnp.s 			page 51


 1219 0008 0292     		str	r2, [sp, #8]
 1220 000a 002A     		cmp	r2, #0
 1221 000c 00F0EB80 		beq	.L99
 1222 0010 8146     		mov	r9, r0
 1223 0012 1F46     		mov	r7, r3
 186:Generated_Source\PSoC5/cy_em_eeprom.c ****     {
 1224              		.loc 1 186 31 discriminator 1 view .LVU388
 1225 0014 0244     		add	r2, r2, r0
 1226              	.LVL127:
 186:Generated_Source\PSoC5/cy_em_eeprom.c ****     {
 1227              		.loc 1 186 31 discriminator 1 view .LVU389
 1228 0016 0792     		str	r2, [sp, #28]
 186:Generated_Source\PSoC5/cy_em_eeprom.c ****     {
 1229              		.loc 1 186 50 discriminator 1 view .LVU390
 1230 0018 DB68     		ldr	r3, [r3, #12]
 1231              	.LVL128:
 186:Generated_Source\PSoC5/cy_em_eeprom.c ****     {
 1232              		.loc 1 186 21 discriminator 1 view .LVU391
 1233 001a 9A42     		cmp	r2, r3
 1234 001c 00F2E980 		bhi	.L100
 186:Generated_Source\PSoC5/cy_em_eeprom.c ****     {
 1235              		.loc 1 186 65 discriminator 2 view .LVU392
 1236 0020 0029     		cmp	r1, #0
 1237 0022 00F0E980 		beq	.L101
 1238              	.LBB2:
 188:Generated_Source\PSoC5/cy_em_eeprom.c ****         uint32 rdSize = size;
 1239              		.loc 1 188 9 is_stmt 1 view .LVU393
 1240              	.LVL129:
 189:Generated_Source\PSoC5/cy_em_eeprom.c ****         /* Get the sequence number of the last written row */
 1241              		.loc 1 189 9 view .LVU394
 191:Generated_Source\PSoC5/cy_em_eeprom.c ****         uint32 updateAddrFlag = 0u;
 1242              		.loc 1 191 9 view .LVU395
 191:Generated_Source\PSoC5/cy_em_eeprom.c ****         uint32 updateAddrFlag = 0u;
 1243              		.loc 1 191 25 is_stmt 0 view .LVU396
 1244 0026 B868     		ldr	r0, [r7, #8]
 1245              	.LVL130:
 191:Generated_Source\PSoC5/cy_em_eeprom.c ****         uint32 updateAddrFlag = 0u;
 1246              		.loc 1 191 16 view .LVU397
 1247 0028 0368     		ldr	r3, [r0]
 1248 002a 0993     		str	r3, [sp, #36]
 1249              	.LVL131:
 192:Generated_Source\PSoC5/cy_em_eeprom.c **** 
 1250              		.loc 1 192 9 is_stmt 1 view .LVU398
 197:Generated_Source\PSoC5/cy_em_eeprom.c ****                               (rdAddr / CY_EM_EEPROM_EEPROM_DATA_LEN)) + 1u;
 1251              		.loc 1 197 9 view .LVU399
 197:Generated_Source\PSoC5/cy_em_eeprom.c ****                               (rdAddr / CY_EM_EEPROM_EEPROM_DATA_LEN)) + 1u;
 1252              		.loc 1 197 51 is_stmt 0 view .LVU400
 1253 002c 531E     		subs	r3, r2, #1
 1254              	.LVL132:
 198:Generated_Source\PSoC5/cy_em_eeprom.c **** 
 1255              		.loc 1 198 39 view .LVU401
 1256 002e 4FEAD912 		lsr	r2, r9, #7
 197:Generated_Source\PSoC5/cy_em_eeprom.c ****                               (rdAddr / CY_EM_EEPROM_EEPROM_DATA_LEN)) + 1u;
 1257              		.loc 1 197 89 view .LVU402
 1258 0032 C2EBD313 		rsb	r3, r2, r3, lsr #7
 197:Generated_Source\PSoC5/cy_em_eeprom.c ****                               (rdAddr / CY_EM_EEPROM_EEPROM_DATA_LEN)) + 1u;
 1259              		.loc 1 197 16 view .LVU403
ARM GAS  C:\Users\jens-\AppData\Local\Temp\cc4C0Tnp.s 			page 52


 1260 0036 0133     		adds	r3, r3, #1
 1261 0038 9C46     		mov	ip, r3
 1262              	.LVL133:
 204:Generated_Source\PSoC5/cy_em_eeprom.c ****                               (CY_EM_EEPROM_FLASH_SIZEOF_ROW * context->numberOfRows)) *
 1263              		.loc 1 204 9 is_stmt 1 view .LVU404
 206:Generated_Source\PSoC5/cy_em_eeprom.c ****                                context->userFlashStartAddr;
 1264              		.loc 1 206 71 is_stmt 0 view .LVU405
 1265 003a 7A68     		ldr	r2, [r7, #4]
 204:Generated_Source\PSoC5/cy_em_eeprom.c ****                               (CY_EM_EEPROM_FLASH_SIZEOF_ROW * context->numberOfRows)) *
 1266              		.loc 1 204 64 view .LVU406
 1267 003c BC69     		ldr	r4, [r7, #24]
 204:Generated_Source\PSoC5/cy_em_eeprom.c ****                               (CY_EM_EEPROM_FLASH_SIZEOF_ROW * context->numberOfRows)) *
 1268              		.loc 1 204 55 view .LVU407
 1269 003e 031B     		subs	r3, r0, r4
 1270              	.LVL134:
 205:Generated_Source\PSoC5/cy_em_eeprom.c ****                               (CY_EM_EEPROM_FLASH_SIZEOF_ROW * context->numberOfRows)) +
 1271              		.loc 1 205 62 view .LVU408
 1272 0040 1502     		lsls	r5, r2, #8
 204:Generated_Source\PSoC5/cy_em_eeprom.c ****                               (CY_EM_EEPROM_FLASH_SIZEOF_ROW * context->numberOfRows)) *
 1273              		.loc 1 204 86 view .LVU409
 1274 0042 B3FBF5F3 		udiv	r3, r3, r5
 205:Generated_Source\PSoC5/cy_em_eeprom.c ****                               (CY_EM_EEPROM_FLASH_SIZEOF_ROW * context->numberOfRows)) +
 1275              		.loc 1 205 88 view .LVU410
 1276 0046 03FB02F3 		mul	r3, r3, r2
 204:Generated_Source\PSoC5/cy_em_eeprom.c ****                               (CY_EM_EEPROM_FLASH_SIZEOF_ROW * context->numberOfRows)) *
 1277              		.loc 1 204 27 view .LVU411
 1278 004a 04EB0323 		add	r3, r4, r3, lsl #8
 1279 004e 0393     		str	r3, [sp, #12]
 1280              	.LVL135:
 210:Generated_Source\PSoC5/cy_em_eeprom.c ****         {
 1281              		.loc 1 210 9 is_stmt 1 view .LVU412
 210:Generated_Source\PSoC5/cy_em_eeprom.c ****         {
 1282              		.loc 1 210 15 is_stmt 0 view .LVU413
 1283 0050 0024     		movs	r4, #0
 210:Generated_Source\PSoC5/cy_em_eeprom.c ****         {
 1284              		.loc 1 210 9 view .LVU414
 1285 0052 00E0     		b	.L79
 1286              	.LVL136:
 1287              	.L80:
 210:Generated_Source\PSoC5/cy_em_eeprom.c ****         {
 1288              		.loc 1 210 48 is_stmt 1 view .LVU415
 210:Generated_Source\PSoC5/cy_em_eeprom.c ****         {
 1289              		.loc 1 210 49 is_stmt 0 view .LVU416
 1290 0054 0134     		adds	r4, r4, #1
 1291              	.LVL137:
 1292              	.L79:
 210:Generated_Source\PSoC5/cy_em_eeprom.c ****         {
 1293              		.loc 1 210 21 is_stmt 1 discriminator 1 view .LVU417
 210:Generated_Source\PSoC5/cy_em_eeprom.c ****         {
 1294              		.loc 1 210 9 is_stmt 0 discriminator 1 view .LVU418
 1295 0056 A242     		cmp	r2, r4
 1296 0058 08D9     		bls	.L110
 212:Generated_Source\PSoC5/cy_em_eeprom.c ****             {
 1297              		.loc 1 212 13 is_stmt 1 view .LVU419
 212:Generated_Source\PSoC5/cy_em_eeprom.c ****             {
 1298              		.loc 1 212 22 is_stmt 0 view .LVU420
 1299 005a B9EBC41F 		cmp	r9, r4, lsl #7
ARM GAS  C:\Users\jens-\AppData\Local\Temp\cc4C0Tnp.s 			page 53


 1300 005e F9D3     		bcc	.L80
 212:Generated_Source\PSoC5/cy_em_eeprom.c ****             {
 1301              		.loc 1 212 22 discriminator 1 view .LVU421
 1302 0060 631C     		adds	r3, r4, #1
 1303 0062 DB01     		lsls	r3, r3, #7
 1304 0064 013B     		subs	r3, r3, #1
 1305 0066 4B45     		cmp	r3, r9
 1306 0068 F4D3     		bcc	.L80
 1307 006a 00E0     		b	.L81
 1308              	.L110:
 212:Generated_Source\PSoC5/cy_em_eeprom.c ****             {
 1309              		.loc 1 212 22 discriminator 1 view .LVU422
 1310              	.LBE2:
 181:Generated_Source\PSoC5/cy_em_eeprom.c ****     uint32 dataStartEepromRowNum = 0u;
 1311              		.loc 1 181 12 view .LVU423
 1312 006c 0024     		movs	r4, #0
 1313              	.LVL138:
 1314              	.L81:
 1315              	.LBB9:
 221:Generated_Source\PSoC5/cy_em_eeprom.c **** 
 1316              		.loc 1 221 9 is_stmt 1 view .LVU424
 221:Generated_Source\PSoC5/cy_em_eeprom.c **** 
 1317              		.loc 1 221 51 is_stmt 0 view .LVU425
 1318 006e 039B     		ldr	r3, [sp, #12]
 1319 0070 C01A     		subs	r0, r0, r3
 1320              	.LVL139:
 221:Generated_Source\PSoC5/cy_em_eeprom.c **** 
 1321              		.loc 1 221 25 view .LVU426
 1322 0072 020A     		lsrs	r2, r0, #8
 1323 0074 0592     		str	r2, [sp, #20]
 1324              	.LVL140:
 224:Generated_Source\PSoC5/cy_em_eeprom.c ****         {
 1325              		.loc 1 224 9 is_stmt 1 view .LVU427
 224:Generated_Source\PSoC5/cy_em_eeprom.c ****         {
 1326              		.loc 1 224 19 is_stmt 0 view .LVU428
 1327 0076 3B69     		ldr	r3, [r7, #16]
 224:Generated_Source\PSoC5/cy_em_eeprom.c ****         {
 1328              		.loc 1 224 11 view .LVU429
 1329 0078 012B     		cmp	r3, #1
 1330 007a 09D9     		bls	.L102
 1331              	.LBB3:
 226:Generated_Source\PSoC5/cy_em_eeprom.c **** 
 1332              		.loc 1 226 13 is_stmt 1 view .LVU430
 226:Generated_Source\PSoC5/cy_em_eeprom.c **** 
 1333              		.loc 1 226 64 is_stmt 0 view .LVU431
 1334 007c 6346     		mov	r3, ip
 1335 007e E318     		adds	r3, r4, r3
 226:Generated_Source\PSoC5/cy_em_eeprom.c **** 
 1336              		.loc 1 226 20 view .LVU432
 1337 0080 013B     		subs	r3, r3, #1
 1338              	.LVL141:
 229:Generated_Source\PSoC5/cy_em_eeprom.c ****                               ((dataEndEepromRowNum > actEepromRowNum) ? 1u : 0u);
 1339              		.loc 1 229 13 is_stmt 1 view .LVU433
 229:Generated_Source\PSoC5/cy_em_eeprom.c ****                               ((dataEndEepromRowNum > actEepromRowNum) ? 1u : 0u);
 1340              		.loc 1 229 77 is_stmt 0 view .LVU434
 1341 0082 9442     		cmp	r4, r2
 1342 0084 12D8     		bhi	.L103
ARM GAS  C:\Users\jens-\AppData\Local\Temp\cc4C0Tnp.s 			page 54


 229:Generated_Source\PSoC5/cy_em_eeprom.c ****                               ((dataEndEepromRowNum > actEepromRowNum) ? 1u : 0u);
 1343              		.loc 1 229 77 discriminator 1 view .LVU435
 1344 0086 9A42     		cmp	r2, r3
 1345 0088 13D2     		bcs	.L104
 229:Generated_Source\PSoC5/cy_em_eeprom.c ****                               ((dataEndEepromRowNum > actEepromRowNum) ? 1u : 0u);
 1346              		.loc 1 229 77 view .LVU436
 1347 008a 0123     		movs	r3, #1
 1348              	.LVL142:
 229:Generated_Source\PSoC5/cy_em_eeprom.c ****                               ((dataEndEepromRowNum > actEepromRowNum) ? 1u : 0u);
 1349              		.loc 1 229 77 view .LVU437
 1350 008c 0493     		str	r3, [sp, #16]
 1351 008e 01E0     		b	.L83
 1352              	.LVL143:
 1353              	.L102:
 229:Generated_Source\PSoC5/cy_em_eeprom.c ****                               ((dataEndEepromRowNum > actEepromRowNum) ? 1u : 0u);
 1354              		.loc 1 229 77 view .LVU438
 1355              	.LBE3:
 192:Generated_Source\PSoC5/cy_em_eeprom.c **** 
 1356              		.loc 1 192 16 view .LVU439
 1357 0090 0023     		movs	r3, #0
 1358 0092 0493     		str	r3, [sp, #16]
 1359              	.L83:
 1360              	.LVL144:
 234:Generated_Source\PSoC5/cy_em_eeprom.c ****         {
 1361              		.loc 1 234 9 is_stmt 1 view .LVU440
 188:Generated_Source\PSoC5/cy_em_eeprom.c ****         uint32 rdSize = size;
 1362              		.loc 1 188 16 is_stmt 0 view .LVU441
 1363 0094 CB46     		mov	fp, r9
 1364              	.LBE9:
 183:Generated_Source\PSoC5/cy_em_eeprom.c **** 
 1365              		.loc 1 183 12 view .LVU442
 1366 0096 0E46     		mov	r6, r1
 1367              	.LBB10:
 234:Generated_Source\PSoC5/cy_em_eeprom.c ****         {
 1368              		.loc 1 234 15 view .LVU443
 1369 0098 4FF00008 		mov	r8, #0
 1370              	.LBE10:
 174:Generated_Source\PSoC5/cy_em_eeprom.c ****     uint32 i;
 1371              		.loc 1 174 30 view .LVU444
 1372 009c 4FF0010A 		mov	r10, #1
 1373 00a0 CDF82090 		str	r9, [sp, #32]
 1374 00a4 B946     		mov	r9, r7
 1375              	.LVL145:
 174:Generated_Source\PSoC5/cy_em_eeprom.c ****     uint32 i;
 1376              		.loc 1 174 30 view .LVU445
 1377 00a6 5746     		mov	r7, r10
 1378              	.LVL146:
 174:Generated_Source\PSoC5/cy_em_eeprom.c ****     uint32 i;
 1379              		.loc 1 174 30 view .LVU446
 1380 00a8 E246     		mov	r10, ip
 1381              	.LBB11:
 234:Generated_Source\PSoC5/cy_em_eeprom.c ****         {
 1382              		.loc 1 234 9 view .LVU447
 1383 00aa 12E0     		b	.L84
 1384              	.LVL147:
 1385              	.L103:
 1386              	.LBB4:
ARM GAS  C:\Users\jens-\AppData\Local\Temp\cc4C0Tnp.s 			page 55


 229:Generated_Source\PSoC5/cy_em_eeprom.c ****                               ((dataEndEepromRowNum > actEepromRowNum) ? 1u : 0u);
 1387              		.loc 1 229 77 view .LVU448
 1388 00ac 0123     		movs	r3, #1
 1389              	.LVL148:
 229:Generated_Source\PSoC5/cy_em_eeprom.c ****                               ((dataEndEepromRowNum > actEepromRowNum) ? 1u : 0u);
 1390              		.loc 1 229 77 view .LVU449
 1391 00ae 0493     		str	r3, [sp, #16]
 1392 00b0 F0E7     		b	.L83
 1393              	.LVL149:
 1394              	.L104:
 229:Generated_Source\PSoC5/cy_em_eeprom.c ****                               ((dataEndEepromRowNum > actEepromRowNum) ? 1u : 0u);
 1395              		.loc 1 229 77 view .LVU450
 1396 00b2 0023     		movs	r3, #0
 1397              	.LVL150:
 229:Generated_Source\PSoC5/cy_em_eeprom.c ****                               ((dataEndEepromRowNum > actEepromRowNum) ? 1u : 0u);
 1398              		.loc 1 229 77 view .LVU451
 1399 00b4 0493     		str	r3, [sp, #16]
 1400 00b6 EDE7     		b	.L83
 1401              	.LVL151:
 1402              	.L105:
 229:Generated_Source\PSoC5/cy_em_eeprom.c ****                               ((dataEndEepromRowNum > actEepromRowNum) ? 1u : 0u);
 1403              		.loc 1 229 77 view .LVU452
 1404              	.LBE4:
 248:Generated_Source\PSoC5/cy_em_eeprom.c ****             }
 1405              		.loc 1 248 32 view .LVU453
 1406 00b8 029D     		ldr	r5, [sp, #8]
 1407 00ba 19E0     		b	.L85
 1408              	.LVL152:
 1409              	.L87:
 280:Generated_Source\PSoC5/cy_em_eeprom.c ****                              (void *)(startRowAddr + curRowOffset),
 1410              		.loc 1 280 17 is_stmt 1 view .LVU454
 280:Generated_Source\PSoC5/cy_em_eeprom.c ****                              (void *)(startRowAddr + curRowOffset),
 1411              		.loc 1 280 23 is_stmt 0 view .LVU455
 1412 00bc 2A46     		mov	r2, r5
 1413 00be 0144     		add	r1, r1, r0
 1414              	.LVL153:
 280:Generated_Source\PSoC5/cy_em_eeprom.c ****                              (void *)(startRowAddr + curRowOffset),
 1415              		.loc 1 280 23 view .LVU456
 1416 00c0 3046     		mov	r0, r6
 1417              	.LVL154:
 280:Generated_Source\PSoC5/cy_em_eeprom.c ****                              (void *)(startRowAddr + curRowOffset),
 1418              		.loc 1 280 23 view .LVU457
 1419 00c2 FFF7FEFF 		bl	memcpy
 1420              	.LVL155:
 285:Generated_Source\PSoC5/cy_em_eeprom.c ****             }
 1421              		.loc 1 285 17 is_stmt 1 view .LVU458
 1422              	.L89:
 289:Generated_Source\PSoC5/cy_em_eeprom.c ****             rdSize -= numBytesToRead;
 1423              		.loc 1 289 13 discriminator 2 view .LVU459
 289:Generated_Source\PSoC5/cy_em_eeprom.c ****             rdSize -= numBytesToRead;
 1424              		.loc 1 289 20 is_stmt 0 discriminator 2 view .LVU460
 1425 00c6 AB44     		add	fp, fp, r5
 1426              	.LVL156:
 290:Generated_Source\PSoC5/cy_em_eeprom.c ****             eeData += numBytesToRead;
 1427              		.loc 1 290 13 is_stmt 1 discriminator 2 view .LVU461
 290:Generated_Source\PSoC5/cy_em_eeprom.c ****             eeData += numBytesToRead;
 1428              		.loc 1 290 20 is_stmt 0 discriminator 2 view .LVU462
ARM GAS  C:\Users\jens-\AppData\Local\Temp\cc4C0Tnp.s 			page 56


 1429 00c8 029B     		ldr	r3, [sp, #8]
 1430 00ca 5B1B     		subs	r3, r3, r5
 1431 00cc 0293     		str	r3, [sp, #8]
 1432              	.LVL157:
 291:Generated_Source\PSoC5/cy_em_eeprom.c ****             curRdEepromRowNum++;
 1433              		.loc 1 291 13 is_stmt 1 discriminator 2 view .LVU463
 291:Generated_Source\PSoC5/cy_em_eeprom.c ****             curRdEepromRowNum++;
 1434              		.loc 1 291 20 is_stmt 0 discriminator 2 view .LVU464
 1435 00ce 2E44     		add	r6, r6, r5
 1436              	.LVL158:
 292:Generated_Source\PSoC5/cy_em_eeprom.c ****         }
 1437              		.loc 1 292 13 is_stmt 1 discriminator 2 view .LVU465
 292:Generated_Source\PSoC5/cy_em_eeprom.c ****         }
 1438              		.loc 1 292 30 is_stmt 0 discriminator 2 view .LVU466
 1439 00d0 0134     		adds	r4, r4, #1
 1440              	.LVL159:
 234:Generated_Source\PSoC5/cy_em_eeprom.c ****         {
 1441              		.loc 1 234 38 is_stmt 1 discriminator 2 view .LVU467
 1442              	.L84:
 234:Generated_Source\PSoC5/cy_em_eeprom.c ****         {
 1443              		.loc 1 234 21 discriminator 1 view .LVU468
 234:Generated_Source\PSoC5/cy_em_eeprom.c ****         {
 1444              		.loc 1 234 9 is_stmt 0 discriminator 1 view .LVU469
 1445 00d2 D045     		cmp	r8, r10
 1446 00d4 31D2     		bcs	.L111
 236:Generated_Source\PSoC5/cy_em_eeprom.c ****             curRowOffset = CY_EM_EEPROM_EEPROM_DATA_LEN + (rdAddr % CY_EM_EEPROM_EEPROM_DATA_LEN);
 1447              		.loc 1 236 13 is_stmt 1 view .LVU470
 236:Generated_Source\PSoC5/cy_em_eeprom.c ****             curRowOffset = CY_EM_EEPROM_EEPROM_DATA_LEN + (rdAddr % CY_EM_EEPROM_EEPROM_DATA_LEN);
 1448              		.loc 1 236 26 is_stmt 0 view .LVU471
 1449 00d6 039B     		ldr	r3, [sp, #12]
 1450 00d8 03EB0420 		add	r0, r3, r4, lsl #8
 1451              	.LVL160:
 237:Generated_Source\PSoC5/cy_em_eeprom.c **** 
 1452              		.loc 1 237 13 is_stmt 1 view .LVU472
 237:Generated_Source\PSoC5/cy_em_eeprom.c **** 
 1453              		.loc 1 237 67 is_stmt 0 view .LVU473
 1454 00dc 0BF07F05 		and	r5, fp, #127
 237:Generated_Source\PSoC5/cy_em_eeprom.c **** 
 1455              		.loc 1 237 26 view .LVU474
 1456 00e0 05F18001 		add	r1, r5, #128
 1457              	.LVL161:
 242:Generated_Source\PSoC5/cy_em_eeprom.c ****             {
 1458              		.loc 1 242 13 is_stmt 1 view .LVU475
 242:Generated_Source\PSoC5/cy_em_eeprom.c ****             {
 1459              		.loc 1 242 19 is_stmt 0 view .LVU476
 1460 00e4 08F10108 		add	r8, r8, #1
 1461              	.LVL162:
 242:Generated_Source\PSoC5/cy_em_eeprom.c ****             {
 1462              		.loc 1 242 15 view .LVU477
 1463 00e8 D045     		cmp	r8, r10
 1464 00ea E5D2     		bcs	.L105
 244:Generated_Source\PSoC5/cy_em_eeprom.c ****             }
 1465              		.loc 1 244 17 is_stmt 1 view .LVU478
 244:Generated_Source\PSoC5/cy_em_eeprom.c ****             }
 1466              		.loc 1 244 32 is_stmt 0 view .LVU479
 1467 00ec C5F18005 		rsb	r5, r5, #128
 1468              	.LVL163:
ARM GAS  C:\Users\jens-\AppData\Local\Temp\cc4C0Tnp.s 			page 57


 1469              	.L85:
 254:Generated_Source\PSoC5/cy_em_eeprom.c ****             {
 1470              		.loc 1 254 13 is_stmt 1 view .LVU480
 254:Generated_Source\PSoC5/cy_em_eeprom.c ****             {
 1471              		.loc 1 254 15 is_stmt 0 view .LVU481
 1472 00f0 049B     		ldr	r3, [sp, #16]
 1473 00f2 7BB1     		cbz	r3, .L86
 254:Generated_Source\PSoC5/cy_em_eeprom.c ****             {
 1474              		.loc 1 254 39 discriminator 1 view .LVU482
 1475 00f4 059B     		ldr	r3, [sp, #20]
 1476 00f6 9C42     		cmp	r4, r3
 1477 00f8 0CD9     		bls	.L86
 256:Generated_Source\PSoC5/cy_em_eeprom.c **** 
 1478              		.loc 1 256 17 is_stmt 1 view .LVU483
 256:Generated_Source\PSoC5/cy_em_eeprom.c **** 
 1479              		.loc 1 256 40 is_stmt 0 view .LVU484
 1480 00fa D9F80430 		ldr	r3, [r9, #4]
 256:Generated_Source\PSoC5/cy_em_eeprom.c **** 
 1481              		.loc 1 256 30 view .LVU485
 1482 00fe A0EB0320 		sub	r0, r0, r3, lsl #8
 1483              	.LVL164:
 258:Generated_Source\PSoC5/cy_em_eeprom.c ****                 {
 1484              		.loc 1 258 17 is_stmt 1 view .LVU486
 258:Generated_Source\PSoC5/cy_em_eeprom.c ****                 {
 1485              		.loc 1 258 42 is_stmt 0 view .LVU487
 1486 0102 D9F81820 		ldr	r2, [r9, #24]
 258:Generated_Source\PSoC5/cy_em_eeprom.c ****                 {
 1487              		.loc 1 258 19 view .LVU488
 1488 0106 8242     		cmp	r2, r0
 1489 0108 04D9     		bls	.L86
 260:Generated_Source\PSoC5/cy_em_eeprom.c ****                         ((context->numberOfRows - curRdEepromRowNum) * CY_EM_EEPROM_FLASH_SIZEOF_RO
 1490              		.loc 1 260 21 is_stmt 1 view .LVU489
 260:Generated_Source\PSoC5/cy_em_eeprom.c ****                         ((context->numberOfRows - curRdEepromRowNum) * CY_EM_EEPROM_FLASH_SIZEOF_RO
 1491              		.loc 1 260 43 is_stmt 0 view .LVU490
 1492 010a D9F80000 		ldr	r0, [r9]
 1493              	.LVL165:
 261:Generated_Source\PSoC5/cy_em_eeprom.c ****                 }
 1494              		.loc 1 261 49 view .LVU491
 1495 010e 1B1B     		subs	r3, r3, r4
 1496              	.LVL166:
 260:Generated_Source\PSoC5/cy_em_eeprom.c ****                         ((context->numberOfRows - curRdEepromRowNum) * CY_EM_EEPROM_FLASH_SIZEOF_RO
 1497              		.loc 1 260 34 view .LVU492
 1498 0110 A0EB0320 		sub	r0, r0, r3, lsl #8
 1499              	.LVL167:
 1500              	.L86:
 265:Generated_Source\PSoC5/cy_em_eeprom.c ****             {
 1501              		.loc 1 265 13 is_stmt 1 view .LVU493
 265:Generated_Source\PSoC5/cy_em_eeprom.c ****             {
 1502              		.loc 1 265 29 is_stmt 0 view .LVU494
 1503 0114 99F81470 		ldrb	r7, [r9, #20]	@ zero_extendqisi2
 1504              	.LVL168:
 265:Generated_Source\PSoC5/cy_em_eeprom.c ****             {
 1505              		.loc 1 265 15 view .LVU495
 1506 0118 002F     		cmp	r7, #0
 1507 011a CFD0     		beq	.L87
 270:Generated_Source\PSoC5/cy_em_eeprom.c **** 
 1508              		.loc 1 270 17 is_stmt 1 view .LVU496
ARM GAS  C:\Users\jens-\AppData\Local\Temp\cc4C0Tnp.s 			page 58


 270:Generated_Source\PSoC5/cy_em_eeprom.c **** 
 1509              		.loc 1 270 23 is_stmt 0 view .LVU497
 1510 011c CDF80090 		str	r9, [sp]
 1511 0120 2B46     		mov	r3, r5
 1512 0122 0A46     		mov	r2, r1
 1513 0124 3146     		mov	r1, r6
 1514              	.LVL169:
 270:Generated_Source\PSoC5/cy_em_eeprom.c **** 
 1515              		.loc 1 270 23 view .LVU498
 1516 0126 FFF7FEFF 		bl	CheckCrcAndCopy
 1517              	.LVL170:
 272:Generated_Source\PSoC5/cy_em_eeprom.c ****                 {
 1518              		.loc 1 272 17 is_stmt 1 view .LVU499
 272:Generated_Source\PSoC5/cy_em_eeprom.c ****                 {
 1519              		.loc 1 272 19 is_stmt 0 view .LVU500
 1520 012a 0746     		mov	r7, r0
 1521 012c 0028     		cmp	r0, #0
 1522 012e CAD0     		beq	.L89
 1523 0130 8246     		mov	r10, r0
 1524              	.LVL171:
 272:Generated_Source\PSoC5/cy_em_eeprom.c ****                 {
 1525              		.loc 1 272 19 view .LVU501
 1526 0132 4F46     		mov	r7, r9
 1527 0134 DDF82090 		ldr	r9, [sp, #32]
 1528              	.LVL172:
 272:Generated_Source\PSoC5/cy_em_eeprom.c ****                 {
 1529              		.loc 1 272 19 view .LVU502
 1530 0138 03E0     		b	.L88
 1531              	.LVL173:
 1532              	.L111:
 272:Generated_Source\PSoC5/cy_em_eeprom.c ****                 {
 1533              		.loc 1 272 19 view .LVU503
 1534 013a BA46     		mov	r10, r7
 1535              	.LVL174:
 272:Generated_Source\PSoC5/cy_em_eeprom.c ****                 {
 1536              		.loc 1 272 19 view .LVU504
 1537 013c 4F46     		mov	r7, r9
 1538              	.LVL175:
 272:Generated_Source\PSoC5/cy_em_eeprom.c ****                 {
 1539              		.loc 1 272 19 view .LVU505
 1540 013e DDF82090 		ldr	r9, [sp, #32]
 1541              	.LVL176:
 1542              	.L88:
 303:Generated_Source\PSoC5/cy_em_eeprom.c ****         {
 1543              		.loc 1 303 9 is_stmt 1 view .LVU506
 303:Generated_Source\PSoC5/cy_em_eeprom.c ****         {
 1544              		.loc 1 303 11 is_stmt 0 view .LVU507
 1545 0142 BAF1000F 		cmp	r10, #0
 1546 0146 50D1     		bne	.L78
 303:Generated_Source\PSoC5/cy_em_eeprom.c ****         {
 1547              		.loc 1 303 42 discriminator 1 view .LVU508
 1548 0148 099D     		ldr	r5, [sp, #36]
 1549 014a 002D     		cmp	r5, #0
 1550 014c 4DD0     		beq	.L78
 305:Generated_Source\PSoC5/cy_em_eeprom.c ****             numRowReads--;
 1551              		.loc 1 305 13 is_stmt 1 view .LVU509
 305:Generated_Source\PSoC5/cy_em_eeprom.c ****             numRowReads--;
ARM GAS  C:\Users\jens-\AppData\Local\Temp\cc4C0Tnp.s 			page 59


 1552              		.loc 1 305 35 is_stmt 0 view .LVU510
 1553 014e 7C68     		ldr	r4, [r7, #4]
 1554              	.LVL177:
 305:Generated_Source\PSoC5/cy_em_eeprom.c ****             numRowReads--;
 1555              		.loc 1 305 25 view .LVU511
 1556 0150 AC42     		cmp	r4, r5
 1557 0152 28BF     		it	cs
 1558 0154 2C46     		movcs	r4, r5
 1559              	.LVL178:
 306:Generated_Source\PSoC5/cy_em_eeprom.c **** 
 1560              		.loc 1 306 13 is_stmt 1 view .LVU512
 306:Generated_Source\PSoC5/cy_em_eeprom.c **** 
 1561              		.loc 1 306 24 is_stmt 0 view .LVU513
 1562 0156 013C     		subs	r4, r4, #1
 1563              	.LVL179:
 308:Generated_Source\PSoC5/cy_em_eeprom.c ****             {
 1564              		.loc 1 308 13 is_stmt 1 view .LVU514
 308:Generated_Source\PSoC5/cy_em_eeprom.c ****             {
 1565              		.loc 1 308 19 is_stmt 0 view .LVU515
 1566 0158 2C1B     		subs	r4, r5, r4
 1567              	.LVL180:
 308:Generated_Source\PSoC5/cy_em_eeprom.c ****             {
 1568              		.loc 1 308 19 view .LVU516
 1569 015a 079E     		ldr	r6, [sp, #28]
 1570              	.LVL181:
 308:Generated_Source\PSoC5/cy_em_eeprom.c ****             {
 1571              		.loc 1 308 19 view .LVU517
 1572 015c DDF81880 		ldr	r8, [sp, #24]
 308:Generated_Source\PSoC5/cy_em_eeprom.c ****             {
 1573              		.loc 1 308 13 view .LVU518
 1574 0160 28E0     		b	.L91
 1575              	.LVL182:
 1576              	.L93:
 1577              	.LBB5:
 319:Generated_Source\PSoC5/cy_em_eeprom.c ****                     {
 1578              		.loc 1 319 27 discriminator 2 view .LVU519
 1579 0162 8945     		cmp	r9, r1
 1580 0164 2CBF     		ite	cs
 1581 0166 0022     		movcs	r2, #0
 1582 0168 0122     		movcc	r2, #1
 1583 016a 35E0     		b	.L94
 1584              	.L106:
 1585              	.LBB6:
 321:Generated_Source\PSoC5/cy_em_eeprom.c ****                         uint32 dstOffset = (startAddr > addr) ? (startAddr - addr): (0u);
 1586              		.loc 1 321 70 view .LVU520
 1587 016c 4FF0000E 		mov	lr, #0
 1588              	.L95:
 1589              	.LVL183:
 322:Generated_Source\PSoC5/cy_em_eeprom.c ****                         rdAddr = (startAddr > addr) ? (startAddr) : (addr);
 1590              		.loc 1 322 25 is_stmt 1 discriminator 4 view .LVU521
 322:Generated_Source\PSoC5/cy_em_eeprom.c ****                         rdAddr = (startAddr > addr) ? (startAddr) : (addr);
 1591              		.loc 1 322 83 is_stmt 0 discriminator 4 view .LVU522
 1592 0170 9945     		cmp	r9, r3
 1593 0172 02D2     		bcs	.L107
 322:Generated_Source\PSoC5/cy_em_eeprom.c ****                         rdAddr = (startAddr > addr) ? (startAddr) : (addr);
 1594              		.loc 1 322 83 discriminator 1 view .LVU523
 1595 0174 A3EB0900 		sub	r0, r3, r9
ARM GAS  C:\Users\jens-\AppData\Local\Temp\cc4C0Tnp.s 			page 60


 1596              	.LVL184:
 322:Generated_Source\PSoC5/cy_em_eeprom.c ****                         rdAddr = (startAddr > addr) ? (startAddr) : (addr);
 1597              		.loc 1 322 83 discriminator 1 view .LVU524
 1598 0178 00E0     		b	.L96
 1599              	.LVL185:
 1600              	.L107:
 322:Generated_Source\PSoC5/cy_em_eeprom.c ****                         rdAddr = (startAddr > addr) ? (startAddr) : (addr);
 1601              		.loc 1 322 83 view .LVU525
 1602 017a 0020     		movs	r0, #0
 1603              	.LVL186:
 1604              	.L96:
 323:Generated_Source\PSoC5/cy_em_eeprom.c **** 
 1605              		.loc 1 323 25 is_stmt 1 discriminator 4 view .LVU526
 325:Generated_Source\PSoC5/cy_em_eeprom.c **** 
 1606              		.loc 1 325 25 discriminator 4 view .LVU527
 325:Generated_Source\PSoC5/cy_em_eeprom.c **** 
 1607              		.loc 1 325 35 is_stmt 0 discriminator 4 view .LVU528
 1608 017c 0EF10C0E 		add	lr, lr, #12
 1609              	.LVL187:
 328:Generated_Source\PSoC5/cy_em_eeprom.c **** 
 1610              		.loc 1 328 25 is_stmt 1 discriminator 4 view .LVU529
 328:Generated_Source\PSoC5/cy_em_eeprom.c **** 
 1611              		.loc 1 328 79 is_stmt 0 discriminator 4 view .LVU530
 1612 0180 B142     		cmp	r1, r6
 1613 0182 28BF     		it	cs
 1614 0184 3146     		movcs	r1, r6
 1615              	.LVL188:
 328:Generated_Source\PSoC5/cy_em_eeprom.c **** 
 1616              		.loc 1 328 40 discriminator 4 view .LVU531
 1617 0186 9945     		cmp	r9, r3
 1618 0188 2CBF     		ite	cs
 1619 018a A1EB0903 		subcs	r3, r1, r9
 1620              	.LVL189:
 328:Generated_Source\PSoC5/cy_em_eeprom.c **** 
 1621              		.loc 1 328 40 discriminator 4 view .LVU532
 1622 018e CB1A     		subcc	r3, r1, r3
 1623              	.LVL190:
 331:Generated_Source\PSoC5/cy_em_eeprom.c **** 
 1624              		.loc 1 331 25 is_stmt 1 discriminator 4 view .LVU533
 331:Generated_Source\PSoC5/cy_em_eeprom.c **** 
 1625              		.loc 1 331 32 is_stmt 0 discriminator 4 view .LVU534
 1626 0190 4044     		add	r0, r0, r8
 1627              	.LVL191:
 338:Generated_Source\PSoC5/cy_em_eeprom.c ****                         {
 1628              		.loc 1 338 25 is_stmt 1 discriminator 4 view .LVU535
 338:Generated_Source\PSoC5/cy_em_eeprom.c ****                         {
 1629              		.loc 1 338 41 is_stmt 0 discriminator 4 view .LVU536
 1630 0192 3A7D     		ldrb	r2, [r7, #20]	@ zero_extendqisi2
 338:Generated_Source\PSoC5/cy_em_eeprom.c ****                         {
 1631              		.loc 1 338 27 discriminator 4 view .LVU537
 1632 0194 42B1     		cbz	r2, .L97
 340:Generated_Source\PSoC5/cy_em_eeprom.c **** 
 1633              		.loc 1 340 29 is_stmt 1 view .LVU538
 340:Generated_Source\PSoC5/cy_em_eeprom.c **** 
 1634              		.loc 1 340 35 is_stmt 0 view .LVU539
 1635 0196 0097     		str	r7, [sp]
 1636              	.LVL192:
ARM GAS  C:\Users\jens-\AppData\Local\Temp\cc4C0Tnp.s 			page 61


 340:Generated_Source\PSoC5/cy_em_eeprom.c **** 
 1637              		.loc 1 340 35 view .LVU540
 1638 0198 7246     		mov	r2, lr
 1639 019a 0146     		mov	r1, r0
 1640 019c 6046     		mov	r0, ip
 1641              	.LVL193:
 340:Generated_Source\PSoC5/cy_em_eeprom.c **** 
 1642              		.loc 1 340 35 view .LVU541
 1643 019e FFF7FEFF 		bl	CheckCrcAndCopy
 1644              	.LVL194:
 342:Generated_Source\PSoC5/cy_em_eeprom.c ****                             {
 1645              		.loc 1 342 29 is_stmt 1 view .LVU542
 342:Generated_Source\PSoC5/cy_em_eeprom.c ****                             {
 1646              		.loc 1 342 31 is_stmt 0 view .LVU543
 1647 01a2 8246     		mov	r10, r0
 1648 01a4 28B1     		cbz	r0, .L92
 1649 01a6 20E0     		b	.L78
 1650              	.LVL195:
 1651              	.L97:
 349:Generated_Source\PSoC5/cy_em_eeprom.c ****                         }
 1652              		.loc 1 349 29 is_stmt 1 view .LVU544
 349:Generated_Source\PSoC5/cy_em_eeprom.c ****                         }
 1653              		.loc 1 349 35 is_stmt 0 view .LVU545
 1654 01a8 1A46     		mov	r2, r3
 1655 01aa 0CEB0E01 		add	r1, ip, lr
 1656 01ae FFF7FEFF 		bl	memcpy
 1657              	.LVL196:
 1658              	.L92:
 349:Generated_Source\PSoC5/cy_em_eeprom.c ****                         }
 1659              		.loc 1 349 35 view .LVU546
 1660              	.LBE6:
 1661              	.LBE5:
 308:Generated_Source\PSoC5/cy_em_eeprom.c ****             {
 1662              		.loc 1 308 58 is_stmt 1 discriminator 2 view .LVU547
 308:Generated_Source\PSoC5/cy_em_eeprom.c ****             {
 1663              		.loc 1 308 59 is_stmt 0 discriminator 2 view .LVU548
 1664 01b2 0134     		adds	r4, r4, #1
 1665              	.LVL197:
 1666              	.L91:
 308:Generated_Source\PSoC5/cy_em_eeprom.c ****             {
 1667              		.loc 1 308 45 is_stmt 1 discriminator 1 view .LVU549
 308:Generated_Source\PSoC5/cy_em_eeprom.c ****             {
 1668              		.loc 1 308 13 is_stmt 0 discriminator 1 view .LVU550
 1669 01b4 AC42     		cmp	r4, r5
 1670 01b6 18D8     		bhi	.L78
 310:Generated_Source\PSoC5/cy_em_eeprom.c **** 
 1671              		.loc 1 310 17 is_stmt 1 view .LVU551
 310:Generated_Source\PSoC5/cy_em_eeprom.c **** 
 1672              		.loc 1 310 32 is_stmt 0 view .LVU552
 1673 01b8 3946     		mov	r1, r7
 1674 01ba 2046     		mov	r0, r4
 1675 01bc FFF7FEFF 		bl	GetRowAddrBySeqNum
 1676              	.LVL198:
 312:Generated_Source\PSoC5/cy_em_eeprom.c ****                 {
 1677              		.loc 1 312 17 is_stmt 1 view .LVU553
 312:Generated_Source\PSoC5/cy_em_eeprom.c ****                 {
 1678              		.loc 1 312 20 is_stmt 0 view .LVU554
ARM GAS  C:\Users\jens-\AppData\Local\Temp\cc4C0Tnp.s 			page 62


 1679 01c0 8446     		mov	ip, r0
 1680 01c2 0028     		cmp	r0, #0
 1681 01c4 F5D0     		beq	.L92
 1682              	.LBB8:
 315:Generated_Source\PSoC5/cy_em_eeprom.c ****                     uint32 endAddr    = startAddr + (*(uint32 *)(startRowAddr + CY_EM_EEPROM_HEADER
 1683              		.loc 1 315 21 is_stmt 1 view .LVU555
 315:Generated_Source\PSoC5/cy_em_eeprom.c ****                     uint32 endAddr    = startAddr + (*(uint32 *)(startRowAddr + CY_EM_EEPROM_HEADER
 1684              		.loc 1 315 28 is_stmt 0 view .LVU556
 1685 01c6 4368     		ldr	r3, [r0, #4]
 1686              	.LVL199:
 316:Generated_Source\PSoC5/cy_em_eeprom.c **** 
 1687              		.loc 1 316 21 is_stmt 1 view .LVU557
 316:Generated_Source\PSoC5/cy_em_eeprom.c **** 
 1688              		.loc 1 316 54 is_stmt 0 view .LVU558
 1689 01c8 8168     		ldr	r1, [r0, #8]
 316:Generated_Source\PSoC5/cy_em_eeprom.c **** 
 1690              		.loc 1 316 28 view .LVU559
 1691 01ca 1944     		add	r1, r1, r3
 1692              	.LVL200:
 319:Generated_Source\PSoC5/cy_em_eeprom.c ****                     {
 1693              		.loc 1 319 21 is_stmt 1 view .LVU560
 319:Generated_Source\PSoC5/cy_em_eeprom.c ****                     {
 1694              		.loc 1 319 27 is_stmt 0 view .LVU561
 1695 01cc 9945     		cmp	r9, r3
 1696 01ce C8D2     		bcs	.L93
 319:Generated_Source\PSoC5/cy_em_eeprom.c ****                     {
 1697              		.loc 1 319 27 discriminator 1 view .LVU562
 1698 01d0 9E42     		cmp	r6, r3
 1699 01d2 94BF     		ite	ls
 1700 01d4 0022     		movls	r2, #0
 1701 01d6 0122     		movhi	r2, #1
 1702              	.L94:
 319:Generated_Source\PSoC5/cy_em_eeprom.c ****                     {
 1703              		.loc 1 319 23 discriminator 4 view .LVU563
 1704 01d8 002A     		cmp	r2, #0
 1705 01da EAD0     		beq	.L92
 1706              	.LBB7:
 321:Generated_Source\PSoC5/cy_em_eeprom.c ****                         uint32 dstOffset = (startAddr > addr) ? (startAddr - addr): (0u);
 1707              		.loc 1 321 25 is_stmt 1 view .LVU564
 321:Generated_Source\PSoC5/cy_em_eeprom.c ****                         uint32 dstOffset = (startAddr > addr) ? (startAddr - addr): (0u);
 1708              		.loc 1 321 70 is_stmt 0 view .LVU565
 1709 01dc 9945     		cmp	r9, r3
 1710 01de C5D3     		bcc	.L106
 321:Generated_Source\PSoC5/cy_em_eeprom.c ****                         uint32 dstOffset = (startAddr > addr) ? (startAddr - addr): (0u);
 1711              		.loc 1 321 70 discriminator 1 view .LVU566
 1712 01e0 A9EB030E 		sub	lr, r9, r3
 1713 01e4 C4E7     		b	.L95
 1714              	.LVL201:
 1715              	.L99:
 321:Generated_Source\PSoC5/cy_em_eeprom.c ****                         uint32 dstOffset = (startAddr > addr) ? (startAddr - addr): (0u);
 1716              		.loc 1 321 70 discriminator 1 view .LVU567
 1717              	.LBE7:
 1718              	.LBE8:
 1719              	.LBE11:
 174:Generated_Source\PSoC5/cy_em_eeprom.c ****     uint32 i;
 1720              		.loc 1 174 30 view .LVU568
 1721 01e6 4FF0010A 		mov	r10, #1
ARM GAS  C:\Users\jens-\AppData\Local\Temp\cc4C0Tnp.s 			page 63


 1722              	.LVL202:
 1723              	.L78:
 357:Generated_Source\PSoC5/cy_em_eeprom.c **** }
 1724              		.loc 1 357 5 is_stmt 1 view .LVU569
 358:Generated_Source\PSoC5/cy_em_eeprom.c **** 
 1725              		.loc 1 358 1 is_stmt 0 view .LVU570
 1726 01ea 5046     		mov	r0, r10
 1727 01ec 0BB0     		add	sp, sp, #44
 1728              		.cfi_remember_state
 1729              		.cfi_def_cfa_offset 36
 1730              		@ sp needed
 1731 01ee BDE8F08F 		pop	{r4, r5, r6, r7, r8, r9, r10, fp, pc}
 1732              	.LVL203:
 1733              	.L100:
 1734              		.cfi_restore_state
 174:Generated_Source\PSoC5/cy_em_eeprom.c ****     uint32 i;
 1735              		.loc 1 174 30 view .LVU571
 1736 01f2 4FF0010A 		mov	r10, #1
 1737 01f6 F8E7     		b	.L78
 1738              	.L101:
 1739 01f8 4FF0010A 		mov	r10, #1
 1740 01fc F5E7     		b	.L78
 1741              		.cfi_endproc
 1742              	.LFE1:
 1743              		.size	Cy_Em_EEPROM_Read, .-Cy_Em_EEPROM_Read
 1744              		.section	.text.Cy_Em_EEPROM_Write,"ax",%progbits
 1745              		.align	1
 1746              		.global	Cy_Em_EEPROM_Write
 1747              		.syntax unified
 1748              		.thumb
 1749              		.thumb_func
 1750              		.fpu softvfp
 1751              		.type	Cy_Em_EEPROM_Write, %function
 1752              	Cy_Em_EEPROM_Write:
 1753              	.LVL204:
 1754              	.LFB2:
 415:Generated_Source\PSoC5/cy_em_eeprom.c ****     cy_en_em_eeprom_status_t ret = CY_EM_EEPROM_BAD_PARAM;
 1755              		.loc 1 415 1 is_stmt 1 view -0
 1756              		.cfi_startproc
 1757              		@ args = 0, pretend = 0, frame = 296
 1758              		@ frame_needed = 0, uses_anonymous_args = 0
 415:Generated_Source\PSoC5/cy_em_eeprom.c ****     cy_en_em_eeprom_status_t ret = CY_EM_EEPROM_BAD_PARAM;
 1759              		.loc 1 415 1 is_stmt 0 view .LVU573
 1760 0000 2DE9F04F 		push	{r4, r5, r6, r7, r8, r9, r10, fp, lr}
 1761              		.cfi_def_cfa_offset 36
 1762              		.cfi_offset 4, -36
 1763              		.cfi_offset 5, -32
 1764              		.cfi_offset 6, -28
 1765              		.cfi_offset 7, -24
 1766              		.cfi_offset 8, -20
 1767              		.cfi_offset 9, -16
 1768              		.cfi_offset 10, -12
 1769              		.cfi_offset 11, -8
 1770              		.cfi_offset 14, -4
 1771 0004 CDB0     		sub	sp, sp, #308
 1772              		.cfi_def_cfa_offset 344
 1773 0006 1E46     		mov	r6, r3
ARM GAS  C:\Users\jens-\AppData\Local\Temp\cc4C0Tnp.s 			page 64


 416:Generated_Source\PSoC5/cy_em_eeprom.c ****     uint32 i;
 1774              		.loc 1 416 5 is_stmt 1 view .LVU574
 1775              	.LVL205:
 417:Generated_Source\PSoC5/cy_em_eeprom.c ****     uint32 wrCnt;
 1776              		.loc 1 417 5 view .LVU575
 418:Generated_Source\PSoC5/cy_em_eeprom.c ****     uint32 actEmEepromRowNum;
 1777              		.loc 1 418 5 view .LVU576
 419:Generated_Source\PSoC5/cy_em_eeprom.c ****     uint32 writeRamBuffer[CY_EM_EEPROM_FLASH_SIZEOF_ROW / CY_EM_EEPROM_U32_DIV];
 1778              		.loc 1 419 5 view .LVU577
 420:Generated_Source\PSoC5/cy_em_eeprom.c ****     uint32 startAddr = 0u;
 1779              		.loc 1 420 5 view .LVU578
 421:Generated_Source\PSoC5/cy_em_eeprom.c ****     uint32 endAddr = 0u;
 1780              		.loc 1 421 5 view .LVU579
 421:Generated_Source\PSoC5/cy_em_eeprom.c ****     uint32 endAddr = 0u;
 1781              		.loc 1 421 12 is_stmt 0 view .LVU580
 1782 0008 0023     		movs	r3, #0
 1783              	.LVL206:
 421:Generated_Source\PSoC5/cy_em_eeprom.c ****     uint32 endAddr = 0u;
 1784              		.loc 1 421 12 view .LVU581
 1785 000a 0B93     		str	r3, [sp, #44]
 422:Generated_Source\PSoC5/cy_em_eeprom.c ****     uint32 tmpRowAddr;
 1786              		.loc 1 422 5 is_stmt 1 view .LVU582
 422:Generated_Source\PSoC5/cy_em_eeprom.c ****     uint32 tmpRowAddr;
 1787              		.loc 1 422 12 is_stmt 0 view .LVU583
 1788 000c 0A93     		str	r3, [sp, #40]
 423:Generated_Source\PSoC5/cy_em_eeprom.c ****     uint32 emEepromRowAddr = context->lastWrRowAddr;
 1789              		.loc 1 423 5 is_stmt 1 view .LVU584
 424:Generated_Source\PSoC5/cy_em_eeprom.c ****     uint32 emEepromRowRdAddr;
 1790              		.loc 1 424 5 view .LVU585
 424:Generated_Source\PSoC5/cy_em_eeprom.c ****     uint32 emEepromRowRdAddr;
 1791              		.loc 1 424 37 is_stmt 0 view .LVU586
 1792 000e B368     		ldr	r3, [r6, #8]
 424:Generated_Source\PSoC5/cy_em_eeprom.c ****     uint32 emEepromRowRdAddr;
 1793              		.loc 1 424 12 view .LVU587
 1794 0010 0993     		str	r3, [sp, #36]
 425:Generated_Source\PSoC5/cy_em_eeprom.c ****     void * tmpData;
 1795              		.loc 1 425 5 is_stmt 1 view .LVU588
 426:Generated_Source\PSoC5/cy_em_eeprom.c ****     uint32 eeData = (uint32) eepromData; /* To avoid the pointer arithmetic with void */
 1796              		.loc 1 426 5 view .LVU589
 427:Generated_Source\PSoC5/cy_em_eeprom.c **** 
 1797              		.loc 1 427 5 view .LVU590
 427:Generated_Source\PSoC5/cy_em_eeprom.c **** 
 1798              		.loc 1 427 12 is_stmt 0 view .LVU591
 1799 0012 0391     		str	r1, [sp, #12]
 1800              	.LVL207:
 430:Generated_Source\PSoC5/cy_em_eeprom.c ****     {
 1801              		.loc 1 430 5 is_stmt 1 view .LVU592
 430:Generated_Source\PSoC5/cy_em_eeprom.c ****     {
 1802              		.loc 1 430 7 is_stmt 0 view .LVU593
 1803 0014 002A     		cmp	r2, #0
 1804 0016 00F0A380 		beq	.L130
 1805 001a 8146     		mov	r9, r0
 1806 001c 9346     		mov	fp, r2
 430:Generated_Source\PSoC5/cy_em_eeprom.c ****     {
 1807              		.loc 1 430 31 discriminator 1 view .LVU594
 1808 001e 1318     		adds	r3, r2, r0
 430:Generated_Source\PSoC5/cy_em_eeprom.c ****     {
ARM GAS  C:\Users\jens-\AppData\Local\Temp\cc4C0Tnp.s 			page 65


 1809              		.loc 1 430 50 discriminator 1 view .LVU595
 1810 0020 F268     		ldr	r2, [r6, #12]
 1811              	.LVL208:
 430:Generated_Source\PSoC5/cy_em_eeprom.c ****     {
 1812              		.loc 1 430 21 discriminator 1 view .LVU596
 1813 0022 9342     		cmp	r3, r2
 1814 0024 00F2A080 		bhi	.L131
 430:Generated_Source\PSoC5/cy_em_eeprom.c ****     {
 1815              		.loc 1 430 65 discriminator 2 view .LVU597
 1816 0028 0029     		cmp	r1, #0
 1817 002a 00F09F80 		beq	.L132
 1818              	.LBB12:
 432:Generated_Source\PSoC5/cy_em_eeprom.c ****         uint32 eeHeaderDataOffset = 0u;
 1819              		.loc 1 432 9 is_stmt 1 view .LVU598
 432:Generated_Source\PSoC5/cy_em_eeprom.c ****         uint32 eeHeaderDataOffset = 0u;
 1820              		.loc 1 432 35 is_stmt 0 view .LVU599
 1821 002e 0BF1FF33 		add	r3, fp, #-1
 432:Generated_Source\PSoC5/cy_em_eeprom.c ****         uint32 eeHeaderDataOffset = 0u;
 1822              		.loc 1 432 41 view .LVU600
 1823 0032 1B09     		lsrs	r3, r3, #4
 1824 0034 4E4A     		ldr	r2, .L144
 1825 0036 A2FB0323 		umull	r2, r3, r2, r3
 1826 003a 0593     		str	r3, [sp, #20]
 432:Generated_Source\PSoC5/cy_em_eeprom.c ****         uint32 eeHeaderDataOffset = 0u;
 1827              		.loc 1 432 16 view .LVU601
 1828 003c 0133     		adds	r3, r3, #1
 1829 003e 0493     		str	r3, [sp, #16]
 1830              	.LVL209:
 433:Generated_Source\PSoC5/cy_em_eeprom.c **** 
 1831              		.loc 1 433 9 is_stmt 1 view .LVU602
 433:Generated_Source\PSoC5/cy_em_eeprom.c **** 
 1832              		.loc 1 433 16 is_stmt 0 view .LVU603
 1833 0040 0023     		movs	r3, #0
 1834              	.LVL210:
 433:Generated_Source\PSoC5/cy_em_eeprom.c **** 
 1835              		.loc 1 433 16 view .LVU604
 1836 0042 0793     		str	r3, [sp, #28]
 435:Generated_Source\PSoC5/cy_em_eeprom.c ****         {
 1837              		.loc 1 435 9 is_stmt 1 view .LVU605
 1838              	.LVL211:
 435:Generated_Source\PSoC5/cy_em_eeprom.c ****         {
 1839              		.loc 1 435 19 is_stmt 0 view .LVU606
 1840 0044 9A46     		mov	r10, r3
 1841              	.LBE12:
 416:Generated_Source\PSoC5/cy_em_eeprom.c ****     uint32 i;
 1842              		.loc 1 416 30 view .LVU607
 1843 0046 0120     		movs	r0, #1
 1844              	.LVL212:
 1845              	.LBB16:
 435:Generated_Source\PSoC5/cy_em_eeprom.c ****         {
 1846              		.loc 1 435 9 view .LVU608
 1847 0048 50E0     		b	.L114
 1848              	.LVL213:
 1849              	.L142:
 1850              	.LBB13:
 461:Generated_Source\PSoC5/cy_em_eeprom.c ****             }
 1851              		.loc 1 461 17 is_stmt 1 view .LVU609
ARM GAS  C:\Users\jens-\AppData\Local\Temp\cc4C0Tnp.s 			page 66


 461:Generated_Source\PSoC5/cy_em_eeprom.c ****             }
 1852              		.loc 1 461 68 is_stmt 0 view .LVU610
 1853 004a CDF838B0 		str	fp, [sp, #56]
 1854 004e 6FE0     		b	.L116
 1855              	.LVL214:
 1856              	.L143:
 483:Generated_Source\PSoC5/cy_em_eeprom.c ****                              (void *)(emEepromRowRdAddr + CY_EM_EEPROM_EEPROM_DATA_LEN),
 1857              		.loc 1 483 17 is_stmt 1 view .LVU611
 483:Generated_Source\PSoC5/cy_em_eeprom.c ****                              (void *)(emEepromRowRdAddr + CY_EM_EEPROM_EEPROM_DATA_LEN),
 1858              		.loc 1 483 23 is_stmt 0 view .LVU612
 1859 0050 8022     		movs	r2, #128
 1860 0052 1144     		add	r1, r1, r2
 1861 0054 2CA8     		add	r0, sp, #176
 1862 0056 FFF7FEFF 		bl	memcpy
 1863              	.LVL215:
 1864 005a 70E0     		b	.L117
 1865              	.LVL216:
 1866              	.L140:
 502:Generated_Source\PSoC5/cy_em_eeprom.c ****                 }
 1867              		.loc 1 502 21 is_stmt 1 view .LVU613
 502:Generated_Source\PSoC5/cy_em_eeprom.c ****                 }
 1868              		.loc 1 502 32 is_stmt 0 view .LVU614
 1869 005c 0CAD     		add	r5, sp, #48
 1870              	.LVL217:
 1871              	.L120:
 512:Generated_Source\PSoC5/cy_em_eeprom.c ****                                                                            context->numberOfRows,
 1872              		.loc 1 512 17 is_stmt 1 view .LVU615
 512:Generated_Source\PSoC5/cy_em_eeprom.c ****                                                                            context->numberOfRows,
 1873              		.loc 1 512 37 is_stmt 0 view .LVU616
 1874 005e B269     		ldr	r2, [r6, #24]
 1875 0060 099B     		ldr	r3, [sp, #36]
 1876 0062 9B1A     		subs	r3, r3, r2
 1877 0064 1B0A     		lsrs	r3, r3, #8
 1878 0066 7168     		ldr	r1, [r6, #4]
 512:Generated_Source\PSoC5/cy_em_eeprom.c ****                                                                            context->numberOfRows,
 1879              		.loc 1 512 35 view .LVU617
 1880 0068 B3FBF1F2 		udiv	r2, r3, r1
 1881 006c 01FB1233 		mls	r3, r1, r2, r3
 1882              	.LVL218:
 515:Generated_Source\PSoC5/cy_em_eeprom.c ****                 {
 1883              		.loc 1 515 17 is_stmt 1 view .LVU618
 515:Generated_Source\PSoC5/cy_em_eeprom.c ****                 {
 1884              		.loc 1 515 19 is_stmt 0 view .LVU619
 1885 0070 75B9     		cbnz	r5, .L136
 529:Generated_Source\PSoC5/cy_em_eeprom.c ****                 }
 1886              		.loc 1 529 21 is_stmt 1 view .LVU620
 529:Generated_Source\PSoC5/cy_em_eeprom.c ****                 }
 1887              		.loc 1 529 34 is_stmt 0 view .LVU621
 1888 0072 0137     		adds	r7, r7, #1
 1889              	.LVL219:
 1890              	.L122:
 533:Generated_Source\PSoC5/cy_em_eeprom.c ****                 {
 1891              		.loc 1 533 17 is_stmt 1 view .LVU622
 533:Generated_Source\PSoC5/cy_em_eeprom.c ****                 {
 1892              		.loc 1 533 19 is_stmt 0 view .LVU623
 1893 0074 BFB1     		cbz	r7, .L137
 1894              	.LVL220:
ARM GAS  C:\Users\jens-\AppData\Local\Temp\cc4C0Tnp.s 			page 67


 1895              	.L123:
 545:Generated_Source\PSoC5/cy_em_eeprom.c ****                 {
 1896              		.loc 1 545 17 is_stmt 1 view .LVU624
 545:Generated_Source\PSoC5/cy_em_eeprom.c ****                 {
 1897              		.loc 1 545 33 is_stmt 0 view .LVU625
 1898 0076 337D     		ldrb	r3, [r6, #20]	@ zero_extendqisi2
 545:Generated_Source\PSoC5/cy_em_eeprom.c ****                 {
 1899              		.loc 1 545 19 view .LVU626
 1900 0078 03BB     		cbnz	r3, .L138
 1901              	.L124:
 494:Generated_Source\PSoC5/cy_em_eeprom.c ****             {
 1902              		.loc 1 494 32 is_stmt 1 view .LVU627
 494:Generated_Source\PSoC5/cy_em_eeprom.c ****             {
 1903              		.loc 1 494 33 is_stmt 0 view .LVU628
 1904 007a 0134     		adds	r4, r4, #1
 1905              	.LVL221:
 1906              	.L125:
 494:Generated_Source\PSoC5/cy_em_eeprom.c ****             {
 1907              		.loc 1 494 19 is_stmt 1 discriminator 1 view .LVU629
 494:Generated_Source\PSoC5/cy_em_eeprom.c ****             {
 1908              		.loc 1 494 13 is_stmt 0 discriminator 1 view .LVU630
 1909 007c 4445     		cmp	r4, r8
 1910 007e 25D8     		bhi	.L139
 496:Generated_Source\PSoC5/cy_em_eeprom.c ****                 {
 1911              		.loc 1 496 17 is_stmt 1 view .LVU631
 496:Generated_Source\PSoC5/cy_em_eeprom.c ****                 {
 1912              		.loc 1 496 19 is_stmt 0 view .LVU632
 1913 0080 4445     		cmp	r4, r8
 1914 0082 EBD0     		beq	.L140
 509:Generated_Source\PSoC5/cy_em_eeprom.c ****                 }
 1915              		.loc 1 509 21 is_stmt 1 view .LVU633
 509:Generated_Source\PSoC5/cy_em_eeprom.c ****                 }
 1916              		.loc 1 509 34 is_stmt 0 view .LVU634
 1917 0084 3146     		mov	r1, r6
 1918 0086 2046     		mov	r0, r4
 1919 0088 FFF7FEFF 		bl	GetRowAddrBySeqNum
 1920              	.LVL222:
 1921 008c 0546     		mov	r5, r0
 1922              	.LVL223:
 509:Generated_Source\PSoC5/cy_em_eeprom.c ****                 }
 1923              		.loc 1 509 34 view .LVU635
 1924 008e E6E7     		b	.L120
 1925              	.LVL224:
 1926              	.L136:
 518:Generated_Source\PSoC5/cy_em_eeprom.c ****                                               &startAddr,
 1927              		.loc 1 518 21 is_stmt 1 view .LVU636
 518:Generated_Source\PSoC5/cy_em_eeprom.c ****                                               &startAddr,
 1928              		.loc 1 518 37 is_stmt 0 view .LVU637
 1929 0090 AA68     		ldr	r2, [r5, #8]
 1930 0092 0192     		str	r2, [sp, #4]
 1931 0094 6A68     		ldr	r2, [r5, #4]
 1932 0096 0092     		str	r2, [sp]
 1933 0098 07AA     		add	r2, sp, #28
 1934 009a 0AA9     		add	r1, sp, #40
 1935 009c 0BA8     		add	r0, sp, #44
 1936 009e FFF7FEFF 		bl	GetAddresses
 1937              	.LVL225:
ARM GAS  C:\Users\jens-\AppData\Local\Temp\cc4C0Tnp.s 			page 68


 518:Generated_Source\PSoC5/cy_em_eeprom.c ****                                               &startAddr,
 1938              		.loc 1 518 37 view .LVU638
 1939 00a2 0746     		mov	r7, r0
 1940              	.LVL226:
 518:Generated_Source\PSoC5/cy_em_eeprom.c ****                                               &startAddr,
 1941              		.loc 1 518 37 view .LVU639
 1942 00a4 E6E7     		b	.L122
 1943              	.LVL227:
 1944              	.L137:
 1945              	.LBB14:
 535:Generated_Source\PSoC5/cy_em_eeprom.c **** 
 1946              		.loc 1 535 21 is_stmt 1 view .LVU640
 535:Generated_Source\PSoC5/cy_em_eeprom.c **** 
 1947              		.loc 1 535 76 is_stmt 0 view .LVU641
 1948 00a6 0B98     		ldr	r0, [sp, #44]
 1949              	.LVL228:
 540:Generated_Source\PSoC5/cy_em_eeprom.c ****                     (void)memcpy((void *)(dataAddr), (void *)(tmpRowAddr), endAddr - startAddr);
 1950              		.loc 1 540 21 is_stmt 1 view .LVU642
 540:Generated_Source\PSoC5/cy_em_eeprom.c ****                     (void)memcpy((void *)(dataAddr), (void *)(tmpRowAddr), endAddr - startAddr);
 1951              		.loc 1 540 79 is_stmt 0 view .LVU643
 1952 00a8 0799     		ldr	r1, [sp, #28]
 1953 00aa 2944     		add	r1, r1, r5
 1954              	.LVL229:
 541:Generated_Source\PSoC5/cy_em_eeprom.c ****                 }
 1955              		.loc 1 541 21 is_stmt 1 view .LVU644
 541:Generated_Source\PSoC5/cy_em_eeprom.c ****                 }
 1956              		.loc 1 541 27 is_stmt 0 view .LVU645
 1957 00ac 0A9A     		ldr	r2, [sp, #40]
 1958 00ae 121A     		subs	r2, r2, r0
 1959 00b0 0C31     		adds	r1, r1, #12
 1960              	.LVL230:
 541:Generated_Source\PSoC5/cy_em_eeprom.c ****                 }
 1961              		.loc 1 541 27 view .LVU646
 1962 00b2 0CAB     		add	r3, sp, #48
 1963 00b4 1844     		add	r0, r0, r3
 1964              	.LVL231:
 541:Generated_Source\PSoC5/cy_em_eeprom.c ****                 }
 1965              		.loc 1 541 27 view .LVU647
 1966 00b6 FFF7FEFF 		bl	memcpy
 1967              	.LVL232:
 541:Generated_Source\PSoC5/cy_em_eeprom.c ****                 }
 1968              		.loc 1 541 27 view .LVU648
 1969 00ba DCE7     		b	.L123
 1970              	.L138:
 541:Generated_Source\PSoC5/cy_em_eeprom.c ****                 }
 1971              		.loc 1 541 27 view .LVU649
 1972              	.LBE14:
 547:Generated_Source\PSoC5/cy_em_eeprom.c ****                         CalcChecksum((uint8 *) &writeRamBuffer[CY_EM_EEPROM_EEPROM_DATA_OFFSET_U32]
 1973              		.loc 1 547 21 is_stmt 1 view .LVU650
 548:Generated_Source\PSoC5/cy_em_eeprom.c ****                                                   CY_EM_EEPROM_EEPROM_DATA_LEN);
 1974              		.loc 1 548 25 is_stmt 0 view .LVU651
 1975 00bc 8021     		movs	r1, #128
 1976 00be 2CA8     		add	r0, sp, #176
 1977 00c0 FFF7FEFF 		bl	CalcChecksum
 1978              	.LVL233:
 547:Generated_Source\PSoC5/cy_em_eeprom.c ****                         CalcChecksum((uint8 *) &writeRamBuffer[CY_EM_EEPROM_EEPROM_DATA_OFFSET_U32]
 1979              		.loc 1 547 77 view .LVU652
ARM GAS  C:\Users\jens-\AppData\Local\Temp\cc4C0Tnp.s 			page 69


 1980 00c4 2B90     		str	r0, [sp, #172]
 1981 00c6 D8E7     		b	.L124
 1982              	.LVL234:
 1983              	.L133:
 492:Generated_Source\PSoC5/cy_em_eeprom.c **** 
 1984              		.loc 1 492 94 view .LVU653
 1985 00c8 0124     		movs	r4, #1
 1986 00ca 3EE0     		b	.L118
 1987              	.LVL235:
 1988              	.L139:
 554:Generated_Source\PSoC5/cy_em_eeprom.c ****             tmpRowAddr = emEepromRowAddr;
 1989              		.loc 1 554 13 is_stmt 1 view .LVU654
 554:Generated_Source\PSoC5/cy_em_eeprom.c ****             tmpRowAddr = emEepromRowAddr;
 1990              		.loc 1 554 19 is_stmt 0 view .LVU655
 1991 00cc 3246     		mov	r2, r6
 1992 00ce 0CA9     		add	r1, sp, #48
 1993 00d0 0998     		ldr	r0, [sp, #36]
 1994 00d2 FFF7FEFF 		bl	WriteRow
 1995              	.LVL236:
 555:Generated_Source\PSoC5/cy_em_eeprom.c **** 
 1996              		.loc 1 555 13 is_stmt 1 view .LVU656
 555:Generated_Source\PSoC5/cy_em_eeprom.c **** 
 1997              		.loc 1 555 24 is_stmt 0 view .LVU657
 1998 00d6 099A     		ldr	r2, [sp, #36]
 1999              	.LVL237:
 558:Generated_Source\PSoC5/cy_em_eeprom.c ****             {
 2000              		.loc 1 558 13 is_stmt 1 view .LVU658
 558:Generated_Source\PSoC5/cy_em_eeprom.c ****             {
 2001              		.loc 1 558 30 is_stmt 0 view .LVU659
 2002 00d8 337D     		ldrb	r3, [r6, #20]	@ zero_extendqisi2
 558:Generated_Source\PSoC5/cy_em_eeprom.c ****             {
 2003              		.loc 1 558 15 view .LVU660
 2004 00da 0BB1     		cbz	r3, .L127
 558:Generated_Source\PSoC5/cy_em_eeprom.c ****             {
 2005              		.loc 1 558 47 discriminator 1 view .LVU661
 2006 00dc 0028     		cmp	r0, #0
 2007 00de 36D0     		beq	.L141
 2008              	.LVL238:
 2009              	.L127:
 567:Generated_Source\PSoC5/cy_em_eeprom.c ****             {
 2010              		.loc 1 567 13 is_stmt 1 view .LVU662
 567:Generated_Source\PSoC5/cy_em_eeprom.c ****             {
 2011              		.loc 1 567 15 is_stmt 0 view .LVU663
 2012 00e0 0028     		cmp	r0, #0
 2013 00e2 3ED1     		bne	.L113
 572:Generated_Source\PSoC5/cy_em_eeprom.c ****             }
 2014              		.loc 1 572 17 is_stmt 1 discriminator 2 view .LVU664
 572:Generated_Source\PSoC5/cy_em_eeprom.c ****             }
