ARM GAS  C:\Users\jens-\AppData\Local\Temp\cc4C0Tnp.s 			page 1


   1              		.cpu cortex-m3
   2              		.eabi_attribute 20, 1
   3              		.eabi_attribute 21, 1
   4              		.eabi_attribute 23, 3
   5              		.eabi_attribute 24, 1
   6              		.eabi_attribute 25, 1
   7              		.eabi_attribute 26, 1
   8              		.eabi_attribute 30, 1
   9              		.eabi_attribute 34, 1
  10              		.eabi_attribute 18, 4
  11              		.file	"cy_em_eeprom.c"
  12              		.text
  13              	.Ltext0:
  14              		.cfi_sections	.debug_frame
  15              		.section	.text.FindLastWrittenRow,"ax",%progbits
  16              		.align	1
  17              		.arch armv7-m
  18              		.syntax unified
  19              		.thumb
  20              		.thumb_func
  21              		.fpu softvfp
  22              		.type	FindLastWrittenRow, %function
  23              	FindLastWrittenRow:
  24              	.LVL0:
  25              	.LFB5:
  26              		.file 1 "Generated_Source\\PSoC5\\cy_em_eeprom.c"
   1:Generated_Source\PSoC5/cy_em_eeprom.c **** /***************************************************************************//**
   2:Generated_Source\PSoC5/cy_em_eeprom.c **** * \file cy_em_eeprom.c
   3:Generated_Source\PSoC5/cy_em_eeprom.c **** * \version 2.0
   4:Generated_Source\PSoC5/cy_em_eeprom.c **** *
   5:Generated_Source\PSoC5/cy_em_eeprom.c **** * \brief
   6:Generated_Source\PSoC5/cy_em_eeprom.c **** *  This file provides source code of the API for the Emulated EEPROM library.
   7:Generated_Source\PSoC5/cy_em_eeprom.c **** *  The Emulated EEPROM API allows creating of an emulated EEPROM in flash that
   8:Generated_Source\PSoC5/cy_em_eeprom.c **** *  has the ability to do wear leveling and restore corrupted data from a
   9:Generated_Source\PSoC5/cy_em_eeprom.c **** *  redundant copy.
  10:Generated_Source\PSoC5/cy_em_eeprom.c **** *
  11:Generated_Source\PSoC5/cy_em_eeprom.c **** ********************************************************************************
  12:Generated_Source\PSoC5/cy_em_eeprom.c **** * \copyright
  13:Generated_Source\PSoC5/cy_em_eeprom.c **** * Copyright 2017, Cypress Semiconductor Corporation.  All rights reserved.
  14:Generated_Source\PSoC5/cy_em_eeprom.c **** * You may use this file only in accordance with the license, terms, conditions,
  15:Generated_Source\PSoC5/cy_em_eeprom.c **** * disclaimers, and limitations in the end user license agreement accompanying
  16:Generated_Source\PSoC5/cy_em_eeprom.c **** * the software package with which this file was provided.
  17:Generated_Source\PSoC5/cy_em_eeprom.c **** *******************************************************************************/
  18:Generated_Source\PSoC5/cy_em_eeprom.c **** 
  19:Generated_Source\PSoC5/cy_em_eeprom.c **** 
  20:Generated_Source\PSoC5/cy_em_eeprom.c **** #include "cytypes.h"
  21:Generated_Source\PSoC5/cy_em_eeprom.c **** #include <string.h>
  22:Generated_Source\PSoC5/cy_em_eeprom.c **** 
  23:Generated_Source\PSoC5/cy_em_eeprom.c **** #if (CYDEV_CHIP_FAMILY_USED == CYDEV_CHIP_FAMILY_PSOC6)
  24:Generated_Source\PSoC5/cy_em_eeprom.c ****     #include "em_eeprom/cy_em_eeprom.h"
  25:Generated_Source\PSoC5/cy_em_eeprom.c **** #else
  26:Generated_Source\PSoC5/cy_em_eeprom.c ****     #include "cy_em_eeprom.h"
  27:Generated_Source\PSoC5/cy_em_eeprom.c **** #endif /* (CYDEV_CHIP_FAMILY_USED == CYDEV_CHIP_FAMILY_PSOC6) */
  28:Generated_Source\PSoC5/cy_em_eeprom.c **** 
  29:Generated_Source\PSoC5/cy_em_eeprom.c **** 
  30:Generated_Source\PSoC5/cy_em_eeprom.c **** #if defined(__cplusplus)
  31:Generated_Source\PSoC5/cy_em_eeprom.c **** extern "C" {
ARM GAS  C:\Users\jens-\AppData\Local\Temp\cc4C0Tnp.s 			page 2


  32:Generated_Source\PSoC5/cy_em_eeprom.c **** #endif
  33:Generated_Source\PSoC5/cy_em_eeprom.c **** 
  34:Generated_Source\PSoC5/cy_em_eeprom.c **** 
  35:Generated_Source\PSoC5/cy_em_eeprom.c **** /***************************************
  36:Generated_Source\PSoC5/cy_em_eeprom.c **** * Private Function Prototypes
  37:Generated_Source\PSoC5/cy_em_eeprom.c **** ***************************************/
  38:Generated_Source\PSoC5/cy_em_eeprom.c **** static void FindLastWrittenRow(uint32 * lastWrRowPtr, cy_stc_eeprom_context_t * context);
  39:Generated_Source\PSoC5/cy_em_eeprom.c **** static uint32 GetRowAddrBySeqNum(uint32 seqNum, cy_stc_eeprom_context_t * context);
  40:Generated_Source\PSoC5/cy_em_eeprom.c **** static uint8 CalcChecksum(uint8 rowData[], uint32 len);
  41:Generated_Source\PSoC5/cy_em_eeprom.c **** static void GetNextRowToWrite(uint32 seqNum,
  42:Generated_Source\PSoC5/cy_em_eeprom.c ****                             uint32 * rowToWrPtr,
  43:Generated_Source\PSoC5/cy_em_eeprom.c ****                             uint32 * rowToRdPtr,
  44:Generated_Source\PSoC5/cy_em_eeprom.c ****                             cy_stc_eeprom_context_t * context);
  45:Generated_Source\PSoC5/cy_em_eeprom.c **** static cy_en_em_eeprom_status_t CheckRanges(cy_stc_eeprom_config_t* config);
  46:Generated_Source\PSoC5/cy_em_eeprom.c **** static cy_en_em_eeprom_status_t WriteRow(uint32 rowAddr, uint32 *rowData, cy_stc_eeprom_context_t *
  47:Generated_Source\PSoC5/cy_em_eeprom.c **** static cy_en_em_eeprom_status_t EraseRow(uint32 rowAddr, uint32 ramBuffAddr, cy_stc_eeprom_context_
  48:Generated_Source\PSoC5/cy_em_eeprom.c **** static cy_en_em_eeprom_status_t CheckCrcAndCopy(uint32 startAddr,
  49:Generated_Source\PSoC5/cy_em_eeprom.c ****                                                 uint32 dstAddr,
  50:Generated_Source\PSoC5/cy_em_eeprom.c ****                                                 uint32 rowOffset,
  51:Generated_Source\PSoC5/cy_em_eeprom.c ****                                                 uint32 numBytes,
  52:Generated_Source\PSoC5/cy_em_eeprom.c ****                                                 cy_stc_eeprom_context_t * context);
  53:Generated_Source\PSoC5/cy_em_eeprom.c **** static uint32 GetAddresses(uint32 *startAddr, uint32 *endAddr, uint32 *offset, uint32 rowNum, uint3
  54:Generated_Source\PSoC5/cy_em_eeprom.c **** static cy_en_em_eeprom_status_t FillChecksum(cy_stc_eeprom_context_t * context);
  55:Generated_Source\PSoC5/cy_em_eeprom.c **** 
  56:Generated_Source\PSoC5/cy_em_eeprom.c **** /**
  57:Generated_Source\PSoC5/cy_em_eeprom.c **** * \addtogroup group_em_eeprom_functions
  58:Generated_Source\PSoC5/cy_em_eeprom.c **** * \{
  59:Generated_Source\PSoC5/cy_em_eeprom.c **** */
  60:Generated_Source\PSoC5/cy_em_eeprom.c **** 
  61:Generated_Source\PSoC5/cy_em_eeprom.c **** /*******************************************************************************
  62:Generated_Source\PSoC5/cy_em_eeprom.c **** * Function Name: Cy_Em_EEPROM_Init
  63:Generated_Source\PSoC5/cy_em_eeprom.c **** ****************************************************************************//**
  64:Generated_Source\PSoC5/cy_em_eeprom.c **** *
  65:Generated_Source\PSoC5/cy_em_eeprom.c **** * Initializes the Emulated EEPROM library by filling the context structure. 
  66:Generated_Source\PSoC5/cy_em_eeprom.c **** *
  67:Generated_Source\PSoC5/cy_em_eeprom.c **** * \param config
  68:Generated_Source\PSoC5/cy_em_eeprom.c **** * The pointer to a configuration structure. See \ref cy_stc_eeprom_config_t.
  69:Generated_Source\PSoC5/cy_em_eeprom.c **** *
  70:Generated_Source\PSoC5/cy_em_eeprom.c **** * \param context
  71:Generated_Source\PSoC5/cy_em_eeprom.c **** * The pointer to the EEPROM context structure to be filled by the function.
  72:Generated_Source\PSoC5/cy_em_eeprom.c **** * \ref cy_stc_eeprom_context_t.
  73:Generated_Source\PSoC5/cy_em_eeprom.c **** *
  74:Generated_Source\PSoC5/cy_em_eeprom.c **** * \return
  75:Generated_Source\PSoC5/cy_em_eeprom.c **** * error / status code. See \ref cy_en_em_eeprom_status_t.
  76:Generated_Source\PSoC5/cy_em_eeprom.c **** *
  77:Generated_Source\PSoC5/cy_em_eeprom.c **** * \note
  78:Generated_Source\PSoC5/cy_em_eeprom.c **** * The context structure should not be modified by the user after it is filled
  79:Generated_Source\PSoC5/cy_em_eeprom.c **** * with this function. Modification of context structure may cause the 
  80:Generated_Source\PSoC5/cy_em_eeprom.c **** * unexpected behavior of the Cy_Em_EEPROM API functions which rely on it.
  81:Generated_Source\PSoC5/cy_em_eeprom.c **** *
  82:Generated_Source\PSoC5/cy_em_eeprom.c **** * \note
  83:Generated_Source\PSoC5/cy_em_eeprom.c **** * This function uses a buffer of the flash row size to perform read
  84:Generated_Source\PSoC5/cy_em_eeprom.c **** * operation. For the size of the row refer to the specific PSoC device
  85:Generated_Source\PSoC5/cy_em_eeprom.c **** * datasheet.
  86:Generated_Source\PSoC5/cy_em_eeprom.c **** *
  87:Generated_Source\PSoC5/cy_em_eeprom.c **** * \sideeffect 
  88:Generated_Source\PSoC5/cy_em_eeprom.c **** * If the "Redundant Copy" option is used, the function performs a number of 
ARM GAS  C:\Users\jens-\AppData\Local\Temp\cc4C0Tnp.s 			page 3


  89:Generated_Source\PSoC5/cy_em_eeprom.c **** * write operations to the EEPROM to initialize flash rows checksums. Therefore,
  90:Generated_Source\PSoC5/cy_em_eeprom.c **** * Cy_Em_EEPROM_NumWrites(), when it is called right after Cy_Em_EEPROM_Init(), 
  91:Generated_Source\PSoC5/cy_em_eeprom.c **** * will return a non-zero value that identifies the number of writes performed 
  92:Generated_Source\PSoC5/cy_em_eeprom.c **** * by Cy_Em_EEPROM_Init().
  93:Generated_Source\PSoC5/cy_em_eeprom.c **** *
  94:Generated_Source\PSoC5/cy_em_eeprom.c **** *******************************************************************************/
  95:Generated_Source\PSoC5/cy_em_eeprom.c **** cy_en_em_eeprom_status_t Cy_Em_EEPROM_Init(cy_stc_eeprom_config_t* config, cy_stc_eeprom_context_t 
  96:Generated_Source\PSoC5/cy_em_eeprom.c **** {
  97:Generated_Source\PSoC5/cy_em_eeprom.c ****     cy_en_em_eeprom_status_t ret = CY_EM_EEPROM_BAD_PARAM;
  98:Generated_Source\PSoC5/cy_em_eeprom.c **** 
  99:Generated_Source\PSoC5/cy_em_eeprom.c ****     if((NULL != context) && (NULL != config) && (NULL != ((uint32 *)config->userFlashStartAddr)) &&
 100:Generated_Source\PSoC5/cy_em_eeprom.c ****         (config->wearLevelingFactor <= CY_EM_EEPROM_MAX_WEAR_LEVELING_FACTOR) && (config->eepromSiz
 101:Generated_Source\PSoC5/cy_em_eeprom.c ****     {
 102:Generated_Source\PSoC5/cy_em_eeprom.c ****         ret = CheckRanges(config);
 103:Generated_Source\PSoC5/cy_em_eeprom.c **** 
 104:Generated_Source\PSoC5/cy_em_eeprom.c ****         if(CY_EM_EEPROM_SUCCESS == ret)
 105:Generated_Source\PSoC5/cy_em_eeprom.c ****         {
 106:Generated_Source\PSoC5/cy_em_eeprom.c ****             /* Copy the user config structure fields into context */
 107:Generated_Source\PSoC5/cy_em_eeprom.c ****             context->eepromSize = config->eepromSize;
 108:Generated_Source\PSoC5/cy_em_eeprom.c ****             context->wearLevelingFactor = config->wearLevelingFactor;
 109:Generated_Source\PSoC5/cy_em_eeprom.c ****             context->redundantCopy = config->redundantCopy;
 110:Generated_Source\PSoC5/cy_em_eeprom.c ****             context->blockingWrite = config->blockingWrite;
 111:Generated_Source\PSoC5/cy_em_eeprom.c ****             context->userFlashStartAddr = config->userFlashStartAddr;
 112:Generated_Source\PSoC5/cy_em_eeprom.c ****             /* Store frequently used data for internal use */
 113:Generated_Source\PSoC5/cy_em_eeprom.c ****             context->numberOfRows = CY_EM_EEPROM_GET_NUM_ROWS_IN_EEPROM(config->eepromSize);
 114:Generated_Source\PSoC5/cy_em_eeprom.c ****             context->wlEndAddr = ((CY_EM_EEPROM_GET_EEPROM_SIZE(context->numberOfRows) * config->we
 115:Generated_Source\PSoC5/cy_em_eeprom.c ****                     config->userFlashStartAddr);
 116:Generated_Source\PSoC5/cy_em_eeprom.c ****             /* Find last written EEPROM row and store it for quick access */
 117:Generated_Source\PSoC5/cy_em_eeprom.c ****             FindLastWrittenRow(&context->lastWrRowAddr, context);
 118:Generated_Source\PSoC5/cy_em_eeprom.c **** 
 119:Generated_Source\PSoC5/cy_em_eeprom.c ****             if((0u == CY_EM_EEPROM_GET_SEQ_NUM(context->lastWrRowAddr)) && (0u != context->redundan
 120:Generated_Source\PSoC5/cy_em_eeprom.c ****             {
 121:Generated_Source\PSoC5/cy_em_eeprom.c ****                 /* Call the function only after device reprogramming in case
 122:Generated_Source\PSoC5/cy_em_eeprom.c ****                 * if redundant copy is enabled.
 123:Generated_Source\PSoC5/cy_em_eeprom.c ****                 */
 124:Generated_Source\PSoC5/cy_em_eeprom.c ****                 ret = FillChecksum(context);
 125:Generated_Source\PSoC5/cy_em_eeprom.c ****                 
 126:Generated_Source\PSoC5/cy_em_eeprom.c ****                 /* Update the last written EEPROM row for Cy_Em_EEPROM_NumWrites() */
 127:Generated_Source\PSoC5/cy_em_eeprom.c ****                 FindLastWrittenRow(&context->lastWrRowAddr, context);
 128:Generated_Source\PSoC5/cy_em_eeprom.c ****             }
 129:Generated_Source\PSoC5/cy_em_eeprom.c ****         }
 130:Generated_Source\PSoC5/cy_em_eeprom.c ****     }
 131:Generated_Source\PSoC5/cy_em_eeprom.c **** 
 132:Generated_Source\PSoC5/cy_em_eeprom.c ****     return(ret);
 133:Generated_Source\PSoC5/cy_em_eeprom.c **** }
 134:Generated_Source\PSoC5/cy_em_eeprom.c **** 
 135:Generated_Source\PSoC5/cy_em_eeprom.c **** 
 136:Generated_Source\PSoC5/cy_em_eeprom.c **** /*******************************************************************************
 137:Generated_Source\PSoC5/cy_em_eeprom.c **** * Function Name: Cy_Em_EEPROM_Read
 138:Generated_Source\PSoC5/cy_em_eeprom.c **** ****************************************************************************//**
 139:Generated_Source\PSoC5/cy_em_eeprom.c **** *
 140:Generated_Source\PSoC5/cy_em_eeprom.c **** * This function takes the logical EEPROM address, converts it to the actual
 141:Generated_Source\PSoC5/cy_em_eeprom.c **** * physical address where the data is stored and returns the data to the user.
 142:Generated_Source\PSoC5/cy_em_eeprom.c **** *
 143:Generated_Source\PSoC5/cy_em_eeprom.c **** * \param addr
 144:Generated_Source\PSoC5/cy_em_eeprom.c **** * The logical start address in EEPROM to start reading data from.
 145:Generated_Source\PSoC5/cy_em_eeprom.c **** *
ARM GAS  C:\Users\jens-\AppData\Local\Temp\cc4C0Tnp.s 			page 4


 146:Generated_Source\PSoC5/cy_em_eeprom.c **** * \param eepromData
 147:Generated_Source\PSoC5/cy_em_eeprom.c **** * The pointer to a user array to write data to.
 148:Generated_Source\PSoC5/cy_em_eeprom.c **** *
 149:Generated_Source\PSoC5/cy_em_eeprom.c **** * \param size
 150:Generated_Source\PSoC5/cy_em_eeprom.c **** * The amount of data to read.
 151:Generated_Source\PSoC5/cy_em_eeprom.c **** *
 152:Generated_Source\PSoC5/cy_em_eeprom.c **** * \param context
 153:Generated_Source\PSoC5/cy_em_eeprom.c **** * The pointer to the EEPROM context structure \ref cy_stc_eeprom_context_t.
 154:Generated_Source\PSoC5/cy_em_eeprom.c **** *
 155:Generated_Source\PSoC5/cy_em_eeprom.c **** * \return
 156:Generated_Source\PSoC5/cy_em_eeprom.c **** * This function returns \ref cy_en_em_eeprom_status_t.
 157:Generated_Source\PSoC5/cy_em_eeprom.c **** *
 158:Generated_Source\PSoC5/cy_em_eeprom.c **** * \note
 159:Generated_Source\PSoC5/cy_em_eeprom.c **** * This function uses a buffer of the flash row size to perform read
 160:Generated_Source\PSoC5/cy_em_eeprom.c **** * operation. For the size of the row refer to the specific PSoC device
 161:Generated_Source\PSoC5/cy_em_eeprom.c **** * datasheet.
 162:Generated_Source\PSoC5/cy_em_eeprom.c **** *
 163:Generated_Source\PSoC5/cy_em_eeprom.c **** * \note
 164:Generated_Source\PSoC5/cy_em_eeprom.c **** * In case if redundant copy option is enabled the function may perform writes
 165:Generated_Source\PSoC5/cy_em_eeprom.c **** * to EEPROM. This is done in case if the data in the EEPPROM is corrupted and
 166:Generated_Source\PSoC5/cy_em_eeprom.c **** * the data in redundant copy is valid based on CRC-8 data integrity check.
 167:Generated_Source\PSoC5/cy_em_eeprom.c **** *
 168:Generated_Source\PSoC5/cy_em_eeprom.c **** *******************************************************************************/
 169:Generated_Source\PSoC5/cy_em_eeprom.c **** cy_en_em_eeprom_status_t Cy_Em_EEPROM_Read(uint32 addr, 
 170:Generated_Source\PSoC5/cy_em_eeprom.c ****                                         void * eepromData, 
 171:Generated_Source\PSoC5/cy_em_eeprom.c ****                                         uint32 size,
 172:Generated_Source\PSoC5/cy_em_eeprom.c ****                                         cy_stc_eeprom_context_t * context)
 173:Generated_Source\PSoC5/cy_em_eeprom.c **** {
 174:Generated_Source\PSoC5/cy_em_eeprom.c ****     cy_en_em_eeprom_status_t ret = CY_EM_EEPROM_BAD_PARAM;
 175:Generated_Source\PSoC5/cy_em_eeprom.c ****     uint32 i;
 176:Generated_Source\PSoC5/cy_em_eeprom.c ****     uint32 numBytesToRead;
 177:Generated_Source\PSoC5/cy_em_eeprom.c ****     uint32 curEepromBaseAddr;
 178:Generated_Source\PSoC5/cy_em_eeprom.c ****     uint32 curRowOffset;
 179:Generated_Source\PSoC5/cy_em_eeprom.c ****     uint32 startRowAddr;
 180:Generated_Source\PSoC5/cy_em_eeprom.c ****     uint32 actEepromRowNum;
 181:Generated_Source\PSoC5/cy_em_eeprom.c ****     uint32 curRdEepromRowNum = 0u;
 182:Generated_Source\PSoC5/cy_em_eeprom.c ****     uint32 dataStartEepromRowNum = 0u;
 183:Generated_Source\PSoC5/cy_em_eeprom.c ****     uint32 eeData = (uint32) eepromData; /* To avoid the pointer arithmetic with void */
 184:Generated_Source\PSoC5/cy_em_eeprom.c **** 
 185:Generated_Source\PSoC5/cy_em_eeprom.c ****     /* Validate input parameters */
 186:Generated_Source\PSoC5/cy_em_eeprom.c ****     if((0u != size) && ((addr + size) <= (context->eepromSize)) && (NULL != eepromData))
 187:Generated_Source\PSoC5/cy_em_eeprom.c ****     {
 188:Generated_Source\PSoC5/cy_em_eeprom.c ****         uint32 rdAddr = addr;
 189:Generated_Source\PSoC5/cy_em_eeprom.c ****         uint32 rdSize = size;
 190:Generated_Source\PSoC5/cy_em_eeprom.c ****         /* Get the sequence number of the last written row */
 191:Generated_Source\PSoC5/cy_em_eeprom.c ****         uint32 seqNum = CY_EM_EEPROM_GET_SEQ_NUM(context->lastWrRowAddr);
 192:Generated_Source\PSoC5/cy_em_eeprom.c ****         uint32 updateAddrFlag = 0u;
 193:Generated_Source\PSoC5/cy_em_eeprom.c **** 
 194:Generated_Source\PSoC5/cy_em_eeprom.c ****         /* Calculate the number of the row read operations. Currently this only concerns
 195:Generated_Source\PSoC5/cy_em_eeprom.c ****         * the reads from the EEPROM data locations.
 196:Generated_Source\PSoC5/cy_em_eeprom.c ****         */
 197:Generated_Source\PSoC5/cy_em_eeprom.c ****         uint32 numRowReads = ((((rdAddr + rdSize) - 1u) / CY_EM_EEPROM_EEPROM_DATA_LEN) -
 198:Generated_Source\PSoC5/cy_em_eeprom.c ****                               (rdAddr / CY_EM_EEPROM_EEPROM_DATA_LEN)) + 1u;
 199:Generated_Source\PSoC5/cy_em_eeprom.c **** 
 200:Generated_Source\PSoC5/cy_em_eeprom.c ****         /* Get the address of the first row of the currently active EEPROM sector. If
 201:Generated_Source\PSoC5/cy_em_eeprom.c ****         * no wear leveling is used - the EEPROM has only one sector, so use the base
 202:Generated_Source\PSoC5/cy_em_eeprom.c ****         * addr stored in "context->userFlashStartAddr".
ARM GAS  C:\Users\jens-\AppData\Local\Temp\cc4C0Tnp.s 			page 5


 203:Generated_Source\PSoC5/cy_em_eeprom.c ****         */
 204:Generated_Source\PSoC5/cy_em_eeprom.c ****         curEepromBaseAddr = (((context->lastWrRowAddr - context->userFlashStartAddr) /
 205:Generated_Source\PSoC5/cy_em_eeprom.c ****                               (CY_EM_EEPROM_FLASH_SIZEOF_ROW * context->numberOfRows)) *
 206:Generated_Source\PSoC5/cy_em_eeprom.c ****                               (CY_EM_EEPROM_FLASH_SIZEOF_ROW * context->numberOfRows)) +
 207:Generated_Source\PSoC5/cy_em_eeprom.c ****                                context->userFlashStartAddr;
 208:Generated_Source\PSoC5/cy_em_eeprom.c **** 
 209:Generated_Source\PSoC5/cy_em_eeprom.c ****         /* Find the number of the row that contains the start address of the data */
 210:Generated_Source\PSoC5/cy_em_eeprom.c ****         for(i = 0u; i < context->numberOfRows; i++)
 211:Generated_Source\PSoC5/cy_em_eeprom.c ****         {
 212:Generated_Source\PSoC5/cy_em_eeprom.c ****             if(0u != CY_EM_EEPROM_IS_ADDR_IN_ROW_RANGE(rdAddr, i))
 213:Generated_Source\PSoC5/cy_em_eeprom.c ****             {
 214:Generated_Source\PSoC5/cy_em_eeprom.c ****                 dataStartEepromRowNum = i;
 215:Generated_Source\PSoC5/cy_em_eeprom.c ****                 curRdEepromRowNum = dataStartEepromRowNum;
 216:Generated_Source\PSoC5/cy_em_eeprom.c ****                 break;
 217:Generated_Source\PSoC5/cy_em_eeprom.c ****             }
 218:Generated_Source\PSoC5/cy_em_eeprom.c ****         }
 219:Generated_Source\PSoC5/cy_em_eeprom.c **** 
 220:Generated_Source\PSoC5/cy_em_eeprom.c ****         /* Find the row number of the last written row */
 221:Generated_Source\PSoC5/cy_em_eeprom.c ****         actEepromRowNum = (context->lastWrRowAddr - curEepromBaseAddr) / CY_EM_EEPROM_FLASH_SIZEOF_
 222:Generated_Source\PSoC5/cy_em_eeprom.c **** 
 223:Generated_Source\PSoC5/cy_em_eeprom.c ****         /* Check if wear leveling is used */
 224:Generated_Source\PSoC5/cy_em_eeprom.c ****         if(context->wearLevelingFactor > 1u)
 225:Generated_Source\PSoC5/cy_em_eeprom.c ****         {
 226:Generated_Source\PSoC5/cy_em_eeprom.c ****             uint32 dataEndEepromRowNum = dataStartEepromRowNum + (numRowReads - 1u);
 227:Generated_Source\PSoC5/cy_em_eeprom.c **** 
 228:Generated_Source\PSoC5/cy_em_eeprom.c ****             /* Check if the future validation of the read address is required. */
 229:Generated_Source\PSoC5/cy_em_eeprom.c ****             updateAddrFlag = (dataStartEepromRowNum > actEepromRowNum) ? 1u :
 230:Generated_Source\PSoC5/cy_em_eeprom.c ****                               ((dataEndEepromRowNum > actEepromRowNum) ? 1u : 0u);
 231:Generated_Source\PSoC5/cy_em_eeprom.c ****         }
 232:Generated_Source\PSoC5/cy_em_eeprom.c **** 
 233:Generated_Source\PSoC5/cy_em_eeprom.c ****         /* Copy data from the EEPROM data locations to the user buffer */
 234:Generated_Source\PSoC5/cy_em_eeprom.c ****         for(i = 0u; i < numRowReads; i++)
 235:Generated_Source\PSoC5/cy_em_eeprom.c ****         {
 236:Generated_Source\PSoC5/cy_em_eeprom.c ****             startRowAddr = curEepromBaseAddr + (curRdEepromRowNum * CY_EM_EEPROM_FLASH_SIZEOF_ROW);
 237:Generated_Source\PSoC5/cy_em_eeprom.c ****             curRowOffset = CY_EM_EEPROM_EEPROM_DATA_LEN + (rdAddr % CY_EM_EEPROM_EEPROM_DATA_LEN);
 238:Generated_Source\PSoC5/cy_em_eeprom.c **** 
 239:Generated_Source\PSoC5/cy_em_eeprom.c ****             /* Check if there are more reads pending and update the number of the
 240:Generated_Source\PSoC5/cy_em_eeprom.c ****             * remaining bytes to read respectively.
 241:Generated_Source\PSoC5/cy_em_eeprom.c ****             */
 242:Generated_Source\PSoC5/cy_em_eeprom.c ****             if((i + 1u) < numRowReads)
 243:Generated_Source\PSoC5/cy_em_eeprom.c ****             {
 244:Generated_Source\PSoC5/cy_em_eeprom.c ****                 numBytesToRead = CY_EM_EEPROM_EEPROM_DATA_LEN - (rdAddr % CY_EM_EEPROM_EEPROM_DATA_
 245:Generated_Source\PSoC5/cy_em_eeprom.c ****             }
 246:Generated_Source\PSoC5/cy_em_eeprom.c ****             else
 247:Generated_Source\PSoC5/cy_em_eeprom.c ****             {
 248:Generated_Source\PSoC5/cy_em_eeprom.c ****                 numBytesToRead = rdSize;
 249:Generated_Source\PSoC5/cy_em_eeprom.c ****             }
 250:Generated_Source\PSoC5/cy_em_eeprom.c **** 
 251:Generated_Source\PSoC5/cy_em_eeprom.c ****             /* Check if the read address needs to be updated to point to the correct
 252:Generated_Source\PSoC5/cy_em_eeprom.c ****             * EEPROM sector.
 253:Generated_Source\PSoC5/cy_em_eeprom.c ****             */
 254:Generated_Source\PSoC5/cy_em_eeprom.c ****             if((0u != updateAddrFlag) && (curRdEepromRowNum > actEepromRowNum))
 255:Generated_Source\PSoC5/cy_em_eeprom.c ****             {
 256:Generated_Source\PSoC5/cy_em_eeprom.c ****                 startRowAddr -= context->numberOfRows * CY_EM_EEPROM_FLASH_SIZEOF_ROW;
 257:Generated_Source\PSoC5/cy_em_eeprom.c **** 
 258:Generated_Source\PSoC5/cy_em_eeprom.c ****                 if(startRowAddr < context->userFlashStartAddr)
 259:Generated_Source\PSoC5/cy_em_eeprom.c ****                 {
ARM GAS  C:\Users\jens-\AppData\Local\Temp\cc4C0Tnp.s 			page 6


 260:Generated_Source\PSoC5/cy_em_eeprom.c ****                     startRowAddr = context->wlEndAddr -
 261:Generated_Source\PSoC5/cy_em_eeprom.c ****                         ((context->numberOfRows - curRdEepromRowNum) * CY_EM_EEPROM_FLASH_SIZEOF_RO
 262:Generated_Source\PSoC5/cy_em_eeprom.c ****                 }
 263:Generated_Source\PSoC5/cy_em_eeprom.c ****             }
 264:Generated_Source\PSoC5/cy_em_eeprom.c **** 
 265:Generated_Source\PSoC5/cy_em_eeprom.c ****             if(0u != context->redundantCopy)
 266:Generated_Source\PSoC5/cy_em_eeprom.c ****             {
 267:Generated_Source\PSoC5/cy_em_eeprom.c ****                 /* Check a checksum of the EEPROM row and if it is bad, check a checksum in
 268:Generated_Source\PSoC5/cy_em_eeprom.c ****                 * the corresponding row in redundant copy, otherwise return failure.
 269:Generated_Source\PSoC5/cy_em_eeprom.c ****                 */
 270:Generated_Source\PSoC5/cy_em_eeprom.c ****                 ret = CheckCrcAndCopy(startRowAddr, eeData, curRowOffset, numBytesToRead, context);
 271:Generated_Source\PSoC5/cy_em_eeprom.c **** 
 272:Generated_Source\PSoC5/cy_em_eeprom.c ****                 if(CY_EM_EEPROM_SUCCESS != ret)
 273:Generated_Source\PSoC5/cy_em_eeprom.c ****                 {
 274:Generated_Source\PSoC5/cy_em_eeprom.c ****                     break;
 275:Generated_Source\PSoC5/cy_em_eeprom.c ****                 }
 276:Generated_Source\PSoC5/cy_em_eeprom.c ****             }
 277:Generated_Source\PSoC5/cy_em_eeprom.c ****             else
 278:Generated_Source\PSoC5/cy_em_eeprom.c ****             {
 279:Generated_Source\PSoC5/cy_em_eeprom.c ****                 /* Copy the data to the user buffer */
 280:Generated_Source\PSoC5/cy_em_eeprom.c ****                 (void)memcpy((void *)(eeData),
 281:Generated_Source\PSoC5/cy_em_eeprom.c ****                              (void *)(startRowAddr + curRowOffset),
 282:Generated_Source\PSoC5/cy_em_eeprom.c ****                              numBytesToRead);
 283:Generated_Source\PSoC5/cy_em_eeprom.c **** 
 284:Generated_Source\PSoC5/cy_em_eeprom.c ****                 /* Indicate success to be able to execute next code block */
 285:Generated_Source\PSoC5/cy_em_eeprom.c ****                 ret = CY_EM_EEPROM_SUCCESS;
 286:Generated_Source\PSoC5/cy_em_eeprom.c ****             }
 287:Generated_Source\PSoC5/cy_em_eeprom.c **** 
 288:Generated_Source\PSoC5/cy_em_eeprom.c ****             /* Update variables anticipated in the read operation */
 289:Generated_Source\PSoC5/cy_em_eeprom.c ****             rdAddr += numBytesToRead;
 290:Generated_Source\PSoC5/cy_em_eeprom.c ****             rdSize -= numBytesToRead;
 291:Generated_Source\PSoC5/cy_em_eeprom.c ****             eeData += numBytesToRead;
 292:Generated_Source\PSoC5/cy_em_eeprom.c ****             curRdEepromRowNum++;
 293:Generated_Source\PSoC5/cy_em_eeprom.c ****         }
 294:Generated_Source\PSoC5/cy_em_eeprom.c **** 
 295:Generated_Source\PSoC5/cy_em_eeprom.c ****         /* This code block will copy the latest data from the EEPROM headers into the
 296:Generated_Source\PSoC5/cy_em_eeprom.c ****         * user buffer. The data previously copied into the user buffer may be updated
 297:Generated_Source\PSoC5/cy_em_eeprom.c ****         * as the EEPROM headers contain more recent data. 
 298:Generated_Source\PSoC5/cy_em_eeprom.c ****         * The code block is executed when two following conditions are true:
 299:Generated_Source\PSoC5/cy_em_eeprom.c ****         *  1) The reads from "historic" data locations were successful;
 300:Generated_Source\PSoC5/cy_em_eeprom.c ****         *  2) The user performed at least one write operation to Em_EEPROM (0u !=
 301:Generated_Source\PSoC5/cy_em_eeprom.c ****         *     seqNum).        
 302:Generated_Source\PSoC5/cy_em_eeprom.c ****         */
 303:Generated_Source\PSoC5/cy_em_eeprom.c ****         if((CY_EM_EEPROM_SUCCESS == ret) && (0u != seqNum))
 304:Generated_Source\PSoC5/cy_em_eeprom.c ****         {
 305:Generated_Source\PSoC5/cy_em_eeprom.c ****             numRowReads = (context->numberOfRows <= seqNum) ? (context->numberOfRows) : (seqNum);
 306:Generated_Source\PSoC5/cy_em_eeprom.c ****             numRowReads--;
 307:Generated_Source\PSoC5/cy_em_eeprom.c **** 
 308:Generated_Source\PSoC5/cy_em_eeprom.c ****             for(i = (seqNum - numRowReads); i <= seqNum; i++)
 309:Generated_Source\PSoC5/cy_em_eeprom.c ****             {
 310:Generated_Source\PSoC5/cy_em_eeprom.c ****                 startRowAddr = GetRowAddrBySeqNum(i, context);
 311:Generated_Source\PSoC5/cy_em_eeprom.c **** 
 312:Generated_Source\PSoC5/cy_em_eeprom.c ****                 if (0u != startRowAddr)
 313:Generated_Source\PSoC5/cy_em_eeprom.c ****                 {
 314:Generated_Source\PSoC5/cy_em_eeprom.c ****                     /* The following variables are introduced to increase code readability. */
 315:Generated_Source\PSoC5/cy_em_eeprom.c ****                     uint32 startAddr  = *(uint32 *)(startRowAddr + CY_EM_EEPROM_HEADER_ADDR_OFFSET)
 316:Generated_Source\PSoC5/cy_em_eeprom.c ****                     uint32 endAddr    = startAddr + (*(uint32 *)(startRowAddr + CY_EM_EEPROM_HEADER
ARM GAS  C:\Users\jens-\AppData\Local\Temp\cc4C0Tnp.s 			page 7


 317:Generated_Source\PSoC5/cy_em_eeprom.c **** 
 318:Generated_Source\PSoC5/cy_em_eeprom.c ****                     /* Check if the current row EEPROM header contains the data requested for read 
 319:Generated_Source\PSoC5/cy_em_eeprom.c ****                     if(0u != CY_EM_EEPROM_IS_ADDRESES_CROSSING(startAddr, endAddr, addr, addr + siz
 320:Generated_Source\PSoC5/cy_em_eeprom.c ****                     {
 321:Generated_Source\PSoC5/cy_em_eeprom.c ****                         uint32 srcOffset = (startAddr > addr) ? (0u) : (addr - startAddr);
 322:Generated_Source\PSoC5/cy_em_eeprom.c ****                         uint32 dstOffset = (startAddr > addr) ? (startAddr - addr): (0u);
 323:Generated_Source\PSoC5/cy_em_eeprom.c ****                         rdAddr = (startAddr > addr) ? (startAddr) : (addr);
 324:Generated_Source\PSoC5/cy_em_eeprom.c **** 
 325:Generated_Source\PSoC5/cy_em_eeprom.c ****                         srcOffset += CY_EM_EEPROM_HEADER_DATA_OFFSET;
 326:Generated_Source\PSoC5/cy_em_eeprom.c **** 
 327:Generated_Source\PSoC5/cy_em_eeprom.c ****                         /* Calculate the number of bytes to be read from the current row's EEPROM h
 328:Generated_Source\PSoC5/cy_em_eeprom.c ****                         numBytesToRead = ((endAddr < (addr + size)) ? endAddr : (addr + size)) - rd
 329:Generated_Source\PSoC5/cy_em_eeprom.c **** 
 330:Generated_Source\PSoC5/cy_em_eeprom.c ****                         /* Calculate the offset in the user buffer from which the data will be upda
 331:Generated_Source\PSoC5/cy_em_eeprom.c ****                         eeData = ((uint32)eepromData) + dstOffset;
 332:Generated_Source\PSoC5/cy_em_eeprom.c **** 
 333:Generated_Source\PSoC5/cy_em_eeprom.c ****                         /* Check a checksum of the EEPROM row and if it is bad, check a checksum in
 334:Generated_Source\PSoC5/cy_em_eeprom.c ****                         * corresponding row in redundant copy, otherwise return failure. Copy the d
 335:Generated_Source\PSoC5/cy_em_eeprom.c ****                         * from the recent EEPROM headers to the user buffer. This will overwrite th
 336:Generated_Source\PSoC5/cy_em_eeprom.c ****                         * data copied form EEPROM data locations as the data in EEPROM headers is n
 337:Generated_Source\PSoC5/cy_em_eeprom.c ****                         */
 338:Generated_Source\PSoC5/cy_em_eeprom.c ****                         if(0u != context->redundantCopy)
 339:Generated_Source\PSoC5/cy_em_eeprom.c ****                         {
 340:Generated_Source\PSoC5/cy_em_eeprom.c ****                             ret = CheckCrcAndCopy(startRowAddr, eeData, srcOffset, numBytesToRead, 
 341:Generated_Source\PSoC5/cy_em_eeprom.c **** 
 342:Generated_Source\PSoC5/cy_em_eeprom.c ****                             if(CY_EM_EEPROM_SUCCESS != ret)
 343:Generated_Source\PSoC5/cy_em_eeprom.c ****                             {
 344:Generated_Source\PSoC5/cy_em_eeprom.c ****                                 break;
 345:Generated_Source\PSoC5/cy_em_eeprom.c ****                             }
 346:Generated_Source\PSoC5/cy_em_eeprom.c ****                         }
 347:Generated_Source\PSoC5/cy_em_eeprom.c ****                         else
 348:Generated_Source\PSoC5/cy_em_eeprom.c ****                         {
 349:Generated_Source\PSoC5/cy_em_eeprom.c ****                             (void)memcpy((void *)(eeData), (void *)(startRowAddr + srcOffset), numB
 350:Generated_Source\PSoC5/cy_em_eeprom.c ****                         }
 351:Generated_Source\PSoC5/cy_em_eeprom.c ****                     }
 352:Generated_Source\PSoC5/cy_em_eeprom.c ****                 }
 353:Generated_Source\PSoC5/cy_em_eeprom.c ****             }
 354:Generated_Source\PSoC5/cy_em_eeprom.c ****         }
 355:Generated_Source\PSoC5/cy_em_eeprom.c ****     }
 356:Generated_Source\PSoC5/cy_em_eeprom.c **** 
 357:Generated_Source\PSoC5/cy_em_eeprom.c ****     return(ret);
 358:Generated_Source\PSoC5/cy_em_eeprom.c **** }
 359:Generated_Source\PSoC5/cy_em_eeprom.c **** 
 360:Generated_Source\PSoC5/cy_em_eeprom.c **** 
 361:Generated_Source\PSoC5/cy_em_eeprom.c **** /*******************************************************************************
 362:Generated_Source\PSoC5/cy_em_eeprom.c **** * Function Name: Cy_Em_EEPROM_Write
 363:Generated_Source\PSoC5/cy_em_eeprom.c **** ****************************************************************************//**
 364:Generated_Source\PSoC5/cy_em_eeprom.c **** *
 365:Generated_Source\PSoC5/cy_em_eeprom.c **** * This function takes the logical EEPROM address and converts it to the actual
 366:Generated_Source\PSoC5/cy_em_eeprom.c **** * physical address and writes data there. If wear leveling is implemented, the
 367:Generated_Source\PSoC5/cy_em_eeprom.c **** * writing process will use the wear leveling techniques. This is a blocking
 368:Generated_Source\PSoC5/cy_em_eeprom.c **** * function and it does not return until the write operation is completed. The
 369:Generated_Source\PSoC5/cy_em_eeprom.c **** * user firmware should not enter Hibernate mode until write is completed. The
 370:Generated_Source\PSoC5/cy_em_eeprom.c **** * write operation is allowed in Sleep and Deep-Sleep modes. During the flash
 371:Generated_Source\PSoC5/cy_em_eeprom.c **** * operation, the device should not be reset, including the XRES pin, a software
 372:Generated_Source\PSoC5/cy_em_eeprom.c **** * reset, and watchdog reset sources. Also, low-voltage detect circuits should
 373:Generated_Source\PSoC5/cy_em_eeprom.c **** * be configured to generate an interrupt instead of a reset. Otherwise, portions
ARM GAS  C:\Users\jens-\AppData\Local\Temp\cc4C0Tnp.s 			page 8


 374:Generated_Source\PSoC5/cy_em_eeprom.c **** * of flash may undergo unexpected changes.
 375:Generated_Source\PSoC5/cy_em_eeprom.c **** *
 376:Generated_Source\PSoC5/cy_em_eeprom.c **** * \param addr
 377:Generated_Source\PSoC5/cy_em_eeprom.c **** * The logical start address in EEPROM to start writing data from.
 378:Generated_Source\PSoC5/cy_em_eeprom.c **** *
 379:Generated_Source\PSoC5/cy_em_eeprom.c **** * \param eepromData
 380:Generated_Source\PSoC5/cy_em_eeprom.c **** * Data to write to EEPROM.
 381:Generated_Source\PSoC5/cy_em_eeprom.c **** *
 382:Generated_Source\PSoC5/cy_em_eeprom.c **** * \param size
 383:Generated_Source\PSoC5/cy_em_eeprom.c **** * The amount of data to write to EEPROM.
 384:Generated_Source\PSoC5/cy_em_eeprom.c **** *
 385:Generated_Source\PSoC5/cy_em_eeprom.c **** * \param context
 386:Generated_Source\PSoC5/cy_em_eeprom.c **** * The pointer to the EEPROM context structure \ref cy_stc_eeprom_context_t.
 387:Generated_Source\PSoC5/cy_em_eeprom.c **** *
 388:Generated_Source\PSoC5/cy_em_eeprom.c **** * \return
 389:Generated_Source\PSoC5/cy_em_eeprom.c **** * This function returns \ref cy_en_em_eeprom_status_t.
 390:Generated_Source\PSoC5/cy_em_eeprom.c **** *
 391:Generated_Source\PSoC5/cy_em_eeprom.c **** * \note
 392:Generated_Source\PSoC5/cy_em_eeprom.c **** * This function uses a buffer of the flash row size to perform write
 393:Generated_Source\PSoC5/cy_em_eeprom.c **** * operation. For the size of the row refer to the specific PSoC device
 394:Generated_Source\PSoC5/cy_em_eeprom.c **** * datasheet.
 395:Generated_Source\PSoC5/cy_em_eeprom.c **** *
 396:Generated_Source\PSoC5/cy_em_eeprom.c **** * \sideeffect
 397:Generated_Source\PSoC5/cy_em_eeprom.c **** * In case when blocking write option is used, if this function is called by
 398:Generated_Source\PSoC5/cy_em_eeprom.c **** * the CM4 the user code on CM0P and the user code on CM4 are blocked until erase
 399:Generated_Source\PSoC5/cy_em_eeprom.c **** * flash row operation is finished. If this function is called by the CM0P the
 400:Generated_Source\PSoC5/cy_em_eeprom.c **** * user code on CM4 is not blocked and the user code on CM0P is blocked until
 401:Generated_Source\PSoC5/cy_em_eeprom.c **** * erase flash row operation is finished. Plan your task allocation accordingly.
 402:Generated_Source\PSoC5/cy_em_eeprom.c **** *
 403:Generated_Source\PSoC5/cy_em_eeprom.c **** * \sideeffect
 404:Generated_Source\PSoC5/cy_em_eeprom.c **** * In case if non-blocking write option is used and when user flash is used as
 405:Generated_Source\PSoC5/cy_em_eeprom.c **** * an EEPROM storage care should be taken to prevent the read while write (RWW)
 406:Generated_Source\PSoC5/cy_em_eeprom.c **** * exception. To prevent the RWW exception the user flash macro that includes
 407:Generated_Source\PSoC5/cy_em_eeprom.c **** * the EEPROM storage should not be read while the EEPROM write is not completed.
 408:Generated_Source\PSoC5/cy_em_eeprom.c **** * The read also means the user code execution from the respective flash macro.
 409:Generated_Source\PSoC5/cy_em_eeprom.c **** *
 410:Generated_Source\PSoC5/cy_em_eeprom.c **** *******************************************************************************/
 411:Generated_Source\PSoC5/cy_em_eeprom.c **** cy_en_em_eeprom_status_t Cy_Em_EEPROM_Write(uint32 addr,
 412:Generated_Source\PSoC5/cy_em_eeprom.c ****                                             void * eepromData,
 413:Generated_Source\PSoC5/cy_em_eeprom.c ****                                             uint32 size,
 414:Generated_Source\PSoC5/cy_em_eeprom.c ****                                             cy_stc_eeprom_context_t * context)
 415:Generated_Source\PSoC5/cy_em_eeprom.c **** {
 416:Generated_Source\PSoC5/cy_em_eeprom.c ****     cy_en_em_eeprom_status_t ret = CY_EM_EEPROM_BAD_PARAM;
 417:Generated_Source\PSoC5/cy_em_eeprom.c ****     uint32 i;
 418:Generated_Source\PSoC5/cy_em_eeprom.c ****     uint32 wrCnt;
 419:Generated_Source\PSoC5/cy_em_eeprom.c ****     uint32 actEmEepromRowNum;
 420:Generated_Source\PSoC5/cy_em_eeprom.c ****     uint32 writeRamBuffer[CY_EM_EEPROM_FLASH_SIZEOF_ROW / CY_EM_EEPROM_U32_DIV];
 421:Generated_Source\PSoC5/cy_em_eeprom.c ****     uint32 startAddr = 0u;
 422:Generated_Source\PSoC5/cy_em_eeprom.c ****     uint32 endAddr = 0u;
 423:Generated_Source\PSoC5/cy_em_eeprom.c ****     uint32 tmpRowAddr;
 424:Generated_Source\PSoC5/cy_em_eeprom.c ****     uint32 emEepromRowAddr = context->lastWrRowAddr;
 425:Generated_Source\PSoC5/cy_em_eeprom.c ****     uint32 emEepromRowRdAddr;
 426:Generated_Source\PSoC5/cy_em_eeprom.c ****     void * tmpData;
 427:Generated_Source\PSoC5/cy_em_eeprom.c ****     uint32 eeData = (uint32) eepromData; /* To avoid the pointer arithmetic with void */
 428:Generated_Source\PSoC5/cy_em_eeprom.c **** 
 429:Generated_Source\PSoC5/cy_em_eeprom.c ****     /* Check if the EEPROM data does not exceed the EEPROM capacity */
 430:Generated_Source\PSoC5/cy_em_eeprom.c ****     if((0u != size) && ((addr + size) <= (context->eepromSize)) && (NULL != eepromData))
ARM GAS  C:\Users\jens-\AppData\Local\Temp\cc4C0Tnp.s 			page 9


 431:Generated_Source\PSoC5/cy_em_eeprom.c ****     {
 432:Generated_Source\PSoC5/cy_em_eeprom.c ****         uint32 numWrites = ((size - 1u) / CY_EM_EEPROM_HEADER_DATA_LEN) + 1u;
 433:Generated_Source\PSoC5/cy_em_eeprom.c ****         uint32 eeHeaderDataOffset = 0u;
 434:Generated_Source\PSoC5/cy_em_eeprom.c **** 
 435:Generated_Source\PSoC5/cy_em_eeprom.c ****         for(wrCnt = 0u; wrCnt < numWrites; wrCnt++)
 436:Generated_Source\PSoC5/cy_em_eeprom.c ****         {
 437:Generated_Source\PSoC5/cy_em_eeprom.c ****             uint32 skipOperation = 0u;
 438:Generated_Source\PSoC5/cy_em_eeprom.c ****             /* Get the sequence number of the last written row */
 439:Generated_Source\PSoC5/cy_em_eeprom.c ****             uint32 seqNum = CY_EM_EEPROM_GET_SEQ_NUM(emEepromRowAddr);
 440:Generated_Source\PSoC5/cy_em_eeprom.c **** 
 441:Generated_Source\PSoC5/cy_em_eeprom.c ****             /* Get the address of the row to be written. The "emEepromRowAddr" may be
 442:Generated_Source\PSoC5/cy_em_eeprom.c ****             * updated with the proper address (if wear leveling is used). The
 443:Generated_Source\PSoC5/cy_em_eeprom.c ****             * "emEepromRowRdAddr" will point to the row address from which the historic
 444:Generated_Source\PSoC5/cy_em_eeprom.c ****             * data will be read into the RAM buffer.
 445:Generated_Source\PSoC5/cy_em_eeprom.c ****             */
 446:Generated_Source\PSoC5/cy_em_eeprom.c ****             GetNextRowToWrite(seqNum, &emEepromRowAddr, &emEepromRowRdAddr, context);
 447:Generated_Source\PSoC5/cy_em_eeprom.c **** 
 448:Generated_Source\PSoC5/cy_em_eeprom.c ****             /* Clear the RAM buffer so to not put junk into flash */
 449:Generated_Source\PSoC5/cy_em_eeprom.c ****             (void)memset(writeRamBuffer, 0, CY_EM_EEPROM_FLASH_SIZEOF_ROW);
 450:Generated_Source\PSoC5/cy_em_eeprom.c **** 
 451:Generated_Source\PSoC5/cy_em_eeprom.c ****             /* Fill the EM_EEPROM header info for the row in the RAM buffer */
 452:Generated_Source\PSoC5/cy_em_eeprom.c ****             seqNum++;
 453:Generated_Source\PSoC5/cy_em_eeprom.c ****             writeRamBuffer[CY_EM_EEPROM_HEADER_SEQ_NUM_OFFSET_U32] = seqNum;
 454:Generated_Source\PSoC5/cy_em_eeprom.c ****             writeRamBuffer[CY_EM_EEPROM_HEADER_ADDR_OFFSET_U32] = addr;
 455:Generated_Source\PSoC5/cy_em_eeprom.c ****             tmpData = (void *) eeData;
 456:Generated_Source\PSoC5/cy_em_eeprom.c **** 
 457:Generated_Source\PSoC5/cy_em_eeprom.c ****             /* Check if this is the last row to write */
 458:Generated_Source\PSoC5/cy_em_eeprom.c ****             if(wrCnt == (numWrites - 1u))
 459:Generated_Source\PSoC5/cy_em_eeprom.c ****             {
 460:Generated_Source\PSoC5/cy_em_eeprom.c ****                 /* Fill in the remaining size value to the EEPROM header. */
 461:Generated_Source\PSoC5/cy_em_eeprom.c ****                 writeRamBuffer[CY_EM_EEPROM_HEADER_LEN_OFFSET_U32] = size;
 462:Generated_Source\PSoC5/cy_em_eeprom.c ****             }
 463:Generated_Source\PSoC5/cy_em_eeprom.c ****             else
 464:Generated_Source\PSoC5/cy_em_eeprom.c ****             {
 465:Generated_Source\PSoC5/cy_em_eeprom.c ****                 /* This is not the last row to write in the current EEPROM write operation.
 466:Generated_Source\PSoC5/cy_em_eeprom.c ****                 * Write the maximum possible data size to the EEPROM header. Update the
 467:Generated_Source\PSoC5/cy_em_eeprom.c ****                 * size, eeData and addr respectively.
 468:Generated_Source\PSoC5/cy_em_eeprom.c ****                 */
 469:Generated_Source\PSoC5/cy_em_eeprom.c ****                 writeRamBuffer[CY_EM_EEPROM_HEADER_LEN_OFFSET_U32] = CY_EM_EEPROM_HEADER_DATA_LEN;
 470:Generated_Source\PSoC5/cy_em_eeprom.c ****                 size -= CY_EM_EEPROM_HEADER_DATA_LEN;
 471:Generated_Source\PSoC5/cy_em_eeprom.c ****                 addr += CY_EM_EEPROM_HEADER_DATA_LEN;
 472:Generated_Source\PSoC5/cy_em_eeprom.c ****                 eeData += CY_EM_EEPROM_HEADER_DATA_LEN;
 473:Generated_Source\PSoC5/cy_em_eeprom.c ****             }
 474:Generated_Source\PSoC5/cy_em_eeprom.c **** 
 475:Generated_Source\PSoC5/cy_em_eeprom.c ****             /* Write the data to the EEPROM header */
 476:Generated_Source\PSoC5/cy_em_eeprom.c ****             (void)memcpy((void *)&writeRamBuffer[CY_EM_EEPROM_HEADER_DATA_OFFSET_U32],
 477:Generated_Source\PSoC5/cy_em_eeprom.c ****                          tmpData,
 478:Generated_Source\PSoC5/cy_em_eeprom.c ****                          writeRamBuffer[CY_EM_EEPROM_HEADER_LEN_OFFSET_U32]);
 479:Generated_Source\PSoC5/cy_em_eeprom.c **** 
 480:Generated_Source\PSoC5/cy_em_eeprom.c ****             if(emEepromRowRdAddr != 0UL)
 481:Generated_Source\PSoC5/cy_em_eeprom.c ****             {
 482:Generated_Source\PSoC5/cy_em_eeprom.c ****                 /* Copy the EEPROM historic data for this row from flash to RAM */
 483:Generated_Source\PSoC5/cy_em_eeprom.c ****                 (void)memcpy((void *)&writeRamBuffer[CY_EM_EEPROM_EEPROM_DATA_OFFSET_U32],
 484:Generated_Source\PSoC5/cy_em_eeprom.c ****                              (void *)(emEepromRowRdAddr + CY_EM_EEPROM_EEPROM_DATA_LEN),
 485:Generated_Source\PSoC5/cy_em_eeprom.c ****                              CY_EM_EEPROM_EEPROM_DATA_LEN);
 486:Generated_Source\PSoC5/cy_em_eeprom.c ****             }
 487:Generated_Source\PSoC5/cy_em_eeprom.c **** 
ARM GAS  C:\Users\jens-\AppData\Local\Temp\cc4C0Tnp.s 			page 10


 488:Generated_Source\PSoC5/cy_em_eeprom.c ****             /* Check if there is data for this location in other EEPROM headers:
 489:Generated_Source\PSoC5/cy_em_eeprom.c ****             * find out the row with the lowest possible sequence number which
 490:Generated_Source\PSoC5/cy_em_eeprom.c ****             * may contain the data for the current row.
 491:Generated_Source\PSoC5/cy_em_eeprom.c ****             */
 492:Generated_Source\PSoC5/cy_em_eeprom.c ****             i = (seqNum > context->numberOfRows) ? ((seqNum - (context->numberOfRows)) + 1u) : 1u;
 493:Generated_Source\PSoC5/cy_em_eeprom.c **** 
 494:Generated_Source\PSoC5/cy_em_eeprom.c ****             for(; i <= seqNum; i++)
 495:Generated_Source\PSoC5/cy_em_eeprom.c ****             {
 496:Generated_Source\PSoC5/cy_em_eeprom.c ****                 if(i == seqNum)
 497:Generated_Source\PSoC5/cy_em_eeprom.c ****                 {
 498:Generated_Source\PSoC5/cy_em_eeprom.c ****                     /* The code reached the row that is about to be written. Analyze the recently
 499:Generated_Source\PSoC5/cy_em_eeprom.c ****                     * created EEPROM header (stored in the RAM buffer currently): if it contains
 500:Generated_Source\PSoC5/cy_em_eeprom.c ****                     * the data for EEPROM data locations in the row that is about to be written.
 501:Generated_Source\PSoC5/cy_em_eeprom.c ****                     */
 502:Generated_Source\PSoC5/cy_em_eeprom.c ****                     tmpRowAddr = (uint32) writeRamBuffer;
 503:Generated_Source\PSoC5/cy_em_eeprom.c ****                 }
 504:Generated_Source\PSoC5/cy_em_eeprom.c ****                 else
 505:Generated_Source\PSoC5/cy_em_eeprom.c ****                 {
 506:Generated_Source\PSoC5/cy_em_eeprom.c ****                     /* Retrieve the address of the previously written row by its sequence number.
 507:Generated_Source\PSoC5/cy_em_eeprom.c ****                     * The pointer will be used to get data from the respective EEPROM header.
 508:Generated_Source\PSoC5/cy_em_eeprom.c ****                     */
 509:Generated_Source\PSoC5/cy_em_eeprom.c ****                     tmpRowAddr = GetRowAddrBySeqNum(i, context);
 510:Generated_Source\PSoC5/cy_em_eeprom.c ****                 }
 511:Generated_Source\PSoC5/cy_em_eeprom.c **** 
 512:Generated_Source\PSoC5/cy_em_eeprom.c ****                 actEmEepromRowNum = CY_EM_EEPROM_GET_ACT_ROW_NUM_FROM_ADDR(emEepromRowAddr,
 513:Generated_Source\PSoC5/cy_em_eeprom.c ****                                                                            context->numberOfRows,
 514:Generated_Source\PSoC5/cy_em_eeprom.c ****                                                                            context->userFlashStartA
 515:Generated_Source\PSoC5/cy_em_eeprom.c ****                 if(0UL != tmpRowAddr)
 516:Generated_Source\PSoC5/cy_em_eeprom.c ****                 {
 517:Generated_Source\PSoC5/cy_em_eeprom.c ****                     /* Calculate the required addressed for the later EEPROM historic data update *
 518:Generated_Source\PSoC5/cy_em_eeprom.c ****                     skipOperation = GetAddresses(
 519:Generated_Source\PSoC5/cy_em_eeprom.c ****                                               &startAddr,
 520:Generated_Source\PSoC5/cy_em_eeprom.c ****                                               &endAddr,
 521:Generated_Source\PSoC5/cy_em_eeprom.c ****                                               &eeHeaderDataOffset,
 522:Generated_Source\PSoC5/cy_em_eeprom.c ****                                               actEmEepromRowNum,
 523:Generated_Source\PSoC5/cy_em_eeprom.c ****                                               *(uint32 *)(tmpRowAddr + CY_EM_EEPROM_HEADER_ADDR_OFF
 524:Generated_Source\PSoC5/cy_em_eeprom.c ****                                               *(uint32 *)(tmpRowAddr + CY_EM_EEPROM_HEADER_LEN_OFFS
 525:Generated_Source\PSoC5/cy_em_eeprom.c ****                 }
 526:Generated_Source\PSoC5/cy_em_eeprom.c ****                 else
 527:Generated_Source\PSoC5/cy_em_eeprom.c ****                 {
 528:Generated_Source\PSoC5/cy_em_eeprom.c ****                     /* Skip writes to the RAM buffer */
 529:Generated_Source\PSoC5/cy_em_eeprom.c ****                     skipOperation++;
 530:Generated_Source\PSoC5/cy_em_eeprom.c ****                 }
 531:Generated_Source\PSoC5/cy_em_eeprom.c **** 
 532:Generated_Source\PSoC5/cy_em_eeprom.c ****                 /* Write data to the RAM buffer */
 533:Generated_Source\PSoC5/cy_em_eeprom.c ****                 if(0u == skipOperation)
 534:Generated_Source\PSoC5/cy_em_eeprom.c ****                 {
 535:Generated_Source\PSoC5/cy_em_eeprom.c ****                     uint32 dataAddr = ((uint32)((uint8 *)&writeRamBuffer)) + startAddr;
 536:Generated_Source\PSoC5/cy_em_eeprom.c **** 
 537:Generated_Source\PSoC5/cy_em_eeprom.c ****                     /* Update the address to point to the EEPROM header data and not to
 538:Generated_Source\PSoC5/cy_em_eeprom.c ****                     * the start of the row.
 539:Generated_Source\PSoC5/cy_em_eeprom.c ****                     */
 540:Generated_Source\PSoC5/cy_em_eeprom.c ****                     tmpRowAddr = tmpRowAddr + CY_EM_EEPROM_HEADER_DATA_OFFSET + eeHeaderDataOffset;
 541:Generated_Source\PSoC5/cy_em_eeprom.c ****                     (void)memcpy((void *)(dataAddr), (void *)(tmpRowAddr), endAddr - startAddr);
 542:Generated_Source\PSoC5/cy_em_eeprom.c ****                 }
 543:Generated_Source\PSoC5/cy_em_eeprom.c **** 
 544:Generated_Source\PSoC5/cy_em_eeprom.c ****                 /* Calculate the checksum if redundant copy is enabled */
ARM GAS  C:\Users\jens-\AppData\Local\Temp\cc4C0Tnp.s 			page 11


 545:Generated_Source\PSoC5/cy_em_eeprom.c ****                 if(0u != context->redundantCopy)
 546:Generated_Source\PSoC5/cy_em_eeprom.c ****                 {
 547:Generated_Source\PSoC5/cy_em_eeprom.c ****                     writeRamBuffer[CY_EM_EEPROM_HEADER_CHECKSUM_OFFSET_U32] = (uint32)
 548:Generated_Source\PSoC5/cy_em_eeprom.c ****                         CalcChecksum((uint8 *) &writeRamBuffer[CY_EM_EEPROM_EEPROM_DATA_OFFSET_U32]
 549:Generated_Source\PSoC5/cy_em_eeprom.c ****                                                   CY_EM_EEPROM_EEPROM_DATA_LEN);
 550:Generated_Source\PSoC5/cy_em_eeprom.c ****                 }
 551:Generated_Source\PSoC5/cy_em_eeprom.c ****             }
 552:Generated_Source\PSoC5/cy_em_eeprom.c **** 
 553:Generated_Source\PSoC5/cy_em_eeprom.c ****             /* Write the data to the specified flash row */
 554:Generated_Source\PSoC5/cy_em_eeprom.c ****             ret = WriteRow(emEepromRowAddr, writeRamBuffer, context);
 555:Generated_Source\PSoC5/cy_em_eeprom.c ****             tmpRowAddr = emEepromRowAddr;
 556:Generated_Source\PSoC5/cy_em_eeprom.c **** 
 557:Generated_Source\PSoC5/cy_em_eeprom.c ****             /* Check if redundant copy is used */
 558:Generated_Source\PSoC5/cy_em_eeprom.c ****             if((0u != context->redundantCopy) && (CY_EM_EEPROM_SUCCESS == ret))
 559:Generated_Source\PSoC5/cy_em_eeprom.c ****             {
 560:Generated_Source\PSoC5/cy_em_eeprom.c ****                 /* Update the row address to point to the row in the redundant EEPROM's copy */
 561:Generated_Source\PSoC5/cy_em_eeprom.c ****                 tmpRowAddr = (emEepromRowAddr - context->userFlashStartAddr) + context->wlEndAddr;
 562:Generated_Source\PSoC5/cy_em_eeprom.c **** 
 563:Generated_Source\PSoC5/cy_em_eeprom.c ****                 /* Write the data to the specified flash row */
 564:Generated_Source\PSoC5/cy_em_eeprom.c ****                 ret = WriteRow(tmpRowAddr, writeRamBuffer, context);
 565:Generated_Source\PSoC5/cy_em_eeprom.c ****             }
 566:Generated_Source\PSoC5/cy_em_eeprom.c **** 
 567:Generated_Source\PSoC5/cy_em_eeprom.c ****             if(CY_EM_EEPROM_SUCCESS == ret)
 568:Generated_Source\PSoC5/cy_em_eeprom.c ****             {
 569:Generated_Source\PSoC5/cy_em_eeprom.c ****                 /* Store last written row address only when EEPROM and redundant
 570:Generated_Source\PSoC5/cy_em_eeprom.c ****                 * copy writes were successful.
 571:Generated_Source\PSoC5/cy_em_eeprom.c ****                 */
 572:Generated_Source\PSoC5/cy_em_eeprom.c ****                 context->lastWrRowAddr = emEepromRowAddr;
 573:Generated_Source\PSoC5/cy_em_eeprom.c ****             }
 574:Generated_Source\PSoC5/cy_em_eeprom.c ****             else
 575:Generated_Source\PSoC5/cy_em_eeprom.c ****             {
 576:Generated_Source\PSoC5/cy_em_eeprom.c ****                 break;
 577:Generated_Source\PSoC5/cy_em_eeprom.c ****             }
 578:Generated_Source\PSoC5/cy_em_eeprom.c ****         }
 579:Generated_Source\PSoC5/cy_em_eeprom.c ****     }
 580:Generated_Source\PSoC5/cy_em_eeprom.c ****     return(ret);
 581:Generated_Source\PSoC5/cy_em_eeprom.c **** }
 582:Generated_Source\PSoC5/cy_em_eeprom.c **** 
 583:Generated_Source\PSoC5/cy_em_eeprom.c **** 
 584:Generated_Source\PSoC5/cy_em_eeprom.c **** /*******************************************************************************
 585:Generated_Source\PSoC5/cy_em_eeprom.c **** * Function Name: Cy_Em_EEPROM_Erase
 586:Generated_Source\PSoC5/cy_em_eeprom.c **** ****************************************************************************//**
 587:Generated_Source\PSoC5/cy_em_eeprom.c **** *
 588:Generated_Source\PSoC5/cy_em_eeprom.c **** * This function erases the entire contents of the EEPROM. Erased values are all
 589:Generated_Source\PSoC5/cy_em_eeprom.c **** * zeros. This is a blocking function and it does not return until the write
 590:Generated_Source\PSoC5/cy_em_eeprom.c **** * operation is completed. The user firmware should not enter Hibernate mode until
 591:Generated_Source\PSoC5/cy_em_eeprom.c **** * erase is completed. The erase operation is allowed in Sleep and Deep-Sleep modes.
 592:Generated_Source\PSoC5/cy_em_eeprom.c **** * During the flash operation, the device should not be reset, including the
 593:Generated_Source\PSoC5/cy_em_eeprom.c **** * XRES pin, a software reset, and watchdog reset sources. Also, low-voltage
 594:Generated_Source\PSoC5/cy_em_eeprom.c **** * detect circuits should be configured to generate an interrupt instead of a
 595:Generated_Source\PSoC5/cy_em_eeprom.c **** * reset. Otherwise, portions of flash may undergo unexpected changes.
 596:Generated_Source\PSoC5/cy_em_eeprom.c **** *
 597:Generated_Source\PSoC5/cy_em_eeprom.c **** * \param context
 598:Generated_Source\PSoC5/cy_em_eeprom.c **** * The pointer to the EEPROM context structure \ref cy_stc_eeprom_context_t.
 599:Generated_Source\PSoC5/cy_em_eeprom.c **** *
 600:Generated_Source\PSoC5/cy_em_eeprom.c **** * \return
 601:Generated_Source\PSoC5/cy_em_eeprom.c **** * This function returns \ref cy_en_em_eeprom_status_t.
ARM GAS  C:\Users\jens-\AppData\Local\Temp\cc4C0Tnp.s 			page 12


 602:Generated_Source\PSoC5/cy_em_eeprom.c **** *
 603:Generated_Source\PSoC5/cy_em_eeprom.c **** * \note
 604:Generated_Source\PSoC5/cy_em_eeprom.c **** * For all non PSoC 6 devices the erase operation is performed by clearing
 605:Generated_Source\PSoC5/cy_em_eeprom.c **** * the EEPROM data using flash write. This affects the flash durability.
 606:Generated_Source\PSoC5/cy_em_eeprom.c **** * So it is recommended to use this function in utmost case to prolongate
 607:Generated_Source\PSoC5/cy_em_eeprom.c **** * flash life.
 608:Generated_Source\PSoC5/cy_em_eeprom.c **** *
 609:Generated_Source\PSoC5/cy_em_eeprom.c **** * \note
 610:Generated_Source\PSoC5/cy_em_eeprom.c **** * This function uses a buffer of the flash row size to perform erase
 611:Generated_Source\PSoC5/cy_em_eeprom.c **** * operation. For the size of the row refer to the specific PSoC device
 612:Generated_Source\PSoC5/cy_em_eeprom.c **** * datasheet.
 613:Generated_Source\PSoC5/cy_em_eeprom.c **** *
 614:Generated_Source\PSoC5/cy_em_eeprom.c **** * \sideeffect
 615:Generated_Source\PSoC5/cy_em_eeprom.c **** * In case when blocking write option is used, if this function is called by
 616:Generated_Source\PSoC5/cy_em_eeprom.c **** * the CM4 the user code on CM0P and the user code on CM4 are blocked until erase
 617:Generated_Source\PSoC5/cy_em_eeprom.c **** * flash row operation is finished. If this function is called by the CM0P the
 618:Generated_Source\PSoC5/cy_em_eeprom.c **** * user code on CM4 is not blocked and the user code on CM0P is blocked until
 619:Generated_Source\PSoC5/cy_em_eeprom.c **** * erase flash row operation is finished. Plan your task allocation accordingly.
 620:Generated_Source\PSoC5/cy_em_eeprom.c **** *
 621:Generated_Source\PSoC5/cy_em_eeprom.c **** * \sideeffect
 622:Generated_Source\PSoC5/cy_em_eeprom.c **** * In case if non-blocking write option is used and when user flash is used as
 623:Generated_Source\PSoC5/cy_em_eeprom.c **** * an EEPROM storage care should be taken to prevent the read while write (RWW)
 624:Generated_Source\PSoC5/cy_em_eeprom.c **** * exception. To prevent the RWW exception the user flash macro that includes
 625:Generated_Source\PSoC5/cy_em_eeprom.c **** * the EEPROM storage should not be read while the EEPROM erase is not completed.
 626:Generated_Source\PSoC5/cy_em_eeprom.c **** * The read also means the user code execution from the respective flash macro.
 627:Generated_Source\PSoC5/cy_em_eeprom.c **** *
 628:Generated_Source\PSoC5/cy_em_eeprom.c **** *******************************************************************************/
 629:Generated_Source\PSoC5/cy_em_eeprom.c **** cy_en_em_eeprom_status_t Cy_Em_EEPROM_Erase(cy_stc_eeprom_context_t * context)
 630:Generated_Source\PSoC5/cy_em_eeprom.c **** {
 631:Generated_Source\PSoC5/cy_em_eeprom.c ****     uint32 i;
 632:Generated_Source\PSoC5/cy_em_eeprom.c ****     uint32 seqNum;
 633:Generated_Source\PSoC5/cy_em_eeprom.c ****     uint32 emEepromRowAddr = context->lastWrRowAddr;
 634:Generated_Source\PSoC5/cy_em_eeprom.c ****     uint32 emEepromRowRdAddr;
 635:Generated_Source\PSoC5/cy_em_eeprom.c ****     cy_en_em_eeprom_status_t ret = CY_EM_EEPROM_WRITE_FAIL;
 636:Generated_Source\PSoC5/cy_em_eeprom.c ****     uint32 writeRamBuffer[CY_EM_EEPROM_FLASH_SIZEOF_ROW / CY_EM_EEPROM_U32_DIV] = {0u};
 637:Generated_Source\PSoC5/cy_em_eeprom.c **** #if (CY_PSOC6)
 638:Generated_Source\PSoC5/cy_em_eeprom.c ****     uint32 emEepromStoredRowAddr = context->lastWrRowAddr;
 639:Generated_Source\PSoC5/cy_em_eeprom.c ****     uint32 storedSeqNum;
 640:Generated_Source\PSoC5/cy_em_eeprom.c **** #endif /* (!CY_PSOC6) */
 641:Generated_Source\PSoC5/cy_em_eeprom.c **** 
 642:Generated_Source\PSoC5/cy_em_eeprom.c ****     /* Get the sequence number of the last written row */
 643:Generated_Source\PSoC5/cy_em_eeprom.c ****     seqNum = CY_EM_EEPROM_GET_SEQ_NUM(emEepromRowAddr);
 644:Generated_Source\PSoC5/cy_em_eeprom.c **** 
 645:Generated_Source\PSoC5/cy_em_eeprom.c ****     /* If there were no writes to EEPROM - nothing to erase */
 646:Generated_Source\PSoC5/cy_em_eeprom.c ****     if(0u != seqNum)
 647:Generated_Source\PSoC5/cy_em_eeprom.c ****     {
 648:Generated_Source\PSoC5/cy_em_eeprom.c ****         /* Calculate the number of row erase operations required */
 649:Generated_Source\PSoC5/cy_em_eeprom.c ****         uint32 numWrites = context->numberOfRows * context->wearLevelingFactor;
 650:Generated_Source\PSoC5/cy_em_eeprom.c **** 
 651:Generated_Source\PSoC5/cy_em_eeprom.c ****     #if (CY_PSOC6)
 652:Generated_Source\PSoC5/cy_em_eeprom.c ****         GetNextRowToWrite(seqNum, &emEepromStoredRowAddr, &emEepromRowRdAddr, context);
 653:Generated_Source\PSoC5/cy_em_eeprom.c ****         storedSeqNum = seqNum + 1u;
 654:Generated_Source\PSoC5/cy_em_eeprom.c ****     #endif /* (CY_PSOC6) */
 655:Generated_Source\PSoC5/cy_em_eeprom.c **** 
 656:Generated_Source\PSoC5/cy_em_eeprom.c ****         if(0u != context->redundantCopy)
 657:Generated_Source\PSoC5/cy_em_eeprom.c ****         {
 658:Generated_Source\PSoC5/cy_em_eeprom.c ****             writeRamBuffer[CY_EM_EEPROM_HEADER_CHECKSUM_OFFSET_U32] = (uint32)
ARM GAS  C:\Users\jens-\AppData\Local\Temp\cc4C0Tnp.s 			page 13


 659:Generated_Source\PSoC5/cy_em_eeprom.c ****                         CalcChecksum((uint8 *) &writeRamBuffer[CY_EM_EEPROM_EEPROM_DATA_OFFSET_U32]
 660:Generated_Source\PSoC5/cy_em_eeprom.c ****                                                   CY_EM_EEPROM_EEPROM_DATA_LEN);
 661:Generated_Source\PSoC5/cy_em_eeprom.c ****         }
 662:Generated_Source\PSoC5/cy_em_eeprom.c **** 
 663:Generated_Source\PSoC5/cy_em_eeprom.c ****         for(i = 0u; i < numWrites; i++)
 664:Generated_Source\PSoC5/cy_em_eeprom.c ****         {
 665:Generated_Source\PSoC5/cy_em_eeprom.c ****         #if (CY_PSOC6)
 666:Generated_Source\PSoC5/cy_em_eeprom.c ****             /* For PSoC 6 the erase operation moves backwards. From last written row
 667:Generated_Source\PSoC5/cy_em_eeprom.c ****             * identified by "seqNum" down to "seqNum" - "numWrites". If "emEepromRowAddr"
 668:Generated_Source\PSoC5/cy_em_eeprom.c ****             * is zero this means that the row identified by "seqNum" was previously 
 669:Generated_Source\PSoC5/cy_em_eeprom.c ****             * erased.
 670:Generated_Source\PSoC5/cy_em_eeprom.c ****             */
 671:Generated_Source\PSoC5/cy_em_eeprom.c ****             if(0u != emEepromRowAddr)
 672:Generated_Source\PSoC5/cy_em_eeprom.c ****             {
 673:Generated_Source\PSoC5/cy_em_eeprom.c ****                 ret = EraseRow(emEepromRowAddr, (uint32)writeRamBuffer, context);
 674:Generated_Source\PSoC5/cy_em_eeprom.c ****             }
 675:Generated_Source\PSoC5/cy_em_eeprom.c **** 
 676:Generated_Source\PSoC5/cy_em_eeprom.c ****             seqNum--;
 677:Generated_Source\PSoC5/cy_em_eeprom.c **** 
 678:Generated_Source\PSoC5/cy_em_eeprom.c ****             if(0u == seqNum)
 679:Generated_Source\PSoC5/cy_em_eeprom.c ****             {
 680:Generated_Source\PSoC5/cy_em_eeprom.c ****                 /* Exit the loop as there is no more row is EEPROM to be erased */
 681:Generated_Source\PSoC5/cy_em_eeprom.c ****                 break;
 682:Generated_Source\PSoC5/cy_em_eeprom.c ****             }
 683:Generated_Source\PSoC5/cy_em_eeprom.c ****             emEepromRowAddr = GetRowAddrBySeqNum(seqNum, context);
 684:Generated_Source\PSoC5/cy_em_eeprom.c ****         #else
 685:Generated_Source\PSoC5/cy_em_eeprom.c ****             seqNum = CY_EM_EEPROM_GET_SEQ_NUM(emEepromRowAddr);
 686:Generated_Source\PSoC5/cy_em_eeprom.c ****             /* Get the address of the row to be erased. "emEepromRowAddr" may be updated
 687:Generated_Source\PSoC5/cy_em_eeprom.c ****             * with the proper address (if wear leveling is used).
 688:Generated_Source\PSoC5/cy_em_eeprom.c ****             */
 689:Generated_Source\PSoC5/cy_em_eeprom.c ****             GetNextRowToWrite(seqNum, &emEepromRowAddr, &emEepromRowRdAddr, context);
 690:Generated_Source\PSoC5/cy_em_eeprom.c ****             seqNum++;
 691:Generated_Source\PSoC5/cy_em_eeprom.c ****             writeRamBuffer[0u] = seqNum;
 692:Generated_Source\PSoC5/cy_em_eeprom.c ****             ret = EraseRow(emEepromRowAddr, (uint32)writeRamBuffer, context);
 693:Generated_Source\PSoC5/cy_em_eeprom.c ****         #endif /* (CY_PSOC6) */
 694:Generated_Source\PSoC5/cy_em_eeprom.c ****         }
 695:Generated_Source\PSoC5/cy_em_eeprom.c **** 
 696:Generated_Source\PSoC5/cy_em_eeprom.c ****     #if (CY_PSOC6)
 697:Generated_Source\PSoC5/cy_em_eeprom.c ****         if(CY_EM_EEPROM_SUCCESS == ret)
 698:Generated_Source\PSoC5/cy_em_eeprom.c ****         {
 699:Generated_Source\PSoC5/cy_em_eeprom.c ****             writeRamBuffer[0u] = storedSeqNum;
 700:Generated_Source\PSoC5/cy_em_eeprom.c **** 
 701:Generated_Source\PSoC5/cy_em_eeprom.c ****             /* Write the previously stored sequence number to the flash row which would be
 702:Generated_Source\PSoC5/cy_em_eeprom.c ****             * written next if the erase wouldn't happen. In this case the write to
 703:Generated_Source\PSoC5/cy_em_eeprom.c ****             * redundant copy can be skipped as it does not add any value.
 704:Generated_Source\PSoC5/cy_em_eeprom.c ****             */
 705:Generated_Source\PSoC5/cy_em_eeprom.c ****             ret = WriteRow(emEepromStoredRowAddr, writeRamBuffer, context);
 706:Generated_Source\PSoC5/cy_em_eeprom.c **** 
 707:Generated_Source\PSoC5/cy_em_eeprom.c ****             if(CY_EM_EEPROM_SUCCESS == ret)
 708:Generated_Source\PSoC5/cy_em_eeprom.c ****             {
 709:Generated_Source\PSoC5/cy_em_eeprom.c ****                 context->lastWrRowAddr = emEepromStoredRowAddr;
 710:Generated_Source\PSoC5/cy_em_eeprom.c ****             }
 711:Generated_Source\PSoC5/cy_em_eeprom.c ****         }
 712:Generated_Source\PSoC5/cy_em_eeprom.c ****     #endif /* (CY_PSOC6) */
 713:Generated_Source\PSoC5/cy_em_eeprom.c **** 
 714:Generated_Source\PSoC5/cy_em_eeprom.c ****     }
 715:Generated_Source\PSoC5/cy_em_eeprom.c ****     return(ret);
ARM GAS  C:\Users\jens-\AppData\Local\Temp\cc4C0Tnp.s 			page 14


 716:Generated_Source\PSoC5/cy_em_eeprom.c **** }
 717:Generated_Source\PSoC5/cy_em_eeprom.c **** 
 718:Generated_Source\PSoC5/cy_em_eeprom.c **** 
 719:Generated_Source\PSoC5/cy_em_eeprom.c **** /*******************************************************************************
 720:Generated_Source\PSoC5/cy_em_eeprom.c **** * Function Name: Cy_Em_EEPROM_NumWrites
 721:Generated_Source\PSoC5/cy_em_eeprom.c **** ****************************************************************************//**
 722:Generated_Source\PSoC5/cy_em_eeprom.c **** *
 723:Generated_Source\PSoC5/cy_em_eeprom.c **** * Returns the number of the EEPROM writes completed so far.
 724:Generated_Source\PSoC5/cy_em_eeprom.c **** *
 725:Generated_Source\PSoC5/cy_em_eeprom.c **** * \param context
 726:Generated_Source\PSoC5/cy_em_eeprom.c **** * The pointer to the EEPROM context structure \ref cy_stc_eeprom_context_t.
 727:Generated_Source\PSoC5/cy_em_eeprom.c **** *
 728:Generated_Source\PSoC5/cy_em_eeprom.c **** * \return
 729:Generated_Source\PSoC5/cy_em_eeprom.c **** * The number of writes performed to the EEPROM.
 730:Generated_Source\PSoC5/cy_em_eeprom.c **** *
 731:Generated_Source\PSoC5/cy_em_eeprom.c **** *******************************************************************************/
 732:Generated_Source\PSoC5/cy_em_eeprom.c **** uint32 Cy_Em_EEPROM_NumWrites(cy_stc_eeprom_context_t * context)
 733:Generated_Source\PSoC5/cy_em_eeprom.c **** {
 734:Generated_Source\PSoC5/cy_em_eeprom.c ****     return(CY_EM_EEPROM_GET_SEQ_NUM(context->lastWrRowAddr));
 735:Generated_Source\PSoC5/cy_em_eeprom.c **** }
 736:Generated_Source\PSoC5/cy_em_eeprom.c **** 
 737:Generated_Source\PSoC5/cy_em_eeprom.c **** /** \} */
 738:Generated_Source\PSoC5/cy_em_eeprom.c **** 
 739:Generated_Source\PSoC5/cy_em_eeprom.c **** /** \cond INTERNAL */
 740:Generated_Source\PSoC5/cy_em_eeprom.c **** 
 741:Generated_Source\PSoC5/cy_em_eeprom.c **** 
 742:Generated_Source\PSoC5/cy_em_eeprom.c **** /*******************************************************************************
 743:Generated_Source\PSoC5/cy_em_eeprom.c **** * Function Name: FindLastWrittenRow
 744:Generated_Source\PSoC5/cy_em_eeprom.c **** ****************************************************************************//**
 745:Generated_Source\PSoC5/cy_em_eeprom.c **** *
 746:Generated_Source\PSoC5/cy_em_eeprom.c **** * Performs a search of the last written row address of the EEPROM associated
 747:Generated_Source\PSoC5/cy_em_eeprom.c **** * with the context structure. If there were no writes to the EEPROM the
 748:Generated_Source\PSoC5/cy_em_eeprom.c **** * function returns the start address of the EEPROM. The row address is returned
 749:Generated_Source\PSoC5/cy_em_eeprom.c **** * in the input parameter.
 750:Generated_Source\PSoC5/cy_em_eeprom.c **** *
 751:Generated_Source\PSoC5/cy_em_eeprom.c **** * \param lastWrRowPtr
 752:Generated_Source\PSoC5/cy_em_eeprom.c **** * The pointer to a memory where the last written row will be returned.
 753:Generated_Source\PSoC5/cy_em_eeprom.c **** *
 754:Generated_Source\PSoC5/cy_em_eeprom.c **** * \param context
 755:Generated_Source\PSoC5/cy_em_eeprom.c **** * The pointer to the EEPROM context structure \ref cy_stc_eeprom_context_t.
 756:Generated_Source\PSoC5/cy_em_eeprom.c **** *
 757:Generated_Source\PSoC5/cy_em_eeprom.c **** *******************************************************************************/
 758:Generated_Source\PSoC5/cy_em_eeprom.c **** static void FindLastWrittenRow(uint32 * lastWrRowPtr, cy_stc_eeprom_context_t * context)
 759:Generated_Source\PSoC5/cy_em_eeprom.c **** {
  27              		.loc 1 759 1 view -0
  28              		.cfi_startproc
  29              		@ args = 0, pretend = 0, frame = 0
  30              		@ frame_needed = 0, uses_anonymous_args = 0
  31              		@ link register save eliminated.
  32              		.loc 1 759 1 is_stmt 0 view .LVU1
  33 0000 70B4     		push	{r4, r5, r6}
  34              		.cfi_def_cfa_offset 12
  35              		.cfi_offset 4, -12
  36              		.cfi_offset 5, -8
  37              		.cfi_offset 6, -4
 760:Generated_Source\PSoC5/cy_em_eeprom.c ****     uint32 seqNum = 0u;
  38              		.loc 1 760 5 is_stmt 1 view .LVU2
ARM GAS  C:\Users\jens-\AppData\Local\Temp\cc4C0Tnp.s 			page 15


  39              	.LVL1:
 761:Generated_Source\PSoC5/cy_em_eeprom.c ****     uint32 prevSeqNum = 0u;
  40              		.loc 1 761 5 view .LVU3
 762:Generated_Source\PSoC5/cy_em_eeprom.c ****     uint32 numRows;
  41              		.loc 1 762 5 view .LVU4
 763:Generated_Source\PSoC5/cy_em_eeprom.c ****     uint32 emEepromAddr = context->userFlashStartAddr;
  42              		.loc 1 763 5 view .LVU5
  43              		.loc 1 763 12 is_stmt 0 view .LVU6
  44 0002 8A69     		ldr	r2, [r1, #24]
  45              	.LVL2:
 764:Generated_Source\PSoC5/cy_em_eeprom.c **** 
 765:Generated_Source\PSoC5/cy_em_eeprom.c ****     *lastWrRowPtr = emEepromAddr;
  46              		.loc 1 765 5 is_stmt 1 view .LVU7
  47              		.loc 1 765 19 is_stmt 0 view .LVU8
  48 0004 0260     		str	r2, [r0]
 766:Generated_Source\PSoC5/cy_em_eeprom.c **** 
 767:Generated_Source\PSoC5/cy_em_eeprom.c ****     for(numRows = 0u; numRows < (context->numberOfRows * context->wearLevelingFactor); numRows++)
  49              		.loc 1 767 5 is_stmt 1 view .LVU9
  50              	.LVL3:
  51              		.loc 1 767 17 is_stmt 0 view .LVU10
  52 0006 0024     		movs	r4, #0
 761:Generated_Source\PSoC5/cy_em_eeprom.c ****     uint32 numRows;
  53              		.loc 1 761 12 view .LVU11
  54 0008 2646     		mov	r6, r4
  55              		.loc 1 767 5 view .LVU12
  56 000a 02E0     		b	.L2
  57              	.LVL4:
  58              	.L3:
 768:Generated_Source\PSoC5/cy_em_eeprom.c ****     {
 769:Generated_Source\PSoC5/cy_em_eeprom.c ****         seqNum = CY_EM_EEPROM_GET_SEQ_NUM(emEepromAddr);
 770:Generated_Source\PSoC5/cy_em_eeprom.c ****         if((0u != seqNum) && (seqNum > prevSeqNum))
 771:Generated_Source\PSoC5/cy_em_eeprom.c ****         {
 772:Generated_Source\PSoC5/cy_em_eeprom.c ****             /* Some record in EEPROM was found. Store found sequence
 773:Generated_Source\PSoC5/cy_em_eeprom.c ****             * number and row address.
 774:Generated_Source\PSoC5/cy_em_eeprom.c ****             */
 775:Generated_Source\PSoC5/cy_em_eeprom.c ****             prevSeqNum = seqNum;
 776:Generated_Source\PSoC5/cy_em_eeprom.c ****             *lastWrRowPtr = emEepromAddr;
 777:Generated_Source\PSoC5/cy_em_eeprom.c ****         }
 778:Generated_Source\PSoC5/cy_em_eeprom.c **** 
 779:Generated_Source\PSoC5/cy_em_eeprom.c ****         /* Switch to the next row */
 780:Generated_Source\PSoC5/cy_em_eeprom.c ****         emEepromAddr = emEepromAddr + CY_EM_EEPROM_FLASH_SIZEOF_ROW;
  59              		.loc 1 780 9 is_stmt 1 discriminator 2 view .LVU13
  60              		.loc 1 780 22 is_stmt 0 discriminator 2 view .LVU14
  61 000c 02F58072 		add	r2, r2, #256
  62              	.LVL5:
 767:Generated_Source\PSoC5/cy_em_eeprom.c ****     {
  63              		.loc 1 767 88 is_stmt 1 discriminator 2 view .LVU15
 767:Generated_Source\PSoC5/cy_em_eeprom.c ****     {
  64              		.loc 1 767 95 is_stmt 0 discriminator 2 view .LVU16
  65 0010 0134     		adds	r4, r4, #1
  66              	.LVL6:
  67              	.L2:
 767:Generated_Source\PSoC5/cy_em_eeprom.c ****     {
  68              		.loc 1 767 23 is_stmt 1 discriminator 1 view .LVU17
 767:Generated_Source\PSoC5/cy_em_eeprom.c ****     {
  69              		.loc 1 767 41 is_stmt 0 discriminator 1 view .LVU18
  70 0012 4D68     		ldr	r5, [r1, #4]
ARM GAS  C:\Users\jens-\AppData\Local\Temp\cc4C0Tnp.s 			page 16


 767:Generated_Source\PSoC5/cy_em_eeprom.c ****     {
  71              		.loc 1 767 65 discriminator 1 view .LVU19
  72 0014 0B69     		ldr	r3, [r1, #16]
 767:Generated_Source\PSoC5/cy_em_eeprom.c ****     {
  73              		.loc 1 767 56 discriminator 1 view .LVU20
  74 0016 03FB05F3 		mul	r3, r3, r5
 767:Generated_Source\PSoC5/cy_em_eeprom.c ****     {
  75              		.loc 1 767 5 discriminator 1 view .LVU21
  76 001a A342     		cmp	r3, r4
  77 001c 07D9     		bls	.L6
 769:Generated_Source\PSoC5/cy_em_eeprom.c ****         if((0u != seqNum) && (seqNum > prevSeqNum))
  78              		.loc 1 769 9 is_stmt 1 view .LVU22
 769:Generated_Source\PSoC5/cy_em_eeprom.c ****         if((0u != seqNum) && (seqNum > prevSeqNum))
  79              		.loc 1 769 16 is_stmt 0 view .LVU23
  80 001e 1368     		ldr	r3, [r2]
  81              	.LVL7:
 770:Generated_Source\PSoC5/cy_em_eeprom.c ****         {
  82              		.loc 1 770 9 is_stmt 1 view .LVU24
 770:Generated_Source\PSoC5/cy_em_eeprom.c ****         {
  83              		.loc 1 770 11 is_stmt 0 view .LVU25
  84 0020 002B     		cmp	r3, #0
  85 0022 F3D0     		beq	.L3
 770:Generated_Source\PSoC5/cy_em_eeprom.c ****         {
  86              		.loc 1 770 27 discriminator 1 view .LVU26
  87 0024 9E42     		cmp	r6, r3
  88 0026 F1D2     		bcs	.L3
 775:Generated_Source\PSoC5/cy_em_eeprom.c ****             *lastWrRowPtr = emEepromAddr;
  89              		.loc 1 775 13 is_stmt 1 view .LVU27
  90              	.LVL8:
 776:Generated_Source\PSoC5/cy_em_eeprom.c ****         }
  91              		.loc 1 776 13 view .LVU28
 776:Generated_Source\PSoC5/cy_em_eeprom.c ****         }
  92              		.loc 1 776 27 is_stmt 0 view .LVU29
  93 0028 0260     		str	r2, [r0]
 775:Generated_Source\PSoC5/cy_em_eeprom.c ****             *lastWrRowPtr = emEepromAddr;
  94              		.loc 1 775 24 view .LVU30
  95 002a 1E46     		mov	r6, r3
  96 002c EEE7     		b	.L3
  97              	.LVL9:
  98              	.L6:
 781:Generated_Source\PSoC5/cy_em_eeprom.c ****     }
 782:Generated_Source\PSoC5/cy_em_eeprom.c **** }
  99              		.loc 1 782 1 view .LVU31
 100 002e 70BC     		pop	{r4, r5, r6}
 101              		.cfi_restore 6
 102              		.cfi_restore 5
 103              		.cfi_restore 4
 104              		.cfi_def_cfa_offset 0
 105              	.LVL10:
 106              		.loc 1 782 1 view .LVU32
 107 0030 7047     		bx	lr
 108              		.cfi_endproc
 109              	.LFE5:
 110              		.size	FindLastWrittenRow, .-FindLastWrittenRow
 111              		.section	.text.GetRowAddrBySeqNum,"ax",%progbits
 112              		.align	1
 113              		.syntax unified
ARM GAS  C:\Users\jens-\AppData\Local\Temp\cc4C0Tnp.s 			page 17


 114              		.thumb
 115              		.thumb_func
 116              		.fpu softvfp
 117              		.type	GetRowAddrBySeqNum, %function
 118              	GetRowAddrBySeqNum:
 119              	.LVL11:
 120              	.LFB6:
 783:Generated_Source\PSoC5/cy_em_eeprom.c **** 
 784:Generated_Source\PSoC5/cy_em_eeprom.c **** 
 785:Generated_Source\PSoC5/cy_em_eeprom.c **** /*******************************************************************************
 786:Generated_Source\PSoC5/cy_em_eeprom.c **** * Function Name: GetRowAddrBySeqNum
 787:Generated_Source\PSoC5/cy_em_eeprom.c **** ****************************************************************************//**
 788:Generated_Source\PSoC5/cy_em_eeprom.c **** *
 789:Generated_Source\PSoC5/cy_em_eeprom.c **** * Returns the address of the row in EEPROM using its sequence number.
 790:Generated_Source\PSoC5/cy_em_eeprom.c **** *
 791:Generated_Source\PSoC5/cy_em_eeprom.c **** * \param seqNum
 792:Generated_Source\PSoC5/cy_em_eeprom.c **** * The sequence number of the row.
 793:Generated_Source\PSoC5/cy_em_eeprom.c **** *
 794:Generated_Source\PSoC5/cy_em_eeprom.c **** * \param context
 795:Generated_Source\PSoC5/cy_em_eeprom.c **** * The pointer to the EEPROM context structure.
 796:Generated_Source\PSoC5/cy_em_eeprom.c **** *
 797:Generated_Source\PSoC5/cy_em_eeprom.c **** * \return
 798:Generated_Source\PSoC5/cy_em_eeprom.c **** * The address of the row or zero if the row with the sequence number was not
 799:Generated_Source\PSoC5/cy_em_eeprom.c **** * found.
 800:Generated_Source\PSoC5/cy_em_eeprom.c **** *
 801:Generated_Source\PSoC5/cy_em_eeprom.c **** *******************************************************************************/
 802:Generated_Source\PSoC5/cy_em_eeprom.c **** static uint32 GetRowAddrBySeqNum(uint32 seqNum, cy_stc_eeprom_context_t * context)
 803:Generated_Source\PSoC5/cy_em_eeprom.c **** {
 121              		.loc 1 803 1 is_stmt 1 view -0
 122              		.cfi_startproc
 123              		@ args = 0, pretend = 0, frame = 0
 124              		@ frame_needed = 0, uses_anonymous_args = 0
 125              		@ link register save eliminated.
 126              		.loc 1 803 1 is_stmt 0 view .LVU34
 127 0000 0246     		mov	r2, r0
 804:Generated_Source\PSoC5/cy_em_eeprom.c ****     uint32 emEepromAddr = context->userFlashStartAddr;
 128              		.loc 1 804 5 is_stmt 1 view .LVU35
 129              		.loc 1 804 12 is_stmt 0 view .LVU36
 130 0002 8869     		ldr	r0, [r1, #24]
 131              	.LVL12:
 805:Generated_Source\PSoC5/cy_em_eeprom.c **** 
 806:Generated_Source\PSoC5/cy_em_eeprom.c ****     while(CY_EM_EEPROM_GET_SEQ_NUM(emEepromAddr) != seqNum)
 132              		.loc 1 806 5 is_stmt 1 view .LVU37
 133              	.L8:
 134              		.loc 1 806 10 view .LVU38
 135              		.loc 1 806 11 is_stmt 0 view .LVU39
 136 0004 0368     		ldr	r3, [r0]
 137              		.loc 1 806 10 view .LVU40
 138 0006 9342     		cmp	r3, r2
 139 0008 06D0     		beq	.L12
 807:Generated_Source\PSoC5/cy_em_eeprom.c ****     {
 808:Generated_Source\PSoC5/cy_em_eeprom.c ****         /* Switch to the next row */
 809:Generated_Source\PSoC5/cy_em_eeprom.c ****         emEepromAddr = emEepromAddr + CY_EM_EEPROM_FLASH_SIZEOF_ROW;
 140              		.loc 1 809 9 is_stmt 1 view .LVU41
 141              		.loc 1 809 22 is_stmt 0 view .LVU42
 142 000a 00F58070 		add	r0, r0, #256
 143              	.LVL13:
ARM GAS  C:\Users\jens-\AppData\Local\Temp\cc4C0Tnp.s 			page 18


 810:Generated_Source\PSoC5/cy_em_eeprom.c **** 
 811:Generated_Source\PSoC5/cy_em_eeprom.c ****         if (CY_EM_EEPROM_ADDR_IN_RANGE !=
 144              		.loc 1 811 9 is_stmt 1 view .LVU43
 812:Generated_Source\PSoC5/cy_em_eeprom.c ****             CY_EM_EEPROM_IS_ADDR_EXCEED_RANGE(emEepromAddr, context->wlEndAddr))
 145              		.loc 1 812 13 is_stmt 0 view .LVU44
 146 000e 0B68     		ldr	r3, [r1]
 811:Generated_Source\PSoC5/cy_em_eeprom.c ****             CY_EM_EEPROM_IS_ADDR_EXCEED_RANGE(emEepromAddr, context->wlEndAddr))
 147              		.loc 1 811 12 view .LVU45
 148 0010 8342     		cmp	r3, r0
 149 0012 F7D8     		bhi	.L8
 813:Generated_Source\PSoC5/cy_em_eeprom.c ****         {
 814:Generated_Source\PSoC5/cy_em_eeprom.c ****             emEepromAddr = 0u;
 150              		.loc 1 814 26 view .LVU46
 151 0014 0020     		movs	r0, #0
 152              	.LVL14:
 815:Generated_Source\PSoC5/cy_em_eeprom.c ****             /* Exit the loop as we reached the end of EEPROM */
 816:Generated_Source\PSoC5/cy_em_eeprom.c ****             break;
 817:Generated_Source\PSoC5/cy_em_eeprom.c ****         }
 818:Generated_Source\PSoC5/cy_em_eeprom.c ****     }
 819:Generated_Source\PSoC5/cy_em_eeprom.c **** 
 820:Generated_Source\PSoC5/cy_em_eeprom.c ****     return (emEepromAddr);
 153              		.loc 1 820 5 is_stmt 1 view .LVU47
 821:Generated_Source\PSoC5/cy_em_eeprom.c **** }
 154              		.loc 1 821 1 is_stmt 0 view .LVU48
 155 0016 7047     		bx	lr
 156              	.LVL15:
 157              	.L12:
 158              		.loc 1 821 1 view .LVU49
 159 0018 7047     		bx	lr
 160              		.cfi_endproc
 161              	.LFE6:
 162              		.size	GetRowAddrBySeqNum, .-GetRowAddrBySeqNum
 163              		.section	.text.GetNextRowToWrite,"ax",%progbits
 164              		.align	1
 165              		.syntax unified
 166              		.thumb
 167              		.thumb_func
 168              		.fpu softvfp
 169              		.type	GetNextRowToWrite, %function
 170              	GetNextRowToWrite:
 171              	.LVL16:
 172              	.LFB7:
 822:Generated_Source\PSoC5/cy_em_eeprom.c **** 
 823:Generated_Source\PSoC5/cy_em_eeprom.c **** 
 824:Generated_Source\PSoC5/cy_em_eeprom.c **** /*******************************************************************************
 825:Generated_Source\PSoC5/cy_em_eeprom.c **** * Function Name: GetNextRowToWrite
 826:Generated_Source\PSoC5/cy_em_eeprom.c **** ****************************************************************************//**
 827:Generated_Source\PSoC5/cy_em_eeprom.c **** *
 828:Generated_Source\PSoC5/cy_em_eeprom.c **** * Performs a range check of the row that should be written and updates the
 829:Generated_Source\PSoC5/cy_em_eeprom.c **** * address to the row respectively. The similar actions are done for the read
 830:Generated_Source\PSoC5/cy_em_eeprom.c **** * address.
 831:Generated_Source\PSoC5/cy_em_eeprom.c **** *
 832:Generated_Source\PSoC5/cy_em_eeprom.c **** * \param seqNum
 833:Generated_Source\PSoC5/cy_em_eeprom.c **** * The sequence number of the last written row.
 834:Generated_Source\PSoC5/cy_em_eeprom.c **** *
 835:Generated_Source\PSoC5/cy_em_eeprom.c **** * \param rowToWrPtr
 836:Generated_Source\PSoC5/cy_em_eeprom.c **** * The address of the last written row (input). The address of the row to be 
ARM GAS  C:\Users\jens-\AppData\Local\Temp\cc4C0Tnp.s 			page 19


 837:Generated_Source\PSoC5/cy_em_eeprom.c **** * written (output).
 838:Generated_Source\PSoC5/cy_em_eeprom.c **** *
 839:Generated_Source\PSoC5/cy_em_eeprom.c **** * \param rowToRdPtr
 840:Generated_Source\PSoC5/cy_em_eeprom.c **** * The address of the row from which the data should be read into the RAM buffer
 841:Generated_Source\PSoC5/cy_em_eeprom.c **** * in a later write operation. Out parameter.
 842:Generated_Source\PSoC5/cy_em_eeprom.c **** *
 843:Generated_Source\PSoC5/cy_em_eeprom.c **** * \param context
 844:Generated_Source\PSoC5/cy_em_eeprom.c **** * The pointer to the EEPROM context structure \ref cy_stc_eeprom_context_t.
 845:Generated_Source\PSoC5/cy_em_eeprom.c **** *
 846:Generated_Source\PSoC5/cy_em_eeprom.c **** *******************************************************************************/
 847:Generated_Source\PSoC5/cy_em_eeprom.c **** static void GetNextRowToWrite(uint32 seqNum,
 848:Generated_Source\PSoC5/cy_em_eeprom.c ****                             uint32 * rowToWrPtr,
 849:Generated_Source\PSoC5/cy_em_eeprom.c ****                             uint32 * rowToRdPtr,
 850:Generated_Source\PSoC5/cy_em_eeprom.c ****                             cy_stc_eeprom_context_t * context)
 851:Generated_Source\PSoC5/cy_em_eeprom.c **** {
 173              		.loc 1 851 1 is_stmt 1 view -0
 174              		.cfi_startproc
 175              		@ args = 0, pretend = 0, frame = 0
 176              		@ frame_needed = 0, uses_anonymous_args = 0
 177              		@ link register save eliminated.
 178              		.loc 1 851 1 is_stmt 0 view .LVU51
 179 0000 30B4     		push	{r4, r5}
 180              		.cfi_def_cfa_offset 8
 181              		.cfi_offset 4, -8
 182              		.cfi_offset 5, -4
 852:Generated_Source\PSoC5/cy_em_eeprom.c ****     /* Switch to the next row to be written if the current sequence number is
 853:Generated_Source\PSoC5/cy_em_eeprom.c ****     * not zero.
 854:Generated_Source\PSoC5/cy_em_eeprom.c ****     */
 855:Generated_Source\PSoC5/cy_em_eeprom.c ****     if(0u != seqNum)
 183              		.loc 1 855 5 is_stmt 1 view .LVU52
 184              		.loc 1 855 7 is_stmt 0 view .LVU53
 185 0002 0446     		mov	r4, r0
 186 0004 18B1     		cbz	r0, .L14
 856:Generated_Source\PSoC5/cy_em_eeprom.c ****     {
 857:Generated_Source\PSoC5/cy_em_eeprom.c ****         *rowToWrPtr = (*rowToWrPtr + CY_EM_EEPROM_FLASH_SIZEOF_ROW);
 187              		.loc 1 857 9 is_stmt 1 view .LVU54
 188              		.loc 1 857 24 is_stmt 0 view .LVU55
 189 0006 0868     		ldr	r0, [r1]
 190              	.LVL17:
 191              		.loc 1 857 36 view .LVU56
 192 0008 00F58070 		add	r0, r0, #256
 193              		.loc 1 857 21 view .LVU57
 194 000c 0860     		str	r0, [r1]
 195              	.L14:
 858:Generated_Source\PSoC5/cy_em_eeprom.c ****     }
 859:Generated_Source\PSoC5/cy_em_eeprom.c **** 
 860:Generated_Source\PSoC5/cy_em_eeprom.c ****     /* If the resulting row address is out of EEPROM, then switch to the base
 861:Generated_Source\PSoC5/cy_em_eeprom.c ****     * EEPROM address (Row#0).
 862:Generated_Source\PSoC5/cy_em_eeprom.c ****     */
 863:Generated_Source\PSoC5/cy_em_eeprom.c ****     if(CY_EM_EEPROM_ADDR_IN_RANGE !=
 196              		.loc 1 863 5 is_stmt 1 view .LVU58
 864:Generated_Source\PSoC5/cy_em_eeprom.c ****             CY_EM_EEPROM_IS_ADDR_EXCEED_RANGE(*rowToWrPtr, context->wlEndAddr))
 197              		.loc 1 864 13 is_stmt 0 view .LVU59
 198 000e 0D68     		ldr	r5, [r1]
 199 0010 1868     		ldr	r0, [r3]
 863:Generated_Source\PSoC5/cy_em_eeprom.c ****             CY_EM_EEPROM_IS_ADDR_EXCEED_RANGE(*rowToWrPtr, context->wlEndAddr))
 200              		.loc 1 863 7 view .LVU60
ARM GAS  C:\Users\jens-\AppData\Local\Temp\cc4C0Tnp.s 			page 20


 201 0012 8542     		cmp	r5, r0
 202 0014 01D3     		bcc	.L15
 865:Generated_Source\PSoC5/cy_em_eeprom.c ****     {
 866:Generated_Source\PSoC5/cy_em_eeprom.c ****         *rowToWrPtr = context->userFlashStartAddr;
 203              		.loc 1 866 9 is_stmt 1 view .LVU61
 204              		.loc 1 866 30 is_stmt 0 view .LVU62
 205 0016 9869     		ldr	r0, [r3, #24]
 206              		.loc 1 866 21 view .LVU63
 207 0018 0860     		str	r0, [r1]
 208              	.L15:
 867:Generated_Source\PSoC5/cy_em_eeprom.c ****     }
 868:Generated_Source\PSoC5/cy_em_eeprom.c **** 
 869:Generated_Source\PSoC5/cy_em_eeprom.c ****     *rowToRdPtr = 0u;
 209              		.loc 1 869 5 is_stmt 1 view .LVU64
 210              		.loc 1 869 17 is_stmt 0 view .LVU65
 211 001a 0020     		movs	r0, #0
 212 001c 1060     		str	r0, [r2]
 870:Generated_Source\PSoC5/cy_em_eeprom.c **** 
 871:Generated_Source\PSoC5/cy_em_eeprom.c ****     /* Check if the sequence number is larger than the number of rows in the EEPROM.
 872:Generated_Source\PSoC5/cy_em_eeprom.c ****     * If not, do not update the row read address because there is no historic
 873:Generated_Source\PSoC5/cy_em_eeprom.c ****     * data to be read.
 874:Generated_Source\PSoC5/cy_em_eeprom.c ****     */
 875:Generated_Source\PSoC5/cy_em_eeprom.c ****     if(context->numberOfRows <= seqNum)
 213              		.loc 1 875 5 is_stmt 1 view .LVU66
 214              		.loc 1 875 15 is_stmt 0 view .LVU67
 215 001e 5868     		ldr	r0, [r3, #4]
 216              		.loc 1 875 7 view .LVU68
 217 0020 A042     		cmp	r0, r4
 218 0022 15D8     		bhi	.L13
 876:Generated_Source\PSoC5/cy_em_eeprom.c ****     {
 877:Generated_Source\PSoC5/cy_em_eeprom.c ****         /* Check if wear leveling is used in EEPROM */
 878:Generated_Source\PSoC5/cy_em_eeprom.c ****         if(context->wearLevelingFactor > 1u)
 219              		.loc 1 878 9 is_stmt 1 view .LVU69
 220              		.loc 1 878 19 is_stmt 0 view .LVU70
 221 0024 1C69     		ldr	r4, [r3, #16]
 222              	.LVL18:
 223              		.loc 1 878 11 view .LVU71
 224 0026 012C     		cmp	r4, #1
 225 0028 10D9     		bls	.L17
 879:Generated_Source\PSoC5/cy_em_eeprom.c ****         {
 880:Generated_Source\PSoC5/cy_em_eeprom.c ****             /* The read row address should be taken from an EEPROM copy that became
 881:Generated_Source\PSoC5/cy_em_eeprom.c ****             * inactive recently. This condition check handles that.
 882:Generated_Source\PSoC5/cy_em_eeprom.c ****             */
 883:Generated_Source\PSoC5/cy_em_eeprom.c ****             if((*rowToWrPtr - (context->numberOfRows * CY_EM_EEPROM_FLASH_SIZEOF_ROW)) <
 226              		.loc 1 883 13 is_stmt 1 view .LVU72
 227              		.loc 1 883 17 is_stmt 0 view .LVU73
 228 002a 0968     		ldr	r1, [r1]
 229              	.LVL19:
 230              		.loc 1 883 29 view .LVU74
 231 002c A1EB0025 		sub	r5, r1, r0, lsl #8
 884:Generated_Source\PSoC5/cy_em_eeprom.c ****                 context->userFlashStartAddr)
 232              		.loc 1 884 24 view .LVU75
 233 0030 9B69     		ldr	r3, [r3, #24]
 234              	.LVL20:
 883:Generated_Source\PSoC5/cy_em_eeprom.c ****                 context->userFlashStartAddr)
 235              		.loc 1 883 15 view .LVU76
 236 0032 9D42     		cmp	r5, r3
ARM GAS  C:\Users\jens-\AppData\Local\Temp\cc4C0Tnp.s 			page 21


 237 0034 08D2     		bcs	.L18
 885:Generated_Source\PSoC5/cy_em_eeprom.c ****             {
 886:Generated_Source\PSoC5/cy_em_eeprom.c ****                 *rowToRdPtr = context->userFlashStartAddr +
 238              		.loc 1 886 17 is_stmt 1 view .LVU77
 887:Generated_Source\PSoC5/cy_em_eeprom.c ****                     (context->numberOfRows * (context->wearLevelingFactor - 1u) *
 239              		.loc 1 887 75 is_stmt 0 view .LVU78
 240 0036 013C     		subs	r4, r4, #1
 241              		.loc 1 887 44 view .LVU79
 242 0038 04FB00F0 		mul	r0, r4, r0
 886:Generated_Source\PSoC5/cy_em_eeprom.c ****                     (context->numberOfRows * (context->wearLevelingFactor - 1u) *
 243              		.loc 1 886 59 view .LVU80
 244 003c 03EB0020 		add	r0, r3, r0, lsl #8
 888:Generated_Source\PSoC5/cy_em_eeprom.c ****                         CY_EM_EEPROM_FLASH_SIZEOF_ROW) + (*rowToWrPtr - context->userFlashStartAddr
 245              		.loc 1 888 71 view .LVU81
 246 0040 C91A     		subs	r1, r1, r3
 247              		.loc 1 888 56 view .LVU82
 248 0042 0844     		add	r0, r0, r1
 886:Generated_Source\PSoC5/cy_em_eeprom.c ****                     (context->numberOfRows * (context->wearLevelingFactor - 1u) *
 249              		.loc 1 886 29 view .LVU83
 250 0044 1060     		str	r0, [r2]
 251 0046 03E0     		b	.L13
 252              	.L18:
 889:Generated_Source\PSoC5/cy_em_eeprom.c ****             }
 890:Generated_Source\PSoC5/cy_em_eeprom.c ****             else
 891:Generated_Source\PSoC5/cy_em_eeprom.c ****             {
 892:Generated_Source\PSoC5/cy_em_eeprom.c ****                 *rowToRdPtr = *rowToWrPtr - (context->numberOfRows * CY_EM_EEPROM_FLASH_SIZEOF_ROW)
 253              		.loc 1 892 17 is_stmt 1 view .LVU84
 254              		.loc 1 892 29 is_stmt 0 view .LVU85
 255 0048 1560     		str	r5, [r2]
 256 004a 01E0     		b	.L13
 257              	.LVL21:
 258              	.L17:
 893:Generated_Source\PSoC5/cy_em_eeprom.c ****             }
 894:Generated_Source\PSoC5/cy_em_eeprom.c ****         }
 895:Generated_Source\PSoC5/cy_em_eeprom.c ****         else
 896:Generated_Source\PSoC5/cy_em_eeprom.c ****         {
 897:Generated_Source\PSoC5/cy_em_eeprom.c ****             /* If no wear leveling, always read from the same flash row that
 898:Generated_Source\PSoC5/cy_em_eeprom.c ****             * should be written.
 899:Generated_Source\PSoC5/cy_em_eeprom.c ****             */
 900:Generated_Source\PSoC5/cy_em_eeprom.c ****             *rowToRdPtr = *rowToWrPtr;
 259              		.loc 1 900 13 is_stmt 1 view .LVU86
 260              		.loc 1 900 27 is_stmt 0 view .LVU87
 261 004c 0B68     		ldr	r3, [r1]
 262              	.LVL22:
 263              		.loc 1 900 25 view .LVU88
 264 004e 1360     		str	r3, [r2]
 265              	.LVL23:
 266              	.L13:
 901:Generated_Source\PSoC5/cy_em_eeprom.c ****         }
 902:Generated_Source\PSoC5/cy_em_eeprom.c ****     }
 903:Generated_Source\PSoC5/cy_em_eeprom.c **** }
 267              		.loc 1 903 1 view .LVU89
 268 0050 30BC     		pop	{r4, r5}
 269              		.cfi_restore 5
 270              		.cfi_restore 4
 271              		.cfi_def_cfa_offset 0
 272 0052 7047     		bx	lr
ARM GAS  C:\Users\jens-\AppData\Local\Temp\cc4C0Tnp.s 			page 22


 273              		.cfi_endproc
 274              	.LFE7:
 275              		.size	GetNextRowToWrite, .-GetNextRowToWrite
 276              		.section	.text.CalcChecksum,"ax",%progbits
 277              		.align	1
 278              		.syntax unified
 279              		.thumb
 280              		.thumb_func
 281              		.fpu softvfp
 282              		.type	CalcChecksum, %function
 283              	CalcChecksum:
 284              	.LVL24:
 285              	.LFB8:
 904:Generated_Source\PSoC5/cy_em_eeprom.c **** 
 905:Generated_Source\PSoC5/cy_em_eeprom.c **** 
 906:Generated_Source\PSoC5/cy_em_eeprom.c **** /*******************************************************************************
 907:Generated_Source\PSoC5/cy_em_eeprom.c **** * Function Name: CalcChecksum
 908:Generated_Source\PSoC5/cy_em_eeprom.c **** ****************************************************************************//**
 909:Generated_Source\PSoC5/cy_em_eeprom.c **** *
 910:Generated_Source\PSoC5/cy_em_eeprom.c **** * Implements CRC-8 that is used in checksum calculation for the redundant copy
 911:Generated_Source\PSoC5/cy_em_eeprom.c **** * algorithm.
 912:Generated_Source\PSoC5/cy_em_eeprom.c **** *
 913:Generated_Source\PSoC5/cy_em_eeprom.c **** * \param rowData
 914:Generated_Source\PSoC5/cy_em_eeprom.c **** * The row data to be used to calculate the checksum.
 915:Generated_Source\PSoC5/cy_em_eeprom.c **** *
 916:Generated_Source\PSoC5/cy_em_eeprom.c **** * \param len
 917:Generated_Source\PSoC5/cy_em_eeprom.c **** * The length of rowData.
 918:Generated_Source\PSoC5/cy_em_eeprom.c **** *
 919:Generated_Source\PSoC5/cy_em_eeprom.c **** * \return
 920:Generated_Source\PSoC5/cy_em_eeprom.c **** * The calculated value of CRC-8.
 921:Generated_Source\PSoC5/cy_em_eeprom.c **** *
 922:Generated_Source\PSoC5/cy_em_eeprom.c **** *******************************************************************************/
 923:Generated_Source\PSoC5/cy_em_eeprom.c **** static uint8 CalcChecksum(uint8 rowData[], uint32 len)
 924:Generated_Source\PSoC5/cy_em_eeprom.c **** {
 286              		.loc 1 924 1 is_stmt 1 view -0
 287              		.cfi_startproc
 288              		@ args = 0, pretend = 0, frame = 0
 289              		@ frame_needed = 0, uses_anonymous_args = 0
 290              		@ link register save eliminated.
 291              		.loc 1 924 1 is_stmt 0 view .LVU91
 292 0000 10B4     		push	{r4}
 293              		.cfi_def_cfa_offset 4
 294              		.cfi_offset 4, -4
 295 0002 0446     		mov	r4, r0
 925:Generated_Source\PSoC5/cy_em_eeprom.c ****     uint8 crc = CY_EM_EEPROM_CRC8_SEED;
 296              		.loc 1 925 5 is_stmt 1 view .LVU92
 297              	.LVL25:
 926:Generated_Source\PSoC5/cy_em_eeprom.c ****     uint8 i;
 298              		.loc 1 926 5 view .LVU93
 927:Generated_Source\PSoC5/cy_em_eeprom.c ****     uint16 cnt = 0u;
 299              		.loc 1 927 5 view .LVU94
 928:Generated_Source\PSoC5/cy_em_eeprom.c **** 
 929:Generated_Source\PSoC5/cy_em_eeprom.c ****     while(cnt != len)
 300              		.loc 1 929 5 view .LVU95
 927:Generated_Source\PSoC5/cy_em_eeprom.c ****     uint16 cnt = 0u;
 301              		.loc 1 927 12 is_stmt 0 view .LVU96
 302 0004 0022     		movs	r2, #0
ARM GAS  C:\Users\jens-\AppData\Local\Temp\cc4C0Tnp.s 			page 23


 925:Generated_Source\PSoC5/cy_em_eeprom.c ****     uint8 i;
 303              		.loc 1 925 11 view .LVU97
 304 0006 FF20     		movs	r0, #255
 305              	.LVL26:
 306              		.loc 1 929 10 view .LVU98
 307 0008 0FE0     		b	.L21
 308              	.LVL27:
 309              	.L29:
 930:Generated_Source\PSoC5/cy_em_eeprom.c ****     {
 931:Generated_Source\PSoC5/cy_em_eeprom.c ****         crc ^= rowData[cnt];
 932:Generated_Source\PSoC5/cy_em_eeprom.c ****         for (i = 0u; i < CY_EM_EEPROM_CRC8_POLYNOM_LEN; i++)
 933:Generated_Source\PSoC5/cy_em_eeprom.c ****         {
 934:Generated_Source\PSoC5/cy_em_eeprom.c ****             crc = CY_EM_EEPROM_CALCULATE_CRC8(crc);
 310              		.loc 1 934 19 discriminator 1 view .LVU99
 311 000a 4000     		lsls	r0, r0, #1
 312              	.LVL28:
 313              		.loc 1 934 19 discriminator 1 view .LVU100
 314 000c C0B2     		uxtb	r0, r0
 315              		.loc 1 934 17 discriminator 1 view .LVU101
 316 000e 80F03100 		eor	r0, r0, #49
 317              	.L24:
 318              	.LVL29:
 932:Generated_Source\PSoC5/cy_em_eeprom.c ****         {
 319              		.loc 1 932 57 is_stmt 1 discriminator 4 view .LVU102
 932:Generated_Source\PSoC5/cy_em_eeprom.c ****         {
 320              		.loc 1 932 58 is_stmt 0 discriminator 4 view .LVU103
 321 0012 0133     		adds	r3, r3, #1
 322              	.LVL30:
 932:Generated_Source\PSoC5/cy_em_eeprom.c ****         {
 323              		.loc 1 932 58 discriminator 4 view .LVU104
 324 0014 DBB2     		uxtb	r3, r3
 325              	.LVL31:
 326              	.L22:
 932:Generated_Source\PSoC5/cy_em_eeprom.c ****         {
 327              		.loc 1 932 22 is_stmt 1 discriminator 2 view .LVU105
 932:Generated_Source\PSoC5/cy_em_eeprom.c ****         {
 328              		.loc 1 932 9 is_stmt 0 discriminator 2 view .LVU106
 329 0016 072B     		cmp	r3, #7
 330 0018 05D8     		bhi	.L28
 331              		.loc 1 934 13 is_stmt 1 view .LVU107
 332              		.loc 1 934 17 is_stmt 0 view .LVU108
 333 001a 10F0800F 		tst	r0, #128
 334 001e F4D1     		bne	.L29
 335              		.loc 1 934 17 discriminator 2 view .LVU109
 336 0020 4000     		lsls	r0, r0, #1
 337              	.LVL32:
 338              		.loc 1 934 17 discriminator 2 view .LVU110
 339 0022 C0B2     		uxtb	r0, r0
 340 0024 F5E7     		b	.L24
 341              	.LVL33:
 342              	.L28:
 935:Generated_Source\PSoC5/cy_em_eeprom.c ****         }
 936:Generated_Source\PSoC5/cy_em_eeprom.c ****         cnt++;
 343              		.loc 1 936 9 is_stmt 1 view .LVU111
 344              		.loc 1 936 12 is_stmt 0 view .LVU112
 345 0026 0132     		adds	r2, r2, #1
 346              	.LVL34:
ARM GAS  C:\Users\jens-\AppData\Local\Temp\cc4C0Tnp.s 			page 24


 347              		.loc 1 936 12 view .LVU113
 348 0028 92B2     		uxth	r2, r2
 349              	.LVL35:
 350              	.L21:
 929:Generated_Source\PSoC5/cy_em_eeprom.c ****     {
 351              		.loc 1 929 10 is_stmt 1 view .LVU114
 352 002a 8A42     		cmp	r2, r1
 353 002c 03D0     		beq	.L30
 931:Generated_Source\PSoC5/cy_em_eeprom.c ****         for (i = 0u; i < CY_EM_EEPROM_CRC8_POLYNOM_LEN; i++)
 354              		.loc 1 931 9 view .LVU115
 931:Generated_Source\PSoC5/cy_em_eeprom.c ****         for (i = 0u; i < CY_EM_EEPROM_CRC8_POLYNOM_LEN; i++)
 355              		.loc 1 931 23 is_stmt 0 view .LVU116
 356 002e A35C     		ldrb	r3, [r4, r2]	@ zero_extendqisi2
 931:Generated_Source\PSoC5/cy_em_eeprom.c ****         for (i = 0u; i < CY_EM_EEPROM_CRC8_POLYNOM_LEN; i++)
 357              		.loc 1 931 13 view .LVU117
 358 0030 5840     		eors	r0, r0, r3
 359              	.LVL36:
 932:Generated_Source\PSoC5/cy_em_eeprom.c ****         {
 360              		.loc 1 932 9 is_stmt 1 view .LVU118
 932:Generated_Source\PSoC5/cy_em_eeprom.c ****         {
 361              		.loc 1 932 16 is_stmt 0 view .LVU119
 362 0032 0023     		movs	r3, #0
 932:Generated_Source\PSoC5/cy_em_eeprom.c ****         {
 363              		.loc 1 932 9 view .LVU120
 364 0034 EFE7     		b	.L22
 365              	.LVL37:
 366              	.L30:
 937:Generated_Source\PSoC5/cy_em_eeprom.c ****     }
 938:Generated_Source\PSoC5/cy_em_eeprom.c **** 
 939:Generated_Source\PSoC5/cy_em_eeprom.c ****     return (crc);
 940:Generated_Source\PSoC5/cy_em_eeprom.c **** }
 367              		.loc 1 940 1 view .LVU121
 368 0036 10BC     		pop	{r4}
 369              		.cfi_restore 4
 370              		.cfi_def_cfa_offset 0
 371              	.LVL38:
 372              		.loc 1 940 1 view .LVU122
 373 0038 7047     		bx	lr
 374              		.cfi_endproc
 375              	.LFE8:
 376              		.size	CalcChecksum, .-CalcChecksum
 377              		.section	.text.CheckRanges,"ax",%progbits
 378              		.align	1
 379              		.syntax unified
 380              		.thumb
 381              		.thumb_func
 382              		.fpu softvfp
 383              		.type	CheckRanges, %function
 384              	CheckRanges:
 385              	.LVL39:
 386              	.LFB9:
 941:Generated_Source\PSoC5/cy_em_eeprom.c **** 
 942:Generated_Source\PSoC5/cy_em_eeprom.c **** 
 943:Generated_Source\PSoC5/cy_em_eeprom.c **** /*******************************************************************************
 944:Generated_Source\PSoC5/cy_em_eeprom.c **** * Function Name: CheckRanges
 945:Generated_Source\PSoC5/cy_em_eeprom.c **** ****************************************************************************//**
 946:Generated_Source\PSoC5/cy_em_eeprom.c **** *
ARM GAS  C:\Users\jens-\AppData\Local\Temp\cc4C0Tnp.s 			page 25


 947:Generated_Source\PSoC5/cy_em_eeprom.c **** * Checks if the EEPROM of the requested size can be placed in flash.
 948:Generated_Source\PSoC5/cy_em_eeprom.c **** *
 949:Generated_Source\PSoC5/cy_em_eeprom.c **** * \param config
 950:Generated_Source\PSoC5/cy_em_eeprom.c **** * The pointer to a configuration structure. See \ref cy_stc_eeprom_config_t.
 951:Generated_Source\PSoC5/cy_em_eeprom.c **** *
 952:Generated_Source\PSoC5/cy_em_eeprom.c **** * \return
 953:Generated_Source\PSoC5/cy_em_eeprom.c **** * error / status code. See \ref cy_en_em_eeprom_status_t.
 954:Generated_Source\PSoC5/cy_em_eeprom.c **** *
 955:Generated_Source\PSoC5/cy_em_eeprom.c **** *******************************************************************************/
 956:Generated_Source\PSoC5/cy_em_eeprom.c **** static cy_en_em_eeprom_status_t CheckRanges(cy_stc_eeprom_config_t* config)
 957:Generated_Source\PSoC5/cy_em_eeprom.c **** {
 387              		.loc 1 957 1 is_stmt 1 view -0
 388              		.cfi_startproc
 389              		@ args = 0, pretend = 0, frame = 0
 390              		@ frame_needed = 0, uses_anonymous_args = 0
 391              		@ link register save eliminated.
 958:Generated_Source\PSoC5/cy_em_eeprom.c ****     cy_en_em_eeprom_status_t ret = CY_EM_EEPROM_BAD_DATA;
 392              		.loc 1 958 5 view .LVU124
 959:Generated_Source\PSoC5/cy_em_eeprom.c ****     uint32 startAddr = config->userFlashStartAddr;
 393              		.loc 1 959 5 view .LVU125
 394              		.loc 1 959 12 is_stmt 0 view .LVU126
 395 0000 C168     		ldr	r1, [r0, #12]
 396              	.LVL40:
 960:Generated_Source\PSoC5/cy_em_eeprom.c ****     uint32 endAddr = startAddr + CY_EM_EEPROM_GET_PHYSICAL_SIZE(config->eepromSize,
 397              		.loc 1 960 5 is_stmt 1 view .LVU127
 398              		.loc 1 960 34 is_stmt 0 view .LVU128
 399 0002 0268     		ldr	r2, [r0]
 400 0004 D309     		lsrs	r3, r2, #7
 401 0006 12F07F02 		ands	r2, r2, #127
 402 000a 00D0     		beq	.L32
 403 000c 0122     		movs	r2, #1
 404              	.L32:
 405              		.loc 1 960 34 discriminator 4 view .LVU129
 406 000e 1A44     		add	r2, r2, r3
 407 0010 4368     		ldr	r3, [r0, #4]
 408 0012 03FB02F3 		mul	r3, r3, r2
 409 0016 027A     		ldrb	r2, [r0, #8]	@ zero_extendqisi2
 410 0018 02FB0333 		mla	r3, r2, r3, r3
 411              		.loc 1 960 12 discriminator 4 view .LVU130
 412 001c 01EB0323 		add	r3, r1, r3, lsl #8
 413              	.LVL41:
 961:Generated_Source\PSoC5/cy_em_eeprom.c ****             config->wearLevelingFactor, config->redundantCopy);
 962:Generated_Source\PSoC5/cy_em_eeprom.c **** 
 963:Generated_Source\PSoC5/cy_em_eeprom.c ****     /* Range check if there is enough flash for EEPROM */
 964:Generated_Source\PSoC5/cy_em_eeprom.c ****     if (CY_EM_EEPROM_IS_IN_FLASH_RANGE(startAddr, endAddr))
 414              		.loc 1 964 5 is_stmt 1 discriminator 4 view .LVU131
 415              		.loc 1 964 8 is_stmt 0 discriminator 4 view .LVU132
 416 0020 31B1     		cbz	r1, .L34
 417              		.loc 1 964 9 discriminator 1 view .LVU133
 418 0022 B3F5802F 		cmp	r3, #262144
 419 0026 01D8     		bhi	.L36
 965:Generated_Source\PSoC5/cy_em_eeprom.c ****     {
 966:Generated_Source\PSoC5/cy_em_eeprom.c ****         ret = CY_EM_EEPROM_SUCCESS;
 420              		.loc 1 966 13 view .LVU134
 421 0028 0020     		movs	r0, #0
 422              	.LVL42:
 967:Generated_Source\PSoC5/cy_em_eeprom.c ****     }
ARM GAS  C:\Users\jens-\AppData\Local\Temp\cc4C0Tnp.s 			page 26


 968:Generated_Source\PSoC5/cy_em_eeprom.c ****     return (ret);
 423              		.loc 1 968 5 is_stmt 1 view .LVU135
 969:Generated_Source\PSoC5/cy_em_eeprom.c **** }
 424              		.loc 1 969 1 is_stmt 0 view .LVU136
 425 002a 7047     		bx	lr
 426              	.LVL43:
 427              	.L36:
 958:Generated_Source\PSoC5/cy_em_eeprom.c ****     uint32 startAddr = config->userFlashStartAddr;
 428              		.loc 1 958 30 view .LVU137
 429 002c 0320     		movs	r0, #3
 430              	.LVL44:
 958:Generated_Source\PSoC5/cy_em_eeprom.c ****     uint32 startAddr = config->userFlashStartAddr;
 431              		.loc 1 958 30 view .LVU138
 432 002e 7047     		bx	lr
 433              	.LVL45:
 434              	.L34:
 958:Generated_Source\PSoC5/cy_em_eeprom.c ****     uint32 startAddr = config->userFlashStartAddr;
 435              		.loc 1 958 30 view .LVU139
 436 0030 0320     		movs	r0, #3
 437              	.LVL46:
 958:Generated_Source\PSoC5/cy_em_eeprom.c ****     uint32 startAddr = config->userFlashStartAddr;
 438              		.loc 1 958 30 view .LVU140
 439 0032 7047     		bx	lr
 440              		.cfi_endproc
 441              	.LFE9:
 442              		.size	CheckRanges, .-CheckRanges
 443              		.section	.text.GetAddresses,"ax",%progbits
 444              		.align	1
 445              		.syntax unified
 446              		.thumb
 447              		.thumb_func
 448              		.fpu softvfp
 449              		.type	GetAddresses, %function
 450              	GetAddresses:
 451              	.LVL47:
 452              	.LFB13:
 970:Generated_Source\PSoC5/cy_em_eeprom.c **** 
 971:Generated_Source\PSoC5/cy_em_eeprom.c **** 
 972:Generated_Source\PSoC5/cy_em_eeprom.c **** /*******************************************************************************
 973:Generated_Source\PSoC5/cy_em_eeprom.c **** * Function Name: WriteRow
 974:Generated_Source\PSoC5/cy_em_eeprom.c **** ****************************************************************************//**
 975:Generated_Source\PSoC5/cy_em_eeprom.c **** *
 976:Generated_Source\PSoC5/cy_em_eeprom.c **** * Writes one flash row starting from the specified row address.
 977:Generated_Source\PSoC5/cy_em_eeprom.c **** *
 978:Generated_Source\PSoC5/cy_em_eeprom.c **** * \param rowAdd
 979:Generated_Source\PSoC5/cy_em_eeprom.c **** * The address of the flash row.
 980:Generated_Source\PSoC5/cy_em_eeprom.c **** *
 981:Generated_Source\PSoC5/cy_em_eeprom.c **** * \param rowData
 982:Generated_Source\PSoC5/cy_em_eeprom.c **** * The pointer to the data to be written to the row.
 983:Generated_Source\PSoC5/cy_em_eeprom.c **** *
 984:Generated_Source\PSoC5/cy_em_eeprom.c **** * \param context
 985:Generated_Source\PSoC5/cy_em_eeprom.c **** * The pointer to the EEPROM context structure \ref cy_stc_eeprom_context_t.
 986:Generated_Source\PSoC5/cy_em_eeprom.c **** *
 987:Generated_Source\PSoC5/cy_em_eeprom.c **** * \return
 988:Generated_Source\PSoC5/cy_em_eeprom.c **** * error / status code. See \ref cy_en_em_eeprom_status_t.
 989:Generated_Source\PSoC5/cy_em_eeprom.c **** *
 990:Generated_Source\PSoC5/cy_em_eeprom.c **** *******************************************************************************/
ARM GAS  C:\Users\jens-\AppData\Local\Temp\cc4C0Tnp.s 			page 27


 991:Generated_Source\PSoC5/cy_em_eeprom.c **** static cy_en_em_eeprom_status_t WriteRow(uint32 rowAddr,
 992:Generated_Source\PSoC5/cy_em_eeprom.c ****                                         uint32 *rowData,
 993:Generated_Source\PSoC5/cy_em_eeprom.c ****                                         cy_stc_eeprom_context_t * context)
 994:Generated_Source\PSoC5/cy_em_eeprom.c **** {
 995:Generated_Source\PSoC5/cy_em_eeprom.c ****     cy_en_em_eeprom_status_t ret = CY_EM_EEPROM_WRITE_FAIL;
 996:Generated_Source\PSoC5/cy_em_eeprom.c **** #if (!CY_PSOC6)
 997:Generated_Source\PSoC5/cy_em_eeprom.c ****     cystatus rc;
 998:Generated_Source\PSoC5/cy_em_eeprom.c ****     uint32 rowId;
 999:Generated_Source\PSoC5/cy_em_eeprom.c ****     #if ((CY_PSOC3) || (CY_PSOC5))
1000:Generated_Source\PSoC5/cy_em_eeprom.c ****         uint32 arrayId;
1001:Generated_Source\PSoC5/cy_em_eeprom.c ****     #endif /* (CY_PSOC3) */
1002:Generated_Source\PSoC5/cy_em_eeprom.c ****     
1003:Generated_Source\PSoC5/cy_em_eeprom.c ****     #if (CY_PSOC3)
1004:Generated_Source\PSoC5/cy_em_eeprom.c ****         rowAddr &= CY_EM_EEPROM_CODE_ADDR_MASK;
1005:Generated_Source\PSoC5/cy_em_eeprom.c ****         context = context;      /* To avoid compiler warning generation */
1006:Generated_Source\PSoC5/cy_em_eeprom.c ****     #else
1007:Generated_Source\PSoC5/cy_em_eeprom.c ****         (void)context;          /* To avoid compiler warning generation */
1008:Generated_Source\PSoC5/cy_em_eeprom.c ****     #endif /* ((CY_PSOC3) */
1009:Generated_Source\PSoC5/cy_em_eeprom.c ****     
1010:Generated_Source\PSoC5/cy_em_eeprom.c ****     /* For non-PSoC 6 devices, the Array ID and Row ID needed to write the row */
1011:Generated_Source\PSoC5/cy_em_eeprom.c ****     rowId = (rowAddr / CY_EM_EEPROM_FLASH_SIZEOF_ROW) % CY_EM_EEPROM_ROWS_IN_ARRAY;
1012:Generated_Source\PSoC5/cy_em_eeprom.c **** 
1013:Generated_Source\PSoC5/cy_em_eeprom.c ****     /* Write the flash row */
1014:Generated_Source\PSoC5/cy_em_eeprom.c ****     #if (CY_PSOC4)
1015:Generated_Source\PSoC5/cy_em_eeprom.c ****         rc = CySysFlashWriteRow(rowId, (uint8 *)rowData);
1016:Generated_Source\PSoC5/cy_em_eeprom.c ****     #else
1017:Generated_Source\PSoC5/cy_em_eeprom.c **** 
1018:Generated_Source\PSoC5/cy_em_eeprom.c ****         #ifndef CY_EM_EEPROM_SKIP_TEMP_MEASUREMENT
1019:Generated_Source\PSoC5/cy_em_eeprom.c ****             (void)CySetTemp();
1020:Generated_Source\PSoC5/cy_em_eeprom.c ****         #endif /* (CY_EM_EEPROM_SKIP_TEMP_MEASUREMENT) */
1021:Generated_Source\PSoC5/cy_em_eeprom.c **** 
1022:Generated_Source\PSoC5/cy_em_eeprom.c ****         arrayId = rowAddr / CY_FLASH_SIZEOF_ARRAY;
1023:Generated_Source\PSoC5/cy_em_eeprom.c ****         rc = CyWriteRowData((uint8)arrayId, (uint16)rowId, (uint8 *)rowData);
1024:Generated_Source\PSoC5/cy_em_eeprom.c ****         
1025:Generated_Source\PSoC5/cy_em_eeprom.c ****         #if (CY_PSOC5)
1026:Generated_Source\PSoC5/cy_em_eeprom.c ****             CyFlushCache();
1027:Generated_Source\PSoC5/cy_em_eeprom.c ****         #endif /* (CY_PSOC5) */
1028:Generated_Source\PSoC5/cy_em_eeprom.c ****     #endif /* (CY_PSOC4) */
1029:Generated_Source\PSoC5/cy_em_eeprom.c **** 
1030:Generated_Source\PSoC5/cy_em_eeprom.c ****     if(CYRET_SUCCESS == rc)
1031:Generated_Source\PSoC5/cy_em_eeprom.c ****     {
1032:Generated_Source\PSoC5/cy_em_eeprom.c ****         ret = CY_EM_EEPROM_SUCCESS;
1033:Generated_Source\PSoC5/cy_em_eeprom.c ****     }
1034:Generated_Source\PSoC5/cy_em_eeprom.c **** #else /* PSoC 6 */
1035:Generated_Source\PSoC5/cy_em_eeprom.c ****     if(0u != context->blockingWrite)
1036:Generated_Source\PSoC5/cy_em_eeprom.c ****     {
1037:Generated_Source\PSoC5/cy_em_eeprom.c ****         /* Do blocking write */
1038:Generated_Source\PSoC5/cy_em_eeprom.c ****         if(CY_FLASH_DRV_SUCCESS == Cy_Flash_WriteRow(rowAddr, (const uint32 *)rowData))
1039:Generated_Source\PSoC5/cy_em_eeprom.c ****         {
1040:Generated_Source\PSoC5/cy_em_eeprom.c ****             ret = CY_EM_EEPROM_SUCCESS;
1041:Generated_Source\PSoC5/cy_em_eeprom.c ****         }
1042:Generated_Source\PSoC5/cy_em_eeprom.c ****     }
1043:Generated_Source\PSoC5/cy_em_eeprom.c ****     else
1044:Generated_Source\PSoC5/cy_em_eeprom.c ****     {
1045:Generated_Source\PSoC5/cy_em_eeprom.c ****         /* Initiate write */
1046:Generated_Source\PSoC5/cy_em_eeprom.c ****         if(CY_FLASH_DRV_OPERATION_STARTED == Cy_Flash_StartWrite(rowAddr, (const uint32 *)rowData))
1047:Generated_Source\PSoC5/cy_em_eeprom.c ****         {
ARM GAS  C:\Users\jens-\AppData\Local\Temp\cc4C0Tnp.s 			page 28


1048:Generated_Source\PSoC5/cy_em_eeprom.c ****             uint32 countMs = CY_EM_EEPROM_MAX_WRITE_DURATION_MS;
1049:Generated_Source\PSoC5/cy_em_eeprom.c ****             cy_en_flashdrv_status_t rc;
1050:Generated_Source\PSoC5/cy_em_eeprom.c **** 
1051:Generated_Source\PSoC5/cy_em_eeprom.c ****             do
1052:Generated_Source\PSoC5/cy_em_eeprom.c ****             {
1053:Generated_Source\PSoC5/cy_em_eeprom.c ****                 CyDelay(1u);                         /* Wait 1ms */
1054:Generated_Source\PSoC5/cy_em_eeprom.c ****                 rc = Cy_Flash_IsWriteComplete();     /* Check if write completed */
1055:Generated_Source\PSoC5/cy_em_eeprom.c ****                 countMs--;
1056:Generated_Source\PSoC5/cy_em_eeprom.c ****             }
1057:Generated_Source\PSoC5/cy_em_eeprom.c ****             while ((rc == CY_FLASH_DRV_OPCODE_BUSY) && (0u != countMs));
1058:Generated_Source\PSoC5/cy_em_eeprom.c **** 
1059:Generated_Source\PSoC5/cy_em_eeprom.c ****             if(CY_FLASH_DRV_SUCCESS == rc)
1060:Generated_Source\PSoC5/cy_em_eeprom.c ****             {
1061:Generated_Source\PSoC5/cy_em_eeprom.c ****                 ret = CY_EM_EEPROM_SUCCESS;
1062:Generated_Source\PSoC5/cy_em_eeprom.c ****             }
1063:Generated_Source\PSoC5/cy_em_eeprom.c ****         }
1064:Generated_Source\PSoC5/cy_em_eeprom.c ****     }
1065:Generated_Source\PSoC5/cy_em_eeprom.c **** #endif /* (CY_PSOC6) */
1066:Generated_Source\PSoC5/cy_em_eeprom.c **** 
1067:Generated_Source\PSoC5/cy_em_eeprom.c ****     return (ret);
1068:Generated_Source\PSoC5/cy_em_eeprom.c **** }
1069:Generated_Source\PSoC5/cy_em_eeprom.c **** 
1070:Generated_Source\PSoC5/cy_em_eeprom.c **** 
1071:Generated_Source\PSoC5/cy_em_eeprom.c **** /*******************************************************************************
1072:Generated_Source\PSoC5/cy_em_eeprom.c **** * Function Name: EraseRow
1073:Generated_Source\PSoC5/cy_em_eeprom.c **** ****************************************************************************//**
1074:Generated_Source\PSoC5/cy_em_eeprom.c **** *
1075:Generated_Source\PSoC5/cy_em_eeprom.c **** * Erases one flash row starting from the specified row address. If the redundant
1076:Generated_Source\PSoC5/cy_em_eeprom.c **** * copy option is enabled the corresponding row in the redundant copy will also
1077:Generated_Source\PSoC5/cy_em_eeprom.c **** * be erased.
1078:Generated_Source\PSoC5/cy_em_eeprom.c **** *
1079:Generated_Source\PSoC5/cy_em_eeprom.c **** * \param rowAdd
1080:Generated_Source\PSoC5/cy_em_eeprom.c **** * The address of the flash row.
1081:Generated_Source\PSoC5/cy_em_eeprom.c **** *
1082:Generated_Source\PSoC5/cy_em_eeprom.c **** * \param ramBuffAddr
1083:Generated_Source\PSoC5/cy_em_eeprom.c **** * The address of the RAM buffer that contains zeroed data (used only for
1084:Generated_Source\PSoC5/cy_em_eeprom.c **** * non-PSoC 6 devices).
1085:Generated_Source\PSoC5/cy_em_eeprom.c **** *
1086:Generated_Source\PSoC5/cy_em_eeprom.c **** * \param context
1087:Generated_Source\PSoC5/cy_em_eeprom.c **** * The pointer to the EEPROM context structure \ref cy_stc_eeprom_context_t.
1088:Generated_Source\PSoC5/cy_em_eeprom.c **** *
1089:Generated_Source\PSoC5/cy_em_eeprom.c **** * \return
1090:Generated_Source\PSoC5/cy_em_eeprom.c **** * error / status code. See \ref cy_en_em_eeprom_status_t.
1091:Generated_Source\PSoC5/cy_em_eeprom.c **** *
1092:Generated_Source\PSoC5/cy_em_eeprom.c **** *******************************************************************************/
1093:Generated_Source\PSoC5/cy_em_eeprom.c **** static cy_en_em_eeprom_status_t EraseRow(uint32 rowAddr,
1094:Generated_Source\PSoC5/cy_em_eeprom.c ****                                         uint32 ramBuffAddr,
1095:Generated_Source\PSoC5/cy_em_eeprom.c ****                                         cy_stc_eeprom_context_t * context)
1096:Generated_Source\PSoC5/cy_em_eeprom.c **** {
1097:Generated_Source\PSoC5/cy_em_eeprom.c ****     uint32 emEepromRowAddr = rowAddr;
1098:Generated_Source\PSoC5/cy_em_eeprom.c ****     cy_en_em_eeprom_status_t ret = CY_EM_EEPROM_WRITE_FAIL;
1099:Generated_Source\PSoC5/cy_em_eeprom.c **** #if (CY_PSOC6)
1100:Generated_Source\PSoC5/cy_em_eeprom.c ****     uint32 i = 1u;
1101:Generated_Source\PSoC5/cy_em_eeprom.c **** 
1102:Generated_Source\PSoC5/cy_em_eeprom.c ****     (void)ramBuffAddr; /* To avoid compiler warning */
1103:Generated_Source\PSoC5/cy_em_eeprom.c **** 
1104:Generated_Source\PSoC5/cy_em_eeprom.c ****     if(0u != context->redundantCopy)
ARM GAS  C:\Users\jens-\AppData\Local\Temp\cc4C0Tnp.s 			page 29


1105:Generated_Source\PSoC5/cy_em_eeprom.c ****     {
1106:Generated_Source\PSoC5/cy_em_eeprom.c ****         i++;
1107:Generated_Source\PSoC5/cy_em_eeprom.c ****     }
1108:Generated_Source\PSoC5/cy_em_eeprom.c **** 
1109:Generated_Source\PSoC5/cy_em_eeprom.c ****     do
1110:Generated_Source\PSoC5/cy_em_eeprom.c ****     {
1111:Generated_Source\PSoC5/cy_em_eeprom.c ****         if(0u != context->blockingWrite)
1112:Generated_Source\PSoC5/cy_em_eeprom.c ****         {
1113:Generated_Source\PSoC5/cy_em_eeprom.c ****             /* Erase the flash row */
1114:Generated_Source\PSoC5/cy_em_eeprom.c ****             if(CY_FLASH_DRV_SUCCESS == Cy_Flash_EraseRow(emEepromRowAddr))
1115:Generated_Source\PSoC5/cy_em_eeprom.c ****             {
1116:Generated_Source\PSoC5/cy_em_eeprom.c ****                 ret = CY_EM_EEPROM_SUCCESS;
1117:Generated_Source\PSoC5/cy_em_eeprom.c ****             }
1118:Generated_Source\PSoC5/cy_em_eeprom.c ****         }
1119:Generated_Source\PSoC5/cy_em_eeprom.c ****         else
1120:Generated_Source\PSoC5/cy_em_eeprom.c ****         {
1121:Generated_Source\PSoC5/cy_em_eeprom.c ****             /* Initiate erase */
1122:Generated_Source\PSoC5/cy_em_eeprom.c ****             if(CY_FLASH_DRV_OPERATION_STARTED == Cy_Flash_StartErase(emEepromRowAddr))
1123:Generated_Source\PSoC5/cy_em_eeprom.c ****             {
1124:Generated_Source\PSoC5/cy_em_eeprom.c ****                 uint32 countMs = CY_EM_EEPROM_MAX_WRITE_DURATION_MS;
1125:Generated_Source\PSoC5/cy_em_eeprom.c ****                 cy_en_flashdrv_status_t rc;
1126:Generated_Source\PSoC5/cy_em_eeprom.c **** 
1127:Generated_Source\PSoC5/cy_em_eeprom.c ****                 do
1128:Generated_Source\PSoC5/cy_em_eeprom.c ****                 {
1129:Generated_Source\PSoC5/cy_em_eeprom.c ****                     CyDelay(1u);                         /* Wait 1ms */
1130:Generated_Source\PSoC5/cy_em_eeprom.c ****                     rc = Cy_Flash_IsWriteComplete();     /* Check if erase completed */
1131:Generated_Source\PSoC5/cy_em_eeprom.c ****                     countMs--;
1132:Generated_Source\PSoC5/cy_em_eeprom.c ****                 }
1133:Generated_Source\PSoC5/cy_em_eeprom.c ****                 while ((rc == CY_FLASH_DRV_OPCODE_BUSY) && (0u != countMs));
1134:Generated_Source\PSoC5/cy_em_eeprom.c **** 
1135:Generated_Source\PSoC5/cy_em_eeprom.c ****                 if(CY_FLASH_DRV_SUCCESS == rc)
1136:Generated_Source\PSoC5/cy_em_eeprom.c ****                 {
1137:Generated_Source\PSoC5/cy_em_eeprom.c ****                     ret = CY_EM_EEPROM_SUCCESS;
1138:Generated_Source\PSoC5/cy_em_eeprom.c ****                 }
1139:Generated_Source\PSoC5/cy_em_eeprom.c ****             }
1140:Generated_Source\PSoC5/cy_em_eeprom.c ****         }
1141:Generated_Source\PSoC5/cy_em_eeprom.c **** 
1142:Generated_Source\PSoC5/cy_em_eeprom.c ****         if(CY_EM_EEPROM_SUCCESS == ret)
1143:Generated_Source\PSoC5/cy_em_eeprom.c ****         {
1144:Generated_Source\PSoC5/cy_em_eeprom.c ****             /* Update the address to point to the redundant copy row */
1145:Generated_Source\PSoC5/cy_em_eeprom.c ****             emEepromRowAddr = (emEepromRowAddr - context->userFlashStartAddr) + context->wlEndAddr;
1146:Generated_Source\PSoC5/cy_em_eeprom.c ****         }
1147:Generated_Source\PSoC5/cy_em_eeprom.c ****         else
1148:Generated_Source\PSoC5/cy_em_eeprom.c ****         {
1149:Generated_Source\PSoC5/cy_em_eeprom.c ****             break;
1150:Generated_Source\PSoC5/cy_em_eeprom.c ****         }
1151:Generated_Source\PSoC5/cy_em_eeprom.c ****         i--;
1152:Generated_Source\PSoC5/cy_em_eeprom.c ****     } while (0u != i);
1153:Generated_Source\PSoC5/cy_em_eeprom.c **** #else
1154:Generated_Source\PSoC5/cy_em_eeprom.c ****     /* Write the data to the specified flash row */
1155:Generated_Source\PSoC5/cy_em_eeprom.c ****     ret = WriteRow(emEepromRowAddr, (uint32 *)ramBuffAddr, context);
1156:Generated_Source\PSoC5/cy_em_eeprom.c **** 
1157:Generated_Source\PSoC5/cy_em_eeprom.c ****     if((CY_EM_EEPROM_SUCCESS == ret) && (0u != context->redundantCopy))
1158:Generated_Source\PSoC5/cy_em_eeprom.c ****     {
1159:Generated_Source\PSoC5/cy_em_eeprom.c ****         /* Update the address to point to the redundant copy row */
1160:Generated_Source\PSoC5/cy_em_eeprom.c ****         emEepromRowAddr = (emEepromRowAddr - context->userFlashStartAddr) + context->wlEndAddr;
1161:Generated_Source\PSoC5/cy_em_eeprom.c ****         ret = WriteRow(emEepromRowAddr, (uint32 *)ramBuffAddr, context);
ARM GAS  C:\Users\jens-\AppData\Local\Temp\cc4C0Tnp.s 			page 30


1162:Generated_Source\PSoC5/cy_em_eeprom.c ****     }
1163:Generated_Source\PSoC5/cy_em_eeprom.c **** 
1164:Generated_Source\PSoC5/cy_em_eeprom.c ****     if(CY_EM_EEPROM_SUCCESS == ret)
1165:Generated_Source\PSoC5/cy_em_eeprom.c ****     {
1166:Generated_Source\PSoC5/cy_em_eeprom.c ****         context->lastWrRowAddr = rowAddr;
1167:Generated_Source\PSoC5/cy_em_eeprom.c ****     }
1168:Generated_Source\PSoC5/cy_em_eeprom.c **** #endif /* (CY_PSOC6) */
1169:Generated_Source\PSoC5/cy_em_eeprom.c **** 
1170:Generated_Source\PSoC5/cy_em_eeprom.c ****     return(ret);
1171:Generated_Source\PSoC5/cy_em_eeprom.c **** }
1172:Generated_Source\PSoC5/cy_em_eeprom.c **** 
1173:Generated_Source\PSoC5/cy_em_eeprom.c **** 
1174:Generated_Source\PSoC5/cy_em_eeprom.c **** /*******************************************************************************
1175:Generated_Source\PSoC5/cy_em_eeprom.c **** * Function Name: CheckCrcAndCopy
1176:Generated_Source\PSoC5/cy_em_eeprom.c **** ****************************************************************************//**
1177:Generated_Source\PSoC5/cy_em_eeprom.c **** *
1178:Generated_Source\PSoC5/cy_em_eeprom.c **** * Checks the checksum of the specific row in EEPROM. If the CRC matches - copies
1179:Generated_Source\PSoC5/cy_em_eeprom.c **** * the data to the "datAddr" from EEPROM. f the CRC does not match checks the
1180:Generated_Source\PSoC5/cy_em_eeprom.c **** * CRC of the corresponding row in the EEPROM's redundant copy. If the CRC
1181:Generated_Source\PSoC5/cy_em_eeprom.c **** * matches - copies the data to the "datAddr" from EEPROM redundant copy. If the
1182:Generated_Source\PSoC5/cy_em_eeprom.c **** * CRC of the redundant copy does not match - returns bad checksum.
1183:Generated_Source\PSoC5/cy_em_eeprom.c **** *
1184:Generated_Source\PSoC5/cy_em_eeprom.c **** * \param startAddr
1185:Generated_Source\PSoC5/cy_em_eeprom.c **** * The address that points to the start of the specified row.
1186:Generated_Source\PSoC5/cy_em_eeprom.c **** *
1187:Generated_Source\PSoC5/cy_em_eeprom.c **** * \param datAddr
1188:Generated_Source\PSoC5/cy_em_eeprom.c **** * The start address of where the row data will be copied if the CRC check
1189:Generated_Source\PSoC5/cy_em_eeprom.c **** * will succeed.
1190:Generated_Source\PSoC5/cy_em_eeprom.c **** *
1191:Generated_Source\PSoC5/cy_em_eeprom.c **** * \param rowOffset
1192:Generated_Source\PSoC5/cy_em_eeprom.c **** * The offset in the row from which the data should be copied.
1193:Generated_Source\PSoC5/cy_em_eeprom.c **** *
1194:Generated_Source\PSoC5/cy_em_eeprom.c **** * \param numBytes
1195:Generated_Source\PSoC5/cy_em_eeprom.c **** * The number of bytes to be copied.
1196:Generated_Source\PSoC5/cy_em_eeprom.c **** *
1197:Generated_Source\PSoC5/cy_em_eeprom.c **** * \param context
1198:Generated_Source\PSoC5/cy_em_eeprom.c **** * The pointer to the EEPROM context structure \ref cy_stc_eeprom_context_t.
1199:Generated_Source\PSoC5/cy_em_eeprom.c **** *
1200:Generated_Source\PSoC5/cy_em_eeprom.c **** * \return
1201:Generated_Source\PSoC5/cy_em_eeprom.c **** * error / status code. See \ref cy_en_em_eeprom_status_t.
1202:Generated_Source\PSoC5/cy_em_eeprom.c **** *
1203:Generated_Source\PSoC5/cy_em_eeprom.c **** * \note
1204:Generated_Source\PSoC5/cy_em_eeprom.c **** * This function uses a buffer of the flash row size to perform read
1205:Generated_Source\PSoC5/cy_em_eeprom.c **** * operation. For the size of the row refer to the specific PSoC device
1206:Generated_Source\PSoC5/cy_em_eeprom.c **** * datasheet.
1207:Generated_Source\PSoC5/cy_em_eeprom.c **** *
1208:Generated_Source\PSoC5/cy_em_eeprom.c **** *******************************************************************************/
1209:Generated_Source\PSoC5/cy_em_eeprom.c **** static cy_en_em_eeprom_status_t CheckCrcAndCopy(uint32 startAddr,
1210:Generated_Source\PSoC5/cy_em_eeprom.c ****                                                 uint32 dstAddr,
1211:Generated_Source\PSoC5/cy_em_eeprom.c ****                                                 uint32 rowOffset,
1212:Generated_Source\PSoC5/cy_em_eeprom.c ****                                                 uint32 numBytes,
1213:Generated_Source\PSoC5/cy_em_eeprom.c ****                                                 cy_stc_eeprom_context_t * context)
1214:Generated_Source\PSoC5/cy_em_eeprom.c **** {
1215:Generated_Source\PSoC5/cy_em_eeprom.c ****     cy_en_em_eeprom_status_t ret;
1216:Generated_Source\PSoC5/cy_em_eeprom.c ****     uint32 writeRamBuffer[CY_EM_EEPROM_FLASH_SIZEOF_ROW / CY_EM_EEPROM_U32_DIV];
1217:Generated_Source\PSoC5/cy_em_eeprom.c **** 
1218:Generated_Source\PSoC5/cy_em_eeprom.c ****     /* Calculate the row address in the EEPROM's redundant copy */
ARM GAS  C:\Users\jens-\AppData\Local\Temp\cc4C0Tnp.s 			page 31


1219:Generated_Source\PSoC5/cy_em_eeprom.c ****     uint32 rcStartRowAddr = (startAddr - context->userFlashStartAddr) + context->wlEndAddr;
1220:Generated_Source\PSoC5/cy_em_eeprom.c **** 
1221:Generated_Source\PSoC5/cy_em_eeprom.c ****     /* Check the row data CRC in the EEPROM */
1222:Generated_Source\PSoC5/cy_em_eeprom.c ****     if((*(uint32 *)(startAddr + CY_EM_EEPROM_HEADER_CHECKSUM_OFFSET)) ==
1223:Generated_Source\PSoC5/cy_em_eeprom.c ****         ((uint32) CalcChecksum((uint8 *)(startAddr + CY_EM_EEPROM_EEPROM_DATA_OFFSET),
1224:Generated_Source\PSoC5/cy_em_eeprom.c ****             CY_EM_EEPROM_EEPROM_DATA_LEN)))
1225:Generated_Source\PSoC5/cy_em_eeprom.c ****     {
1226:Generated_Source\PSoC5/cy_em_eeprom.c ****         (void)memcpy((void *)(dstAddr), (void *)(startAddr + rowOffset), numBytes);
1227:Generated_Source\PSoC5/cy_em_eeprom.c **** 
1228:Generated_Source\PSoC5/cy_em_eeprom.c ****         ret = CY_EM_EEPROM_SUCCESS;
1229:Generated_Source\PSoC5/cy_em_eeprom.c ****     }
1230:Generated_Source\PSoC5/cy_em_eeprom.c ****     /* Check the row data CRC in the EEPROM's redundant copy */
1231:Generated_Source\PSoC5/cy_em_eeprom.c ****     else if((*(uint32 *)(rcStartRowAddr + CY_EM_EEPROM_HEADER_CHECKSUM_OFFSET)) ==
1232:Generated_Source\PSoC5/cy_em_eeprom.c ****             ((uint32) CalcChecksum((uint8 *)(rcStartRowAddr + CY_EM_EEPROM_EEPROM_DATA_OFFSET),
1233:Generated_Source\PSoC5/cy_em_eeprom.c ****                 CY_EM_EEPROM_EEPROM_DATA_LEN)))
1234:Generated_Source\PSoC5/cy_em_eeprom.c ****     {
1235:Generated_Source\PSoC5/cy_em_eeprom.c ****         /* Copy the redundant copy row to RAM buffer to avoid read while write (RWW)
1236:Generated_Source\PSoC5/cy_em_eeprom.c ****         * flash exception. The RWW occurs while trying to write and read the data from
1237:Generated_Source\PSoC5/cy_em_eeprom.c ****         * same flash macro.
1238:Generated_Source\PSoC5/cy_em_eeprom.c ****         */
1239:Generated_Source\PSoC5/cy_em_eeprom.c ****         (void)memcpy((void *)(writeRamBuffer), (void *)(rcStartRowAddr), CY_EM_EEPROM_FLASH_SIZEOF_
1240:Generated_Source\PSoC5/cy_em_eeprom.c **** 
1241:Generated_Source\PSoC5/cy_em_eeprom.c ****         /* Restore bad row data from the RAM buffer */
1242:Generated_Source\PSoC5/cy_em_eeprom.c ****         ret = WriteRow(startAddr, (uint32 *)writeRamBuffer, context);
1243:Generated_Source\PSoC5/cy_em_eeprom.c **** 
1244:Generated_Source\PSoC5/cy_em_eeprom.c ****         if(CY_EM_EEPROM_SUCCESS == ret)
1245:Generated_Source\PSoC5/cy_em_eeprom.c ****         {
1246:Generated_Source\PSoC5/cy_em_eeprom.c ****             (void)memcpy((void *)(dstAddr), (void *)(writeRamBuffer + rowOffset), numBytes);
1247:Generated_Source\PSoC5/cy_em_eeprom.c ****         }
1248:Generated_Source\PSoC5/cy_em_eeprom.c ****     }
1249:Generated_Source\PSoC5/cy_em_eeprom.c ****     else
1250:Generated_Source\PSoC5/cy_em_eeprom.c ****     {
1251:Generated_Source\PSoC5/cy_em_eeprom.c ****         ret = CY_EM_EEPROM_BAD_CHECKSUM;
1252:Generated_Source\PSoC5/cy_em_eeprom.c ****     }
1253:Generated_Source\PSoC5/cy_em_eeprom.c **** 
1254:Generated_Source\PSoC5/cy_em_eeprom.c ****     return(ret);
1255:Generated_Source\PSoC5/cy_em_eeprom.c **** }
1256:Generated_Source\PSoC5/cy_em_eeprom.c **** 
1257:Generated_Source\PSoC5/cy_em_eeprom.c **** 
1258:Generated_Source\PSoC5/cy_em_eeprom.c **** /*******************************************************************************
1259:Generated_Source\PSoC5/cy_em_eeprom.c **** * Function Name: GetAddresses
1260:Generated_Source\PSoC5/cy_em_eeprom.c **** ****************************************************************************//**
1261:Generated_Source\PSoC5/cy_em_eeprom.c **** *
1262:Generated_Source\PSoC5/cy_em_eeprom.c **** * Calculates the start and end address of the row's EEPROM data to be updated.
1263:Generated_Source\PSoC5/cy_em_eeprom.c **** * The start and end are not absolute addresses but a relative addresses in a
1264:Generated_Source\PSoC5/cy_em_eeprom.c **** * flash row.
1265:Generated_Source\PSoC5/cy_em_eeprom.c **** *
1266:Generated_Source\PSoC5/cy_em_eeprom.c **** * \param startAddr
1267:Generated_Source\PSoC5/cy_em_eeprom.c **** * The pointer the address where the EEPROM data start address will be returned.
1268:Generated_Source\PSoC5/cy_em_eeprom.c **** *
1269:Generated_Source\PSoC5/cy_em_eeprom.c **** * \param endAddr
1270:Generated_Source\PSoC5/cy_em_eeprom.c **** * The pointer the address where the EEPROM data end address will be returned.
1271:Generated_Source\PSoC5/cy_em_eeprom.c **** *
1272:Generated_Source\PSoC5/cy_em_eeprom.c **** * \param offset
1273:Generated_Source\PSoC5/cy_em_eeprom.c **** * The pointer the address where the calculated offset of the EEPROM header data
1274:Generated_Source\PSoC5/cy_em_eeprom.c **** * will be returned.
1275:Generated_Source\PSoC5/cy_em_eeprom.c **** *
ARM GAS  C:\Users\jens-\AppData\Local\Temp\cc4C0Tnp.s 			page 32


1276:Generated_Source\PSoC5/cy_em_eeprom.c **** * \param rowNum
1277:Generated_Source\PSoC5/cy_em_eeprom.c **** * The row number that is about to be written.
1278:Generated_Source\PSoC5/cy_em_eeprom.c **** *
1279:Generated_Source\PSoC5/cy_em_eeprom.c **** * \param addr
1280:Generated_Source\PSoC5/cy_em_eeprom.c **** * The address of the EEPROM header data in the currently analyzed row that may
1281:Generated_Source\PSoC5/cy_em_eeprom.c **** * concern to the row about to be written.
1282:Generated_Source\PSoC5/cy_em_eeprom.c **** *
1283:Generated_Source\PSoC5/cy_em_eeprom.c **** * \param len
1284:Generated_Source\PSoC5/cy_em_eeprom.c **** * The length of the EEPROM header data in the currently analyzed row that may
1285:Generated_Source\PSoC5/cy_em_eeprom.c **** * concern to the row about to be written.
1286:Generated_Source\PSoC5/cy_em_eeprom.c **** *
1287:Generated_Source\PSoC5/cy_em_eeprom.c **** * \return
1288:Generated_Source\PSoC5/cy_em_eeprom.c **** * Zero indicates that the currently analyzed row has the data to be written to
1289:Generated_Source\PSoC5/cy_em_eeprom.c **** * the active EEPROM row data locations. Non zero value indicates that there is
1290:Generated_Source\PSoC5/cy_em_eeprom.c **** * no data to be written
1291:Generated_Source\PSoC5/cy_em_eeprom.c **** *
1292:Generated_Source\PSoC5/cy_em_eeprom.c **** *******************************************************************************/
1293:Generated_Source\PSoC5/cy_em_eeprom.c **** static uint32 GetAddresses(uint32 *startAddr, 
1294:Generated_Source\PSoC5/cy_em_eeprom.c ****                         uint32 *endAddr, 
1295:Generated_Source\PSoC5/cy_em_eeprom.c ****                         uint32 *offset,
1296:Generated_Source\PSoC5/cy_em_eeprom.c ****                         uint32 rowNum,
1297:Generated_Source\PSoC5/cy_em_eeprom.c ****                         uint32 addr,
1298:Generated_Source\PSoC5/cy_em_eeprom.c ****                         uint32 len)
1299:Generated_Source\PSoC5/cy_em_eeprom.c **** {
 453              		.loc 1 1299 1 is_stmt 1 view -0
 454              		.cfi_startproc
 455              		@ args = 8, pretend = 0, frame = 0
 456              		@ frame_needed = 0, uses_anonymous_args = 0
 457              		@ link register save eliminated.
 458              		.loc 1 1299 1 is_stmt 0 view .LVU142
 459 0000 F0B4     		push	{r4, r5, r6, r7}
 460              		.cfi_def_cfa_offset 16
 461              		.cfi_offset 4, -16
 462              		.cfi_offset 5, -12
 463              		.cfi_offset 6, -8
 464              		.cfi_offset 7, -4
 465 0002 049C     		ldr	r4, [sp, #16]
 466 0004 059E     		ldr	r6, [sp, #20]
1300:Generated_Source\PSoC5/cy_em_eeprom.c ****     uint32 skip = 0u;
 467              		.loc 1 1300 5 is_stmt 1 view .LVU143
 468              	.LVL48:
1301:Generated_Source\PSoC5/cy_em_eeprom.c **** 
1302:Generated_Source\PSoC5/cy_em_eeprom.c ****     *offset =0u;
 469              		.loc 1 1302 5 view .LVU144
 470              		.loc 1 1302 13 is_stmt 0 view .LVU145
 471 0006 0025     		movs	r5, #0
 472 0008 1560     		str	r5, [r2]
1303:Generated_Source\PSoC5/cy_em_eeprom.c **** 
1304:Generated_Source\PSoC5/cy_em_eeprom.c ****     if(0u != CY_EM_EEPROM_IS_ADDR_IN_ROW_RANGE(addr, rowNum))
 473              		.loc 1 1304 5 is_stmt 1 view .LVU146
 474              		.loc 1 1304 14 is_stmt 0 view .LVU147
 475 000a DF01     		lsls	r7, r3, #7
 476 000c B4EBC31F 		cmp	r4, r3, lsl #7
 477 0010 10D3     		bcc	.L38
 478              		.loc 1 1304 14 discriminator 1 view .LVU148
 479 0012 5D1C     		adds	r5, r3, #1
 480 0014 ED01     		lsls	r5, r5, #7
ARM GAS  C:\Users\jens-\AppData\Local\Temp\cc4C0Tnp.s 			page 33


 481 0016 013D     		subs	r5, r5, #1
 482 0018 A542     		cmp	r5, r4
 483 001a 0BD3     		bcc	.L38
1305:Generated_Source\PSoC5/cy_em_eeprom.c ****     {
1306:Generated_Source\PSoC5/cy_em_eeprom.c ****         *startAddr = CY_EM_EEPROM_EEPROM_DATA_LEN + (addr % CY_EM_EEPROM_EEPROM_DATA_LEN);
 484              		.loc 1 1306 9 is_stmt 1 view .LVU149
 485              		.loc 1 1306 59 is_stmt 0 view .LVU150
 486 001c 04F07F03 		and	r3, r4, #127
 487              	.LVL49:
 488              		.loc 1 1306 51 view .LVU151
 489 0020 8033     		adds	r3, r3, #128
 490              		.loc 1 1306 20 view .LVU152
 491 0022 0360     		str	r3, [r0]
1307:Generated_Source\PSoC5/cy_em_eeprom.c **** 
1308:Generated_Source\PSoC5/cy_em_eeprom.c ****         if(0u != CY_EM_EEPROM_IS_ADDR_IN_ROW_RANGE(addr + len, rowNum))
 492              		.loc 1 1308 9 is_stmt 1 view .LVU153
 493              		.loc 1 1308 18 is_stmt 0 view .LVU154
 494 0024 3444     		add	r4, r4, r6
 495 0026 A742     		cmp	r7, r4
 496 0028 0AD9     		bls	.L39
 497              	.L40:
1309:Generated_Source\PSoC5/cy_em_eeprom.c ****         {
1310:Generated_Source\PSoC5/cy_em_eeprom.c ****             *endAddr = *startAddr + len;
1311:Generated_Source\PSoC5/cy_em_eeprom.c ****         }
1312:Generated_Source\PSoC5/cy_em_eeprom.c ****         else
1313:Generated_Source\PSoC5/cy_em_eeprom.c ****         {
1314:Generated_Source\PSoC5/cy_em_eeprom.c ****             *endAddr = CY_EM_EEPROM_FLASH_SIZEOF_ROW;
 498              		.loc 1 1314 13 is_stmt 1 view .LVU155
 499              		.loc 1 1314 22 is_stmt 0 view .LVU156
 500 002a 4FF48073 		mov	r3, #256
 501 002e 0B60     		str	r3, [r1]
1300:Generated_Source\PSoC5/cy_em_eeprom.c **** 
 502              		.loc 1 1300 12 view .LVU157
 503 0030 0020     		movs	r0, #0
 504              	.LVL50:
1300:Generated_Source\PSoC5/cy_em_eeprom.c **** 
 505              		.loc 1 1300 12 view .LVU158
 506 0032 03E0     		b	.L37
 507              	.LVL51:
 508              	.L38:
1315:Generated_Source\PSoC5/cy_em_eeprom.c ****         }
1316:Generated_Source\PSoC5/cy_em_eeprom.c ****     }
1317:Generated_Source\PSoC5/cy_em_eeprom.c ****     else
1318:Generated_Source\PSoC5/cy_em_eeprom.c ****     {
1319:Generated_Source\PSoC5/cy_em_eeprom.c **** 
1320:Generated_Source\PSoC5/cy_em_eeprom.c ****         if(0u != CY_EM_EEPROM_IS_ADDR_IN_ROW_RANGE(addr + len, rowNum))
 509              		.loc 1 1320 9 is_stmt 1 view .LVU159
 510              		.loc 1 1320 18 is_stmt 0 view .LVU160
 511 0034 A519     		adds	r5, r4, r6
 512 0036 AF42     		cmp	r7, r5
 513 0038 08D9     		bls	.L41
1321:Generated_Source\PSoC5/cy_em_eeprom.c ****         {
1322:Generated_Source\PSoC5/cy_em_eeprom.c ****             *startAddr = CY_EM_EEPROM_EEPROM_DATA_LEN;
1323:Generated_Source\PSoC5/cy_em_eeprom.c ****             *endAddr = (*startAddr + len) - (*startAddr - (addr % CY_EM_EEPROM_EEPROM_DATA_LEN));
1324:Generated_Source\PSoC5/cy_em_eeprom.c ****             *offset = len - (*endAddr - *startAddr);
1325:Generated_Source\PSoC5/cy_em_eeprom.c ****         }
1326:Generated_Source\PSoC5/cy_em_eeprom.c ****         else
ARM GAS  C:\Users\jens-\AppData\Local\Temp\cc4C0Tnp.s 			page 34


1327:Generated_Source\PSoC5/cy_em_eeprom.c ****         {
1328:Generated_Source\PSoC5/cy_em_eeprom.c ****             skip++;
 514              		.loc 1 1328 17 view .LVU161
 515 003a 0120     		movs	r0, #1
 516              	.LVL52:
 517              	.L37:
1329:Generated_Source\PSoC5/cy_em_eeprom.c ****         }
1330:Generated_Source\PSoC5/cy_em_eeprom.c ****     }
1331:Generated_Source\PSoC5/cy_em_eeprom.c **** 
1332:Generated_Source\PSoC5/cy_em_eeprom.c ****     return (skip);
1333:Generated_Source\PSoC5/cy_em_eeprom.c **** }
 518              		.loc 1 1333 1 view .LVU162
 519 003c F0BC     		pop	{r4, r5, r6, r7}
 520              		.cfi_remember_state
 521              		.cfi_restore 7
 522              		.cfi_restore 6
 523              		.cfi_restore 5
 524              		.cfi_restore 4
 525              		.cfi_def_cfa_offset 0
 526              	.LVL53:
 527              		.loc 1 1333 1 view .LVU163
 528 003e 7047     		bx	lr
 529              	.LVL54:
 530              	.L39:
 531              		.cfi_restore_state
1308:Generated_Source\PSoC5/cy_em_eeprom.c ****         {
 532              		.loc 1 1308 18 discriminator 1 view .LVU164
 533 0040 A542     		cmp	r5, r4
 534 0042 F2D3     		bcc	.L40
1310:Generated_Source\PSoC5/cy_em_eeprom.c ****         }
 535              		.loc 1 1310 13 is_stmt 1 view .LVU165
1310:Generated_Source\PSoC5/cy_em_eeprom.c ****         }
 536              		.loc 1 1310 35 is_stmt 0 view .LVU166
 537 0044 1E44     		add	r6, r6, r3
1310:Generated_Source\PSoC5/cy_em_eeprom.c ****         }
 538              		.loc 1 1310 22 view .LVU167
 539 0046 0E60     		str	r6, [r1]
1300:Generated_Source\PSoC5/cy_em_eeprom.c **** 
 540              		.loc 1 1300 12 view .LVU168
 541 0048 0020     		movs	r0, #0
 542              	.LVL55:
1300:Generated_Source\PSoC5/cy_em_eeprom.c **** 
 543              		.loc 1 1300 12 view .LVU169
 544 004a F7E7     		b	.L37
 545              	.LVL56:
 546              	.L41:
1320:Generated_Source\PSoC5/cy_em_eeprom.c ****         {
 547              		.loc 1 1320 18 discriminator 1 view .LVU170
 548 004c 0133     		adds	r3, r3, #1
 549              	.LVL57:
1320:Generated_Source\PSoC5/cy_em_eeprom.c ****         {
 550              		.loc 1 1320 18 discriminator 1 view .LVU171
 551 004e DB01     		lsls	r3, r3, #7
 552              	.LVL58:
1320:Generated_Source\PSoC5/cy_em_eeprom.c ****         {
 553              		.loc 1 1320 18 discriminator 1 view .LVU172
 554 0050 013B     		subs	r3, r3, #1
ARM GAS  C:\Users\jens-\AppData\Local\Temp\cc4C0Tnp.s 			page 35


 555 0052 9D42     		cmp	r5, r3
 556 0054 0CD8     		bhi	.L44
1322:Generated_Source\PSoC5/cy_em_eeprom.c ****             *endAddr = (*startAddr + len) - (*startAddr - (addr % CY_EM_EEPROM_EEPROM_DATA_LEN));
 557              		.loc 1 1322 13 is_stmt 1 view .LVU173
1322:Generated_Source\PSoC5/cy_em_eeprom.c ****             *endAddr = (*startAddr + len) - (*startAddr - (addr % CY_EM_EEPROM_EEPROM_DATA_LEN));
 558              		.loc 1 1322 24 is_stmt 0 view .LVU174
 559 0056 8023     		movs	r3, #128
 560 0058 0360     		str	r3, [r0]
1323:Generated_Source\PSoC5/cy_em_eeprom.c ****             *offset = len - (*endAddr - *startAddr);
 561              		.loc 1 1323 13 is_stmt 1 view .LVU175
1323:Generated_Source\PSoC5/cy_em_eeprom.c ****             *offset = len - (*endAddr - *startAddr);
 562              		.loc 1 1323 36 is_stmt 0 view .LVU176
 563 005a F318     		adds	r3, r6, r3
1323:Generated_Source\PSoC5/cy_em_eeprom.c ****             *offset = len - (*endAddr - *startAddr);
 564              		.loc 1 1323 43 view .LVU177
 565 005c 64F07F04 		orn	r4, r4, #127
 566 0060 1C44     		add	r4, r4, r3
1323:Generated_Source\PSoC5/cy_em_eeprom.c ****             *offset = len - (*endAddr - *startAddr);
 567              		.loc 1 1323 22 view .LVU178
 568 0062 0C60     		str	r4, [r1]
1324:Generated_Source\PSoC5/cy_em_eeprom.c ****         }
 569              		.loc 1 1324 13 is_stmt 1 view .LVU179
1324:Generated_Source\PSoC5/cy_em_eeprom.c ****         }
 570              		.loc 1 1324 41 is_stmt 0 view .LVU180
 571 0064 0368     		ldr	r3, [r0]
1324:Generated_Source\PSoC5/cy_em_eeprom.c ****         }
 572              		.loc 1 1324 27 view .LVU181
 573 0066 1C1B     		subs	r4, r3, r4
 574 0068 2644     		add	r6, r6, r4
1324:Generated_Source\PSoC5/cy_em_eeprom.c ****         }
 575              		.loc 1 1324 21 view .LVU182
 576 006a 1660     		str	r6, [r2]
1300:Generated_Source\PSoC5/cy_em_eeprom.c **** 
 577              		.loc 1 1300 12 view .LVU183
 578 006c 0020     		movs	r0, #0
 579              	.LVL59:
1300:Generated_Source\PSoC5/cy_em_eeprom.c **** 
 580              		.loc 1 1300 12 view .LVU184
 581 006e E5E7     		b	.L37
 582              	.LVL60:
 583              	.L44:
1328:Generated_Source\PSoC5/cy_em_eeprom.c ****         }
 584              		.loc 1 1328 17 view .LVU185
 585 0070 0120     		movs	r0, #1
 586              	.LVL61:
1332:Generated_Source\PSoC5/cy_em_eeprom.c **** }
 587              		.loc 1 1332 5 is_stmt 1 view .LVU186
1332:Generated_Source\PSoC5/cy_em_eeprom.c **** }
 588              		.loc 1 1332 12 is_stmt 0 view .LVU187
 589 0072 E3E7     		b	.L37
 590              		.cfi_endproc
 591              	.LFE13:
 592              		.size	GetAddresses, .-GetAddresses
 593              		.section	.text.WriteRow,"ax",%progbits
 594              		.align	1
 595              		.syntax unified
 596              		.thumb
ARM GAS  C:\Users\jens-\AppData\Local\Temp\cc4C0Tnp.s 			page 36


 597              		.thumb_func
 598              		.fpu softvfp
 599              		.type	WriteRow, %function
 600              	WriteRow:
 601              	.LVL62:
 602              	.LFB10:
 994:Generated_Source\PSoC5/cy_em_eeprom.c ****     cy_en_em_eeprom_status_t ret = CY_EM_EEPROM_WRITE_FAIL;
 603              		.loc 1 994 1 is_stmt 1 view -0
 604              		.cfi_startproc
 605              		@ args = 0, pretend = 0, frame = 0
 606              		@ frame_needed = 0, uses_anonymous_args = 0
 994:Generated_Source\PSoC5/cy_em_eeprom.c ****     cy_en_em_eeprom_status_t ret = CY_EM_EEPROM_WRITE_FAIL;
 607              		.loc 1 994 1 is_stmt 0 view .LVU189
 608 0000 70B5     		push	{r4, r5, r6, lr}
 609              		.cfi_def_cfa_offset 16
 610              		.cfi_offset 4, -16
 611              		.cfi_offset 5, -12
 612              		.cfi_offset 6, -8
 613              		.cfi_offset 14, -4
 614 0002 0446     		mov	r4, r0
 615 0004 0D46     		mov	r5, r1
 995:Generated_Source\PSoC5/cy_em_eeprom.c **** #if (!CY_PSOC6)
 616              		.loc 1 995 5 is_stmt 1 view .LVU190
 617              	.LVL63:
 997:Generated_Source\PSoC5/cy_em_eeprom.c ****     uint32 rowId;
 618              		.loc 1 997 5 view .LVU191
 998:Generated_Source\PSoC5/cy_em_eeprom.c ****     #if ((CY_PSOC3) || (CY_PSOC5))
 619              		.loc 1 998 5 view .LVU192
1000:Generated_Source\PSoC5/cy_em_eeprom.c ****     #endif /* (CY_PSOC3) */
 620              		.loc 1 1000 9 view .LVU193
1007:Generated_Source\PSoC5/cy_em_eeprom.c ****     #endif /* ((CY_PSOC3) */
 621              		.loc 1 1007 9 view .LVU194
1011:Generated_Source\PSoC5/cy_em_eeprom.c **** 
 622              		.loc 1 1011 5 view .LVU195
1011:Generated_Source\PSoC5/cy_em_eeprom.c **** 
 623              		.loc 1 1011 11 is_stmt 0 view .LVU196
 624 0006 C0F30726 		ubfx	r6, r0, #8, #8
 625              	.LVL64:
1019:Generated_Source\PSoC5/cy_em_eeprom.c ****         #endif /* (CY_EM_EEPROM_SKIP_TEMP_MEASUREMENT) */
 626              		.loc 1 1019 13 is_stmt 1 view .LVU197
1019:Generated_Source\PSoC5/cy_em_eeprom.c ****         #endif /* (CY_EM_EEPROM_SKIP_TEMP_MEASUREMENT) */
 627              		.loc 1 1019 19 is_stmt 0 view .LVU198
 628 000a FFF7FEFF 		bl	CySetTemp
 629              	.LVL65:
1022:Generated_Source\PSoC5/cy_em_eeprom.c ****         rc = CyWriteRowData((uint8)arrayId, (uint16)rowId, (uint8 *)rowData);
 630              		.loc 1 1022 9 is_stmt 1 view .LVU199
1023:Generated_Source\PSoC5/cy_em_eeprom.c ****         
 631              		.loc 1 1023 9 view .LVU200
1023:Generated_Source\PSoC5/cy_em_eeprom.c ****         
 632              		.loc 1 1023 14 is_stmt 0 view .LVU201
 633 000e 2A46     		mov	r2, r5
 634 0010 3146     		mov	r1, r6
 635 0012 C4F30740 		ubfx	r0, r4, #16, #8
 636 0016 FFF7FEFF 		bl	CyWriteRowData
 637              	.LVL66:
 638 001a 0446     		mov	r4, r0
 639              	.LVL67:
ARM GAS  C:\Users\jens-\AppData\Local\Temp\cc4C0Tnp.s 			page 37


1026:Generated_Source\PSoC5/cy_em_eeprom.c ****         #endif /* (CY_PSOC5) */
 640              		.loc 1 1026 13 is_stmt 1 view .LVU202
 641 001c FFF7FEFF 		bl	CyFlushCache
 642              	.LVL68:
1030:Generated_Source\PSoC5/cy_em_eeprom.c ****     {
 643              		.loc 1 1030 5 view .LVU203
1030:Generated_Source\PSoC5/cy_em_eeprom.c ****     {
 644              		.loc 1 1030 7 is_stmt 0 view .LVU204
 645 0020 0CB9     		cbnz	r4, .L50
1032:Generated_Source\PSoC5/cy_em_eeprom.c ****     }
 646              		.loc 1 1032 13 view .LVU205
 647 0022 0020     		movs	r0, #0
 648              	.L47:
 649              	.LVL69:
1067:Generated_Source\PSoC5/cy_em_eeprom.c **** }
 650              		.loc 1 1067 5 is_stmt 1 view .LVU206
1068:Generated_Source\PSoC5/cy_em_eeprom.c **** 
 651              		.loc 1 1068 1 is_stmt 0 view .LVU207
 652 0024 70BD     		pop	{r4, r5, r6, pc}
 653              	.LVL70:
 654              	.L50:
 995:Generated_Source\PSoC5/cy_em_eeprom.c **** #if (!CY_PSOC6)
 655              		.loc 1 995 30 view .LVU208
 656 0026 0420     		movs	r0, #4
 657 0028 FCE7     		b	.L47
 658              		.cfi_endproc
 659              	.LFE10:
 660              		.size	WriteRow, .-WriteRow
 661              		.section	.text.FillChecksum,"ax",%progbits
 662              		.align	1
 663              		.syntax unified
 664              		.thumb
 665              		.thumb_func
 666              		.fpu softvfp
 667              		.type	FillChecksum, %function
 668              	FillChecksum:
 669              	.LVL71:
 670              	.LFB14:
1334:Generated_Source\PSoC5/cy_em_eeprom.c **** 
1335:Generated_Source\PSoC5/cy_em_eeprom.c **** 
1336:Generated_Source\PSoC5/cy_em_eeprom.c **** /*******************************************************************************
1337:Generated_Source\PSoC5/cy_em_eeprom.c **** * Function Name: FillChecksum
1338:Generated_Source\PSoC5/cy_em_eeprom.c **** ****************************************************************************//**
1339:Generated_Source\PSoC5/cy_em_eeprom.c **** *
1340:Generated_Source\PSoC5/cy_em_eeprom.c **** * Performs calculation of the checksum on each row in the Em_EEPROM and fills
1341:Generated_Source\PSoC5/cy_em_eeprom.c **** * the Em_EEPROM headers checksum field with the calculated checksums.
1342:Generated_Source\PSoC5/cy_em_eeprom.c **** *
1343:Generated_Source\PSoC5/cy_em_eeprom.c **** * \param context
1344:Generated_Source\PSoC5/cy_em_eeprom.c **** * The pointer to the EEPROM context structure.
1345:Generated_Source\PSoC5/cy_em_eeprom.c **** *
1346:Generated_Source\PSoC5/cy_em_eeprom.c **** * \return
1347:Generated_Source\PSoC5/cy_em_eeprom.c **** * error / status code. See \ref cy_en_em_eeprom_status_t.
1348:Generated_Source\PSoC5/cy_em_eeprom.c **** *
1349:Generated_Source\PSoC5/cy_em_eeprom.c **** * \theory 
1350:Generated_Source\PSoC5/cy_em_eeprom.c **** * In case if redundant copy option is used the Em_EEPROM would return bad 
1351:Generated_Source\PSoC5/cy_em_eeprom.c **** * checksum while trying to read the EEPROM rows which were not yet written by 
1352:Generated_Source\PSoC5/cy_em_eeprom.c **** * the user. E.g. any read after device reprogramming without previous Write() 
ARM GAS  C:\Users\jens-\AppData\Local\Temp\cc4C0Tnp.s 			page 38


1353:Generated_Source\PSoC5/cy_em_eeprom.c **** * operation to the EEPROM would fail. This would happen because the Em_EEPROM 
1354:Generated_Source\PSoC5/cy_em_eeprom.c **** * headers checksum field values (which is zero at the moment) would not be 
1355:Generated_Source\PSoC5/cy_em_eeprom.c **** * equal to the actual data checksum. This function allows to avoid read failure
1356:Generated_Source\PSoC5/cy_em_eeprom.c **** * after device reprogramming. 
1357:Generated_Source\PSoC5/cy_em_eeprom.c **** *
1358:Generated_Source\PSoC5/cy_em_eeprom.c **** * \note
1359:Generated_Source\PSoC5/cy_em_eeprom.c **** * This function uses a buffer of the flash row size to perform read
1360:Generated_Source\PSoC5/cy_em_eeprom.c **** * operation. For the size of the row refer to the specific PSoC device
1361:Generated_Source\PSoC5/cy_em_eeprom.c **** * datasheet.
1362:Generated_Source\PSoC5/cy_em_eeprom.c **** *
1363:Generated_Source\PSoC5/cy_em_eeprom.c **** *******************************************************************************/
1364:Generated_Source\PSoC5/cy_em_eeprom.c **** static cy_en_em_eeprom_status_t FillChecksum(cy_stc_eeprom_context_t * context)
1365:Generated_Source\PSoC5/cy_em_eeprom.c **** {
 671              		.loc 1 1365 1 is_stmt 1 view -0
 672              		.cfi_startproc
 673              		@ args = 0, pretend = 0, frame = 264
 674              		@ frame_needed = 0, uses_anonymous_args = 0
 675              		.loc 1 1365 1 is_stmt 0 view .LVU210
 676 0000 F0B5     		push	{r4, r5, r6, r7, lr}
 677              		.cfi_def_cfa_offset 20
 678              		.cfi_offset 4, -20
 679              		.cfi_offset 5, -16
 680              		.cfi_offset 6, -12
 681              		.cfi_offset 7, -8
 682              		.cfi_offset 14, -4
 683 0002 C3B0     		sub	sp, sp, #268
 684              		.cfi_def_cfa_offset 288
 685 0004 0446     		mov	r4, r0
1366:Generated_Source\PSoC5/cy_em_eeprom.c ****     uint32 i;
 686              		.loc 1 1366 5 is_stmt 1 view .LVU211
1367:Generated_Source\PSoC5/cy_em_eeprom.c ****     uint32 rdAddr;
 687              		.loc 1 1367 5 view .LVU212
1368:Generated_Source\PSoC5/cy_em_eeprom.c ****     uint32 writeRamBuffer[CY_EM_EEPROM_FLASH_SIZEOF_ROW / CY_EM_EEPROM_U32_DIV];
 688              		.loc 1 1368 5 view .LVU213
1369:Generated_Source\PSoC5/cy_em_eeprom.c ****     uint32 wrAddr = context->lastWrRowAddr;
 689              		.loc 1 1369 5 view .LVU214
 690              		.loc 1 1369 28 is_stmt 0 view .LVU215
 691 0006 8368     		ldr	r3, [r0, #8]
 692              		.loc 1 1369 12 view .LVU216
 693 0008 0093     		str	r3, [sp]
1370:Generated_Source\PSoC5/cy_em_eeprom.c ****     uint32 tmpRowAddr;
 694              		.loc 1 1370 5 is_stmt 1 view .LVU217
1371:Generated_Source\PSoC5/cy_em_eeprom.c ****     /* Get the sequence number (number of writes) */
1372:Generated_Source\PSoC5/cy_em_eeprom.c ****     uint32 seqNum = CY_EM_EEPROM_GET_SEQ_NUM(wrAddr);
 695              		.loc 1 1372 5 view .LVU218
 696              		.loc 1 1372 12 is_stmt 0 view .LVU219
 697 000a 1D68     		ldr	r5, [r3]
 698              	.LVL72:
1373:Generated_Source\PSoC5/cy_em_eeprom.c ****     cy_en_em_eeprom_status_t ret = CY_EM_EEPROM_BAD_PARAM;
 699              		.loc 1 1373 5 is_stmt 1 view .LVU220
1374:Generated_Source\PSoC5/cy_em_eeprom.c **** 
1375:Generated_Source\PSoC5/cy_em_eeprom.c ****     for(i = 0u; i < (context->numberOfRows * context->wearLevelingFactor); i++)
 700              		.loc 1 1375 5 view .LVU221
1373:Generated_Source\PSoC5/cy_em_eeprom.c ****     cy_en_em_eeprom_status_t ret = CY_EM_EEPROM_BAD_PARAM;
 701              		.loc 1 1373 30 is_stmt 0 view .LVU222
 702 000c 0127     		movs	r7, #1
 703              		.loc 1 1375 11 view .LVU223
ARM GAS  C:\Users\jens-\AppData\Local\Temp\cc4C0Tnp.s 			page 39


 704 000e 0026     		movs	r6, #0
 705              	.LVL73:
 706              	.L52:
 707              		.loc 1 1375 17 is_stmt 1 discriminator 1 view .LVU224
 708              		.loc 1 1375 29 is_stmt 0 discriminator 1 view .LVU225
 709 0010 6268     		ldr	r2, [r4, #4]
 710              		.loc 1 1375 53 discriminator 1 view .LVU226
 711 0012 2369     		ldr	r3, [r4, #16]
 712              		.loc 1 1375 44 discriminator 1 view .LVU227
 713 0014 03FB02F3 		mul	r3, r3, r2
 714              		.loc 1 1375 5 discriminator 1 view .LVU228
 715 0018 B342     		cmp	r3, r6
 716 001a 23D9     		bls	.L55
1376:Generated_Source\PSoC5/cy_em_eeprom.c ****     {
1377:Generated_Source\PSoC5/cy_em_eeprom.c ****         /* Copy the EEPROM row from Flash to RAM */
1378:Generated_Source\PSoC5/cy_em_eeprom.c ****         (void)memcpy((void *)&writeRamBuffer[0u], (void *)(wrAddr), CY_EM_EEPROM_FLASH_SIZEOF_ROW);
 717              		.loc 1 1378 9 is_stmt 1 discriminator 3 view .LVU229
 718              		.loc 1 1378 15 is_stmt 0 discriminator 3 view .LVU230
 719 001c 009F     		ldr	r7, [sp]
 720              	.LVL74:
 721              		.loc 1 1378 15 discriminator 3 view .LVU231
 722 001e FC22     		movs	r2, #252
 723 0020 391D     		adds	r1, r7, #4
 724 0022 02A8     		add	r0, sp, #8
 725 0024 FFF7FEFF 		bl	memcpy
 726              	.LVL75:
1379:Generated_Source\PSoC5/cy_em_eeprom.c **** 
1380:Generated_Source\PSoC5/cy_em_eeprom.c ****         /* Increment the sequence number */
1381:Generated_Source\PSoC5/cy_em_eeprom.c ****         seqNum++;
 727              		.loc 1 1381 9 is_stmt 1 discriminator 3 view .LVU232
 728              		.loc 1 1381 15 is_stmt 0 discriminator 3 view .LVU233
 729 0028 0135     		adds	r5, r5, #1
 730              	.LVL76:
1382:Generated_Source\PSoC5/cy_em_eeprom.c ****         writeRamBuffer[CY_EM_EEPROM_HEADER_SEQ_NUM_OFFSET_U32] = seqNum;
 731              		.loc 1 1382 9 is_stmt 1 discriminator 3 view .LVU234
 732              		.loc 1 1382 64 is_stmt 0 discriminator 3 view .LVU235
 733 002a 0195     		str	r5, [sp, #4]
1383:Generated_Source\PSoC5/cy_em_eeprom.c **** 
1384:Generated_Source\PSoC5/cy_em_eeprom.c ****         /* Calculate and fill the checksum to the Em_EEPROM header */
1385:Generated_Source\PSoC5/cy_em_eeprom.c ****         writeRamBuffer[CY_EM_EEPROM_HEADER_CHECKSUM_OFFSET_U32] = (uint32)
 734              		.loc 1 1385 9 is_stmt 1 discriminator 3 view .LVU236
1386:Generated_Source\PSoC5/cy_em_eeprom.c ****                     CalcChecksum((uint8 *) &writeRamBuffer[CY_EM_EEPROM_EEPROM_DATA_OFFSET_U32],
 735              		.loc 1 1386 21 is_stmt 0 discriminator 3 view .LVU237
 736 002c 8021     		movs	r1, #128
 737 002e 21A8     		add	r0, sp, #132
 738 0030 FFF7FEFF 		bl	CalcChecksum
 739              	.LVL77:
1385:Generated_Source\PSoC5/cy_em_eeprom.c ****                     CalcChecksum((uint8 *) &writeRamBuffer[CY_EM_EEPROM_EEPROM_DATA_OFFSET_U32],
 740              		.loc 1 1385 65 discriminator 3 view .LVU238
 741 0034 2090     		str	r0, [sp, #128]
1387:Generated_Source\PSoC5/cy_em_eeprom.c ****                                               CY_EM_EEPROM_EEPROM_DATA_LEN);
1388:Generated_Source\PSoC5/cy_em_eeprom.c **** 
1389:Generated_Source\PSoC5/cy_em_eeprom.c ****         /* Write the data to the specified flash row */
1390:Generated_Source\PSoC5/cy_em_eeprom.c ****         ret = WriteRow(wrAddr, writeRamBuffer, context);
 742              		.loc 1 1390 9 is_stmt 1 discriminator 3 view .LVU239
 743              		.loc 1 1390 15 is_stmt 0 discriminator 3 view .LVU240
 744 0036 2246     		mov	r2, r4
ARM GAS  C:\Users\jens-\AppData\Local\Temp\cc4C0Tnp.s 			page 40


 745 0038 01A9     		add	r1, sp, #4
 746 003a 3846     		mov	r0, r7
 747 003c FFF7FEFF 		bl	WriteRow
 748              	.LVL78:
1391:Generated_Source\PSoC5/cy_em_eeprom.c **** 
1392:Generated_Source\PSoC5/cy_em_eeprom.c ****         /* Update the row address to point to the relevant row in the redundant 
1393:Generated_Source\PSoC5/cy_em_eeprom.c ****         * EEPROM's copy.
1394:Generated_Source\PSoC5/cy_em_eeprom.c ****         */
1395:Generated_Source\PSoC5/cy_em_eeprom.c ****         tmpRowAddr = (wrAddr - context->userFlashStartAddr) + context->wlEndAddr;
 749              		.loc 1 1395 9 is_stmt 1 discriminator 3 view .LVU241
 750              		.loc 1 1395 39 is_stmt 0 discriminator 3 view .LVU242
 751 0040 A369     		ldr	r3, [r4, #24]
 752              		.loc 1 1395 30 discriminator 3 view .LVU243
 753 0042 0098     		ldr	r0, [sp]
 754 0044 C01A     		subs	r0, r0, r3
 755              		.loc 1 1395 70 discriminator 3 view .LVU244
 756 0046 2368     		ldr	r3, [r4]
 757              	.LVL79:
1396:Generated_Source\PSoC5/cy_em_eeprom.c **** 
1397:Generated_Source\PSoC5/cy_em_eeprom.c ****         /* Write the data to the specified flash row */
1398:Generated_Source\PSoC5/cy_em_eeprom.c ****         ret = WriteRow(tmpRowAddr, writeRamBuffer, context);
 758              		.loc 1 1398 9 is_stmt 1 discriminator 3 view .LVU245
 759              		.loc 1 1398 15 is_stmt 0 discriminator 3 view .LVU246
 760 0048 2246     		mov	r2, r4
 761 004a 01A9     		add	r1, sp, #4
 762 004c 1844     		add	r0, r0, r3
 763              	.LVL80:
 764              		.loc 1 1398 15 discriminator 3 view .LVU247
 765 004e FFF7FEFF 		bl	WriteRow
 766              	.LVL81:
 767              		.loc 1 1398 15 discriminator 3 view .LVU248
 768 0052 0746     		mov	r7, r0
 769              	.LVL82:
1399:Generated_Source\PSoC5/cy_em_eeprom.c **** 
1400:Generated_Source\PSoC5/cy_em_eeprom.c ****         /* Get the address of the next row to be written. 
1401:Generated_Source\PSoC5/cy_em_eeprom.c ****         * "rdAddr" is not used in this function but provided to prevent NULL 
1402:Generated_Source\PSoC5/cy_em_eeprom.c ****         * pointer exception in GetNextRowToWrite().
1403:Generated_Source\PSoC5/cy_em_eeprom.c ****         */
1404:Generated_Source\PSoC5/cy_em_eeprom.c ****         GetNextRowToWrite(seqNum, &wrAddr, &rdAddr, context);
 770              		.loc 1 1404 9 is_stmt 1 discriminator 3 view .LVU249
 771 0054 2346     		mov	r3, r4
 772 0056 41AA     		add	r2, sp, #260
 773 0058 6946     		mov	r1, sp
 774 005a 2846     		mov	r0, r5
 775 005c FFF7FEFF 		bl	GetNextRowToWrite
 776              	.LVL83:
1375:Generated_Source\PSoC5/cy_em_eeprom.c ****     {
 777              		.loc 1 1375 76 discriminator 3 view .LVU250
1375:Generated_Source\PSoC5/cy_em_eeprom.c ****     {
 778              		.loc 1 1375 77 is_stmt 0 discriminator 3 view .LVU251
 779 0060 0136     		adds	r6, r6, #1
 780              	.LVL84:
1375:Generated_Source\PSoC5/cy_em_eeprom.c ****     {
 781              		.loc 1 1375 77 discriminator 3 view .LVU252
 782 0062 D5E7     		b	.L52
 783              	.L55:
1405:Generated_Source\PSoC5/cy_em_eeprom.c ****     }
ARM GAS  C:\Users\jens-\AppData\Local\Temp\cc4C0Tnp.s 			page 41


1406:Generated_Source\PSoC5/cy_em_eeprom.c ****     
1407:Generated_Source\PSoC5/cy_em_eeprom.c ****     return(ret);
 784              		.loc 1 1407 5 is_stmt 1 view .LVU253
1408:Generated_Source\PSoC5/cy_em_eeprom.c **** }
 785              		.loc 1 1408 1 is_stmt 0 view .LVU254
 786 0064 3846     		mov	r0, r7
 787 0066 43B0     		add	sp, sp, #268
 788              		.cfi_def_cfa_offset 20
 789              		@ sp needed
 790 0068 F0BD     		pop	{r4, r5, r6, r7, pc}
 791              		.loc 1 1408 1 view .LVU255
 792              		.cfi_endproc
 793              	.LFE14:
 794              		.size	FillChecksum, .-FillChecksum
 795              		.section	.text.CheckCrcAndCopy,"ax",%progbits
 796              		.align	1
 797              		.syntax unified
 798              		.thumb
 799              		.thumb_func
 800              		.fpu softvfp
 801              		.type	CheckCrcAndCopy, %function
 802              	CheckCrcAndCopy:
 803              	.LVL85:
 804              	.LFB12:
1214:Generated_Source\PSoC5/cy_em_eeprom.c ****     cy_en_em_eeprom_status_t ret;
 805              		.loc 1 1214 1 is_stmt 1 view -0
 806              		.cfi_startproc
 807              		@ args = 4, pretend = 0, frame = 256
 808              		@ frame_needed = 0, uses_anonymous_args = 0
1214:Generated_Source\PSoC5/cy_em_eeprom.c ****     cy_en_em_eeprom_status_t ret;
 809              		.loc 1 1214 1 is_stmt 0 view .LVU257
 810 0000 2DE9F047 		push	{r4, r5, r6, r7, r8, r9, r10, lr}
 811              		.cfi_def_cfa_offset 32
 812              		.cfi_offset 4, -32
 813              		.cfi_offset 5, -28
 814              		.cfi_offset 6, -24
 815              		.cfi_offset 7, -20
 816              		.cfi_offset 8, -16
 817              		.cfi_offset 9, -12
 818              		.cfi_offset 10, -8
 819              		.cfi_offset 14, -4
 820 0004 C0B0     		sub	sp, sp, #256
 821              		.cfi_def_cfa_offset 288
 822 0006 0446     		mov	r4, r0
 823 0008 0E46     		mov	r6, r1
 824 000a 1746     		mov	r7, r2
 825 000c 9846     		mov	r8, r3
 826 000e DDF82091 		ldr	r9, [sp, #288]
1215:Generated_Source\PSoC5/cy_em_eeprom.c ****     uint32 writeRamBuffer[CY_EM_EEPROM_FLASH_SIZEOF_ROW / CY_EM_EEPROM_U32_DIV];
 827              		.loc 1 1215 5 is_stmt 1 view .LVU258
1216:Generated_Source\PSoC5/cy_em_eeprom.c **** 
 828              		.loc 1 1216 5 view .LVU259
1219:Generated_Source\PSoC5/cy_em_eeprom.c **** 
 829              		.loc 1 1219 5 view .LVU260
1219:Generated_Source\PSoC5/cy_em_eeprom.c **** 
 830              		.loc 1 1219 49 is_stmt 0 view .LVU261
 831 0012 D9F81850 		ldr	r5, [r9, #24]
ARM GAS  C:\Users\jens-\AppData\Local\Temp\cc4C0Tnp.s 			page 42


1219:Generated_Source\PSoC5/cy_em_eeprom.c **** 
 832              		.loc 1 1219 40 view .LVU262
 833 0016 451B     		subs	r5, r0, r5
1219:Generated_Source\PSoC5/cy_em_eeprom.c **** 
 834              		.loc 1 1219 80 view .LVU263
 835 0018 D9F80030 		ldr	r3, [r9]
 836              	.LVL86:
1219:Generated_Source\PSoC5/cy_em_eeprom.c **** 
 837              		.loc 1 1219 12 view .LVU264
 838 001c 1D44     		add	r5, r5, r3
 839              	.LVL87:
1222:Generated_Source\PSoC5/cy_em_eeprom.c ****         ((uint32) CalcChecksum((uint8 *)(startAddr + CY_EM_EEPROM_EEPROM_DATA_OFFSET),
 840              		.loc 1 1222 5 is_stmt 1 view .LVU265
1222:Generated_Source\PSoC5/cy_em_eeprom.c ****         ((uint32) CalcChecksum((uint8 *)(startAddr + CY_EM_EEPROM_EEPROM_DATA_OFFSET),
 841              		.loc 1 1222 9 is_stmt 0 view .LVU266
 842 001e D0F87CA0 		ldr	r10, [r0, #124]
1223:Generated_Source\PSoC5/cy_em_eeprom.c ****             CY_EM_EEPROM_EEPROM_DATA_LEN)))
 843              		.loc 1 1223 19 view .LVU267
 844 0022 8021     		movs	r1, #128
 845              	.LVL88:
1223:Generated_Source\PSoC5/cy_em_eeprom.c ****             CY_EM_EEPROM_EEPROM_DATA_LEN)))
 846              		.loc 1 1223 19 view .LVU268
 847 0024 0844     		add	r0, r0, r1
 848              	.LVL89:
1223:Generated_Source\PSoC5/cy_em_eeprom.c ****             CY_EM_EEPROM_EEPROM_DATA_LEN)))
 849              		.loc 1 1223 19 view .LVU269
 850 0026 FFF7FEFF 		bl	CalcChecksum
 851              	.LVL90:
1222:Generated_Source\PSoC5/cy_em_eeprom.c ****         ((uint32) CalcChecksum((uint8 *)(startAddr + CY_EM_EEPROM_EEPROM_DATA_OFFSET),
 852              		.loc 1 1222 7 view .LVU270
 853 002a 8245     		cmp	r10, r0
 854 002c 0CD0     		beq	.L61
1231:Generated_Source\PSoC5/cy_em_eeprom.c ****             ((uint32) CalcChecksum((uint8 *)(rcStartRowAddr + CY_EM_EEPROM_EEPROM_DATA_OFFSET),
 855              		.loc 1 1231 10 is_stmt 1 view .LVU271
1231:Generated_Source\PSoC5/cy_em_eeprom.c ****             ((uint32) CalcChecksum((uint8 *)(rcStartRowAddr + CY_EM_EEPROM_EEPROM_DATA_OFFSET),
 856              		.loc 1 1231 14 is_stmt 0 view .LVU272
 857 002e D5F87CA0 		ldr	r10, [r5, #124]
1232:Generated_Source\PSoC5/cy_em_eeprom.c ****                 CY_EM_EEPROM_EEPROM_DATA_LEN)))
 858              		.loc 1 1232 23 view .LVU273
 859 0032 8021     		movs	r1, #128
 860 0034 6818     		adds	r0, r5, r1
 861 0036 FFF7FEFF 		bl	CalcChecksum
 862              	.LVL91:
1231:Generated_Source\PSoC5/cy_em_eeprom.c ****             ((uint32) CalcChecksum((uint8 *)(rcStartRowAddr + CY_EM_EEPROM_EEPROM_DATA_OFFSET),
 863              		.loc 1 1231 12 view .LVU274
 864 003a 8245     		cmp	r10, r0
 865 003c 0BD0     		beq	.L62
1251:Generated_Source\PSoC5/cy_em_eeprom.c ****     }
 866              		.loc 1 1251 13 view .LVU275
 867 003e 0224     		movs	r4, #2
 868              	.LVL92:
 869              	.L58:
1254:Generated_Source\PSoC5/cy_em_eeprom.c **** }
 870              		.loc 1 1254 5 is_stmt 1 view .LVU276
1255:Generated_Source\PSoC5/cy_em_eeprom.c **** 
 871              		.loc 1 1255 1 is_stmt 0 view .LVU277
 872 0040 2046     		mov	r0, r4
ARM GAS  C:\Users\jens-\AppData\Local\Temp\cc4C0Tnp.s 			page 43


 873 0042 40B0     		add	sp, sp, #256
 874              		.cfi_remember_state
 875              		.cfi_def_cfa_offset 32
 876              		@ sp needed
 877 0044 BDE8F087 		pop	{r4, r5, r6, r7, r8, r9, r10, pc}
 878              	.LVL93:
 879              	.L61:
 880              		.cfi_restore_state
1226:Generated_Source\PSoC5/cy_em_eeprom.c **** 
 881              		.loc 1 1226 9 is_stmt 1 view .LVU278
1226:Generated_Source\PSoC5/cy_em_eeprom.c **** 
 882              		.loc 1 1226 15 is_stmt 0 view .LVU279
 883 0048 4246     		mov	r2, r8
 884 004a E119     		adds	r1, r4, r7
 885 004c 3046     		mov	r0, r6
 886 004e FFF7FEFF 		bl	memcpy
 887              	.LVL94:
1228:Generated_Source\PSoC5/cy_em_eeprom.c ****     }
 888              		.loc 1 1228 9 is_stmt 1 view .LVU280
1228:Generated_Source\PSoC5/cy_em_eeprom.c ****     }
 889              		.loc 1 1228 13 is_stmt 0 view .LVU281
 890 0052 0024     		movs	r4, #0
 891              	.LVL95:
1228:Generated_Source\PSoC5/cy_em_eeprom.c ****     }
 892              		.loc 1 1228 13 view .LVU282
 893 0054 F4E7     		b	.L58
 894              	.LVL96:
 895              	.L62:
1239:Generated_Source\PSoC5/cy_em_eeprom.c **** 
 896              		.loc 1 1239 9 is_stmt 1 view .LVU283
1239:Generated_Source\PSoC5/cy_em_eeprom.c **** 
 897              		.loc 1 1239 15 is_stmt 0 view .LVU284
 898 0056 4FF48072 		mov	r2, #256
 899 005a 2946     		mov	r1, r5
 900 005c 6846     		mov	r0, sp
 901 005e FFF7FEFF 		bl	memcpy
 902              	.LVL97:
1242:Generated_Source\PSoC5/cy_em_eeprom.c **** 
 903              		.loc 1 1242 9 is_stmt 1 view .LVU285
1242:Generated_Source\PSoC5/cy_em_eeprom.c **** 
 904              		.loc 1 1242 15 is_stmt 0 view .LVU286
 905 0062 4A46     		mov	r2, r9
 906 0064 6946     		mov	r1, sp
 907 0066 2046     		mov	r0, r4
 908 0068 FFF7FEFF 		bl	WriteRow
 909              	.LVL98:
1244:Generated_Source\PSoC5/cy_em_eeprom.c ****         {
 910              		.loc 1 1244 9 is_stmt 1 view .LVU287
1244:Generated_Source\PSoC5/cy_em_eeprom.c ****         {
 911              		.loc 1 1244 11 is_stmt 0 view .LVU288
 912 006c 0446     		mov	r4, r0
 913              	.LVL99:
1244:Generated_Source\PSoC5/cy_em_eeprom.c ****         {
 914              		.loc 1 1244 11 view .LVU289
 915 006e 0028     		cmp	r0, #0
 916 0070 E6D1     		bne	.L58
1246:Generated_Source\PSoC5/cy_em_eeprom.c ****         }
ARM GAS  C:\Users\jens-\AppData\Local\Temp\cc4C0Tnp.s 			page 44


 917              		.loc 1 1246 13 is_stmt 1 view .LVU290
1246:Generated_Source\PSoC5/cy_em_eeprom.c ****         }
 918              		.loc 1 1246 19 is_stmt 0 view .LVU291
 919 0072 4246     		mov	r2, r8
 920 0074 0DEB8701 		add	r1, sp, r7, lsl #2
 921 0078 3046     		mov	r0, r6
 922              	.LVL100:
1246:Generated_Source\PSoC5/cy_em_eeprom.c ****         }
 923              		.loc 1 1246 19 view .LVU292
 924 007a FFF7FEFF 		bl	memcpy
 925              	.LVL101:
 926 007e DFE7     		b	.L58
 927              		.cfi_endproc
 928              	.LFE12:
 929              		.size	CheckCrcAndCopy, .-CheckCrcAndCopy
 930              		.section	.text.EraseRow,"ax",%progbits
 931              		.align	1
 932              		.syntax unified
 933              		.thumb
 934              		.thumb_func
 935              		.fpu softvfp
 936              		.type	EraseRow, %function
 937              	EraseRow:
 938              	.LVL102:
 939              	.LFB11:
1096:Generated_Source\PSoC5/cy_em_eeprom.c ****     uint32 emEepromRowAddr = rowAddr;
 940              		.loc 1 1096 1 is_stmt 1 view -0
 941              		.cfi_startproc
 942              		@ args = 0, pretend = 0, frame = 0
 943              		@ frame_needed = 0, uses_anonymous_args = 0
1096:Generated_Source\PSoC5/cy_em_eeprom.c ****     uint32 emEepromRowAddr = rowAddr;
 944              		.loc 1 1096 1 is_stmt 0 view .LVU294
 945 0000 70B5     		push	{r4, r5, r6, lr}
 946              		.cfi_def_cfa_offset 16
 947              		.cfi_offset 4, -16
 948              		.cfi_offset 5, -12
 949              		.cfi_offset 6, -8
 950              		.cfi_offset 14, -4
 951 0002 0646     		mov	r6, r0
 952 0004 0D46     		mov	r5, r1
 953 0006 1446     		mov	r4, r2
1097:Generated_Source\PSoC5/cy_em_eeprom.c ****     cy_en_em_eeprom_status_t ret = CY_EM_EEPROM_WRITE_FAIL;
 954              		.loc 1 1097 5 is_stmt 1 view .LVU295
 955              	.LVL103:
1098:Generated_Source\PSoC5/cy_em_eeprom.c **** #if (CY_PSOC6)
 956              		.loc 1 1098 5 view .LVU296
1155:Generated_Source\PSoC5/cy_em_eeprom.c **** 
 957              		.loc 1 1155 5 view .LVU297
1155:Generated_Source\PSoC5/cy_em_eeprom.c **** 
 958              		.loc 1 1155 11 is_stmt 0 view .LVU298
 959 0008 FFF7FEFF 		bl	WriteRow
 960              	.LVL104:
1157:Generated_Source\PSoC5/cy_em_eeprom.c ****     {
 961              		.loc 1 1157 5 is_stmt 1 view .LVU299
1157:Generated_Source\PSoC5/cy_em_eeprom.c ****     {
 962              		.loc 1 1157 7 is_stmt 0 view .LVU300
 963 000c 0346     		mov	r3, r0
ARM GAS  C:\Users\jens-\AppData\Local\Temp\cc4C0Tnp.s 			page 45


 964 000e 08B9     		cbnz	r0, .L64
1157:Generated_Source\PSoC5/cy_em_eeprom.c ****     {
 965              		.loc 1 1157 55 discriminator 1 view .LVU301
 966 0010 227D     		ldrb	r2, [r4, #20]	@ zero_extendqisi2
1157:Generated_Source\PSoC5/cy_em_eeprom.c ****     {
 967              		.loc 1 1157 38 discriminator 1 view .LVU302
 968 0012 1AB9     		cbnz	r2, .L67
 969              	.LVL105:
 970              	.L64:
1164:Generated_Source\PSoC5/cy_em_eeprom.c ****     {
 971              		.loc 1 1164 5 is_stmt 1 view .LVU303
1164:Generated_Source\PSoC5/cy_em_eeprom.c ****     {
 972              		.loc 1 1164 7 is_stmt 0 view .LVU304
 973 0014 03B9     		cbnz	r3, .L65
1166:Generated_Source\PSoC5/cy_em_eeprom.c ****     }
 974              		.loc 1 1166 9 is_stmt 1 view .LVU305
1166:Generated_Source\PSoC5/cy_em_eeprom.c ****     }
 975              		.loc 1 1166 32 is_stmt 0 view .LVU306
 976 0016 A660     		str	r6, [r4, #8]
 977              	.L65:
1170:Generated_Source\PSoC5/cy_em_eeprom.c **** }
 978              		.loc 1 1170 5 is_stmt 1 view .LVU307
1171:Generated_Source\PSoC5/cy_em_eeprom.c **** 
 979              		.loc 1 1171 1 is_stmt 0 view .LVU308
 980 0018 1846     		mov	r0, r3
 981 001a 70BD     		pop	{r4, r5, r6, pc}
 982              	.LVL106:
 983              	.L67:
1160:Generated_Source\PSoC5/cy_em_eeprom.c ****         ret = WriteRow(emEepromRowAddr, (uint32 *)ramBuffAddr, context);
 984              		.loc 1 1160 9 is_stmt 1 view .LVU309
1160:Generated_Source\PSoC5/cy_em_eeprom.c ****         ret = WriteRow(emEepromRowAddr, (uint32 *)ramBuffAddr, context);
 985              		.loc 1 1160 53 is_stmt 0 view .LVU310
 986 001c A069     		ldr	r0, [r4, #24]
 987              	.LVL107:
1160:Generated_Source\PSoC5/cy_em_eeprom.c ****         ret = WriteRow(emEepromRowAddr, (uint32 *)ramBuffAddr, context);
 988              		.loc 1 1160 44 view .LVU311
 989 001e 301A     		subs	r0, r6, r0
1160:Generated_Source\PSoC5/cy_em_eeprom.c ****         ret = WriteRow(emEepromRowAddr, (uint32 *)ramBuffAddr, context);
 990              		.loc 1 1160 84 view .LVU312
 991 0020 2368     		ldr	r3, [r4]
 992              	.LVL108:
1161:Generated_Source\PSoC5/cy_em_eeprom.c ****     }
 993              		.loc 1 1161 9 is_stmt 1 view .LVU313
1161:Generated_Source\PSoC5/cy_em_eeprom.c ****     }
 994              		.loc 1 1161 15 is_stmt 0 view .LVU314
 995 0022 2246     		mov	r2, r4
 996 0024 2946     		mov	r1, r5
 997 0026 1844     		add	r0, r0, r3
 998              	.LVL109:
1161:Generated_Source\PSoC5/cy_em_eeprom.c ****     }
 999              		.loc 1 1161 15 view .LVU315
 1000 0028 FFF7FEFF 		bl	WriteRow
 1001              	.LVL110:
1161:Generated_Source\PSoC5/cy_em_eeprom.c ****     }
 1002              		.loc 1 1161 15 view .LVU316
 1003 002c 0346     		mov	r3, r0
 1004              	.LVL111:
ARM GAS  C:\Users\jens-\AppData\Local\Temp\cc4C0Tnp.s 			page 46


1161:Generated_Source\PSoC5/cy_em_eeprom.c ****     }
 1005              		.loc 1 1161 15 view .LVU317
 1006 002e F1E7     		b	.L64
 1007              		.cfi_endproc
 1008              	.LFE11:
 1009              		.size	EraseRow, .-EraseRow
 1010              		.section	.text.Cy_Em_EEPROM_Init,"ax",%progbits
 1011              		.align	1
 1012              		.global	Cy_Em_EEPROM_Init
 1013              		.syntax unified
 1014              		.thumb
 1015              		.thumb_func
 1016              		.fpu softvfp
 1017              		.type	Cy_Em_EEPROM_Init, %function
 1018              	Cy_Em_EEPROM_Init:
 1019              	.LVL112:
 1020              	.LFB0:
  96:Generated_Source\PSoC5/cy_em_eeprom.c ****     cy_en_em_eeprom_status_t ret = CY_EM_EEPROM_BAD_PARAM;
 1021              		.loc 1 96 1 is_stmt 1 view -0
 1022              		.cfi_startproc
 1023              		@ args = 0, pretend = 0, frame = 0
 1024              		@ frame_needed = 0, uses_anonymous_args = 0
  96:Generated_Source\PSoC5/cy_em_eeprom.c ****     cy_en_em_eeprom_status_t ret = CY_EM_EEPROM_BAD_PARAM;
 1025              		.loc 1 96 1 is_stmt 0 view .LVU319
 1026 0000 F8B5     		push	{r3, r4, r5, r6, r7, lr}
 1027              		.cfi_def_cfa_offset 24
 1028              		.cfi_offset 3, -24
 1029              		.cfi_offset 4, -20
 1030              		.cfi_offset 5, -16
 1031              		.cfi_offset 6, -12
 1032              		.cfi_offset 7, -8
 1033              		.cfi_offset 14, -4
  97:Generated_Source\PSoC5/cy_em_eeprom.c **** 
 1034              		.loc 1 97 5 is_stmt 1 view .LVU320
 1035              	.LVL113:
  99:Generated_Source\PSoC5/cy_em_eeprom.c ****         (config->wearLevelingFactor <= CY_EM_EEPROM_MAX_WEAR_LEVELING_FACTOR) && (config->eepromSiz
 1036              		.loc 1 99 5 view .LVU321
  99:Generated_Source\PSoC5/cy_em_eeprom.c ****         (config->wearLevelingFactor <= CY_EM_EEPROM_MAX_WEAR_LEVELING_FACTOR) && (config->eepromSiz
 1037              		.loc 1 99 7 is_stmt 0 view .LVU322
 1038 0002 0029     		cmp	r1, #0
 1039 0004 3CD0     		beq	.L71
 1040 0006 0446     		mov	r4, r0
 1041 0008 0E46     		mov	r6, r1
  99:Generated_Source\PSoC5/cy_em_eeprom.c ****         (config->wearLevelingFactor <= CY_EM_EEPROM_MAX_WEAR_LEVELING_FACTOR) && (config->eepromSiz
 1042              		.loc 1 99 26 discriminator 1 view .LVU323
 1043 000a 0028     		cmp	r0, #0
 1044 000c 3BD0     		beq	.L72
  99:Generated_Source\PSoC5/cy_em_eeprom.c ****         (config->wearLevelingFactor <= CY_EM_EEPROM_MAX_WEAR_LEVELING_FACTOR) && (config->eepromSiz
 1045              		.loc 1 99 75 discriminator 2 view .LVU324
 1046 000e C368     		ldr	r3, [r0, #12]
  99:Generated_Source\PSoC5/cy_em_eeprom.c ****         (config->wearLevelingFactor <= CY_EM_EEPROM_MAX_WEAR_LEVELING_FACTOR) && (config->eepromSiz
 1047              		.loc 1 99 46 discriminator 2 view .LVU325
 1048 0010 002B     		cmp	r3, #0
 1049 0012 3AD0     		beq	.L73
 100:Generated_Source\PSoC5/cy_em_eeprom.c ****     {
 1050              		.loc 1 100 16 discriminator 3 view .LVU326
 1051 0014 4368     		ldr	r3, [r0, #4]
ARM GAS  C:\Users\jens-\AppData\Local\Temp\cc4C0Tnp.s 			page 47


  99:Generated_Source\PSoC5/cy_em_eeprom.c ****         (config->wearLevelingFactor <= CY_EM_EEPROM_MAX_WEAR_LEVELING_FACTOR) && (config->eepromSiz
 1052              		.loc 1 99 98 discriminator 3 view .LVU327
 1053 0016 0A2B     		cmp	r3, #10
 1054 0018 39D8     		bhi	.L74
 100:Generated_Source\PSoC5/cy_em_eeprom.c ****     {
 1055              		.loc 1 100 89 view .LVU328
 1056 001a 0768     		ldr	r7, [r0]
 100:Generated_Source\PSoC5/cy_em_eeprom.c ****     {
 1057              		.loc 1 100 79 view .LVU329
 1058 001c 002F     		cmp	r7, #0
 1059 001e 38D0     		beq	.L75
 102:Generated_Source\PSoC5/cy_em_eeprom.c **** 
 1060              		.loc 1 102 9 is_stmt 1 view .LVU330
 102:Generated_Source\PSoC5/cy_em_eeprom.c **** 
 1061              		.loc 1 102 15 is_stmt 0 view .LVU331
 1062 0020 FFF7FEFF 		bl	CheckRanges
 1063              	.LVL114:
 104:Generated_Source\PSoC5/cy_em_eeprom.c ****         {
 1064              		.loc 1 104 9 is_stmt 1 view .LVU332
 104:Generated_Source\PSoC5/cy_em_eeprom.c ****         {
 1065              		.loc 1 104 11 is_stmt 0 view .LVU333
 1066 0024 0546     		mov	r5, r0
 1067 0026 60BB     		cbnz	r0, .L69
 107:Generated_Source\PSoC5/cy_em_eeprom.c ****             context->wearLevelingFactor = config->wearLevelingFactor;
 1068              		.loc 1 107 13 is_stmt 1 view .LVU334
 107:Generated_Source\PSoC5/cy_em_eeprom.c ****             context->wearLevelingFactor = config->wearLevelingFactor;
 1069              		.loc 1 107 33 is_stmt 0 view .LVU335
 1070 0028 F760     		str	r7, [r6, #12]
 108:Generated_Source\PSoC5/cy_em_eeprom.c ****             context->redundantCopy = config->redundantCopy;
 1071              		.loc 1 108 13 is_stmt 1 view .LVU336
 108:Generated_Source\PSoC5/cy_em_eeprom.c ****             context->redundantCopy = config->redundantCopy;
 1072              		.loc 1 108 49 is_stmt 0 view .LVU337
 1073 002a 6368     		ldr	r3, [r4, #4]
 108:Generated_Source\PSoC5/cy_em_eeprom.c ****             context->redundantCopy = config->redundantCopy;
 1074              		.loc 1 108 41 view .LVU338
 1075 002c 3361     		str	r3, [r6, #16]
 109:Generated_Source\PSoC5/cy_em_eeprom.c ****             context->blockingWrite = config->blockingWrite;
 1076              		.loc 1 109 13 is_stmt 1 view .LVU339
 109:Generated_Source\PSoC5/cy_em_eeprom.c ****             context->blockingWrite = config->blockingWrite;
 1077              		.loc 1 109 44 is_stmt 0 view .LVU340
 1078 002e 237A     		ldrb	r3, [r4, #8]	@ zero_extendqisi2
 109:Generated_Source\PSoC5/cy_em_eeprom.c ****             context->blockingWrite = config->blockingWrite;
 1079              		.loc 1 109 36 view .LVU341
 1080 0030 3375     		strb	r3, [r6, #20]
 110:Generated_Source\PSoC5/cy_em_eeprom.c ****             context->userFlashStartAddr = config->userFlashStartAddr;
 1081              		.loc 1 110 13 is_stmt 1 view .LVU342
 110:Generated_Source\PSoC5/cy_em_eeprom.c ****             context->userFlashStartAddr = config->userFlashStartAddr;
 1082              		.loc 1 110 44 is_stmt 0 view .LVU343
 1083 0032 637A     		ldrb	r3, [r4, #9]	@ zero_extendqisi2
 110:Generated_Source\PSoC5/cy_em_eeprom.c ****             context->userFlashStartAddr = config->userFlashStartAddr;
 1084              		.loc 1 110 36 view .LVU344
 1085 0034 7375     		strb	r3, [r6, #21]
 111:Generated_Source\PSoC5/cy_em_eeprom.c ****             /* Store frequently used data for internal use */
 1086              		.loc 1 111 13 is_stmt 1 view .LVU345
 111:Generated_Source\PSoC5/cy_em_eeprom.c ****             /* Store frequently used data for internal use */
 1087              		.loc 1 111 49 is_stmt 0 view .LVU346
 1088 0036 E368     		ldr	r3, [r4, #12]
ARM GAS  C:\Users\jens-\AppData\Local\Temp\cc4C0Tnp.s 			page 48


 111:Generated_Source\PSoC5/cy_em_eeprom.c ****             /* Store frequently used data for internal use */
 1089              		.loc 1 111 41 view .LVU347
 1090 0038 B361     		str	r3, [r6, #24]
 113:Generated_Source\PSoC5/cy_em_eeprom.c ****             context->wlEndAddr = ((CY_EM_EEPROM_GET_EEPROM_SIZE(context->numberOfRows) * config->we
 1091              		.loc 1 113 13 is_stmt 1 view .LVU348
 113:Generated_Source\PSoC5/cy_em_eeprom.c ****             context->wlEndAddr = ((CY_EM_EEPROM_GET_EEPROM_SIZE(context->numberOfRows) * config->we
 1092              		.loc 1 113 37 is_stmt 0 view .LVU349
 1093 003a 2368     		ldr	r3, [r4]
 1094 003c DA09     		lsrs	r2, r3, #7
 1095 003e 13F07F03 		ands	r3, r3, #127
 1096 0042 00D0     		beq	.L70
 1097 0044 0123     		movs	r3, #1
 1098              	.L70:
 113:Generated_Source\PSoC5/cy_em_eeprom.c ****             context->wlEndAddr = ((CY_EM_EEPROM_GET_EEPROM_SIZE(context->numberOfRows) * config->we
 1099              		.loc 1 113 37 discriminator 4 view .LVU350
 1100 0046 1344     		add	r3, r3, r2
 113:Generated_Source\PSoC5/cy_em_eeprom.c ****             context->wlEndAddr = ((CY_EM_EEPROM_GET_EEPROM_SIZE(context->numberOfRows) * config->we
 1101              		.loc 1 113 35 discriminator 4 view .LVU351
 1102 0048 7360     		str	r3, [r6, #4]
 114:Generated_Source\PSoC5/cy_em_eeprom.c ****                     config->userFlashStartAddr);
 1103              		.loc 1 114 13 is_stmt 1 discriminator 4 view .LVU352
 114:Generated_Source\PSoC5/cy_em_eeprom.c ****                     config->userFlashStartAddr);
 1104              		.loc 1 114 96 is_stmt 0 discriminator 4 view .LVU353
 1105 004a 6268     		ldr	r2, [r4, #4]
 114:Generated_Source\PSoC5/cy_em_eeprom.c ****                     config->userFlashStartAddr);
 1106              		.loc 1 114 88 discriminator 4 view .LVU354
 1107 004c 02FB03F2 		mul	r2, r2, r3
 115:Generated_Source\PSoC5/cy_em_eeprom.c ****             /* Find last written EEPROM row and store it for quick access */
 1108              		.loc 1 115 27 discriminator 4 view .LVU355
 1109 0050 E368     		ldr	r3, [r4, #12]
 114:Generated_Source\PSoC5/cy_em_eeprom.c ****                     config->userFlashStartAddr);
 1110              		.loc 1 114 118 discriminator 4 view .LVU356
 1111 0052 03EB0223 		add	r3, r3, r2, lsl #8
 114:Generated_Source\PSoC5/cy_em_eeprom.c ****                     config->userFlashStartAddr);
 1112              		.loc 1 114 32 discriminator 4 view .LVU357
 1113 0056 3446     		mov	r4, r6
 1114              	.LVL115:
 114:Generated_Source\PSoC5/cy_em_eeprom.c ****                     config->userFlashStartAddr);
 1115              		.loc 1 114 32 discriminator 4 view .LVU358
 1116 0058 44F8083B 		str	r3, [r4], #8
 117:Generated_Source\PSoC5/cy_em_eeprom.c **** 
 1117              		.loc 1 117 13 is_stmt 1 discriminator 4 view .LVU359
 1118 005c 3146     		mov	r1, r6
 1119 005e 2046     		mov	r0, r4
 1120              	.LVL116:
 117:Generated_Source\PSoC5/cy_em_eeprom.c **** 
 1121              		.loc 1 117 13 is_stmt 0 discriminator 4 view .LVU360
 1122 0060 FFF7FEFF 		bl	FindLastWrittenRow
 1123              	.LVL117:
 119:Generated_Source\PSoC5/cy_em_eeprom.c ****             {
 1124              		.loc 1 119 13 is_stmt 1 discriminator 4 view .LVU361
 119:Generated_Source\PSoC5/cy_em_eeprom.c ****             {
 1125              		.loc 1 119 23 is_stmt 0 discriminator 4 view .LVU362
 1126 0064 B368     		ldr	r3, [r6, #8]
 1127 0066 1B68     		ldr	r3, [r3]
 119:Generated_Source\PSoC5/cy_em_eeprom.c ****             {
 1128              		.loc 1 119 15 discriminator 4 view .LVU363
ARM GAS  C:\Users\jens-\AppData\Local\Temp\cc4C0Tnp.s 			page 49


 1129 0068 5BB9     		cbnz	r3, .L69
 119:Generated_Source\PSoC5/cy_em_eeprom.c ****             {
 1130              		.loc 1 119 90 discriminator 1 view .LVU364
 1131 006a 337D     		ldrb	r3, [r6, #20]	@ zero_extendqisi2
 119:Generated_Source\PSoC5/cy_em_eeprom.c ****             {
 1132              		.loc 1 119 73 discriminator 1 view .LVU365
 1133 006c 4BB1     		cbz	r3, .L69
 124:Generated_Source\PSoC5/cy_em_eeprom.c ****                 
 1134              		.loc 1 124 17 is_stmt 1 view .LVU366
 124:Generated_Source\PSoC5/cy_em_eeprom.c ****                 
 1135              		.loc 1 124 23 is_stmt 0 view .LVU367
 1136 006e 3046     		mov	r0, r6
 1137 0070 FFF7FEFF 		bl	FillChecksum
 1138              	.LVL118:
 1139 0074 0546     		mov	r5, r0
 1140              	.LVL119:
 127:Generated_Source\PSoC5/cy_em_eeprom.c ****             }
 1141              		.loc 1 127 17 is_stmt 1 view .LVU368
 1142 0076 3146     		mov	r1, r6
 1143 0078 2046     		mov	r0, r4
 1144 007a FFF7FEFF 		bl	FindLastWrittenRow
 1145              	.LVL120:
 1146 007e 00E0     		b	.L69
 1147              	.LVL121:
 1148              	.L71:
  97:Generated_Source\PSoC5/cy_em_eeprom.c **** 
 1149              		.loc 1 97 30 is_stmt 0 view .LVU369
 1150 0080 0125     		movs	r5, #1
 1151              	.LVL122:
 1152              	.L69:
 132:Generated_Source\PSoC5/cy_em_eeprom.c **** }
 1153              		.loc 1 132 5 is_stmt 1 view .LVU370
 133:Generated_Source\PSoC5/cy_em_eeprom.c **** 
 1154              		.loc 1 133 1 is_stmt 0 view .LVU371
 1155 0082 2846     		mov	r0, r5
 1156 0084 F8BD     		pop	{r3, r4, r5, r6, r7, pc}
 1157              	.LVL123:
 1158              	.L72:
  97:Generated_Source\PSoC5/cy_em_eeprom.c **** 
 1159              		.loc 1 97 30 view .LVU372
 1160 0086 0125     		movs	r5, #1
 1161 0088 FBE7     		b	.L69
 1162              	.L73:
 1163 008a 0125     		movs	r5, #1
 1164 008c F9E7     		b	.L69
 1165              	.L74:
 1166 008e 0125     		movs	r5, #1
 1167 0090 F7E7     		b	.L69
 1168              	.L75:
 1169 0092 0125     		movs	r5, #1
 1170 0094 F5E7     		b	.L69
 1171              		.cfi_endproc
 1172              	.LFE0:
 1173              		.size	Cy_Em_EEPROM_Init, .-Cy_Em_EEPROM_Init
 1174              		.section	.text.Cy_Em_EEPROM_Read,"ax",%progbits
 1175              		.align	1
 1176              		.global	Cy_Em_EEPROM_Read
ARM GAS  C:\Users\jens-\AppData\Local\Temp\cc4C0Tnp.s 			page 50


 1177              		.syntax unified
 1178              		.thumb
 1179              		.thumb_func
 1180              		.fpu softvfp
 1181              		.type	Cy_Em_EEPROM_Read, %function
 1182              	Cy_Em_EEPROM_Read:
 1183              	.LVL124:
 1184              	.LFB1:
 173:Generated_Source\PSoC5/cy_em_eeprom.c ****     cy_en_em_eeprom_status_t ret = CY_EM_EEPROM_BAD_PARAM;
 1185              		.loc 1 173 1 is_stmt 1 view -0
 1186              		.cfi_startproc
 1187              		@ args = 0, pretend = 0, frame = 32
 1188              		@ frame_needed = 0, uses_anonymous_args = 0
 173:Generated_Source\PSoC5/cy_em_eeprom.c ****     cy_en_em_eeprom_status_t ret = CY_EM_EEPROM_BAD_PARAM;
 1189              		.loc 1 173 1 is_stmt 0 view .LVU374
 1190 0000 2DE9F04F 		push	{r4, r5, r6, r7, r8, r9, r10, fp, lr}
 1191              		.cfi_def_cfa_offset 36
 1192              		.cfi_offset 4, -36
 1193              		.cfi_offset 5, -32
 1194              		.cfi_offset 6, -28
 1195              		.cfi_offset 7, -24
 1196              		.cfi_offset 8, -20
 1197              		.cfi_offset 9, -16
 1198              		.cfi_offset 10, -12
 1199              		.cfi_offset 11, -8
 1200              		.cfi_offset 14, -4
 1201 0004 8BB0     		sub	sp, sp, #44
 1202              		.cfi_def_cfa_offset 80
 174:Generated_Source\PSoC5/cy_em_eeprom.c ****     uint32 i;
 1203              		.loc 1 174 5 is_stmt 1 view .LVU375
 1204              	.LVL125:
 175:Generated_Source\PSoC5/cy_em_eeprom.c ****     uint32 numBytesToRead;
 1205              		.loc 1 175 5 view .LVU376
 176:Generated_Source\PSoC5/cy_em_eeprom.c ****     uint32 curEepromBaseAddr;
 1206              		.loc 1 176 5 view .LVU377
 177:Generated_Source\PSoC5/cy_em_eeprom.c ****     uint32 curRowOffset;
 1207              		.loc 1 177 5 view .LVU378
 178:Generated_Source\PSoC5/cy_em_eeprom.c ****     uint32 startRowAddr;
 1208              		.loc 1 178 5 view .LVU379
 179:Generated_Source\PSoC5/cy_em_eeprom.c ****     uint32 actEepromRowNum;
 1209              		.loc 1 179 5 view .LVU380
 180:Generated_Source\PSoC5/cy_em_eeprom.c ****     uint32 curRdEepromRowNum = 0u;
 1210              		.loc 1 180 5 view .LVU381
 181:Generated_Source\PSoC5/cy_em_eeprom.c ****     uint32 dataStartEepromRowNum = 0u;
 1211              		.loc 1 181 5 view .LVU382
 182:Generated_Source\PSoC5/cy_em_eeprom.c ****     uint32 eeData = (uint32) eepromData; /* To avoid the pointer arithmetic with void */
 1212              		.loc 1 182 5 view .LVU383
 183:Generated_Source\PSoC5/cy_em_eeprom.c **** 
 1213              		.loc 1 183 5 view .LVU384
 183:Generated_Source\PSoC5/cy_em_eeprom.c **** 
 1214              		.loc 1 183 12 is_stmt 0 view .LVU385
 1215 0006 0691     		str	r1, [sp, #24]
 1216              	.LVL126:
 186:Generated_Source\PSoC5/cy_em_eeprom.c ****     {
 1217              		.loc 1 186 5 is_stmt 1 view .LVU386
 186:Generated_Source\PSoC5/cy_em_eeprom.c ****     {
 1218              		.loc 1 186 7 is_stmt 0 view .LVU387
ARM GAS  C:\Users\jens-\AppData\Local\Temp\cc4C0Tnp.s 			page 51


 1219 0008 0292     		str	r2, [sp, #8]
 1220 000a 002A     		cmp	r2, #0
 1221 000c 00F0EB80 		beq	.L99
 1222 0010 8146     		mov	r9, r0
 1223 0012 1F46     		mov	r7, r3
 186:Generated_Source\PSoC5/cy_em_eeprom.c ****     {
 1224              		.loc 1 186 31 discriminator 1 view .LVU388
 1225 0014 0244     		add	r2, r2, r0
 1226              	.LVL127:
 186:Generated_Source\PSoC5/cy_em_eeprom.c ****     {
 1227              		.loc 1 186 31 discriminator 1 view .LVU389
 1228 0016 0792     		str	r2, [sp, #28]
 186:Generated_Source\PSoC5/cy_em_eeprom.c ****     {
 1229              		.loc 1 186 50 discriminator 1 view .LVU390
 1230 0018 DB68     		ldr	r3, [r3, #12]
 1231              	.LVL128:
 186:Generated_Source\PSoC5/cy_em_eeprom.c ****     {
 1232              		.loc 1 186 21 discriminator 1 view .LVU391
 1233 001a 9A42     		cmp	r2, r3
 1234 001c 00F2E980 		bhi	.L100
 186:Generated_Source\PSoC5/cy_em_eeprom.c ****     {
 1235              		.loc 1 186 65 discriminator 2 view .LVU392
 1236 0020 0029     		cmp	r1, #0
 1237 0022 00F0E980 		beq	.L101
 1238              	.LBB2:
 188:Generated_Source\PSoC5/cy_em_eeprom.c ****         uint32 rdSize = size;
 1239              		.loc 1 188 9 is_stmt 1 view .LVU393
 1240              	.LVL129:
 189:Generated_Source\PSoC5/cy_em_eeprom.c ****         /* Get the sequence number of the last written row */
 1241              		.loc 1 189 9 view .LVU394
 191:Generated_Source\PSoC5/cy_em_eeprom.c ****         uint32 updateAddrFlag = 0u;
 1242              		.loc 1 191 9 view .LVU395
 191:Generated_Source\PSoC5/cy_em_eeprom.c ****         uint32 updateAddrFlag = 0u;
 1243              		.loc 1 191 25 is_stmt 0 view .LVU396
 1244 0026 B868     		ldr	r0, [r7, #8]
 1245              	.LVL130:
 191:Generated_Source\PSoC5/cy_em_eeprom.c ****         uint32 updateAddrFlag = 0u;
 1246              		.loc 1 191 16 view .LVU397
 1247 0028 0368     		ldr	r3, [r0]
 1248 002a 0993     		str	r3, [sp, #36]
 1249              	.LVL131:
 192:Generated_Source\PSoC5/cy_em_eeprom.c **** 
 1250              		.loc 1 192 9 is_stmt 1 view .LVU398
 197:Generated_Source\PSoC5/cy_em_eeprom.c ****                               (rdAddr / CY_EM_EEPROM_EEPROM_DATA_LEN)) + 1u;
 1251              		.loc 1 197 9 view .LVU399
 197:Generated_Source\PSoC5/cy_em_eeprom.c ****                               (rdAddr / CY_EM_EEPROM_EEPROM_DATA_LEN)) + 1u;
 1252              		.loc 1 197 51 is_stmt 0 view .LVU400
 1253 002c 531E     		subs	r3, r2, #1
 1254              	.LVL132:
 198:Generated_Source\PSoC5/cy_em_eeprom.c **** 
 1255              		.loc 1 198 39 view .LVU401
 1256 002e 4FEAD912 		lsr	r2, r9, #7
 197:Generated_Source\PSoC5/cy_em_eeprom.c ****                               (rdAddr / CY_EM_EEPROM_EEPROM_DATA_LEN)) + 1u;
 1257              		.loc 1 197 89 view .LVU402
 1258 0032 C2EBD313 		rsb	r3, r2, r3, lsr #7
 197:Generated_Source\PSoC5/cy_em_eeprom.c ****                               (rdAddr / CY_EM_EEPROM_EEPROM_DATA_LEN)) + 1u;
 1259              		.loc 1 197 16 view .LVU403
ARM GAS  C:\Users\jens-\AppData\Local\Temp\cc4C0Tnp.s 			page 52


 1260 0036 0133     		adds	r3, r3, #1
 1261 0038 9C46     		mov	ip, r3
 1262              	.LVL133:
 204:Generated_Source\PSoC5/cy_em_eeprom.c ****                               (CY_EM_EEPROM_FLASH_SIZEOF_ROW * context->numberOfRows)) *
 1263              		.loc 1 204 9 is_stmt 1 view .LVU404
 206:Generated_Source\PSoC5/cy_em_eeprom.c ****                                context->userFlashStartAddr;
 1264              		.loc 1 206 71 is_stmt 0 view .LVU405
 1265 003a 7A68     		ldr	r2, [r7, #4]
 204:Generated_Source\PSoC5/cy_em_eeprom.c ****                               (CY_EM_EEPROM_FLASH_SIZEOF_ROW * context->numberOfRows)) *
 1266              		.loc 1 204 64 view .LVU406
 1267 003c BC69     		ldr	r4, [r7, #24]
 204:Generated_Source\PSoC5/cy_em_eeprom.c ****                               (CY_EM_EEPROM_FLASH_SIZEOF_ROW * context->numberOfRows)) *
 1268              		.loc 1 204 55 view .LVU407
 1269 003e 031B     		subs	r3, r0, r4
 1270              	.LVL134:
 205:Generated_Source\PSoC5/cy_em_eeprom.c ****                               (CY_EM_EEPROM_FLASH_SIZEOF_ROW * context->numberOfRows)) +
 1271              		.loc 1 205 62 view .LVU408
 1272 0040 1502     		lsls	r5, r2, #8
 204:Generated_Source\PSoC5/cy_em_eeprom.c ****                               (CY_EM_EEPROM_FLASH_SIZEOF_ROW * context->numberOfRows)) *
 1273              		.loc 1 204 86 view .LVU409
 1274 0042 B3FBF5F3 		udiv	r3, r3, r5
 205:Generated_Source\PSoC5/cy_em_eeprom.c ****                               (CY_EM_EEPROM_FLASH_SIZEOF_ROW * context->numberOfRows)) +
 1275              		.loc 1 205 88 view .LVU410
 1276 0046 03FB02F3 		mul	r3, r3, r2
 204:Generated_Source\PSoC5/cy_em_eeprom.c ****                               (CY_EM_EEPROM_FLASH_SIZEOF_ROW * context->numberOfRows)) *
 1277              		.loc 1 204 27 view .LVU411
 1278 004a 04EB0323 		add	r3, r4, r3, lsl #8
 1279 004e 0393     		str	r3, [sp, #12]
 1280              	.LVL135:
 210:Generated_Source\PSoC5/cy_em_eeprom.c ****         {
 1281              		.loc 1 210 9 is_stmt 1 view .LVU412
 210:Generated_Source\PSoC5/cy_em_eeprom.c ****         {
 1282              		.loc 1 210 15 is_stmt 0 view .LVU413
 1283 0050 0024     		movs	r4, #0
 210:Generated_Source\PSoC5/cy_em_eeprom.c ****         {
 1284              		.loc 1 210 9 view .LVU414
 1285 0052 00E0     		b	.L79
 1286              	.LVL136:
 1287              	.L80:
 210:Generated_Source\PSoC5/cy_em_eeprom.c ****         {
 1288              		.loc 1 210 48 is_stmt 1 view .LVU415
 210:Generated_Source\PSoC5/cy_em_eeprom.c ****         {
 1289              		.loc 1 210 49 is_stmt 0 view .LVU416
 1290 0054 0134     		adds	r4, r4, #1
 1291              	.LVL137:
 1292              	.L79:
 210:Generated_Source\PSoC5/cy_em_eeprom.c ****         {
 1293              		.loc 1 210 21 is_stmt 1 discriminator 1 view .LVU417
 210:Generated_Source\PSoC5/cy_em_eeprom.c ****         {
 1294              		.loc 1 210 9 is_stmt 0 discriminator 1 view .LVU418
 1295 0056 A242     		cmp	r2, r4
 1296 0058 08D9     		bls	.L110
 212:Generated_Source\PSoC5/cy_em_eeprom.c ****             {
 1297              		.loc 1 212 13 is_stmt 1 view .LVU419
 212:Generated_Source\PSoC5/cy_em_eeprom.c ****             {
 1298              		.loc 1 212 22 is_stmt 0 view .LVU420
 1299 005a B9EBC41F 		cmp	r9, r4, lsl #7
ARM GAS  C:\Users\jens-\AppData\Local\Temp\cc4C0Tnp.s 			page 53


 1300 005e F9D3     		bcc	.L80
 212:Generated_Source\PSoC5/cy_em_eeprom.c ****             {
 1301              		.loc 1 212 22 discriminator 1 view .LVU421
 1302 0060 631C     		adds	r3, r4, #1
 1303 0062 DB01     		lsls	r3, r3, #7
 1304 0064 013B     		subs	r3, r3, #1
 1305 0066 4B45     		cmp	r3, r9
 1306 0068 F4D3     		bcc	.L80
 1307 006a 00E0     		b	.L81
 1308              	.L110:
 212:Generated_Source\PSoC5/cy_em_eeprom.c ****             {
 1309              		.loc 1 212 22 discriminator 1 view .LVU422
 1310              	.LBE2:
 181:Generated_Source\PSoC5/cy_em_eeprom.c ****     uint32 dataStartEepromRowNum = 0u;
 1311              		.loc 1 181 12 view .LVU423
 1312 006c 0024     		movs	r4, #0
 1313              	.LVL138:
 1314              	.L81:
 1315              	.LBB9:
 221:Generated_Source\PSoC5/cy_em_eeprom.c **** 
 1316              		.loc 1 221 9 is_stmt 1 view .LVU424
 221:Generated_Source\PSoC5/cy_em_eeprom.c **** 
 1317              		.loc 1 221 51 is_stmt 0 view .LVU425
 1318 006e 039B     		ldr	r3, [sp, #12]
 1319 0070 C01A     		subs	r0, r0, r3
 1320              	.LVL139:
 221:Generated_Source\PSoC5/cy_em_eeprom.c **** 
 1321              		.loc 1 221 25 view .LVU426
 1322 0072 020A     		lsrs	r2, r0, #8
 1323 0074 0592     		str	r2, [sp, #20]
 1324              	.LVL140:
 224:Generated_Source\PSoC5/cy_em_eeprom.c ****         {
 1325              		.loc 1 224 9 is_stmt 1 view .LVU427
 224:Generated_Source\PSoC5/cy_em_eeprom.c ****         {
 1326              		.loc 1 224 19 is_stmt 0 view .LVU428
 1327 0076 3B69     		ldr	r3, [r7, #16]
 224:Generated_Source\PSoC5/cy_em_eeprom.c ****         {
 1328              		.loc 1 224 11 view .LVU429
 1329 0078 012B     		cmp	r3, #1
 1330 007a 09D9     		bls	.L102
 1331              	.LBB3:
 226:Generated_Source\PSoC5/cy_em_eeprom.c **** 
 1332              		.loc 1 226 13 is_stmt 1 view .LVU430
 226:Generated_Source\PSoC5/cy_em_eeprom.c **** 
 1333              		.loc 1 226 64 is_stmt 0 view .LVU431
 1334 007c 6346     		mov	r3, ip
 1335 007e E318     		adds	r3, r4, r3
 226:Generated_Source\PSoC5/cy_em_eeprom.c **** 
 1336              		.loc 1 226 20 view .LVU432
 1337 0080 013B     		subs	r3, r3, #1
 1338              	.LVL141:
 229:Generated_Source\PSoC5/cy_em_eeprom.c ****                               ((dataEndEepromRowNum > actEepromRowNum) ? 1u : 0u);
 1339              		.loc 1 229 13 is_stmt 1 view .LVU433
 229:Generated_Source\PSoC5/cy_em_eeprom.c ****                               ((dataEndEepromRowNum > actEepromRowNum) ? 1u : 0u);
 1340              		.loc 1 229 77 is_stmt 0 view .LVU434
 1341 0082 9442     		cmp	r4, r2
 1342 0084 12D8     		bhi	.L103
ARM GAS  C:\Users\jens-\AppData\Local\Temp\cc4C0Tnp.s 			page 54


 229:Generated_Source\PSoC5/cy_em_eeprom.c ****                               ((dataEndEepromRowNum > actEepromRowNum) ? 1u : 0u);
 1343              		.loc 1 229 77 discriminator 1 view .LVU435
 1344 0086 9A42     		cmp	r2, r3
 1345 0088 13D2     		bcs	.L104
 229:Generated_Source\PSoC5/cy_em_eeprom.c ****                               ((dataEndEepromRowNum > actEepromRowNum) ? 1u : 0u);
 1346              		.loc 1 229 77 view .LVU436
 1347 008a 0123     		movs	r3, #1
 1348              	.LVL142:
 229:Generated_Source\PSoC5/cy_em_eeprom.c ****                               ((dataEndEepromRowNum > actEepromRowNum) ? 1u : 0u);
 1349              		.loc 1 229 77 view .LVU437
 1350 008c 0493     		str	r3, [sp, #16]
 1351 008e 01E0     		b	.L83
 1352              	.LVL143:
 1353              	.L102:
 229:Generated_Source\PSoC5/cy_em_eeprom.c ****                               ((dataEndEepromRowNum > actEepromRowNum) ? 1u : 0u);
 1354              		.loc 1 229 77 view .LVU438
 1355              	.LBE3:
 192:Generated_Source\PSoC5/cy_em_eeprom.c **** 
 1356              		.loc 1 192 16 view .LVU439
 1357 0090 0023     		movs	r3, #0
 1358 0092 0493     		str	r3, [sp, #16]
 1359              	.L83:
 1360              	.LVL144:
 234:Generated_Source\PSoC5/cy_em_eeprom.c ****         {
 1361              		.loc 1 234 9 is_stmt 1 view .LVU440
 188:Generated_Source\PSoC5/cy_em_eeprom.c ****         uint32 rdSize = size;
 1362              		.loc 1 188 16 is_stmt 0 view .LVU441
 1363 0094 CB46     		mov	fp, r9
 1364              	.LBE9:
 183:Generated_Source\PSoC5/cy_em_eeprom.c **** 
 1365              		.loc 1 183 12 view .LVU442
 1366 0096 0E46     		mov	r6, r1
 1367              	.LBB10:
 234:Generated_Source\PSoC5/cy_em_eeprom.c ****         {
 1368              		.loc 1 234 15 view .LVU443
 1369 0098 4FF00008 		mov	r8, #0
 1370              	.LBE10:
 174:Generated_Source\PSoC5/cy_em_eeprom.c ****     uint32 i;
 1371              		.loc 1 174 30 view .LVU444
 1372 009c 4FF0010A 		mov	r10, #1
 1373 00a0 CDF82090 		str	r9, [sp, #32]
 1374 00a4 B946     		mov	r9, r7
 1375              	.LVL145:
 174:Generated_Source\PSoC5/cy_em_eeprom.c ****     uint32 i;
 1376              		.loc 1 174 30 view .LVU445
 1377 00a6 5746     		mov	r7, r10
 1378              	.LVL146:
 174:Generated_Source\PSoC5/cy_em_eeprom.c ****     uint32 i;
 1379              		.loc 1 174 30 view .LVU446
 1380 00a8 E246     		mov	r10, ip
 1381              	.LBB11:
 234:Generated_Source\PSoC5/cy_em_eeprom.c ****         {
 1382              		.loc 1 234 9 view .LVU447
 1383 00aa 12E0     		b	.L84
 1384              	.LVL147:
 1385              	.L103:
 1386              	.LBB4:
ARM GAS  C:\Users\jens-\AppData\Local\Temp\cc4C0Tnp.s 			page 55


 229:Generated_Source\PSoC5/cy_em_eeprom.c ****                               ((dataEndEepromRowNum > actEepromRowNum) ? 1u : 0u);
 1387              		.loc 1 229 77 view .LVU448
 1388 00ac 0123     		movs	r3, #1
 1389              	.LVL148:
 229:Generated_Source\PSoC5/cy_em_eeprom.c ****                               ((dataEndEepromRowNum > actEepromRowNum) ? 1u : 0u);
 1390              		.loc 1 229 77 view .LVU449
 1391 00ae 0493     		str	r3, [sp, #16]
 1392 00b0 F0E7     		b	.L83
 1393              	.LVL149:
 1394              	.L104:
 229:Generated_Source\PSoC5/cy_em_eeprom.c ****                               ((dataEndEepromRowNum > actEepromRowNum) ? 1u : 0u);
 1395              		.loc 1 229 77 view .LVU450
 1396 00b2 0023     		movs	r3, #0
 1397              	.LVL150:
 229:Generated_Source\PSoC5/cy_em_eeprom.c ****                               ((dataEndEepromRowNum > actEepromRowNum) ? 1u : 0u);
 1398              		.loc 1 229 77 view .LVU451
 1399 00b4 0493     		str	r3, [sp, #16]
 1400 00b6 EDE7     		b	.L83
 1401              	.LVL151:
 1402              	.L105:
 229:Generated_Source\PSoC5/cy_em_eeprom.c ****                               ((dataEndEepromRowNum > actEepromRowNum) ? 1u : 0u);
 1403              		.loc 1 229 77 view .LVU452
 1404              	.LBE4:
 248:Generated_Source\PSoC5/cy_em_eeprom.c ****             }
 1405              		.loc 1 248 32 view .LVU453
 1406 00b8 029D     		ldr	r5, [sp, #8]
 1407 00ba 19E0     		b	.L85
 1408              	.LVL152:
 1409              	.L87:
 280:Generated_Source\PSoC5/cy_em_eeprom.c ****                              (void *)(startRowAddr + curRowOffset),
 1410              		.loc 1 280 17 is_stmt 1 view .LVU454
 280:Generated_Source\PSoC5/cy_em_eeprom.c ****                              (void *)(startRowAddr + curRowOffset),
 1411              		.loc 1 280 23 is_stmt 0 view .LVU455
 1412 00bc 2A46     		mov	r2, r5
 1413 00be 0144     		add	r1, r1, r0
 1414              	.LVL153:
 280:Generated_Source\PSoC5/cy_em_eeprom.c ****                              (void *)(startRowAddr + curRowOffset),
 1415              		.loc 1 280 23 view .LVU456
 1416 00c0 3046     		mov	r0, r6
 1417              	.LVL154:
 280:Generated_Source\PSoC5/cy_em_eeprom.c ****                              (void *)(startRowAddr + curRowOffset),
 1418              		.loc 1 280 23 view .LVU457
 1419 00c2 FFF7FEFF 		bl	memcpy
 1420              	.LVL155:
 285:Generated_Source\PSoC5/cy_em_eeprom.c ****             }
 1421              		.loc 1 285 17 is_stmt 1 view .LVU458
 1422              	.L89:
 289:Generated_Source\PSoC5/cy_em_eeprom.c ****             rdSize -= numBytesToRead;
 1423              		.loc 1 289 13 discriminator 2 view .LVU459
 289:Generated_Source\PSoC5/cy_em_eeprom.c ****             rdSize -= numBytesToRead;
 1424              		.loc 1 289 20 is_stmt 0 discriminator 2 view .LVU460
 1425 00c6 AB44     		add	fp, fp, r5
 1426              	.LVL156:
 290:Generated_Source\PSoC5/cy_em_eeprom.c ****             eeData += numBytesToRead;
 1427              		.loc 1 290 13 is_stmt 1 discriminator 2 view .LVU461
 290:Generated_Source\PSoC5/cy_em_eeprom.c ****             eeData += numBytesToRead;
 1428              		.loc 1 290 20 is_stmt 0 discriminator 2 view .LVU462
ARM GAS  C:\Users\jens-\AppData\Local\Temp\cc4C0Tnp.s 			page 56


 1429 00c8 029B     		ldr	r3, [sp, #8]
 1430 00ca 5B1B     		subs	r3, r3, r5
 1431 00cc 0293     		str	r3, [sp, #8]
 1432              	.LVL157:
 291:Generated_Source\PSoC5/cy_em_eeprom.c ****             curRdEepromRowNum++;
 1433              		.loc 1 291 13 is_stmt 1 discriminator 2 view .LVU463
 291:Generated_Source\PSoC5/cy_em_eeprom.c ****             curRdEepromRowNum++;
 1434              		.loc 1 291 20 is_stmt 0 discriminator 2 view .LVU464
 1435 00ce 2E44     		add	r6, r6, r5
 1436              	.LVL158:
 292:Generated_Source\PSoC5/cy_em_eeprom.c ****         }
 1437              		.loc 1 292 13 is_stmt 1 discriminator 2 view .LVU465
 292:Generated_Source\PSoC5/cy_em_eeprom.c ****         }
 1438              		.loc 1 292 30 is_stmt 0 discriminator 2 view .LVU466
 1439 00d0 0134     		adds	r4, r4, #1
 1440              	.LVL159:
 234:Generated_Source\PSoC5/cy_em_eeprom.c ****         {
 1441              		.loc 1 234 38 is_stmt 1 discriminator 2 view .LVU467
 1442              	.L84:
 234:Generated_Source\PSoC5/cy_em_eeprom.c ****         {
 1443              		.loc 1 234 21 discriminator 1 view .LVU468
 234:Generated_Source\PSoC5/cy_em_eeprom.c ****         {
 1444              		.loc 1 234 9 is_stmt 0 discriminator 1 view .LVU469
 1445 00d2 D045     		cmp	r8, r10
 1446 00d4 31D2     		bcs	.L111
 236:Generated_Source\PSoC5/cy_em_eeprom.c ****             curRowOffset = CY_EM_EEPROM_EEPROM_DATA_LEN + (rdAddr % CY_EM_EEPROM_EEPROM_DATA_LEN);
 1447              		.loc 1 236 13 is_stmt 1 view .LVU470
 236:Generated_Source\PSoC5/cy_em_eeprom.c ****             curRowOffset = CY_EM_EEPROM_EEPROM_DATA_LEN + (rdAddr % CY_EM_EEPROM_EEPROM_DATA_LEN);
 1448              		.loc 1 236 26 is_stmt 0 view .LVU471
 1449 00d6 039B     		ldr	r3, [sp, #12]
 1450 00d8 03EB0420 		add	r0, r3, r4, lsl #8
 1451              	.LVL160:
 237:Generated_Source\PSoC5/cy_em_eeprom.c **** 
 1452              		.loc 1 237 13 is_stmt 1 view .LVU472
 237:Generated_Source\PSoC5/cy_em_eeprom.c **** 
 1453              		.loc 1 237 67 is_stmt 0 view .LVU473
 1454 00dc 0BF07F05 		and	r5, fp, #127
 237:Generated_Source\PSoC5/cy_em_eeprom.c **** 
 1455              		.loc 1 237 26 view .LVU474
 1456 00e0 05F18001 		add	r1, r5, #128
 1457              	.LVL161:
 242:Generated_Source\PSoC5/cy_em_eeprom.c ****             {
 1458              		.loc 1 242 13 is_stmt 1 view .LVU475
 242:Generated_Source\PSoC5/cy_em_eeprom.c ****             {
 1459              		.loc 1 242 19 is_stmt 0 view .LVU476
 1460 00e4 08F10108 		add	r8, r8, #1
 1461              	.LVL162:
 242:Generated_Source\PSoC5/cy_em_eeprom.c ****             {
 1462              		.loc 1 242 15 view .LVU477
 1463 00e8 D045     		cmp	r8, r10
 1464 00ea E5D2     		bcs	.L105
 244:Generated_Source\PSoC5/cy_em_eeprom.c ****             }
 1465              		.loc 1 244 17 is_stmt 1 view .LVU478
 244:Generated_Source\PSoC5/cy_em_eeprom.c ****             }
 1466              		.loc 1 244 32 is_stmt 0 view .LVU479
 1467 00ec C5F18005 		rsb	r5, r5, #128
 1468              	.LVL163:
ARM GAS  C:\Users\jens-\AppData\Local\Temp\cc4C0Tnp.s 			page 57


 1469              	.L85:
 254:Generated_Source\PSoC5/cy_em_eeprom.c ****             {
 1470              		.loc 1 254 13 is_stmt 1 view .LVU480
 254:Generated_Source\PSoC5/cy_em_eeprom.c ****             {
 1471              		.loc 1 254 15 is_stmt 0 view .LVU481
 1472 00f0 049B     		ldr	r3, [sp, #16]
 1473 00f2 7BB1     		cbz	r3, .L86
 254:Generated_Source\PSoC5/cy_em_eeprom.c ****             {
 1474              		.loc 1 254 39 discriminator 1 view .LVU482
 1475 00f4 059B     		ldr	r3, [sp, #20]
 1476 00f6 9C42     		cmp	r4, r3
 1477 00f8 0CD9     		bls	.L86
 256:Generated_Source\PSoC5/cy_em_eeprom.c **** 
 1478              		.loc 1 256 17 is_stmt 1 view .LVU483
 256:Generated_Source\PSoC5/cy_em_eeprom.c **** 
 1479              		.loc 1 256 40 is_stmt 0 view .LVU484
 1480 00fa D9F80430 		ldr	r3, [r9, #4]
 256:Generated_Source\PSoC5/cy_em_eeprom.c **** 
 1481              		.loc 1 256 30 view .LVU485
 1482 00fe A0EB0320 		sub	r0, r0, r3, lsl #8
 1483              	.LVL164:
 258:Generated_Source\PSoC5/cy_em_eeprom.c ****                 {
 1484              		.loc 1 258 17 is_stmt 1 view .LVU486
 258:Generated_Source\PSoC5/cy_em_eeprom.c ****                 {
 1485              		.loc 1 258 42 is_stmt 0 view .LVU487
 1486 0102 D9F81820 		ldr	r2, [r9, #24]
 258:Generated_Source\PSoC5/cy_em_eeprom.c ****                 {
 1487              		.loc 1 258 19 view .LVU488
 1488 0106 8242     		cmp	r2, r0
 1489 0108 04D9     		bls	.L86
 260:Generated_Source\PSoC5/cy_em_eeprom.c ****                         ((context->numberOfRows - curRdEepromRowNum) * CY_EM_EEPROM_FLASH_SIZEOF_RO
 1490              		.loc 1 260 21 is_stmt 1 view .LVU489
 260:Generated_Source\PSoC5/cy_em_eeprom.c ****                         ((context->numberOfRows - curRdEepromRowNum) * CY_EM_EEPROM_FLASH_SIZEOF_RO
 1491              		.loc 1 260 43 is_stmt 0 view .LVU490
 1492 010a D9F80000 		ldr	r0, [r9]
 1493              	.LVL165:
 261:Generated_Source\PSoC5/cy_em_eeprom.c ****                 }
 1494              		.loc 1 261 49 view .LVU491
 1495 010e 1B1B     		subs	r3, r3, r4
 1496              	.LVL166:
 260:Generated_Source\PSoC5/cy_em_eeprom.c ****                         ((context->numberOfRows - curRdEepromRowNum) * CY_EM_EEPROM_FLASH_SIZEOF_RO
 1497              		.loc 1 260 34 view .LVU492
 1498 0110 A0EB0320 		sub	r0, r0, r3, lsl #8
 1499              	.LVL167:
 1500              	.L86:
 265:Generated_Source\PSoC5/cy_em_eeprom.c ****             {
 1501              		.loc 1 265 13 is_stmt 1 view .LVU493
 265:Generated_Source\PSoC5/cy_em_eeprom.c ****             {
 1502              		.loc 1 265 29 is_stmt 0 view .LVU494
 1503 0114 99F81470 		ldrb	r7, [r9, #20]	@ zero_extendqisi2
 1504              	.LVL168:
 265:Generated_Source\PSoC5/cy_em_eeprom.c ****             {
 1505              		.loc 1 265 15 view .LVU495
 1506 0118 002F     		cmp	r7, #0
 1507 011a CFD0     		beq	.L87
 270:Generated_Source\PSoC5/cy_em_eeprom.c **** 
 1508              		.loc 1 270 17 is_stmt 1 view .LVU496
ARM GAS  C:\Users\jens-\AppData\Local\Temp\cc4C0Tnp.s 			page 58


 270:Generated_Source\PSoC5/cy_em_eeprom.c **** 
 1509              		.loc 1 270 23 is_stmt 0 view .LVU497
 1510 011c CDF80090 		str	r9, [sp]
 1511 0120 2B46     		mov	r3, r5
 1512 0122 0A46     		mov	r2, r1
 1513 0124 3146     		mov	r1, r6
 1514              	.LVL169:
 270:Generated_Source\PSoC5/cy_em_eeprom.c **** 
 1515              		.loc 1 270 23 view .LVU498
 1516 0126 FFF7FEFF 		bl	CheckCrcAndCopy
 1517              	.LVL170:
 272:Generated_Source\PSoC5/cy_em_eeprom.c ****                 {
 1518              		.loc 1 272 17 is_stmt 1 view .LVU499
 272:Generated_Source\PSoC5/cy_em_eeprom.c ****                 {
 1519              		.loc 1 272 19 is_stmt 0 view .LVU500
 1520 012a 0746     		mov	r7, r0
 1521 012c 0028     		cmp	r0, #0
 1522 012e CAD0     		beq	.L89
 1523 0130 8246     		mov	r10, r0
 1524              	.LVL171:
 272:Generated_Source\PSoC5/cy_em_eeprom.c ****                 {
 1525              		.loc 1 272 19 view .LVU501
 1526 0132 4F46     		mov	r7, r9
 1527 0134 DDF82090 		ldr	r9, [sp, #32]
 1528              	.LVL172:
 272:Generated_Source\PSoC5/cy_em_eeprom.c ****                 {
 1529              		.loc 1 272 19 view .LVU502
 1530 0138 03E0     		b	.L88
 1531              	.LVL173:
 1532              	.L111:
 272:Generated_Source\PSoC5/cy_em_eeprom.c ****                 {
 1533              		.loc 1 272 19 view .LVU503
 1534 013a BA46     		mov	r10, r7
 1535              	.LVL174:
 272:Generated_Source\PSoC5/cy_em_eeprom.c ****                 {
 1536              		.loc 1 272 19 view .LVU504
 1537 013c 4F46     		mov	r7, r9
 1538              	.LVL175:
 272:Generated_Source\PSoC5/cy_em_eeprom.c ****                 {
 1539              		.loc 1 272 19 view .LVU505
 1540 013e DDF82090 		ldr	r9, [sp, #32]
 1541              	.LVL176:
 1542              	.L88:
 303:Generated_Source\PSoC5/cy_em_eeprom.c ****         {
 1543              		.loc 1 303 9 is_stmt 1 view .LVU506
 303:Generated_Source\PSoC5/cy_em_eeprom.c ****         {
 1544              		.loc 1 303 11 is_stmt 0 view .LVU507
 1545 0142 BAF1000F 		cmp	r10, #0
 1546 0146 50D1     		bne	.L78
 303:Generated_Source\PSoC5/cy_em_eeprom.c ****         {
 1547              		.loc 1 303 42 discriminator 1 view .LVU508
 1548 0148 099D     		ldr	r5, [sp, #36]
 1549 014a 002D     		cmp	r5, #0
 1550 014c 4DD0     		beq	.L78
 305:Generated_Source\PSoC5/cy_em_eeprom.c ****             numRowReads--;
 1551              		.loc 1 305 13 is_stmt 1 view .LVU509
 305:Generated_Source\PSoC5/cy_em_eeprom.c ****             numRowReads--;
ARM GAS  C:\Users\jens-\AppData\Local\Temp\cc4C0Tnp.s 			page 59


 1552              		.loc 1 305 35 is_stmt 0 view .LVU510
 1553 014e 7C68     		ldr	r4, [r7, #4]
 1554              	.LVL177:
 305:Generated_Source\PSoC5/cy_em_eeprom.c ****             numRowReads--;
 1555              		.loc 1 305 25 view .LVU511
 1556 0150 AC42     		cmp	r4, r5
 1557 0152 28BF     		it	cs
 1558 0154 2C46     		movcs	r4, r5
 1559              	.LVL178:
 306:Generated_Source\PSoC5/cy_em_eeprom.c **** 
 1560              		.loc 1 306 13 is_stmt 1 view .LVU512
 306:Generated_Source\PSoC5/cy_em_eeprom.c **** 
 1561              		.loc 1 306 24 is_stmt 0 view .LVU513
 1562 0156 013C     		subs	r4, r4, #1
 1563              	.LVL179:
 308:Generated_Source\PSoC5/cy_em_eeprom.c ****             {
 1564              		.loc 1 308 13 is_stmt 1 view .LVU514
 308:Generated_Source\PSoC5/cy_em_eeprom.c ****             {
 1565              		.loc 1 308 19 is_stmt 0 view .LVU515
 1566 0158 2C1B     		subs	r4, r5, r4
 1567              	.LVL180:
 308:Generated_Source\PSoC5/cy_em_eeprom.c ****             {
 1568              		.loc 1 308 19 view .LVU516
 1569 015a 079E     		ldr	r6, [sp, #28]
 1570              	.LVL181:
 308:Generated_Source\PSoC5/cy_em_eeprom.c ****             {
 1571              		.loc 1 308 19 view .LVU517
 1572 015c DDF81880 		ldr	r8, [sp, #24]
 308:Generated_Source\PSoC5/cy_em_eeprom.c ****             {
 1573              		.loc 1 308 13 view .LVU518
 1574 0160 28E0     		b	.L91
 1575              	.LVL182:
 1576              	.L93:
 1577              	.LBB5:
 319:Generated_Source\PSoC5/cy_em_eeprom.c ****                     {
 1578              		.loc 1 319 27 discriminator 2 view .LVU519
 1579 0162 8945     		cmp	r9, r1
 1580 0164 2CBF     		ite	cs
 1581 0166 0022     		movcs	r2, #0
 1582 0168 0122     		movcc	r2, #1
 1583 016a 35E0     		b	.L94
 1584              	.L106:
 1585              	.LBB6:
 321:Generated_Source\PSoC5/cy_em_eeprom.c ****                         uint32 dstOffset = (startAddr > addr) ? (startAddr - addr): (0u);
 1586              		.loc 1 321 70 view .LVU520
 1587 016c 4FF0000E 		mov	lr, #0
 1588              	.L95:
 1589              	.LVL183:
 322:Generated_Source\PSoC5/cy_em_eeprom.c ****                         rdAddr = (startAddr > addr) ? (startAddr) : (addr);
 1590              		.loc 1 322 25 is_stmt 1 discriminator 4 view .LVU521
 322:Generated_Source\PSoC5/cy_em_eeprom.c ****                         rdAddr = (startAddr > addr) ? (startAddr) : (addr);
 1591              		.loc 1 322 83 is_stmt 0 discriminator 4 view .LVU522
 1592 0170 9945     		cmp	r9, r3
 1593 0172 02D2     		bcs	.L107
 322:Generated_Source\PSoC5/cy_em_eeprom.c ****                         rdAddr = (startAddr > addr) ? (startAddr) : (addr);
 1594              		.loc 1 322 83 discriminator 1 view .LVU523
 1595 0174 A3EB0900 		sub	r0, r3, r9
ARM GAS  C:\Users\jens-\AppData\Local\Temp\cc4C0Tnp.s 			page 60


 1596              	.LVL184:
 322:Generated_Source\PSoC5/cy_em_eeprom.c ****                         rdAddr = (startAddr > addr) ? (startAddr) : (addr);
 1597              		.loc 1 322 83 discriminator 1 view .LVU524
 1598 0178 00E0     		b	.L96
 1599              	.LVL185:
 1600              	.L107:
 322:Generated_Source\PSoC5/cy_em_eeprom.c ****                         rdAddr = (startAddr > addr) ? (startAddr) : (addr);
 1601              		.loc 1 322 83 view .LVU525
 1602 017a 0020     		movs	r0, #0
 1603              	.LVL186:
 1604              	.L96:
 323:Generated_Source\PSoC5/cy_em_eeprom.c **** 
 1605              		.loc 1 323 25 is_stmt 1 discriminator 4 view .LVU526
 325:Generated_Source\PSoC5/cy_em_eeprom.c **** 
 1606              		.loc 1 325 25 discriminator 4 view .LVU527
 325:Generated_Source\PSoC5/cy_em_eeprom.c **** 
 1607              		.loc 1 325 35 is_stmt 0 discriminator 4 view .LVU528
 1608 017c 0EF10C0E 		add	lr, lr, #12
 1609              	.LVL187:
 328:Generated_Source\PSoC5/cy_em_eeprom.c **** 
 1610              		.loc 1 328 25 is_stmt 1 discriminator 4 view .LVU529
 328:Generated_Source\PSoC5/cy_em_eeprom.c **** 
 1611              		.loc 1 328 79 is_stmt 0 discriminator 4 view .LVU530
 1612 0180 B142     		cmp	r1, r6
 1613 0182 28BF     		it	cs
 1614 0184 3146     		movcs	r1, r6
 1615              	.LVL188:
 328:Generated_Source\PSoC5/cy_em_eeprom.c **** 
 1616              		.loc 1 328 40 discriminator 4 view .LVU531
 1617 0186 9945     		cmp	r9, r3
 1618 0188 2CBF     		ite	cs
 1619 018a A1EB0903 		subcs	r3, r1, r9
 1620              	.LVL189:
 328:Generated_Source\PSoC5/cy_em_eeprom.c **** 
 1621              		.loc 1 328 40 discriminator 4 view .LVU532
 1622 018e CB1A     		subcc	r3, r1, r3
 1623              	.LVL190:
 331:Generated_Source\PSoC5/cy_em_eeprom.c **** 
 1624              		.loc 1 331 25 is_stmt 1 discriminator 4 view .LVU533
 331:Generated_Source\PSoC5/cy_em_eeprom.c **** 
 1625              		.loc 1 331 32 is_stmt 0 discriminator 4 view .LVU534
 1626 0190 4044     		add	r0, r0, r8
 1627              	.LVL191:
 338:Generated_Source\PSoC5/cy_em_eeprom.c ****                         {
 1628              		.loc 1 338 25 is_stmt 1 discriminator 4 view .LVU535
 338:Generated_Source\PSoC5/cy_em_eeprom.c ****                         {
 1629              		.loc 1 338 41 is_stmt 0 discriminator 4 view .LVU536
 1630 0192 3A7D     		ldrb	r2, [r7, #20]	@ zero_extendqisi2
 338:Generated_Source\PSoC5/cy_em_eeprom.c ****                         {
 1631              		.loc 1 338 27 discriminator 4 view .LVU537
 1632 0194 42B1     		cbz	r2, .L97
 340:Generated_Source\PSoC5/cy_em_eeprom.c **** 
 1633              		.loc 1 340 29 is_stmt 1 view .LVU538
 340:Generated_Source\PSoC5/cy_em_eeprom.c **** 
 1634              		.loc 1 340 35 is_stmt 0 view .LVU539
 1635 0196 0097     		str	r7, [sp]
 1636              	.LVL192:
ARM GAS  C:\Users\jens-\AppData\Local\Temp\cc4C0Tnp.s 			page 61


 340:Generated_Source\PSoC5/cy_em_eeprom.c **** 
 1637              		.loc 1 340 35 view .LVU540
 1638 0198 7246     		mov	r2, lr
 1639 019a 0146     		mov	r1, r0
 1640 019c 6046     		mov	r0, ip
 1641              	.LVL193:
 340:Generated_Source\PSoC5/cy_em_eeprom.c **** 
 1642              		.loc 1 340 35 view .LVU541
 1643 019e FFF7FEFF 		bl	CheckCrcAndCopy
 1644              	.LVL194:
 342:Generated_Source\PSoC5/cy_em_eeprom.c ****                             {
 1645              		.loc 1 342 29 is_stmt 1 view .LVU542
 342:Generated_Source\PSoC5/cy_em_eeprom.c ****                             {
 1646              		.loc 1 342 31 is_stmt 0 view .LVU543
 1647 01a2 8246     		mov	r10, r0
 1648 01a4 28B1     		cbz	r0, .L92
 1649 01a6 20E0     		b	.L78
 1650              	.LVL195:
 1651              	.L97:
 349:Generated_Source\PSoC5/cy_em_eeprom.c ****                         }
 1652              		.loc 1 349 29 is_stmt 1 view .LVU544
 349:Generated_Source\PSoC5/cy_em_eeprom.c ****                         }
 1653              		.loc 1 349 35 is_stmt 0 view .LVU545
 1654 01a8 1A46     		mov	r2, r3
 1655 01aa 0CEB0E01 		add	r1, ip, lr
 1656 01ae FFF7FEFF 		bl	memcpy
 1657              	.LVL196:
 1658              	.L92:
 349:Generated_Source\PSoC5/cy_em_eeprom.c ****                         }
 1659              		.loc 1 349 35 view .LVU546
 1660              	.LBE6:
 1661              	.LBE5:
 308:Generated_Source\PSoC5/cy_em_eeprom.c ****             {
 1662              		.loc 1 308 58 is_stmt 1 discriminator 2 view .LVU547
 308:Generated_Source\PSoC5/cy_em_eeprom.c ****             {
 1663              		.loc 1 308 59 is_stmt 0 discriminator 2 view .LVU548
 1664 01b2 0134     		adds	r4, r4, #1
 1665              	.LVL197:
 1666              	.L91:
 308:Generated_Source\PSoC5/cy_em_eeprom.c ****             {
 1667              		.loc 1 308 45 is_stmt 1 discriminator 1 view .LVU549
 308:Generated_Source\PSoC5/cy_em_eeprom.c ****             {
 1668              		.loc 1 308 13 is_stmt 0 discriminator 1 view .LVU550
 1669 01b4 AC42     		cmp	r4, r5
 1670 01b6 18D8     		bhi	.L78
 310:Generated_Source\PSoC5/cy_em_eeprom.c **** 
 1671              		.loc 1 310 17 is_stmt 1 view .LVU551
 310:Generated_Source\PSoC5/cy_em_eeprom.c **** 
 1672              		.loc 1 310 32 is_stmt 0 view .LVU552
 1673 01b8 3946     		mov	r1, r7
 1674 01ba 2046     		mov	r0, r4
 1675 01bc FFF7FEFF 		bl	GetRowAddrBySeqNum
 1676              	.LVL198:
 312:Generated_Source\PSoC5/cy_em_eeprom.c ****                 {
 1677              		.loc 1 312 17 is_stmt 1 view .LVU553
 312:Generated_Source\PSoC5/cy_em_eeprom.c ****                 {
 1678              		.loc 1 312 20 is_stmt 0 view .LVU554
ARM GAS  C:\Users\jens-\AppData\Local\Temp\cc4C0Tnp.s 			page 62


 1679 01c0 8446     		mov	ip, r0
 1680 01c2 0028     		cmp	r0, #0
 1681 01c4 F5D0     		beq	.L92
 1682              	.LBB8:
 315:Generated_Source\PSoC5/cy_em_eeprom.c ****                     uint32 endAddr    = startAddr + (*(uint32 *)(startRowAddr + CY_EM_EEPROM_HEADER
 1683              		.loc 1 315 21 is_stmt 1 view .LVU555
 315:Generated_Source\PSoC5/cy_em_eeprom.c ****                     uint32 endAddr    = startAddr + (*(uint32 *)(startRowAddr + CY_EM_EEPROM_HEADER
 1684              		.loc 1 315 28 is_stmt 0 view .LVU556
 1685 01c6 4368     		ldr	r3, [r0, #4]
 1686              	.LVL199:
 316:Generated_Source\PSoC5/cy_em_eeprom.c **** 
 1687              		.loc 1 316 21 is_stmt 1 view .LVU557
 316:Generated_Source\PSoC5/cy_em_eeprom.c **** 
 1688              		.loc 1 316 54 is_stmt 0 view .LVU558
 1689 01c8 8168     		ldr	r1, [r0, #8]
 316:Generated_Source\PSoC5/cy_em_eeprom.c **** 
 1690              		.loc 1 316 28 view .LVU559
 1691 01ca 1944     		add	r1, r1, r3
 1692              	.LVL200:
 319:Generated_Source\PSoC5/cy_em_eeprom.c ****                     {
 1693              		.loc 1 319 21 is_stmt 1 view .LVU560
 319:Generated_Source\PSoC5/cy_em_eeprom.c ****                     {
 1694              		.loc 1 319 27 is_stmt 0 view .LVU561
 1695 01cc 9945     		cmp	r9, r3
 1696 01ce C8D2     		bcs	.L93
 319:Generated_Source\PSoC5/cy_em_eeprom.c ****                     {
 1697              		.loc 1 319 27 discriminator 1 view .LVU562
 1698 01d0 9E42     		cmp	r6, r3
 1699 01d2 94BF     		ite	ls
 1700 01d4 0022     		movls	r2, #0
 1701 01d6 0122     		movhi	r2, #1
 1702              	.L94:
 319:Generated_Source\PSoC5/cy_em_eeprom.c ****                     {
 1703              		.loc 1 319 23 discriminator 4 view .LVU563
 1704 01d8 002A     		cmp	r2, #0
 1705 01da EAD0     		beq	.L92
 1706              	.LBB7:
 321:Generated_Source\PSoC5/cy_em_eeprom.c ****                         uint32 dstOffset = (startAddr > addr) ? (startAddr - addr): (0u);
 1707              		.loc 1 321 25 is_stmt 1 view .LVU564
 321:Generated_Source\PSoC5/cy_em_eeprom.c ****                         uint32 dstOffset = (startAddr > addr) ? (startAddr - addr): (0u);
 1708              		.loc 1 321 70 is_stmt 0 view .LVU565
 1709 01dc 9945     		cmp	r9, r3
 1710 01de C5D3     		bcc	.L106
 321:Generated_Source\PSoC5/cy_em_eeprom.c ****                         uint32 dstOffset = (startAddr > addr) ? (startAddr - addr): (0u);
 1711              		.loc 1 321 70 discriminator 1 view .LVU566
 1712 01e0 A9EB030E 		sub	lr, r9, r3
 1713 01e4 C4E7     		b	.L95
 1714              	.LVL201:
 1715              	.L99:
 321:Generated_Source\PSoC5/cy_em_eeprom.c ****                         uint32 dstOffset = (startAddr > addr) ? (startAddr - addr): (0u);
 1716              		.loc 1 321 70 discriminator 1 view .LVU567
 1717              	.LBE7:
 1718              	.LBE8:
 1719              	.LBE11:
 174:Generated_Source\PSoC5/cy_em_eeprom.c ****     uint32 i;
 1720              		.loc 1 174 30 view .LVU568
 1721 01e6 4FF0010A 		mov	r10, #1
ARM GAS  C:\Users\jens-\AppData\Local\Temp\cc4C0Tnp.s 			page 63


 1722              	.LVL202:
 1723              	.L78:
 357:Generated_Source\PSoC5/cy_em_eeprom.c **** }
 1724              		.loc 1 357 5 is_stmt 1 view .LVU569
 358:Generated_Source\PSoC5/cy_em_eeprom.c **** 
 1725              		.loc 1 358 1 is_stmt 0 view .LVU570
 1726 01ea 5046     		mov	r0, r10
 1727 01ec 0BB0     		add	sp, sp, #44
 1728              		.cfi_remember_state
 1729              		.cfi_def_cfa_offset 36
 1730              		@ sp needed
 1731 01ee BDE8F08F 		pop	{r4, r5, r6, r7, r8, r9, r10, fp, pc}
 1732              	.LVL203:
 1733              	.L100:
 1734              		.cfi_restore_state
 174:Generated_Source\PSoC5/cy_em_eeprom.c ****     uint32 i;
 1735              		.loc 1 174 30 view .LVU571
 1736 01f2 4FF0010A 		mov	r10, #1
 1737 01f6 F8E7     		b	.L78
 1738              	.L101:
 1739 01f8 4FF0010A 		mov	r10, #1
 1740 01fc F5E7     		b	.L78
 1741              		.cfi_endproc
 1742              	.LFE1:
 1743              		.size	Cy_Em_EEPROM_Read, .-Cy_Em_EEPROM_Read
 1744              		.section	.text.Cy_Em_EEPROM_Write,"ax",%progbits
 1745              		.align	1
 1746              		.global	Cy_Em_EEPROM_Write
 1747              		.syntax unified
 1748              		.thumb
 1749              		.thumb_func
 1750              		.fpu softvfp
 1751              		.type	Cy_Em_EEPROM_Write, %function
 1752              	Cy_Em_EEPROM_Write:
 1753              	.LVL204:
 1754              	.LFB2:
 415:Generated_Source\PSoC5/cy_em_eeprom.c ****     cy_en_em_eeprom_status_t ret = CY_EM_EEPROM_BAD_PARAM;
 1755              		.loc 1 415 1 is_stmt 1 view -0
 1756              		.cfi_startproc
 1757              		@ args = 0, pretend = 0, frame = 296
 1758              		@ frame_needed = 0, uses_anonymous_args = 0
 415:Generated_Source\PSoC5/cy_em_eeprom.c ****     cy_en_em_eeprom_status_t ret = CY_EM_EEPROM_BAD_PARAM;
 1759              		.loc 1 415 1 is_stmt 0 view .LVU573
 1760 0000 2DE9F04F 		push	{r4, r5, r6, r7, r8, r9, r10, fp, lr}
 1761              		.cfi_def_cfa_offset 36
 1762              		.cfi_offset 4, -36
 1763              		.cfi_offset 5, -32
 1764              		.cfi_offset 6, -28
 1765              		.cfi_offset 7, -24
 1766              		.cfi_offset 8, -20
 1767              		.cfi_offset 9, -16
 1768              		.cfi_offset 10, -12
 1769              		.cfi_offset 11, -8
 1770              		.cfi_offset 14, -4
 1771 0004 CDB0     		sub	sp, sp, #308
 1772              		.cfi_def_cfa_offset 344
 1773 0006 1E46     		mov	r6, r3
ARM GAS  C:\Users\jens-\AppData\Local\Temp\cc4C0Tnp.s 			page 64


 416:Generated_Source\PSoC5/cy_em_eeprom.c ****     uint32 i;
 1774              		.loc 1 416 5 is_stmt 1 view .LVU574
 1775              	.LVL205:
 417:Generated_Source\PSoC5/cy_em_eeprom.c ****     uint32 wrCnt;
 1776              		.loc 1 417 5 view .LVU575
 418:Generated_Source\PSoC5/cy_em_eeprom.c ****     uint32 actEmEepromRowNum;
 1777              		.loc 1 418 5 view .LVU576
 419:Generated_Source\PSoC5/cy_em_eeprom.c ****     uint32 writeRamBuffer[CY_EM_EEPROM_FLASH_SIZEOF_ROW / CY_EM_EEPROM_U32_DIV];
 1778              		.loc 1 419 5 view .LVU577
 420:Generated_Source\PSoC5/cy_em_eeprom.c ****     uint32 startAddr = 0u;
 1779              		.loc 1 420 5 view .LVU578
 421:Generated_Source\PSoC5/cy_em_eeprom.c ****     uint32 endAddr = 0u;
 1780              		.loc 1 421 5 view .LVU579
 421:Generated_Source\PSoC5/cy_em_eeprom.c ****     uint32 endAddr = 0u;
 1781              		.loc 1 421 12 is_stmt 0 view .LVU580
 1782 0008 0023     		movs	r3, #0
 1783              	.LVL206:
 421:Generated_Source\PSoC5/cy_em_eeprom.c ****     uint32 endAddr = 0u;
 1784              		.loc 1 421 12 view .LVU581
 1785 000a 0B93     		str	r3, [sp, #44]
 422:Generated_Source\PSoC5/cy_em_eeprom.c ****     uint32 tmpRowAddr;
 1786              		.loc 1 422 5 is_stmt 1 view .LVU582
 422:Generated_Source\PSoC5/cy_em_eeprom.c ****     uint32 tmpRowAddr;
 1787              		.loc 1 422 12 is_stmt 0 view .LVU583
 1788 000c 0A93     		str	r3, [sp, #40]
 423:Generated_Source\PSoC5/cy_em_eeprom.c ****     uint32 emEepromRowAddr = context->lastWrRowAddr;
 1789              		.loc 1 423 5 is_stmt 1 view .LVU584
 424:Generated_Source\PSoC5/cy_em_eeprom.c ****     uint32 emEepromRowRdAddr;
 1790              		.loc 1 424 5 view .LVU585
 424:Generated_Source\PSoC5/cy_em_eeprom.c ****     uint32 emEepromRowRdAddr;
 1791              		.loc 1 424 37 is_stmt 0 view .LVU586
 1792 000e B368     		ldr	r3, [r6, #8]
 424:Generated_Source\PSoC5/cy_em_eeprom.c ****     uint32 emEepromRowRdAddr;
 1793              		.loc 1 424 12 view .LVU587
 1794 0010 0993     		str	r3, [sp, #36]
 425:Generated_Source\PSoC5/cy_em_eeprom.c ****     void * tmpData;
 1795              		.loc 1 425 5 is_stmt 1 view .LVU588
 426:Generated_Source\PSoC5/cy_em_eeprom.c ****     uint32 eeData = (uint32) eepromData; /* To avoid the pointer arithmetic with void */
 1796              		.loc 1 426 5 view .LVU589
 427:Generated_Source\PSoC5/cy_em_eeprom.c **** 
 1797              		.loc 1 427 5 view .LVU590
 427:Generated_Source\PSoC5/cy_em_eeprom.c **** 
 1798              		.loc 1 427 12 is_stmt 0 view .LVU591
 1799 0012 0391     		str	r1, [sp, #12]
 1800              	.LVL207:
 430:Generated_Source\PSoC5/cy_em_eeprom.c ****     {
 1801              		.loc 1 430 5 is_stmt 1 view .LVU592
 430:Generated_Source\PSoC5/cy_em_eeprom.c ****     {
 1802              		.loc 1 430 7 is_stmt 0 view .LVU593
 1803 0014 002A     		cmp	r2, #0
 1804 0016 00F0A380 		beq	.L130
 1805 001a 8146     		mov	r9, r0
 1806 001c 9346     		mov	fp, r2
 430:Generated_Source\PSoC5/cy_em_eeprom.c ****     {
 1807              		.loc 1 430 31 discriminator 1 view .LVU594
 1808 001e 1318     		adds	r3, r2, r0
 430:Generated_Source\PSoC5/cy_em_eeprom.c ****     {
ARM GAS  C:\Users\jens-\AppData\Local\Temp\cc4C0Tnp.s 			page 65


 1809              		.loc 1 430 50 discriminator 1 view .LVU595
 1810 0020 F268     		ldr	r2, [r6, #12]
 1811              	.LVL208:
 430:Generated_Source\PSoC5/cy_em_eeprom.c ****     {
 1812              		.loc 1 430 21 discriminator 1 view .LVU596
 1813 0022 9342     		cmp	r3, r2
 1814 0024 00F2A080 		bhi	.L131
 430:Generated_Source\PSoC5/cy_em_eeprom.c ****     {
 1815              		.loc 1 430 65 discriminator 2 view .LVU597
 1816 0028 0029     		cmp	r1, #0
 1817 002a 00F09F80 		beq	.L132
 1818              	.LBB12:
 432:Generated_Source\PSoC5/cy_em_eeprom.c ****         uint32 eeHeaderDataOffset = 0u;
 1819              		.loc 1 432 9 is_stmt 1 view .LVU598
 432:Generated_Source\PSoC5/cy_em_eeprom.c ****         uint32 eeHeaderDataOffset = 0u;
 1820              		.loc 1 432 35 is_stmt 0 view .LVU599
 1821 002e 0BF1FF33 		add	r3, fp, #-1
 432:Generated_Source\PSoC5/cy_em_eeprom.c ****         uint32 eeHeaderDataOffset = 0u;
 1822              		.loc 1 432 41 view .LVU600
 1823 0032 1B09     		lsrs	r3, r3, #4
 1824 0034 4E4A     		ldr	r2, .L144
 1825 0036 A2FB0323 		umull	r2, r3, r2, r3
 1826 003a 0593     		str	r3, [sp, #20]
 432:Generated_Source\PSoC5/cy_em_eeprom.c ****         uint32 eeHeaderDataOffset = 0u;
 1827              		.loc 1 432 16 view .LVU601
 1828 003c 0133     		adds	r3, r3, #1
 1829 003e 0493     		str	r3, [sp, #16]
 1830              	.LVL209:
 433:Generated_Source\PSoC5/cy_em_eeprom.c **** 
 1831              		.loc 1 433 9 is_stmt 1 view .LVU602
 433:Generated_Source\PSoC5/cy_em_eeprom.c **** 
 1832              		.loc 1 433 16 is_stmt 0 view .LVU603
 1833 0040 0023     		movs	r3, #0
 1834              	.LVL210:
 433:Generated_Source\PSoC5/cy_em_eeprom.c **** 
 1835              		.loc 1 433 16 view .LVU604
 1836 0042 0793     		str	r3, [sp, #28]
 435:Generated_Source\PSoC5/cy_em_eeprom.c ****         {
 1837              		.loc 1 435 9 is_stmt 1 view .LVU605
 1838              	.LVL211:
 435:Generated_Source\PSoC5/cy_em_eeprom.c ****         {
 1839              		.loc 1 435 19 is_stmt 0 view .LVU606
 1840 0044 9A46     		mov	r10, r3
 1841              	.LBE12:
 416:Generated_Source\PSoC5/cy_em_eeprom.c ****     uint32 i;
 1842              		.loc 1 416 30 view .LVU607
 1843 0046 0120     		movs	r0, #1
 1844              	.LVL212:
 1845              	.LBB16:
 435:Generated_Source\PSoC5/cy_em_eeprom.c ****         {
 1846              		.loc 1 435 9 view .LVU608
 1847 0048 50E0     		b	.L114
 1848              	.LVL213:
 1849              	.L142:
 1850              	.LBB13:
 461:Generated_Source\PSoC5/cy_em_eeprom.c ****             }
 1851              		.loc 1 461 17 is_stmt 1 view .LVU609
ARM GAS  C:\Users\jens-\AppData\Local\Temp\cc4C0Tnp.s 			page 66


 461:Generated_Source\PSoC5/cy_em_eeprom.c ****             }
 1852              		.loc 1 461 68 is_stmt 0 view .LVU610
 1853 004a CDF838B0 		str	fp, [sp, #56]
 1854 004e 6FE0     		b	.L116
 1855              	.LVL214:
 1856              	.L143:
 483:Generated_Source\PSoC5/cy_em_eeprom.c ****                              (void *)(emEepromRowRdAddr + CY_EM_EEPROM_EEPROM_DATA_LEN),
 1857              		.loc 1 483 17 is_stmt 1 view .LVU611
 483:Generated_Source\PSoC5/cy_em_eeprom.c ****                              (void *)(emEepromRowRdAddr + CY_EM_EEPROM_EEPROM_DATA_LEN),
 1858              		.loc 1 483 23 is_stmt 0 view .LVU612
 1859 0050 8022     		movs	r2, #128
 1860 0052 1144     		add	r1, r1, r2
 1861 0054 2CA8     		add	r0, sp, #176
 1862 0056 FFF7FEFF 		bl	memcpy
 1863              	.LVL215:
 1864 005a 70E0     		b	.L117
 1865              	.LVL216:
 1866              	.L140:
 502:Generated_Source\PSoC5/cy_em_eeprom.c ****                 }
 1867              		.loc 1 502 21 is_stmt 1 view .LVU613
 502:Generated_Source\PSoC5/cy_em_eeprom.c ****                 }
 1868              		.loc 1 502 32 is_stmt 0 view .LVU614
 1869 005c 0CAD     		add	r5, sp, #48
 1870              	.LVL217:
 1871              	.L120:
 512:Generated_Source\PSoC5/cy_em_eeprom.c ****                                                                            context->numberOfRows,
 1872              		.loc 1 512 17 is_stmt 1 view .LVU615
 512:Generated_Source\PSoC5/cy_em_eeprom.c ****                                                                            context->numberOfRows,
 1873              		.loc 1 512 37 is_stmt 0 view .LVU616
 1874 005e B269     		ldr	r2, [r6, #24]
 1875 0060 099B     		ldr	r3, [sp, #36]
 1876 0062 9B1A     		subs	r3, r3, r2
 1877 0064 1B0A     		lsrs	r3, r3, #8
 1878 0066 7168     		ldr	r1, [r6, #4]
 512:Generated_Source\PSoC5/cy_em_eeprom.c ****                                                                            context->numberOfRows,
 1879              		.loc 1 512 35 view .LVU617
 1880 0068 B3FBF1F2 		udiv	r2, r3, r1
 1881 006c 01FB1233 		mls	r3, r1, r2, r3
 1882              	.LVL218:
 515:Generated_Source\PSoC5/cy_em_eeprom.c ****                 {
 1883              		.loc 1 515 17 is_stmt 1 view .LVU618
 515:Generated_Source\PSoC5/cy_em_eeprom.c ****                 {
 1884              		.loc 1 515 19 is_stmt 0 view .LVU619
 1885 0070 75B9     		cbnz	r5, .L136
 529:Generated_Source\PSoC5/cy_em_eeprom.c ****                 }
 1886              		.loc 1 529 21 is_stmt 1 view .LVU620
 529:Generated_Source\PSoC5/cy_em_eeprom.c ****                 }
 1887              		.loc 1 529 34 is_stmt 0 view .LVU621
 1888 0072 0137     		adds	r7, r7, #1
 1889              	.LVL219:
 1890              	.L122:
 533:Generated_Source\PSoC5/cy_em_eeprom.c ****                 {
 1891              		.loc 1 533 17 is_stmt 1 view .LVU622
 533:Generated_Source\PSoC5/cy_em_eeprom.c ****                 {
 1892              		.loc 1 533 19 is_stmt 0 view .LVU623
 1893 0074 BFB1     		cbz	r7, .L137
 1894              	.LVL220:
ARM GAS  C:\Users\jens-\AppData\Local\Temp\cc4C0Tnp.s 			page 67


 1895              	.L123:
 545:Generated_Source\PSoC5/cy_em_eeprom.c ****                 {
 1896              		.loc 1 545 17 is_stmt 1 view .LVU624
 545:Generated_Source\PSoC5/cy_em_eeprom.c ****                 {
 1897              		.loc 1 545 33 is_stmt 0 view .LVU625
 1898 0076 337D     		ldrb	r3, [r6, #20]	@ zero_extendqisi2
 545:Generated_Source\PSoC5/cy_em_eeprom.c ****                 {
 1899              		.loc 1 545 19 view .LVU626
 1900 0078 03BB     		cbnz	r3, .L138
 1901              	.L124:
 494:Generated_Source\PSoC5/cy_em_eeprom.c ****             {
 1902              		.loc 1 494 32 is_stmt 1 view .LVU627
 494:Generated_Source\PSoC5/cy_em_eeprom.c ****             {
 1903              		.loc 1 494 33 is_stmt 0 view .LVU628
 1904 007a 0134     		adds	r4, r4, #1
 1905              	.LVL221:
 1906              	.L125:
 494:Generated_Source\PSoC5/cy_em_eeprom.c ****             {
 1907              		.loc 1 494 19 is_stmt 1 discriminator 1 view .LVU629
 494:Generated_Source\PSoC5/cy_em_eeprom.c ****             {
 1908              		.loc 1 494 13 is_stmt 0 discriminator 1 view .LVU630
 1909 007c 4445     		cmp	r4, r8
 1910 007e 25D8     		bhi	.L139
 496:Generated_Source\PSoC5/cy_em_eeprom.c ****                 {
 1911              		.loc 1 496 17 is_stmt 1 view .LVU631
 496:Generated_Source\PSoC5/cy_em_eeprom.c ****                 {
 1912              		.loc 1 496 19 is_stmt 0 view .LVU632
 1913 0080 4445     		cmp	r4, r8
 1914 0082 EBD0     		beq	.L140
 509:Generated_Source\PSoC5/cy_em_eeprom.c ****                 }
 1915              		.loc 1 509 21 is_stmt 1 view .LVU633
 509:Generated_Source\PSoC5/cy_em_eeprom.c ****                 }
 1916              		.loc 1 509 34 is_stmt 0 view .LVU634
 1917 0084 3146     		mov	r1, r6
 1918 0086 2046     		mov	r0, r4
 1919 0088 FFF7FEFF 		bl	GetRowAddrBySeqNum
 1920              	.LVL222:
 1921 008c 0546     		mov	r5, r0
 1922              	.LVL223:
 509:Generated_Source\PSoC5/cy_em_eeprom.c ****                 }
 1923              		.loc 1 509 34 view .LVU635
 1924 008e E6E7     		b	.L120
 1925              	.LVL224:
 1926              	.L136:
 518:Generated_Source\PSoC5/cy_em_eeprom.c ****                                               &startAddr,
 1927              		.loc 1 518 21 is_stmt 1 view .LVU636
 518:Generated_Source\PSoC5/cy_em_eeprom.c ****                                               &startAddr,
 1928              		.loc 1 518 37 is_stmt 0 view .LVU637
 1929 0090 AA68     		ldr	r2, [r5, #8]
 1930 0092 0192     		str	r2, [sp, #4]
 1931 0094 6A68     		ldr	r2, [r5, #4]
 1932 0096 0092     		str	r2, [sp]
 1933 0098 07AA     		add	r2, sp, #28
 1934 009a 0AA9     		add	r1, sp, #40
 1935 009c 0BA8     		add	r0, sp, #44
 1936 009e FFF7FEFF 		bl	GetAddresses
 1937              	.LVL225:
ARM GAS  C:\Users\jens-\AppData\Local\Temp\cc4C0Tnp.s 			page 68


 518:Generated_Source\PSoC5/cy_em_eeprom.c ****                                               &startAddr,
 1938              		.loc 1 518 37 view .LVU638
 1939 00a2 0746     		mov	r7, r0
 1940              	.LVL226:
 518:Generated_Source\PSoC5/cy_em_eeprom.c ****                                               &startAddr,
 1941              		.loc 1 518 37 view .LVU639
 1942 00a4 E6E7     		b	.L122
 1943              	.LVL227:
 1944              	.L137:
 1945              	.LBB14:
 535:Generated_Source\PSoC5/cy_em_eeprom.c **** 
 1946              		.loc 1 535 21 is_stmt 1 view .LVU640
 535:Generated_Source\PSoC5/cy_em_eeprom.c **** 
 1947              		.loc 1 535 76 is_stmt 0 view .LVU641
 1948 00a6 0B98     		ldr	r0, [sp, #44]
 1949              	.LVL228:
 540:Generated_Source\PSoC5/cy_em_eeprom.c ****                     (void)memcpy((void *)(dataAddr), (void *)(tmpRowAddr), endAddr - startAddr);
 1950              		.loc 1 540 21 is_stmt 1 view .LVU642
 540:Generated_Source\PSoC5/cy_em_eeprom.c ****                     (void)memcpy((void *)(dataAddr), (void *)(tmpRowAddr), endAddr - startAddr);
 1951              		.loc 1 540 79 is_stmt 0 view .LVU643
 1952 00a8 0799     		ldr	r1, [sp, #28]
 1953 00aa 2944     		add	r1, r1, r5
 1954              	.LVL229:
 541:Generated_Source\PSoC5/cy_em_eeprom.c ****                 }
 1955              		.loc 1 541 21 is_stmt 1 view .LVU644
 541:Generated_Source\PSoC5/cy_em_eeprom.c ****                 }
 1956              		.loc 1 541 27 is_stmt 0 view .LVU645
 1957 00ac 0A9A     		ldr	r2, [sp, #40]
 1958 00ae 121A     		subs	r2, r2, r0
 1959 00b0 0C31     		adds	r1, r1, #12
 1960              	.LVL230:
 541:Generated_Source\PSoC5/cy_em_eeprom.c ****                 }
 1961              		.loc 1 541 27 view .LVU646
 1962 00b2 0CAB     		add	r3, sp, #48
 1963 00b4 1844     		add	r0, r0, r3
 1964              	.LVL231:
 541:Generated_Source\PSoC5/cy_em_eeprom.c ****                 }
 1965              		.loc 1 541 27 view .LVU647
 1966 00b6 FFF7FEFF 		bl	memcpy
 1967              	.LVL232:
 541:Generated_Source\PSoC5/cy_em_eeprom.c ****                 }
 1968              		.loc 1 541 27 view .LVU648
 1969 00ba DCE7     		b	.L123
 1970              	.L138:
 541:Generated_Source\PSoC5/cy_em_eeprom.c ****                 }
 1971              		.loc 1 541 27 view .LVU649
 1972              	.LBE14:
 547:Generated_Source\PSoC5/cy_em_eeprom.c ****                         CalcChecksum((uint8 *) &writeRamBuffer[CY_EM_EEPROM_EEPROM_DATA_OFFSET_U32]
 1973              		.loc 1 547 21 is_stmt 1 view .LVU650
 548:Generated_Source\PSoC5/cy_em_eeprom.c ****                                                   CY_EM_EEPROM_EEPROM_DATA_LEN);
 1974              		.loc 1 548 25 is_stmt 0 view .LVU651
 1975 00bc 8021     		movs	r1, #128
 1976 00be 2CA8     		add	r0, sp, #176
 1977 00c0 FFF7FEFF 		bl	CalcChecksum
 1978              	.LVL233:
 547:Generated_Source\PSoC5/cy_em_eeprom.c ****                         CalcChecksum((uint8 *) &writeRamBuffer[CY_EM_EEPROM_EEPROM_DATA_OFFSET_U32]
 1979              		.loc 1 547 77 view .LVU652
ARM GAS  C:\Users\jens-\AppData\Local\Temp\cc4C0Tnp.s 			page 69


 1980 00c4 2B90     		str	r0, [sp, #172]
 1981 00c6 D8E7     		b	.L124
 1982              	.LVL234:
 1983              	.L133:
 492:Generated_Source\PSoC5/cy_em_eeprom.c **** 
 1984              		.loc 1 492 94 view .LVU653
 1985 00c8 0124     		movs	r4, #1
 1986 00ca 3EE0     		b	.L118
 1987              	.LVL235:
 1988              	.L139:
 554:Generated_Source\PSoC5/cy_em_eeprom.c ****             tmpRowAddr = emEepromRowAddr;
 1989              		.loc 1 554 13 is_stmt 1 view .LVU654
 554:Generated_Source\PSoC5/cy_em_eeprom.c ****             tmpRowAddr = emEepromRowAddr;
 1990              		.loc 1 554 19 is_stmt 0 view .LVU655
 1991 00cc 3246     		mov	r2, r6
 1992 00ce 0CA9     		add	r1, sp, #48
 1993 00d0 0998     		ldr	r0, [sp, #36]
 1994 00d2 FFF7FEFF 		bl	WriteRow
 1995              	.LVL236:
 555:Generated_Source\PSoC5/cy_em_eeprom.c **** 
 1996              		.loc 1 555 13 is_stmt 1 view .LVU656
 555:Generated_Source\PSoC5/cy_em_eeprom.c **** 
 1997              		.loc 1 555 24 is_stmt 0 view .LVU657
 1998 00d6 099A     		ldr	r2, [sp, #36]
 1999              	.LVL237:
 558:Generated_Source\PSoC5/cy_em_eeprom.c ****             {
 2000              		.loc 1 558 13 is_stmt 1 view .LVU658
 558:Generated_Source\PSoC5/cy_em_eeprom.c ****             {
 2001              		.loc 1 558 30 is_stmt 0 view .LVU659
 2002 00d8 337D     		ldrb	r3, [r6, #20]	@ zero_extendqisi2
 558:Generated_Source\PSoC5/cy_em_eeprom.c ****             {
 2003              		.loc 1 558 15 view .LVU660
 2004 00da 0BB1     		cbz	r3, .L127
 558:Generated_Source\PSoC5/cy_em_eeprom.c ****             {
 2005              		.loc 1 558 47 discriminator 1 view .LVU661
 2006 00dc 0028     		cmp	r0, #0
 2007 00de 36D0     		beq	.L141
 2008              	.LVL238:
 2009              	.L127:
 567:Generated_Source\PSoC5/cy_em_eeprom.c ****             {
 2010              		.loc 1 567 13 is_stmt 1 view .LVU662
 567:Generated_Source\PSoC5/cy_em_eeprom.c ****             {
 2011              		.loc 1 567 15 is_stmt 0 view .LVU663
 2012 00e0 0028     		cmp	r0, #0
 2013 00e2 3ED1     		bne	.L113
 572:Generated_Source\PSoC5/cy_em_eeprom.c ****             }
 2014              		.loc 1 572 17 is_stmt 1 discriminator 2 view .LVU664
 572:Generated_Source\PSoC5/cy_em_eeprom.c ****             }
 2015              		.loc 1 572 40 is_stmt 0 discriminator 2 view .LVU665
 2016 00e4 099B     		ldr	r3, [sp, #36]
 2017 00e6 B360     		str	r3, [r6, #8]
 2018              	.LBE13:
 435:Generated_Source\PSoC5/cy_em_eeprom.c ****         {
 2019              		.loc 1 435 44 is_stmt 1 discriminator 2 view .LVU666
 435:Generated_Source\PSoC5/cy_em_eeprom.c ****         {
 2020              		.loc 1 435 49 is_stmt 0 discriminator 2 view .LVU667
 2021 00e8 0AF1010A 		add	r10, r10, #1
ARM GAS  C:\Users\jens-\AppData\Local\Temp\cc4C0Tnp.s 			page 70


 2022              	.LVL239:
 2023              	.L114:
 435:Generated_Source\PSoC5/cy_em_eeprom.c ****         {
 2024              		.loc 1 435 25 is_stmt 1 discriminator 1 view .LVU668
 435:Generated_Source\PSoC5/cy_em_eeprom.c ****         {
 2025              		.loc 1 435 9 is_stmt 0 discriminator 1 view .LVU669
 2026 00ec 049B     		ldr	r3, [sp, #16]
 2027 00ee 9A45     		cmp	r10, r3
 2028 00f0 37D2     		bcs	.L113
 2029              	.LBB15:
 437:Generated_Source\PSoC5/cy_em_eeprom.c ****             /* Get the sequence number of the last written row */
 2030              		.loc 1 437 13 is_stmt 1 view .LVU670
 2031              	.LVL240:
 439:Generated_Source\PSoC5/cy_em_eeprom.c **** 
 2032              		.loc 1 439 13 view .LVU671
 439:Generated_Source\PSoC5/cy_em_eeprom.c **** 
 2033              		.loc 1 439 29 is_stmt 0 view .LVU672
 2034 00f2 099B     		ldr	r3, [sp, #36]
 439:Generated_Source\PSoC5/cy_em_eeprom.c **** 
 2035              		.loc 1 439 20 view .LVU673
 2036 00f4 1C68     		ldr	r4, [r3]
 2037              	.LVL241:
 446:Generated_Source\PSoC5/cy_em_eeprom.c **** 
 2038              		.loc 1 446 13 is_stmt 1 view .LVU674
 2039 00f6 3346     		mov	r3, r6
 2040 00f8 08AA     		add	r2, sp, #32
 2041 00fa 09A9     		add	r1, sp, #36
 2042 00fc 2046     		mov	r0, r4
 2043              	.LVL242:
 446:Generated_Source\PSoC5/cy_em_eeprom.c **** 
 2044              		.loc 1 446 13 is_stmt 0 view .LVU675
 2045 00fe FFF7FEFF 		bl	GetNextRowToWrite
 2046              	.LVL243:
 449:Generated_Source\PSoC5/cy_em_eeprom.c **** 
 2047              		.loc 1 449 13 is_stmt 1 view .LVU676
 449:Generated_Source\PSoC5/cy_em_eeprom.c **** 
 2048              		.loc 1 449 19 is_stmt 0 view .LVU677
 2049 0102 F822     		movs	r2, #248
 2050 0104 0021     		movs	r1, #0
 2051 0106 0EA8     		add	r0, sp, #56
 2052 0108 FFF7FEFF 		bl	memset
 2053              	.LVL244:
 452:Generated_Source\PSoC5/cy_em_eeprom.c ****             writeRamBuffer[CY_EM_EEPROM_HEADER_SEQ_NUM_OFFSET_U32] = seqNum;
 2054              		.loc 1 452 13 is_stmt 1 view .LVU678
 452:Generated_Source\PSoC5/cy_em_eeprom.c ****             writeRamBuffer[CY_EM_EEPROM_HEADER_SEQ_NUM_OFFSET_U32] = seqNum;
 2055              		.loc 1 452 19 is_stmt 0 view .LVU679
 2056 010c 04F10108 		add	r8, r4, #1
 2057              	.LVL245:
 453:Generated_Source\PSoC5/cy_em_eeprom.c ****             writeRamBuffer[CY_EM_EEPROM_HEADER_ADDR_OFFSET_U32] = addr;
 2058              		.loc 1 453 13 is_stmt 1 view .LVU680
 453:Generated_Source\PSoC5/cy_em_eeprom.c ****             writeRamBuffer[CY_EM_EEPROM_HEADER_ADDR_OFFSET_U32] = addr;
 2059              		.loc 1 453 68 is_stmt 0 view .LVU681
 2060 0110 CDF83080 		str	r8, [sp, #48]
 454:Generated_Source\PSoC5/cy_em_eeprom.c ****             tmpData = (void *) eeData;
 2061              		.loc 1 454 13 is_stmt 1 view .LVU682
 454:Generated_Source\PSoC5/cy_em_eeprom.c ****             tmpData = (void *) eeData;
 2062              		.loc 1 454 65 is_stmt 0 view .LVU683
ARM GAS  C:\Users\jens-\AppData\Local\Temp\cc4C0Tnp.s 			page 71


 2063 0114 CDF83490 		str	r9, [sp, #52]
 455:Generated_Source\PSoC5/cy_em_eeprom.c **** 
 2064              		.loc 1 455 13 is_stmt 1 view .LVU684
 455:Generated_Source\PSoC5/cy_em_eeprom.c **** 
 2065              		.loc 1 455 21 is_stmt 0 view .LVU685
 2066 0118 0399     		ldr	r1, [sp, #12]
 2067              	.LVL246:
 458:Generated_Source\PSoC5/cy_em_eeprom.c ****             {
 2068              		.loc 1 458 13 is_stmt 1 view .LVU686
 458:Generated_Source\PSoC5/cy_em_eeprom.c ****             {
 2069              		.loc 1 458 15 is_stmt 0 view .LVU687
 2070 011a 059B     		ldr	r3, [sp, #20]
 2071 011c 5345     		cmp	r3, r10
 2072 011e 94D0     		beq	.L142
 469:Generated_Source\PSoC5/cy_em_eeprom.c ****                 size -= CY_EM_EEPROM_HEADER_DATA_LEN;
 2073              		.loc 1 469 17 is_stmt 1 view .LVU688
 469:Generated_Source\PSoC5/cy_em_eeprom.c ****                 size -= CY_EM_EEPROM_HEADER_DATA_LEN;
 2074              		.loc 1 469 68 is_stmt 0 view .LVU689
 2075 0120 7023     		movs	r3, #112
 2076 0122 0E93     		str	r3, [sp, #56]
 470:Generated_Source\PSoC5/cy_em_eeprom.c ****                 addr += CY_EM_EEPROM_HEADER_DATA_LEN;
 2077              		.loc 1 470 17 is_stmt 1 view .LVU690
 470:Generated_Source\PSoC5/cy_em_eeprom.c ****                 addr += CY_EM_EEPROM_HEADER_DATA_LEN;
 2078              		.loc 1 470 22 is_stmt 0 view .LVU691
 2079 0124 ABF1700B 		sub	fp, fp, #112
 2080              	.LVL247:
 471:Generated_Source\PSoC5/cy_em_eeprom.c ****                 eeData += CY_EM_EEPROM_HEADER_DATA_LEN;
 2081              		.loc 1 471 17 is_stmt 1 view .LVU692
 471:Generated_Source\PSoC5/cy_em_eeprom.c ****                 eeData += CY_EM_EEPROM_HEADER_DATA_LEN;
 2082              		.loc 1 471 22 is_stmt 0 view .LVU693
 2083 0128 9944     		add	r9, r9, r3
 2084              	.LVL248:
 472:Generated_Source\PSoC5/cy_em_eeprom.c ****             }
 2085              		.loc 1 472 17 is_stmt 1 view .LVU694
 472:Generated_Source\PSoC5/cy_em_eeprom.c ****             }
 2086              		.loc 1 472 24 is_stmt 0 view .LVU695
 2087 012a 039B     		ldr	r3, [sp, #12]
 2088 012c 7033     		adds	r3, r3, #112
 2089 012e 0393     		str	r3, [sp, #12]
 2090              	.LVL249:
 2091              	.L116:
 476:Generated_Source\PSoC5/cy_em_eeprom.c ****                          tmpData,
 2092              		.loc 1 476 13 is_stmt 1 view .LVU696
 476:Generated_Source\PSoC5/cy_em_eeprom.c ****                          tmpData,
 2093              		.loc 1 476 19 is_stmt 0 view .LVU697
 2094 0130 0E9A     		ldr	r2, [sp, #56]
 2095 0132 0FA8     		add	r0, sp, #60
 2096 0134 FFF7FEFF 		bl	memcpy
 2097              	.LVL250:
 480:Generated_Source\PSoC5/cy_em_eeprom.c ****             {
 2098              		.loc 1 480 13 is_stmt 1 view .LVU698
 480:Generated_Source\PSoC5/cy_em_eeprom.c ****             {
 2099              		.loc 1 480 34 is_stmt 0 view .LVU699
 2100 0138 0899     		ldr	r1, [sp, #32]
 480:Generated_Source\PSoC5/cy_em_eeprom.c ****             {
 2101              		.loc 1 480 15 view .LVU700
 2102 013a 0029     		cmp	r1, #0
ARM GAS  C:\Users\jens-\AppData\Local\Temp\cc4C0Tnp.s 			page 72


 2103 013c 88D1     		bne	.L143
 2104              	.L117:
 492:Generated_Source\PSoC5/cy_em_eeprom.c **** 
 2105              		.loc 1 492 13 is_stmt 1 view .LVU701
 492:Generated_Source\PSoC5/cy_em_eeprom.c **** 
 2106              		.loc 1 492 34 is_stmt 0 view .LVU702
 2107 013e 7468     		ldr	r4, [r6, #4]
 492:Generated_Source\PSoC5/cy_em_eeprom.c **** 
 2108              		.loc 1 492 94 view .LVU703
 2109 0140 4445     		cmp	r4, r8
 2110 0142 C1D2     		bcs	.L133
 492:Generated_Source\PSoC5/cy_em_eeprom.c **** 
 2111              		.loc 1 492 61 discriminator 1 view .LVU704
 2112 0144 A8EB0404 		sub	r4, r8, r4
 492:Generated_Source\PSoC5/cy_em_eeprom.c **** 
 2113              		.loc 1 492 94 discriminator 1 view .LVU705
 2114 0148 0134     		adds	r4, r4, #1
 2115              	.L118:
 2116 014a 0027     		movs	r7, #0
 2117 014c 96E7     		b	.L125
 2118              	.LVL251:
 2119              	.L141:
 561:Generated_Source\PSoC5/cy_em_eeprom.c **** 
 2120              		.loc 1 561 17 is_stmt 1 view .LVU706
 561:Generated_Source\PSoC5/cy_em_eeprom.c **** 
 2121              		.loc 1 561 56 is_stmt 0 view .LVU707
 2122 014e B069     		ldr	r0, [r6, #24]
 2123              	.LVL252:
 561:Generated_Source\PSoC5/cy_em_eeprom.c **** 
 2124              		.loc 1 561 47 view .LVU708
 2125 0150 101A     		subs	r0, r2, r0
 561:Generated_Source\PSoC5/cy_em_eeprom.c **** 
 2126              		.loc 1 561 87 view .LVU709
 2127 0152 3368     		ldr	r3, [r6]
 2128              	.LVL253:
 564:Generated_Source\PSoC5/cy_em_eeprom.c ****             }
 2129              		.loc 1 564 17 is_stmt 1 view .LVU710
 564:Generated_Source\PSoC5/cy_em_eeprom.c ****             }
 2130              		.loc 1 564 23 is_stmt 0 view .LVU711
 2131 0154 3246     		mov	r2, r6
 2132 0156 0CA9     		add	r1, sp, #48
 2133 0158 1844     		add	r0, r0, r3
 2134              	.LVL254:
 564:Generated_Source\PSoC5/cy_em_eeprom.c ****             }
 2135              		.loc 1 564 23 view .LVU712
 2136 015a FFF7FEFF 		bl	WriteRow
 2137              	.LVL255:
 564:Generated_Source\PSoC5/cy_em_eeprom.c ****             }
 2138              		.loc 1 564 23 view .LVU713
 2139 015e BFE7     		b	.L127
 2140              	.LVL256:
 2141              	.L130:
 564:Generated_Source\PSoC5/cy_em_eeprom.c ****             }
 2142              		.loc 1 564 23 view .LVU714
 2143              	.LBE15:
 2144              	.LBE16:
 416:Generated_Source\PSoC5/cy_em_eeprom.c ****     uint32 i;
ARM GAS  C:\Users\jens-\AppData\Local\Temp\cc4C0Tnp.s 			page 73


 2145              		.loc 1 416 30 view .LVU715
 2146 0160 0120     		movs	r0, #1
 2147              	.LVL257:
 2148              	.L113:
 580:Generated_Source\PSoC5/cy_em_eeprom.c **** }
 2149              		.loc 1 580 5 is_stmt 1 view .LVU716
 581:Generated_Source\PSoC5/cy_em_eeprom.c **** 
 2150              		.loc 1 581 1 is_stmt 0 view .LVU717
 2151 0162 4DB0     		add	sp, sp, #308
 2152              		.cfi_remember_state
 2153              		.cfi_def_cfa_offset 36
 2154              		@ sp needed
 2155 0164 BDE8F08F 		pop	{r4, r5, r6, r7, r8, r9, r10, fp, pc}
 2156              	.LVL258:
 2157              	.L131:
 2158              		.cfi_restore_state
 416:Generated_Source\PSoC5/cy_em_eeprom.c ****     uint32 i;
 2159              		.loc 1 416 30 view .LVU718
 2160 0168 0120     		movs	r0, #1
 2161              	.LVL259:
 416:Generated_Source\PSoC5/cy_em_eeprom.c ****     uint32 i;
 2162              		.loc 1 416 30 view .LVU719
 2163 016a FAE7     		b	.L113
 2164              	.LVL260:
 2165              	.L132:
 416:Generated_Source\PSoC5/cy_em_eeprom.c ****     uint32 i;
 2166              		.loc 1 416 30 view .LVU720
 2167 016c 0120     		movs	r0, #1
 2168              	.LVL261:
 416:Generated_Source\PSoC5/cy_em_eeprom.c ****     uint32 i;
 2169              		.loc 1 416 30 view .LVU721
 2170 016e F8E7     		b	.L113
 2171              	.L145:
 2172              		.align	2
 2173              	.L144:
 2174 0170 26499224 		.word	613566758
 2175              		.cfi_endproc
 2176              	.LFE2:
 2177              		.size	Cy_Em_EEPROM_Write, .-Cy_Em_EEPROM_Write
 2178              		.section	.text.Cy_Em_EEPROM_Erase,"ax",%progbits
 2179              		.align	1
 2180              		.global	Cy_Em_EEPROM_Erase
 2181              		.syntax unified
 2182              		.thumb
 2183              		.thumb_func
 2184              		.fpu softvfp
 2185              		.type	Cy_Em_EEPROM_Erase, %function
 2186              	Cy_Em_EEPROM_Erase:
 2187              	.LVL262:
 2188              	.LFB3:
 630:Generated_Source\PSoC5/cy_em_eeprom.c ****     uint32 i;
 2189              		.loc 1 630 1 is_stmt 1 view -0
 2190              		.cfi_startproc
 2191              		@ args = 0, pretend = 0, frame = 264
 2192              		@ frame_needed = 0, uses_anonymous_args = 0
 630:Generated_Source\PSoC5/cy_em_eeprom.c ****     uint32 i;
 2193              		.loc 1 630 1 is_stmt 0 view .LVU723
ARM GAS  C:\Users\jens-\AppData\Local\Temp\cc4C0Tnp.s 			page 74


 2194 0000 F0B5     		push	{r4, r5, r6, r7, lr}
 2195              		.cfi_def_cfa_offset 20
 2196              		.cfi_offset 4, -20
 2197              		.cfi_offset 5, -16
 2198              		.cfi_offset 6, -12
 2199              		.cfi_offset 7, -8
 2200              		.cfi_offset 14, -4
 2201 0002 C3B0     		sub	sp, sp, #268
 2202              		.cfi_def_cfa_offset 288
 2203 0004 0646     		mov	r6, r0
 631:Generated_Source\PSoC5/cy_em_eeprom.c ****     uint32 seqNum;
 2204              		.loc 1 631 5 is_stmt 1 view .LVU724
 632:Generated_Source\PSoC5/cy_em_eeprom.c ****     uint32 emEepromRowAddr = context->lastWrRowAddr;
 2205              		.loc 1 632 5 view .LVU725
 633:Generated_Source\PSoC5/cy_em_eeprom.c ****     uint32 emEepromRowRdAddr;
 2206              		.loc 1 633 5 view .LVU726
 633:Generated_Source\PSoC5/cy_em_eeprom.c ****     uint32 emEepromRowRdAddr;
 2207              		.loc 1 633 37 is_stmt 0 view .LVU727
 2208 0006 8468     		ldr	r4, [r0, #8]
 633:Generated_Source\PSoC5/cy_em_eeprom.c ****     uint32 emEepromRowRdAddr;
 2209              		.loc 1 633 12 view .LVU728
 2210 0008 4194     		str	r4, [sp, #260]
 634:Generated_Source\PSoC5/cy_em_eeprom.c ****     cy_en_em_eeprom_status_t ret = CY_EM_EEPROM_WRITE_FAIL;
 2211              		.loc 1 634 5 is_stmt 1 view .LVU729
 635:Generated_Source\PSoC5/cy_em_eeprom.c ****     uint32 writeRamBuffer[CY_EM_EEPROM_FLASH_SIZEOF_ROW / CY_EM_EEPROM_U32_DIV] = {0u};
 2212              		.loc 1 635 5 view .LVU730
 2213              	.LVL263:
 636:Generated_Source\PSoC5/cy_em_eeprom.c **** #if (CY_PSOC6)
 2214              		.loc 1 636 5 view .LVU731
 636:Generated_Source\PSoC5/cy_em_eeprom.c **** #if (CY_PSOC6)
 2215              		.loc 1 636 12 is_stmt 0 view .LVU732
 2216 000a 4FF48072 		mov	r2, #256
 2217 000e 0021     		movs	r1, #0
 2218 0010 6846     		mov	r0, sp
 2219              	.LVL264:
 636:Generated_Source\PSoC5/cy_em_eeprom.c **** #if (CY_PSOC6)
 2220              		.loc 1 636 12 view .LVU733
 2221 0012 FFF7FEFF 		bl	memset
 2222              	.LVL265:
 643:Generated_Source\PSoC5/cy_em_eeprom.c **** 
 2223              		.loc 1 643 5 is_stmt 1 view .LVU734
 643:Generated_Source\PSoC5/cy_em_eeprom.c **** 
 2224              		.loc 1 643 12 is_stmt 0 view .LVU735
 2225 0016 2368     		ldr	r3, [r4]
 2226              	.LVL266:
 646:Generated_Source\PSoC5/cy_em_eeprom.c ****     {
 2227              		.loc 1 646 5 is_stmt 1 view .LVU736
 646:Generated_Source\PSoC5/cy_em_eeprom.c ****     {
 2228              		.loc 1 646 7 is_stmt 0 view .LVU737
 2229 0018 1BB3     		cbz	r3, .L151
 2230              	.LBB17:
 649:Generated_Source\PSoC5/cy_em_eeprom.c **** 
 2231              		.loc 1 649 9 is_stmt 1 view .LVU738
 649:Generated_Source\PSoC5/cy_em_eeprom.c **** 
 2232              		.loc 1 649 35 is_stmt 0 view .LVU739
 2233 001a 7368     		ldr	r3, [r6, #4]
 2234              	.LVL267:
ARM GAS  C:\Users\jens-\AppData\Local\Temp\cc4C0Tnp.s 			page 75


 649:Generated_Source\PSoC5/cy_em_eeprom.c **** 
 2235              		.loc 1 649 59 view .LVU740
 2236 001c 3769     		ldr	r7, [r6, #16]
 649:Generated_Source\PSoC5/cy_em_eeprom.c **** 
 2237              		.loc 1 649 16 view .LVU741
 2238 001e 07FB03F7 		mul	r7, r7, r3
 2239              	.LVL268:
 656:Generated_Source\PSoC5/cy_em_eeprom.c ****         {
 2240              		.loc 1 656 9 is_stmt 1 view .LVU742
 656:Generated_Source\PSoC5/cy_em_eeprom.c ****         {
 2241              		.loc 1 656 25 is_stmt 0 view .LVU743
 2242 0022 337D     		ldrb	r3, [r6, #20]	@ zero_extendqisi2
 656:Generated_Source\PSoC5/cy_em_eeprom.c ****         {
 2243              		.loc 1 656 11 view .LVU744
 2244 0024 13B9     		cbnz	r3, .L153
 2245              	.LVL269:
 2246              	.L148:
 656:Generated_Source\PSoC5/cy_em_eeprom.c ****         {
 2247              		.loc 1 656 11 view .LVU745
 2248              	.LBE17:
 630:Generated_Source\PSoC5/cy_em_eeprom.c ****     uint32 i;
 2249              		.loc 1 630 1 discriminator 1 view .LVU746
 2250 0026 0420     		movs	r0, #4
 2251 0028 0025     		movs	r5, #0
 2252 002a 16E0     		b	.L149
 2253              	.LVL270:
 2254              	.L153:
 2255              	.LBB18:
 658:Generated_Source\PSoC5/cy_em_eeprom.c ****                         CalcChecksum((uint8 *) &writeRamBuffer[CY_EM_EEPROM_EEPROM_DATA_OFFSET_U32]
 2256              		.loc 1 658 13 is_stmt 1 view .LVU747
 659:Generated_Source\PSoC5/cy_em_eeprom.c ****                                                   CY_EM_EEPROM_EEPROM_DATA_LEN);
 2257              		.loc 1 659 25 is_stmt 0 view .LVU748
 2258 002c 8021     		movs	r1, #128
 2259 002e 0DEB0100 		add	r0, sp, r1
 2260 0032 FFF7FEFF 		bl	CalcChecksum
 2261              	.LVL271:
 658:Generated_Source\PSoC5/cy_em_eeprom.c ****                         CalcChecksum((uint8 *) &writeRamBuffer[CY_EM_EEPROM_EEPROM_DATA_OFFSET_U32]
 2262              		.loc 1 658 69 view .LVU749
 2263 0036 1F90     		str	r0, [sp, #124]
 2264 0038 F5E7     		b	.L148
 2265              	.LVL272:
 2266              	.L150:
 685:Generated_Source\PSoC5/cy_em_eeprom.c ****             /* Get the address of the row to be erased. "emEepromRowAddr" may be updated
 2267              		.loc 1 685 13 is_stmt 1 discriminator 3 view .LVU750
 685:Generated_Source\PSoC5/cy_em_eeprom.c ****             /* Get the address of the row to be erased. "emEepromRowAddr" may be updated
 2268              		.loc 1 685 22 is_stmt 0 discriminator 3 view .LVU751
 2269 003a 419B     		ldr	r3, [sp, #260]
 685:Generated_Source\PSoC5/cy_em_eeprom.c ****             /* Get the address of the row to be erased. "emEepromRowAddr" may be updated
 2270              		.loc 1 685 20 discriminator 3 view .LVU752
 2271 003c 1C68     		ldr	r4, [r3]
 2272              	.LVL273:
 689:Generated_Source\PSoC5/cy_em_eeprom.c ****             seqNum++;
 2273              		.loc 1 689 13 is_stmt 1 discriminator 3 view .LVU753
 2274 003e 3346     		mov	r3, r6
 2275 0040 40AA     		add	r2, sp, #256
 2276 0042 41A9     		add	r1, sp, #260
 2277 0044 2046     		mov	r0, r4
ARM GAS  C:\Users\jens-\AppData\Local\Temp\cc4C0Tnp.s 			page 76


 2278              	.LVL274:
 689:Generated_Source\PSoC5/cy_em_eeprom.c ****             seqNum++;
 2279              		.loc 1 689 13 is_stmt 0 discriminator 3 view .LVU754
 2280 0046 FFF7FEFF 		bl	GetNextRowToWrite
 2281              	.LVL275:
 690:Generated_Source\PSoC5/cy_em_eeprom.c ****             writeRamBuffer[0u] = seqNum;
 2282              		.loc 1 690 13 is_stmt 1 discriminator 3 view .LVU755
 690:Generated_Source\PSoC5/cy_em_eeprom.c ****             writeRamBuffer[0u] = seqNum;
 2283              		.loc 1 690 19 is_stmt 0 discriminator 3 view .LVU756
 2284 004a 0134     		adds	r4, r4, #1
 2285              	.LVL276:
 691:Generated_Source\PSoC5/cy_em_eeprom.c ****             ret = EraseRow(emEepromRowAddr, (uint32)writeRamBuffer, context);
 2286              		.loc 1 691 13 is_stmt 1 discriminator 3 view .LVU757
 691:Generated_Source\PSoC5/cy_em_eeprom.c ****             ret = EraseRow(emEepromRowAddr, (uint32)writeRamBuffer, context);
 2287              		.loc 1 691 32 is_stmt 0 discriminator 3 view .LVU758
 2288 004c 0094     		str	r4, [sp]
 692:Generated_Source\PSoC5/cy_em_eeprom.c ****         #endif /* (CY_PSOC6) */
 2289              		.loc 1 692 13 is_stmt 1 discriminator 3 view .LVU759
 692:Generated_Source\PSoC5/cy_em_eeprom.c ****         #endif /* (CY_PSOC6) */
 2290              		.loc 1 692 19 is_stmt 0 discriminator 3 view .LVU760
 2291 004e 3246     		mov	r2, r6
 2292 0050 6946     		mov	r1, sp
 2293 0052 4198     		ldr	r0, [sp, #260]
 2294 0054 FFF7FEFF 		bl	EraseRow
 2295              	.LVL277:
 663:Generated_Source\PSoC5/cy_em_eeprom.c ****         {
 2296              		.loc 1 663 36 is_stmt 1 discriminator 3 view .LVU761
 663:Generated_Source\PSoC5/cy_em_eeprom.c ****         {
 2297              		.loc 1 663 37 is_stmt 0 discriminator 3 view .LVU762
 2298 0058 0135     		adds	r5, r5, #1
 2299              	.LVL278:
 2300              	.L149:
 663:Generated_Source\PSoC5/cy_em_eeprom.c ****         {
 2301              		.loc 1 663 21 is_stmt 1 discriminator 1 view .LVU763
 663:Generated_Source\PSoC5/cy_em_eeprom.c ****         {
 2302              		.loc 1 663 9 is_stmt 0 discriminator 1 view .LVU764
 2303 005a BD42     		cmp	r5, r7
 2304 005c EDD3     		bcc	.L150
 2305              	.LVL279:
 2306              	.L147:
 663:Generated_Source\PSoC5/cy_em_eeprom.c ****         {
 2307              		.loc 1 663 9 discriminator 1 view .LVU765
 2308              	.LBE18:
 715:Generated_Source\PSoC5/cy_em_eeprom.c **** }
 2309              		.loc 1 715 5 is_stmt 1 view .LVU766
 716:Generated_Source\PSoC5/cy_em_eeprom.c **** 
 2310              		.loc 1 716 1 is_stmt 0 view .LVU767
 2311 005e 43B0     		add	sp, sp, #268
 2312              		.cfi_remember_state
 2313              		.cfi_def_cfa_offset 20
 2314              		@ sp needed
 2315 0060 F0BD     		pop	{r4, r5, r6, r7, pc}
 2316              	.LVL280:
 2317              	.L151:
 2318              		.cfi_restore_state
 635:Generated_Source\PSoC5/cy_em_eeprom.c ****     uint32 writeRamBuffer[CY_EM_EEPROM_FLASH_SIZEOF_ROW / CY_EM_EEPROM_U32_DIV] = {0u};
 2319              		.loc 1 635 30 view .LVU768
ARM GAS  C:\Users\jens-\AppData\Local\Temp\cc4C0Tnp.s 			page 77


 2320 0062 0420     		movs	r0, #4
 2321 0064 FBE7     		b	.L147
 2322              		.cfi_endproc
 2323              	.LFE3:
 2324              		.size	Cy_Em_EEPROM_Erase, .-Cy_Em_EEPROM_Erase
 2325              		.section	.text.Cy_Em_EEPROM_NumWrites,"ax",%progbits
 2326              		.align	1
 2327              		.global	Cy_Em_EEPROM_NumWrites
 2328              		.syntax unified
 2329              		.thumb
 2330              		.thumb_func
 2331              		.fpu softvfp
 2332              		.type	Cy_Em_EEPROM_NumWrites, %function
 2333              	Cy_Em_EEPROM_NumWrites:
 2334              	.LVL281:
 2335              	.LFB4:
 733:Generated_Source\PSoC5/cy_em_eeprom.c ****     return(CY_EM_EEPROM_GET_SEQ_NUM(context->lastWrRowAddr));
 2336              		.loc 1 733 1 is_stmt 1 view -0
 2337              		.cfi_startproc
 2338              		@ args = 0, pretend = 0, frame = 0
 2339              		@ frame_needed = 0, uses_anonymous_args = 0
 2340              		@ link register save eliminated.
 734:Generated_Source\PSoC5/cy_em_eeprom.c **** }
 2341              		.loc 1 734 5 view .LVU770
 734:Generated_Source\PSoC5/cy_em_eeprom.c **** }
 2342              		.loc 1 734 12 is_stmt 0 view .LVU771
 2343 0000 8368     		ldr	r3, [r0, #8]
 735:Generated_Source\PSoC5/cy_em_eeprom.c **** 
 2344              		.loc 1 735 1 view .LVU772
 2345 0002 1868     		ldr	r0, [r3]
 2346              	.LVL282:
 735:Generated_Source\PSoC5/cy_em_eeprom.c **** 
 2347              		.loc 1 735 1 view .LVU773
 2348 0004 7047     		bx	lr
 2349              		.cfi_endproc
 2350              	.LFE4:
 2351              		.size	Cy_Em_EEPROM_NumWrites, .-Cy_Em_EEPROM_NumWrites
 2352              		.text
 2353              	.Letext0:
 2354              		.file 2 "Generated_Source\\PSoC5\\cytypes.h"
 2355              		.file 3 "c:\\program files (x86)\\cypress\\psoc creator\\4.2\\psoc creator\\import\\gnu\\arm\\5.4.
 2356              		.file 4 "c:\\program files (x86)\\cypress\\psoc creator\\4.2\\psoc creator\\import\\gnu\\arm\\5.4.
 2357              		.file 5 "c:\\program files (x86)\\cypress\\psoc creator\\4.2\\psoc creator\\import\\gnu\\arm\\5.4.
 2358              		.file 6 "c:\\program files (x86)\\cypress\\psoc creator\\4.2\\psoc creator\\import\\gnu\\arm\\5.4.
 2359              		.file 7 "c:\\program files (x86)\\cypress\\psoc creator\\4.2\\psoc creator\\import\\gnu\\arm\\5.4.
 2360              		.file 8 "Generated_Source\\PSoC5\\CyLib.h"
 2361              		.file 9 "Generated_Source\\PSoC5\\CySpc.h"
 2362              		.file 10 "Generated_Source\\PSoC5\\CyFlash.h"
 2363              		.file 11 "Generated_Source\\PSoC5\\cy_em_eeprom.h"
 2364              		.file 12 "<built-in>"
 2365              		.section	.debug_info,"",%progbits
 2366              	.Ldebug_info0:
 2367 0000 211A0000 		.4byte	0x1a21
 2368 0004 0400     		.2byte	0x4
 2369 0006 00000000 		.4byte	.Ldebug_abbrev0
 2370 000a 04       		.byte	0x4
 2371 000b 01       		.uleb128 0x1
ARM GAS  C:\Users\jens-\AppData\Local\Temp\cc4C0Tnp.s 			page 78


 2372 000c B9040000 		.4byte	.LASF226
 2373 0010 0C       		.byte	0xc
 2374 0011 27070000 		.4byte	.LASF227
 2375 0015 1D000000 		.4byte	.LASF228
 2376 0019 B8000000 		.4byte	.Ldebug_ranges0+0xb8
 2377 001d 00000000 		.4byte	0
 2378 0021 00000000 		.4byte	.Ldebug_line0
 2379 0025 02       		.uleb128 0x2
 2380 0026 01       		.byte	0x1
 2381 0027 06       		.byte	0x6
 2382 0028 8F010000 		.4byte	.LASF0
 2383 002c 02       		.uleb128 0x2
 2384 002d 01       		.byte	0x1
 2385 002e 08       		.byte	0x8
 2386 002f 4D070000 		.4byte	.LASF1
 2387 0033 02       		.uleb128 0x2
 2388 0034 02       		.byte	0x2
 2389 0035 05       		.byte	0x5
 2390 0036 84070000 		.4byte	.LASF2
 2391 003a 02       		.uleb128 0x2
 2392 003b 02       		.byte	0x2
 2393 003c 07       		.byte	0x7
 2394 003d E6030000 		.4byte	.LASF3
 2395 0041 02       		.uleb128 0x2
 2396 0042 04       		.byte	0x4
 2397 0043 05       		.byte	0x5
 2398 0044 3A020000 		.4byte	.LASF4
 2399 0048 02       		.uleb128 0x2
 2400 0049 04       		.byte	0x4
 2401 004a 07       		.byte	0x7
 2402 004b 98030000 		.4byte	.LASF5
 2403 004f 02       		.uleb128 0x2
 2404 0050 08       		.byte	0x8
 2405 0051 05       		.byte	0x5
 2406 0052 81010000 		.4byte	.LASF6
 2407 0056 02       		.uleb128 0x2
 2408 0057 08       		.byte	0x8
 2409 0058 07       		.byte	0x7
 2410 0059 FC000000 		.4byte	.LASF7
 2411 005d 03       		.uleb128 0x3
 2412 005e 04       		.byte	0x4
 2413 005f 05       		.byte	0x5
 2414 0060 696E7400 		.ascii	"int\000"
 2415 0064 02       		.uleb128 0x2
 2416 0065 04       		.byte	0x4
 2417 0066 07       		.byte	0x7
 2418 0067 60030000 		.4byte	.LASF8
 2419 006b 04       		.uleb128 0x4
 2420 006c 62020000 		.4byte	.LASF9
 2421 0070 02       		.byte	0x2
 2422 0071 E401     		.2byte	0x1e4
 2423 0073 19       		.byte	0x19
 2424 0074 2C000000 		.4byte	0x2c
 2425 0078 04       		.uleb128 0x4
 2426 0079 0C000000 		.4byte	.LASF10
 2427 007d 02       		.byte	0x2
 2428 007e E501     		.2byte	0x1e5
ARM GAS  C:\Users\jens-\AppData\Local\Temp\cc4C0Tnp.s 			page 79


 2429 0080 19       		.byte	0x19
 2430 0081 3A000000 		.4byte	0x3a
 2431 0085 04       		.uleb128 0x4
 2432 0086 B1020000 		.4byte	.LASF11
 2433 008a 02       		.byte	0x2
 2434 008b E601     		.2byte	0x1e6
 2435 008d 19       		.byte	0x19
 2436 008e 48000000 		.4byte	0x48
 2437 0092 02       		.uleb128 0x2
 2438 0093 04       		.byte	0x4
 2439 0094 04       		.byte	0x4
 2440 0095 A1060000 		.4byte	.LASF12
 2441 0099 02       		.uleb128 0x2
 2442 009a 08       		.byte	0x8
 2443 009b 04       		.byte	0x4
 2444 009c 7B020000 		.4byte	.LASF13
 2445 00a0 02       		.uleb128 0x2
 2446 00a1 01       		.byte	0x1
 2447 00a2 08       		.byte	0x8
 2448 00a3 B3080000 		.4byte	.LASF14
 2449 00a7 05       		.uleb128 0x5
 2450 00a8 A0000000 		.4byte	0xa0
 2451 00ac 04       		.uleb128 0x4
 2452 00ad 3C0A0000 		.4byte	.LASF15
 2453 00b1 02       		.byte	0x2
 2454 00b2 8602     		.2byte	0x286
 2455 00b4 1B       		.byte	0x1b
 2456 00b5 48000000 		.4byte	0x48
 2457 00b9 06       		.uleb128 0x6
 2458 00ba 04       		.byte	0x4
 2459 00bb BF000000 		.4byte	0xbf
 2460 00bf 07       		.uleb128 0x7
 2461 00c0 02       		.uleb128 0x2
 2462 00c1 08       		.byte	0x8
 2463 00c2 04       		.byte	0x4
 2464 00c3 CE050000 		.4byte	.LASF16
 2465 00c7 08       		.uleb128 0x8
 2466 00c8 5D040000 		.4byte	.LASF17
 2467 00cc 03       		.byte	0x3
 2468 00cd 22       		.byte	0x22
 2469 00ce 19       		.byte	0x19
 2470 00cf D3000000 		.4byte	0xd3
 2471 00d3 06       		.uleb128 0x6
 2472 00d4 04       		.byte	0x4
 2473 00d5 D9000000 		.4byte	0xd9
 2474 00d9 09       		.uleb128 0x9
 2475 00da 66080000 		.4byte	.LASF123
 2476 00de 08       		.uleb128 0x8
 2477 00df 6E060000 		.4byte	.LASF18
 2478 00e3 04       		.byte	0x4
 2479 00e4 2C       		.byte	0x2c
 2480 00e5 0E       		.byte	0xe
 2481 00e6 41000000 		.4byte	0x41
 2482 00ea 08       		.uleb128 0x8
 2483 00eb 96080000 		.4byte	.LASF19
 2484 00ef 04       		.byte	0x4
 2485 00f0 72       		.byte	0x72
ARM GAS  C:\Users\jens-\AppData\Local\Temp\cc4C0Tnp.s 			page 80


 2486 00f1 0E       		.byte	0xe
 2487 00f2 41000000 		.4byte	0x41
 2488 00f6 04       		.uleb128 0x4
 2489 00f7 70040000 		.4byte	.LASF20
 2490 00fb 05       		.byte	0x5
 2491 00fc 5E01     		.2byte	0x15e
 2492 00fe 17       		.byte	0x17
 2493 00ff 64000000 		.4byte	0x64
 2494 0103 0A       		.uleb128 0xa
 2495 0104 04       		.byte	0x4
 2496 0105 04       		.byte	0x4
 2497 0106 A6       		.byte	0xa6
 2498 0107 03       		.byte	0x3
 2499 0108 25010000 		.4byte	0x125
 2500 010c 0B       		.uleb128 0xb
 2501 010d 3E040000 		.4byte	.LASF21
 2502 0111 04       		.byte	0x4
 2503 0112 A8       		.byte	0xa8
 2504 0113 0C       		.byte	0xc
 2505 0114 F6000000 		.4byte	0xf6
 2506 0118 0B       		.uleb128 0xb
 2507 0119 76030000 		.4byte	.LASF22
 2508 011d 04       		.byte	0x4
 2509 011e A9       		.byte	0xa9
 2510 011f 13       		.byte	0x13
 2511 0120 25010000 		.4byte	0x125
 2512 0124 00       		.byte	0
 2513 0125 0C       		.uleb128 0xc
 2514 0126 2C000000 		.4byte	0x2c
 2515 012a 35010000 		.4byte	0x135
 2516 012e 0D       		.uleb128 0xd
 2517 012f 64000000 		.4byte	0x64
 2518 0133 03       		.byte	0x3
 2519 0134 00       		.byte	0
 2520 0135 0E       		.uleb128 0xe
 2521 0136 08       		.byte	0x8
 2522 0137 04       		.byte	0x4
 2523 0138 A3       		.byte	0xa3
 2524 0139 09       		.byte	0x9
 2525 013a 59010000 		.4byte	0x159
 2526 013e 0F       		.uleb128 0xf
 2527 013f 5E080000 		.4byte	.LASF23
 2528 0143 04       		.byte	0x4
 2529 0144 A5       		.byte	0xa5
 2530 0145 07       		.byte	0x7
 2531 0146 5D000000 		.4byte	0x5d
 2532 014a 00       		.byte	0
 2533 014b 0F       		.uleb128 0xf
 2534 014c 6D080000 		.4byte	.LASF24
 2535 0150 04       		.byte	0x4
 2536 0151 AA       		.byte	0xaa
 2537 0152 05       		.byte	0x5
 2538 0153 03010000 		.4byte	0x103
 2539 0157 04       		.byte	0x4
 2540 0158 00       		.byte	0
 2541 0159 08       		.uleb128 0x8
 2542 015a B9070000 		.4byte	.LASF25
ARM GAS  C:\Users\jens-\AppData\Local\Temp\cc4C0Tnp.s 			page 81


 2543 015e 04       		.byte	0x4
 2544 015f AB       		.byte	0xab
 2545 0160 03       		.byte	0x3
 2546 0161 35010000 		.4byte	0x135
 2547 0165 08       		.uleb128 0x8
 2548 0166 EE020000 		.4byte	.LASF26
 2549 016a 04       		.byte	0x4
 2550 016b AF       		.byte	0xaf
 2551 016c 1B       		.byte	0x1b
 2552 016d C7000000 		.4byte	0xc7
 2553 0171 10       		.uleb128 0x10
 2554 0172 04       		.byte	0x4
 2555 0173 06       		.uleb128 0x6
 2556 0174 04       		.byte	0x4
 2557 0175 A0000000 		.4byte	0xa0
 2558 0179 08       		.uleb128 0x8
 2559 017a 61090000 		.4byte	.LASF27
 2560 017e 06       		.byte	0x6
 2561 017f 16       		.byte	0x16
 2562 0180 19       		.byte	0x19
 2563 0181 48000000 		.4byte	0x48
 2564 0185 11       		.uleb128 0x11
 2565 0186 FF020000 		.4byte	.LASF32
 2566 018a 18       		.byte	0x18
 2567 018b 06       		.byte	0x6
 2568 018c 2F       		.byte	0x2f
 2569 018d 08       		.byte	0x8
 2570 018e DF010000 		.4byte	0x1df
 2571 0192 0F       		.uleb128 0xf
 2572 0193 1E090000 		.4byte	.LASF28
 2573 0197 06       		.byte	0x6
 2574 0198 31       		.byte	0x31
 2575 0199 13       		.byte	0x13
 2576 019a DF010000 		.4byte	0x1df
 2577 019e 00       		.byte	0
 2578 019f 12       		.uleb128 0x12
 2579 01a0 5F6B00   		.ascii	"_k\000"
 2580 01a3 06       		.byte	0x6
 2581 01a4 32       		.byte	0x32
 2582 01a5 07       		.byte	0x7
 2583 01a6 5D000000 		.4byte	0x5d
 2584 01aa 04       		.byte	0x4
 2585 01ab 0F       		.uleb128 0xf
 2586 01ac 22080000 		.4byte	.LASF29
 2587 01b0 06       		.byte	0x6
 2588 01b1 32       		.byte	0x32
 2589 01b2 0B       		.byte	0xb
 2590 01b3 5D000000 		.4byte	0x5d
 2591 01b7 08       		.byte	0x8
 2592 01b8 0F       		.uleb128 0xf
 2593 01b9 D3020000 		.4byte	.LASF30
 2594 01bd 06       		.byte	0x6
 2595 01be 32       		.byte	0x32
 2596 01bf 14       		.byte	0x14
 2597 01c0 5D000000 		.4byte	0x5d
 2598 01c4 0C       		.byte	0xc
 2599 01c5 0F       		.uleb128 0xf
ARM GAS  C:\Users\jens-\AppData\Local\Temp\cc4C0Tnp.s 			page 82


 2600 01c6 EF090000 		.4byte	.LASF31
 2601 01ca 06       		.byte	0x6
 2602 01cb 32       		.byte	0x32
 2603 01cc 1B       		.byte	0x1b
 2604 01cd 5D000000 		.4byte	0x5d
 2605 01d1 10       		.byte	0x10
 2606 01d2 12       		.uleb128 0x12
 2607 01d3 5F7800   		.ascii	"_x\000"
 2608 01d6 06       		.byte	0x6
 2609 01d7 33       		.byte	0x33
 2610 01d8 0B       		.byte	0xb
 2611 01d9 E5010000 		.4byte	0x1e5
 2612 01dd 14       		.byte	0x14
 2613 01de 00       		.byte	0
 2614 01df 06       		.uleb128 0x6
 2615 01e0 04       		.byte	0x4
 2616 01e1 85010000 		.4byte	0x185
 2617 01e5 0C       		.uleb128 0xc
 2618 01e6 79010000 		.4byte	0x179
 2619 01ea F5010000 		.4byte	0x1f5
 2620 01ee 0D       		.uleb128 0xd
 2621 01ef 64000000 		.4byte	0x64
 2622 01f3 00       		.byte	0
 2623 01f4 00       		.byte	0
 2624 01f5 11       		.uleb128 0x11
 2625 01f6 52030000 		.4byte	.LASF33
 2626 01fa 24       		.byte	0x24
 2627 01fb 06       		.byte	0x6
 2628 01fc 37       		.byte	0x37
 2629 01fd 08       		.byte	0x8
 2630 01fe 78020000 		.4byte	0x278
 2631 0202 0F       		.uleb128 0xf
 2632 0203 6E010000 		.4byte	.LASF34
 2633 0207 06       		.byte	0x6
 2634 0208 39       		.byte	0x39
 2635 0209 09       		.byte	0x9
 2636 020a 5D000000 		.4byte	0x5d
 2637 020e 00       		.byte	0
 2638 020f 0F       		.uleb128 0xf
 2639 0210 B8080000 		.4byte	.LASF35
 2640 0214 06       		.byte	0x6
 2641 0215 3A       		.byte	0x3a
 2642 0216 09       		.byte	0x9
 2643 0217 5D000000 		.4byte	0x5d
 2644 021b 04       		.byte	0x4
 2645 021c 0F       		.uleb128 0xf
 2646 021d E8010000 		.4byte	.LASF36
 2647 0221 06       		.byte	0x6
 2648 0222 3B       		.byte	0x3b
 2649 0223 09       		.byte	0x9
 2650 0224 5D000000 		.4byte	0x5d
 2651 0228 08       		.byte	0x8
 2652 0229 0F       		.uleb128 0xf
 2653 022a CF0A0000 		.4byte	.LASF37
 2654 022e 06       		.byte	0x6
 2655 022f 3C       		.byte	0x3c
 2656 0230 09       		.byte	0x9
ARM GAS  C:\Users\jens-\AppData\Local\Temp\cc4C0Tnp.s 			page 83


 2657 0231 5D000000 		.4byte	0x5d
 2658 0235 0C       		.byte	0xc
 2659 0236 0F       		.uleb128 0xf
 2660 0237 37060000 		.4byte	.LASF38
 2661 023b 06       		.byte	0x6
 2662 023c 3D       		.byte	0x3d
 2663 023d 09       		.byte	0x9
 2664 023e 5D000000 		.4byte	0x5d
 2665 0242 10       		.byte	0x10
 2666 0243 0F       		.uleb128 0xf
 2667 0244 7B050000 		.4byte	.LASF39
 2668 0248 06       		.byte	0x6
 2669 0249 3E       		.byte	0x3e
 2670 024a 09       		.byte	0x9
 2671 024b 5D000000 		.4byte	0x5d
 2672 024f 14       		.byte	0x14
 2673 0250 0F       		.uleb128 0xf
 2674 0251 F4090000 		.4byte	.LASF40
 2675 0255 06       		.byte	0x6
 2676 0256 3F       		.byte	0x3f
 2677 0257 09       		.byte	0x9
 2678 0258 5D000000 		.4byte	0x5d
 2679 025c 18       		.byte	0x18
 2680 025d 0F       		.uleb128 0xf
 2681 025e 8E070000 		.4byte	.LASF41
 2682 0262 06       		.byte	0x6
 2683 0263 40       		.byte	0x40
 2684 0264 09       		.byte	0x9
 2685 0265 5D000000 		.4byte	0x5d
 2686 0269 1C       		.byte	0x1c
 2687 026a 0F       		.uleb128 0xf
 2688 026b 730A0000 		.4byte	.LASF42
 2689 026f 06       		.byte	0x6
 2690 0270 41       		.byte	0x41
 2691 0271 09       		.byte	0x9
 2692 0272 5D000000 		.4byte	0x5d
 2693 0276 20       		.byte	0x20
 2694 0277 00       		.byte	0
 2695 0278 13       		.uleb128 0x13
 2696 0279 05020000 		.4byte	.LASF43
 2697 027d 0801     		.2byte	0x108
 2698 027f 06       		.byte	0x6
 2699 0280 4A       		.byte	0x4a
 2700 0281 08       		.byte	0x8
 2701 0282 BD020000 		.4byte	0x2bd
 2702 0286 0F       		.uleb128 0xf
 2703 0287 65000000 		.4byte	.LASF44
 2704 028b 06       		.byte	0x6
 2705 028c 4B       		.byte	0x4b
 2706 028d 0A       		.byte	0xa
 2707 028e BD020000 		.4byte	0x2bd
 2708 0292 00       		.byte	0
 2709 0293 0F       		.uleb128 0xf
 2710 0294 00000000 		.4byte	.LASF45
 2711 0298 06       		.byte	0x6
 2712 0299 4C       		.byte	0x4c
 2713 029a 09       		.byte	0x9
ARM GAS  C:\Users\jens-\AppData\Local\Temp\cc4C0Tnp.s 			page 84


 2714 029b BD020000 		.4byte	0x2bd
 2715 029f 80       		.byte	0x80
 2716 02a0 14       		.uleb128 0x14
 2717 02a1 3D090000 		.4byte	.LASF46
 2718 02a5 06       		.byte	0x6
 2719 02a6 4E       		.byte	0x4e
 2720 02a7 0A       		.byte	0xa
 2721 02a8 79010000 		.4byte	0x179
 2722 02ac 0001     		.2byte	0x100
 2723 02ae 14       		.uleb128 0x14
 2724 02af 4A020000 		.4byte	.LASF47
 2725 02b3 06       		.byte	0x6
 2726 02b4 51       		.byte	0x51
 2727 02b5 0A       		.byte	0xa
 2728 02b6 79010000 		.4byte	0x179
 2729 02ba 0401     		.2byte	0x104
 2730 02bc 00       		.byte	0
 2731 02bd 0C       		.uleb128 0xc
 2732 02be 71010000 		.4byte	0x171
 2733 02c2 CD020000 		.4byte	0x2cd
 2734 02c6 0D       		.uleb128 0xd
 2735 02c7 64000000 		.4byte	0x64
 2736 02cb 1F       		.byte	0x1f
 2737 02cc 00       		.byte	0
 2738 02cd 13       		.uleb128 0x13
 2739 02ce 4E060000 		.4byte	.LASF48
 2740 02d2 9001     		.2byte	0x190
 2741 02d4 06       		.byte	0x6
 2742 02d5 5D       		.byte	0x5d
 2743 02d6 08       		.byte	0x8
 2744 02d7 10030000 		.4byte	0x310
 2745 02db 0F       		.uleb128 0xf
 2746 02dc 1E090000 		.4byte	.LASF28
 2747 02e0 06       		.byte	0x6
 2748 02e1 5E       		.byte	0x5e
 2749 02e2 12       		.byte	0x12
 2750 02e3 10030000 		.4byte	0x310
 2751 02e7 00       		.byte	0
 2752 02e8 0F       		.uleb128 0xf
 2753 02e9 F2070000 		.4byte	.LASF49
 2754 02ed 06       		.byte	0x6
 2755 02ee 5F       		.byte	0x5f
 2756 02ef 06       		.byte	0x6
 2757 02f0 5D000000 		.4byte	0x5d
 2758 02f4 04       		.byte	0x4
 2759 02f5 0F       		.uleb128 0xf
 2760 02f6 CE020000 		.4byte	.LASF50
 2761 02fa 06       		.byte	0x6
 2762 02fb 61       		.byte	0x61
 2763 02fc 09       		.byte	0x9
 2764 02fd 16030000 		.4byte	0x316
 2765 0301 08       		.byte	0x8
 2766 0302 0F       		.uleb128 0xf
 2767 0303 05020000 		.4byte	.LASF43
 2768 0307 06       		.byte	0x6
 2769 0308 62       		.byte	0x62
 2770 0309 1E       		.byte	0x1e
ARM GAS  C:\Users\jens-\AppData\Local\Temp\cc4C0Tnp.s 			page 85


 2771 030a 78020000 		.4byte	0x278
 2772 030e 88       		.byte	0x88
 2773 030f 00       		.byte	0
 2774 0310 06       		.uleb128 0x6
 2775 0311 04       		.byte	0x4
 2776 0312 CD020000 		.4byte	0x2cd
 2777 0316 0C       		.uleb128 0xc
 2778 0317 B9000000 		.4byte	0xb9
 2779 031b 26030000 		.4byte	0x326
 2780 031f 0D       		.uleb128 0xd
 2781 0320 64000000 		.4byte	0x64
 2782 0324 1F       		.byte	0x1f
 2783 0325 00       		.byte	0
 2784 0326 11       		.uleb128 0x11
 2785 0327 98070000 		.4byte	.LASF51
 2786 032b 08       		.byte	0x8
 2787 032c 06       		.byte	0x6
 2788 032d 75       		.byte	0x75
 2789 032e 08       		.byte	0x8
 2790 032f 4E030000 		.4byte	0x34e
 2791 0333 0F       		.uleb128 0xf
 2792 0334 E2010000 		.4byte	.LASF52
 2793 0338 06       		.byte	0x6
 2794 0339 76       		.byte	0x76
 2795 033a 11       		.byte	0x11
 2796 033b 4E030000 		.4byte	0x34e
 2797 033f 00       		.byte	0
 2798 0340 0F       		.uleb128 0xf
 2799 0341 C8020000 		.4byte	.LASF53
 2800 0345 06       		.byte	0x6
 2801 0346 77       		.byte	0x77
 2802 0347 06       		.byte	0x6
 2803 0348 5D000000 		.4byte	0x5d
 2804 034c 04       		.byte	0x4
 2805 034d 00       		.byte	0
 2806 034e 06       		.uleb128 0x6
 2807 034f 04       		.byte	0x4
 2808 0350 2C000000 		.4byte	0x2c
 2809 0354 11       		.uleb128 0x11
 2810 0355 C4070000 		.4byte	.LASF54
 2811 0359 68       		.byte	0x68
 2812 035a 06       		.byte	0x6
 2813 035b B5       		.byte	0xb5
 2814 035c 08       		.byte	0x8
 2815 035d 97040000 		.4byte	0x497
 2816 0361 12       		.uleb128 0x12
 2817 0362 5F7000   		.ascii	"_p\000"
 2818 0365 06       		.byte	0x6
 2819 0366 B6       		.byte	0xb6
 2820 0367 12       		.byte	0x12
 2821 0368 4E030000 		.4byte	0x34e
 2822 036c 00       		.byte	0
 2823 036d 12       		.uleb128 0x12
 2824 036e 5F7200   		.ascii	"_r\000"
 2825 0371 06       		.byte	0x6
 2826 0372 B7       		.byte	0xb7
 2827 0373 07       		.byte	0x7
ARM GAS  C:\Users\jens-\AppData\Local\Temp\cc4C0Tnp.s 			page 86


 2828 0374 5D000000 		.4byte	0x5d
 2829 0378 04       		.byte	0x4
 2830 0379 12       		.uleb128 0x12
 2831 037a 5F7700   		.ascii	"_w\000"
 2832 037d 06       		.byte	0x6
 2833 037e B8       		.byte	0xb8
 2834 037f 07       		.byte	0x7
 2835 0380 5D000000 		.4byte	0x5d
 2836 0384 08       		.byte	0x8
 2837 0385 0F       		.uleb128 0xf
 2838 0386 43020000 		.4byte	.LASF55
 2839 038a 06       		.byte	0x6
 2840 038b B9       		.byte	0xb9
 2841 038c 09       		.byte	0x9
 2842 038d 33000000 		.4byte	0x33
 2843 0391 0C       		.byte	0xc
 2844 0392 0F       		.uleb128 0xf
 2845 0393 B7030000 		.4byte	.LASF56
 2846 0397 06       		.byte	0x6
 2847 0398 BA       		.byte	0xba
 2848 0399 09       		.byte	0x9
 2849 039a 33000000 		.4byte	0x33
 2850 039e 0E       		.byte	0xe
 2851 039f 12       		.uleb128 0x12
 2852 03a0 5F626600 		.ascii	"_bf\000"
 2853 03a4 06       		.byte	0x6
 2854 03a5 BB       		.byte	0xbb
 2855 03a6 11       		.byte	0x11
 2856 03a7 26030000 		.4byte	0x326
 2857 03ab 10       		.byte	0x10
 2858 03ac 0F       		.uleb128 0xf
 2859 03ad 13010000 		.4byte	.LASF57
 2860 03b1 06       		.byte	0x6
 2861 03b2 BC       		.byte	0xbc
 2862 03b3 07       		.byte	0x7
 2863 03b4 5D000000 		.4byte	0x5d
 2864 03b8 18       		.byte	0x18
 2865 03b9 0F       		.uleb128 0xf
 2866 03ba 2A020000 		.4byte	.LASF58
 2867 03be 06       		.byte	0x6
 2868 03bf C3       		.byte	0xc3
 2869 03c0 0A       		.byte	0xa
 2870 03c1 71010000 		.4byte	0x171
 2871 03c5 1C       		.byte	0x1c
 2872 03c6 0F       		.uleb128 0xf
 2873 03c7 2C030000 		.4byte	.LASF59
 2874 03cb 06       		.byte	0x6
 2875 03cc C5       		.byte	0xc5
 2876 03cd 1D       		.byte	0x1d
 2877 03ce 09060000 		.4byte	0x609
 2878 03d2 20       		.byte	0x20
 2879 03d3 0F       		.uleb128 0xf
 2880 03d4 74050000 		.4byte	.LASF60
 2881 03d8 06       		.byte	0x6
 2882 03d9 C7       		.byte	0xc7
 2883 03da 1D       		.byte	0x1d
 2884 03db 33060000 		.4byte	0x633
ARM GAS  C:\Users\jens-\AppData\Local\Temp\cc4C0Tnp.s 			page 87


 2885 03df 24       		.byte	0x24
 2886 03e0 0F       		.uleb128 0xf
 2887 03e1 84080000 		.4byte	.LASF61
 2888 03e5 06       		.byte	0x6
 2889 03e6 CA       		.byte	0xca
 2890 03e7 0D       		.byte	0xd
 2891 03e8 57060000 		.4byte	0x657
 2892 03ec 28       		.byte	0x28
 2893 03ed 0F       		.uleb128 0xf
 2894 03ee 8D0A0000 		.4byte	.LASF62
 2895 03f2 06       		.byte	0x6
 2896 03f3 CB       		.byte	0xcb
 2897 03f4 09       		.byte	0x9
 2898 03f5 71060000 		.4byte	0x671
 2899 03f9 2C       		.byte	0x2c
 2900 03fa 12       		.uleb128 0x12
 2901 03fb 5F756200 		.ascii	"_ub\000"
 2902 03ff 06       		.byte	0x6
 2903 0400 CE       		.byte	0xce
 2904 0401 11       		.byte	0x11
 2905 0402 26030000 		.4byte	0x326
 2906 0406 30       		.byte	0x30
 2907 0407 12       		.uleb128 0x12
 2908 0408 5F757000 		.ascii	"_up\000"
 2909 040c 06       		.byte	0x6
 2910 040d CF       		.byte	0xcf
 2911 040e 12       		.byte	0x12
 2912 040f 4E030000 		.4byte	0x34e
 2913 0413 38       		.byte	0x38
 2914 0414 12       		.uleb128 0x12
 2915 0415 5F757200 		.ascii	"_ur\000"
 2916 0419 06       		.byte	0x6
 2917 041a D0       		.byte	0xd0
 2918 041b 07       		.byte	0x7
 2919 041c 5D000000 		.4byte	0x5d
 2920 0420 3C       		.byte	0x3c
 2921 0421 0F       		.uleb128 0xf
 2922 0422 C9010000 		.4byte	.LASF63
 2923 0426 06       		.byte	0x6
 2924 0427 D3       		.byte	0xd3
 2925 0428 11       		.byte	0x11
 2926 0429 77060000 		.4byte	0x677
 2927 042d 40       		.byte	0x40
 2928 042e 0F       		.uleb128 0xf
 2929 042f 360A0000 		.4byte	.LASF64
 2930 0433 06       		.byte	0x6
 2931 0434 D4       		.byte	0xd4
 2932 0435 11       		.byte	0x11
 2933 0436 87060000 		.4byte	0x687
 2934 043a 43       		.byte	0x43
 2935 043b 12       		.uleb128 0x12
 2936 043c 5F6C6200 		.ascii	"_lb\000"
 2937 0440 06       		.byte	0x6
 2938 0441 D7       		.byte	0xd7
 2939 0442 11       		.byte	0x11
 2940 0443 26030000 		.4byte	0x326
 2941 0447 44       		.byte	0x44
ARM GAS  C:\Users\jens-\AppData\Local\Temp\cc4C0Tnp.s 			page 88


 2942 0448 0F       		.uleb128 0xf
 2943 0449 59020000 		.4byte	.LASF65
 2944 044d 06       		.byte	0x6
 2945 044e DA       		.byte	0xda
 2946 044f 07       		.byte	0x7
 2947 0450 5D000000 		.4byte	0x5d
 2948 0454 4C       		.byte	0x4c
 2949 0455 0F       		.uleb128 0xf
 2950 0456 8A020000 		.4byte	.LASF66
 2951 045a 06       		.byte	0x6
 2952 045b DB       		.byte	0xdb
 2953 045c 0A       		.byte	0xa
 2954 045d DE000000 		.4byte	0xde
 2955 0461 50       		.byte	0x50
 2956 0462 0F       		.uleb128 0xf
 2957 0463 BF000000 		.4byte	.LASF67
 2958 0467 06       		.byte	0x6
 2959 0468 DE       		.byte	0xde
 2960 0469 12       		.byte	0x12
 2961 046a B5040000 		.4byte	0x4b5
 2962 046e 54       		.byte	0x54
 2963 046f 0F       		.uleb128 0xf
 2964 0470 88040000 		.4byte	.LASF68
 2965 0474 06       		.byte	0x6
 2966 0475 E2       		.byte	0xe2
 2967 0476 0C       		.byte	0xc
 2968 0477 65010000 		.4byte	0x165
 2969 047b 58       		.byte	0x58
 2970 047c 0F       		.uleb128 0xf
 2971 047d CC070000 		.4byte	.LASF69
 2972 0481 06       		.byte	0x6
 2973 0482 E4       		.byte	0xe4
 2974 0483 0E       		.byte	0xe
 2975 0484 59010000 		.4byte	0x159
 2976 0488 5C       		.byte	0x5c
 2977 0489 0F       		.uleb128 0xf
 2978 048a 9B040000 		.4byte	.LASF70
 2979 048e 06       		.byte	0x6
 2980 048f E5       		.byte	0xe5
 2981 0490 09       		.byte	0x9
 2982 0491 5D000000 		.4byte	0x5d
 2983 0495 64       		.byte	0x64
 2984 0496 00       		.byte	0
 2985 0497 15       		.uleb128 0x15
 2986 0498 5D000000 		.4byte	0x5d
 2987 049c B5040000 		.4byte	0x4b5
 2988 04a0 16       		.uleb128 0x16
 2989 04a1 B5040000 		.4byte	0x4b5
 2990 04a5 16       		.uleb128 0x16
 2991 04a6 71010000 		.4byte	0x171
 2992 04aa 16       		.uleb128 0x16
 2993 04ab 73010000 		.4byte	0x173
 2994 04af 16       		.uleb128 0x16
 2995 04b0 5D000000 		.4byte	0x5d
 2996 04b4 00       		.byte	0
 2997 04b5 06       		.uleb128 0x6
 2998 04b6 04       		.byte	0x4
ARM GAS  C:\Users\jens-\AppData\Local\Temp\cc4C0Tnp.s 			page 89


 2999 04b7 C0040000 		.4byte	0x4c0
 3000 04bb 05       		.uleb128 0x5
 3001 04bc B5040000 		.4byte	0x4b5
 3002 04c0 17       		.uleb128 0x17
 3003 04c1 2A080000 		.4byte	.LASF71
 3004 04c5 2804     		.2byte	0x428
 3005 04c7 06       		.byte	0x6
 3006 04c8 6002     		.2byte	0x260
 3007 04ca 08       		.byte	0x8
 3008 04cb 09060000 		.4byte	0x609
 3009 04cf 18       		.uleb128 0x18
 3010 04d0 AC080000 		.4byte	.LASF72
 3011 04d4 06       		.byte	0x6
 3012 04d5 6202     		.2byte	0x262
 3013 04d7 07       		.byte	0x7
 3014 04d8 5D000000 		.4byte	0x5d
 3015 04dc 00       		.byte	0
 3016 04dd 18       		.uleb128 0x18
 3017 04de 52020000 		.4byte	.LASF73
 3018 04e2 06       		.byte	0x6
 3019 04e3 6702     		.2byte	0x267
 3020 04e5 0B       		.byte	0xb
 3021 04e6 E3060000 		.4byte	0x6e3
 3022 04ea 04       		.byte	0x4
 3023 04eb 18       		.uleb128 0x18
 3024 04ec 88030000 		.4byte	.LASF74
 3025 04f0 06       		.byte	0x6
 3026 04f1 6702     		.2byte	0x267
 3027 04f3 14       		.byte	0x14
 3028 04f4 E3060000 		.4byte	0x6e3
 3029 04f8 08       		.byte	0x8
 3030 04f9 18       		.uleb128 0x18
 3031 04fa F7020000 		.4byte	.LASF75
 3032 04fe 06       		.byte	0x6
 3033 04ff 6702     		.2byte	0x267
 3034 0501 1E       		.byte	0x1e
 3035 0502 E3060000 		.4byte	0x6e3
 3036 0506 0C       		.byte	0xc
 3037 0507 18       		.uleb128 0x18
 3038 0508 ED070000 		.4byte	.LASF76
 3039 050c 06       		.byte	0x6
 3040 050d 6902     		.2byte	0x269
 3041 050f 08       		.byte	0x8
 3042 0510 5D000000 		.4byte	0x5d
 3043 0514 10       		.byte	0x10
 3044 0515 18       		.uleb128 0x18
 3045 0516 8C000000 		.4byte	.LASF77
 3046 051a 06       		.byte	0x6
 3047 051b 6A02     		.2byte	0x26a
 3048 051d 08       		.byte	0x8
 3049 051e E3080000 		.4byte	0x8e3
 3050 0522 14       		.byte	0x14
 3051 0523 18       		.uleb128 0x18
 3052 0524 09080000 		.4byte	.LASF78
 3053 0528 06       		.byte	0x6
 3054 0529 6D02     		.2byte	0x26d
 3055 052b 07       		.byte	0x7
ARM GAS  C:\Users\jens-\AppData\Local\Temp\cc4C0Tnp.s 			page 90


 3056 052c 5D000000 		.4byte	0x5d
 3057 0530 30       		.byte	0x30
 3058 0531 18       		.uleb128 0x18
 3059 0532 F7070000 		.4byte	.LASF79
 3060 0536 06       		.byte	0x6
 3061 0537 6E02     		.2byte	0x26e
 3062 0539 16       		.byte	0x16
 3063 053a F8080000 		.4byte	0x8f8
 3064 053e 34       		.byte	0x34
 3065 053f 18       		.uleb128 0x18
 3066 0540 63060000 		.4byte	.LASF80
 3067 0544 06       		.byte	0x6
 3068 0545 7002     		.2byte	0x270
 3069 0547 07       		.byte	0x7
 3070 0548 5D000000 		.4byte	0x5d
 3071 054c 38       		.byte	0x38
 3072 054d 18       		.uleb128 0x18
 3073 054e FF070000 		.4byte	.LASF81
 3074 0552 06       		.byte	0x6
 3075 0553 7202     		.2byte	0x272
 3076 0555 0A       		.byte	0xa
 3077 0556 09090000 		.4byte	0x909
 3078 055a 3C       		.byte	0x3c
 3079 055b 18       		.uleb128 0x18
 3080 055c 36040000 		.4byte	.LASF82
 3081 0560 06       		.byte	0x6
 3082 0561 7502     		.2byte	0x275
 3083 0563 13       		.byte	0x13
 3084 0564 DF010000 		.4byte	0x1df
 3085 0568 40       		.byte	0x40
 3086 0569 18       		.uleb128 0x18
 3087 056a 32030000 		.4byte	.LASF83
 3088 056e 06       		.byte	0x6
 3089 056f 7602     		.2byte	0x276
 3090 0571 07       		.byte	0x7
 3091 0572 5D000000 		.4byte	0x5d
 3092 0576 44       		.byte	0x44
 3093 0577 18       		.uleb128 0x18
 3094 0578 AF0A0000 		.4byte	.LASF84
 3095 057c 06       		.byte	0x6
 3096 057d 7702     		.2byte	0x277
 3097 057f 13       		.byte	0x13
 3098 0580 DF010000 		.4byte	0x1df
 3099 0584 48       		.byte	0x48
 3100 0585 18       		.uleb128 0x18
 3101 0586 A7060000 		.4byte	.LASF85
 3102 058a 06       		.byte	0x6
 3103 058b 7802     		.2byte	0x278
 3104 058d 14       		.byte	0x14
 3105 058e 0F090000 		.4byte	0x90f
 3106 0592 4C       		.byte	0x4c
 3107 0593 18       		.uleb128 0x18
 3108 0594 90030000 		.4byte	.LASF86
 3109 0598 06       		.byte	0x6
 3110 0599 7B02     		.2byte	0x27b
 3111 059b 07       		.byte	0x7
 3112 059c 5D000000 		.4byte	0x5d
ARM GAS  C:\Users\jens-\AppData\Local\Temp\cc4C0Tnp.s 			page 91


 3113 05a0 50       		.byte	0x50
 3114 05a1 18       		.uleb128 0x18
 3115 05a2 82020000 		.4byte	.LASF87
 3116 05a6 06       		.byte	0x6
 3117 05a7 7C02     		.2byte	0x27c
 3118 05a9 09       		.byte	0x9
 3119 05aa 73010000 		.4byte	0x173
 3120 05ae 54       		.byte	0x54
 3121 05af 18       		.uleb128 0x18
 3122 05b0 61070000 		.4byte	.LASF88
 3123 05b4 06       		.byte	0x6
 3124 05b5 9F02     		.2byte	0x29f
 3125 05b7 07       		.byte	0x7
 3126 05b8 BE080000 		.4byte	0x8be
 3127 05bc 58       		.byte	0x58
 3128 05bd 19       		.uleb128 0x19
 3129 05be 4E060000 		.4byte	.LASF48
 3130 05c2 06       		.byte	0x6
 3131 05c3 A302     		.2byte	0x2a3
 3132 05c5 13       		.byte	0x13
 3133 05c6 10030000 		.4byte	0x310
 3134 05ca 4801     		.2byte	0x148
 3135 05cc 19       		.uleb128 0x19
 3136 05cd F9030000 		.4byte	.LASF89
 3137 05d1 06       		.byte	0x6
 3138 05d2 A402     		.2byte	0x2a4
 3139 05d4 12       		.byte	0x12
 3140 05d5 CD020000 		.4byte	0x2cd
 3141 05d9 4C01     		.2byte	0x14c
 3142 05db 19       		.uleb128 0x19
 3143 05dc 2C0A0000 		.4byte	.LASF90
 3144 05e0 06       		.byte	0x6
 3145 05e1 A802     		.2byte	0x2a8
 3146 05e3 0C       		.byte	0xc
 3147 05e4 20090000 		.4byte	0x920
 3148 05e8 DC02     		.2byte	0x2dc
 3149 05ea 19       		.uleb128 0x19
 3150 05eb 32020000 		.4byte	.LASF91
 3151 05ef 06       		.byte	0x6
 3152 05f0 AD02     		.2byte	0x2ad
 3153 05f2 10       		.byte	0x10
 3154 05f3 A4060000 		.4byte	0x6a4
 3155 05f7 E002     		.2byte	0x2e0
 3156 05f9 19       		.uleb128 0x19
 3157 05fa 00020000 		.4byte	.LASF92
 3158 05fe 06       		.byte	0x6
 3159 05ff AF02     		.2byte	0x2af
 3160 0601 0A       		.byte	0xa
 3161 0602 2C090000 		.4byte	0x92c
 3162 0606 EC02     		.2byte	0x2ec
 3163 0608 00       		.byte	0
 3164 0609 06       		.uleb128 0x6
 3165 060a 04       		.byte	0x4
 3166 060b 97040000 		.4byte	0x497
 3167 060f 15       		.uleb128 0x15
 3168 0610 5D000000 		.4byte	0x5d
 3169 0614 2D060000 		.4byte	0x62d
ARM GAS  C:\Users\jens-\AppData\Local\Temp\cc4C0Tnp.s 			page 92


 3170 0618 16       		.uleb128 0x16
 3171 0619 B5040000 		.4byte	0x4b5
 3172 061d 16       		.uleb128 0x16
 3173 061e 71010000 		.4byte	0x171
 3174 0622 16       		.uleb128 0x16
 3175 0623 2D060000 		.4byte	0x62d
 3176 0627 16       		.uleb128 0x16
 3177 0628 5D000000 		.4byte	0x5d
 3178 062c 00       		.byte	0
 3179 062d 06       		.uleb128 0x6
 3180 062e 04       		.byte	0x4
 3181 062f A7000000 		.4byte	0xa7
 3182 0633 06       		.uleb128 0x6
 3183 0634 04       		.byte	0x4
 3184 0635 0F060000 		.4byte	0x60f
 3185 0639 15       		.uleb128 0x15
 3186 063a EA000000 		.4byte	0xea
 3187 063e 57060000 		.4byte	0x657
 3188 0642 16       		.uleb128 0x16
 3189 0643 B5040000 		.4byte	0x4b5
 3190 0647 16       		.uleb128 0x16
 3191 0648 71010000 		.4byte	0x171
 3192 064c 16       		.uleb128 0x16
 3193 064d EA000000 		.4byte	0xea
 3194 0651 16       		.uleb128 0x16
 3195 0652 5D000000 		.4byte	0x5d
 3196 0656 00       		.byte	0
 3197 0657 06       		.uleb128 0x6
 3198 0658 04       		.byte	0x4
 3199 0659 39060000 		.4byte	0x639
 3200 065d 15       		.uleb128 0x15
 3201 065e 5D000000 		.4byte	0x5d
 3202 0662 71060000 		.4byte	0x671
 3203 0666 16       		.uleb128 0x16
 3204 0667 B5040000 		.4byte	0x4b5
 3205 066b 16       		.uleb128 0x16
 3206 066c 71010000 		.4byte	0x171
 3207 0670 00       		.byte	0
 3208 0671 06       		.uleb128 0x6
 3209 0672 04       		.byte	0x4
 3210 0673 5D060000 		.4byte	0x65d
 3211 0677 0C       		.uleb128 0xc
 3212 0678 2C000000 		.4byte	0x2c
 3213 067c 87060000 		.4byte	0x687
 3214 0680 0D       		.uleb128 0xd
 3215 0681 64000000 		.4byte	0x64
 3216 0685 02       		.byte	0x2
 3217 0686 00       		.byte	0
 3218 0687 0C       		.uleb128 0xc
 3219 0688 2C000000 		.4byte	0x2c
 3220 068c 97060000 		.4byte	0x697
 3221 0690 0D       		.uleb128 0xd
 3222 0691 64000000 		.4byte	0x64
 3223 0695 00       		.byte	0
 3224 0696 00       		.byte	0
 3225 0697 04       		.uleb128 0x4
 3226 0698 B2070000 		.4byte	.LASF93
ARM GAS  C:\Users\jens-\AppData\Local\Temp\cc4C0Tnp.s 			page 93


 3227 069c 06       		.byte	0x6
 3228 069d 1F01     		.2byte	0x11f
 3229 069f 1A       		.byte	0x1a
 3230 06a0 54030000 		.4byte	0x354
 3231 06a4 1A       		.uleb128 0x1a
 3232 06a5 FE090000 		.4byte	.LASF94
 3233 06a9 0C       		.byte	0xc
 3234 06aa 06       		.byte	0x6
 3235 06ab 2301     		.2byte	0x123
 3236 06ad 08       		.byte	0x8
 3237 06ae DD060000 		.4byte	0x6dd
 3238 06b2 18       		.uleb128 0x18
 3239 06b3 1E090000 		.4byte	.LASF28
 3240 06b7 06       		.byte	0x6
 3241 06b8 2501     		.2byte	0x125
 3242 06ba 11       		.byte	0x11
 3243 06bb DD060000 		.4byte	0x6dd
 3244 06bf 00       		.byte	0
 3245 06c0 18       		.uleb128 0x18
 3246 06c1 DA030000 		.4byte	.LASF95
 3247 06c5 06       		.byte	0x6
 3248 06c6 2601     		.2byte	0x126
 3249 06c8 07       		.byte	0x7
 3250 06c9 5D000000 		.4byte	0x5d
 3251 06cd 04       		.byte	0x4
 3252 06ce 18       		.uleb128 0x18
 3253 06cf 9F070000 		.4byte	.LASF96
 3254 06d3 06       		.byte	0x6
 3255 06d4 2701     		.2byte	0x127
 3256 06d6 0B       		.byte	0xb
 3257 06d7 E3060000 		.4byte	0x6e3
 3258 06db 08       		.byte	0x8
 3259 06dc 00       		.byte	0
 3260 06dd 06       		.uleb128 0x6
 3261 06de 04       		.byte	0x4
 3262 06df A4060000 		.4byte	0x6a4
 3263 06e3 06       		.uleb128 0x6
 3264 06e4 04       		.byte	0x4
 3265 06e5 97060000 		.4byte	0x697
 3266 06e9 1A       		.uleb128 0x1a
 3267 06ea 75000000 		.4byte	.LASF97
 3268 06ee 0E       		.byte	0xe
 3269 06ef 06       		.byte	0x6
 3270 06f0 3F01     		.2byte	0x13f
 3271 06f2 08       		.byte	0x8
 3272 06f3 22070000 		.4byte	0x722
 3273 06f7 18       		.uleb128 0x18
 3274 06f8 31080000 		.4byte	.LASF98
 3275 06fc 06       		.byte	0x6
 3276 06fd 4001     		.2byte	0x140
 3277 06ff 12       		.byte	0x12
 3278 0700 22070000 		.4byte	0x722
 3279 0704 00       		.byte	0
 3280 0705 18       		.uleb128 0x18
 3281 0706 11090000 		.4byte	.LASF99
 3282 070a 06       		.byte	0x6
 3283 070b 4101     		.2byte	0x141
ARM GAS  C:\Users\jens-\AppData\Local\Temp\cc4C0Tnp.s 			page 94


 3284 070d 12       		.byte	0x12
 3285 070e 22070000 		.4byte	0x722
 3286 0712 06       		.byte	0x6
 3287 0713 18       		.uleb128 0x18
 3288 0714 5C090000 		.4byte	.LASF100
 3289 0718 06       		.byte	0x6
 3290 0719 4201     		.2byte	0x142
 3291 071b 12       		.byte	0x12
 3292 071c 3A000000 		.4byte	0x3a
 3293 0720 0C       		.byte	0xc
 3294 0721 00       		.byte	0
 3295 0722 0C       		.uleb128 0xc
 3296 0723 3A000000 		.4byte	0x3a
 3297 0727 32070000 		.4byte	0x732
 3298 072b 0D       		.uleb128 0xd
 3299 072c 64000000 		.4byte	0x64
 3300 0730 02       		.byte	0x2
 3301 0731 00       		.byte	0
 3302 0732 1B       		.uleb128 0x1b
 3303 0733 D0       		.byte	0xd0
 3304 0734 06       		.byte	0x6
 3305 0735 8002     		.2byte	0x280
 3306 0737 07       		.byte	0x7
 3307 0738 47080000 		.4byte	0x847
 3308 073c 18       		.uleb128 0x18
 3309 073d DA090000 		.4byte	.LASF101
 3310 0741 06       		.byte	0x6
 3311 0742 8202     		.2byte	0x282
 3312 0744 18       		.byte	0x18
 3313 0745 64000000 		.4byte	0x64
 3314 0749 00       		.byte	0
 3315 074a 18       		.uleb128 0x18
 3316 074b 29090000 		.4byte	.LASF102
 3317 074f 06       		.byte	0x6
 3318 0750 8302     		.2byte	0x283
 3319 0752 12       		.byte	0x12
 3320 0753 73010000 		.4byte	0x173
 3321 0757 04       		.byte	0x4
 3322 0758 18       		.uleb128 0x18
 3323 0759 0E040000 		.4byte	.LASF103
 3324 075d 06       		.byte	0x6
 3325 075e 8402     		.2byte	0x284
 3326 0760 10       		.byte	0x10
 3327 0761 47080000 		.4byte	0x847
 3328 0765 08       		.byte	0x8
 3329 0766 18       		.uleb128 0x18
 3330 0767 7E0A0000 		.4byte	.LASF104
 3331 076b 06       		.byte	0x6
 3332 076c 8502     		.2byte	0x285
 3333 076e 17       		.byte	0x17
 3334 076f F5010000 		.4byte	0x1f5
 3335 0773 24       		.byte	0x24
 3336 0774 18       		.uleb128 0x18
 3337 0775 07030000 		.4byte	.LASF105
 3338 0779 06       		.byte	0x6
 3339 077a 8602     		.2byte	0x286
 3340 077c 0F       		.byte	0xf
ARM GAS  C:\Users\jens-\AppData\Local\Temp\cc4C0Tnp.s 			page 95


 3341 077d 5D000000 		.4byte	0x5d
 3342 0781 48       		.byte	0x48
 3343 0782 18       		.uleb128 0x18
 3344 0783 D5070000 		.4byte	.LASF106
 3345 0787 06       		.byte	0x6
 3346 0788 8702     		.2byte	0x287
 3347 078a 2C       		.byte	0x2c
 3348 078b 56000000 		.4byte	0x56
 3349 078f 50       		.byte	0x50
 3350 0790 18       		.uleb128 0x18
 3351 0791 9C0A0000 		.4byte	.LASF107
 3352 0795 06       		.byte	0x6
 3353 0796 8802     		.2byte	0x288
 3354 0798 1A       		.byte	0x1a
 3355 0799 E9060000 		.4byte	0x6e9
 3356 079d 58       		.byte	0x58
 3357 079e 18       		.uleb128 0x18
 3358 079f E0070000 		.4byte	.LASF108
 3359 07a3 06       		.byte	0x6
 3360 07a4 8902     		.2byte	0x289
 3361 07a6 16       		.byte	0x16
 3362 07a7 59010000 		.4byte	0x159
 3363 07ab 68       		.byte	0x68
 3364 07ac 18       		.uleb128 0x18
 3365 07ad A10A0000 		.4byte	.LASF109
 3366 07b1 06       		.byte	0x6
 3367 07b2 8A02     		.2byte	0x28a
 3368 07b4 16       		.byte	0x16
 3369 07b5 59010000 		.4byte	0x159
 3370 07b9 70       		.byte	0x70
 3371 07ba 18       		.uleb128 0x18
 3372 07bb CD060000 		.4byte	.LASF110
 3373 07bf 06       		.byte	0x6
 3374 07c0 8B02     		.2byte	0x28b
 3375 07c2 16       		.byte	0x16
 3376 07c3 59010000 		.4byte	0x159
 3377 07c7 78       		.byte	0x78
 3378 07c8 18       		.uleb128 0x18
 3379 07c9 0D0A0000 		.4byte	.LASF111
 3380 07cd 06       		.byte	0x6
 3381 07ce 8C02     		.2byte	0x28c
 3382 07d0 10       		.byte	0x10
 3383 07d1 57080000 		.4byte	0x857
 3384 07d5 80       		.byte	0x80
 3385 07d6 18       		.uleb128 0x18
 3386 07d7 02040000 		.4byte	.LASF112
 3387 07db 06       		.byte	0x6
 3388 07dc 8D02     		.2byte	0x28d
 3389 07de 10       		.byte	0x10
 3390 07df 67080000 		.4byte	0x867
 3391 07e3 88       		.byte	0x88
 3392 07e4 18       		.uleb128 0x18
 3393 07e5 69090000 		.4byte	.LASF113
 3394 07e9 06       		.byte	0x6
 3395 07ea 8E02     		.2byte	0x28e
 3396 07ec 0F       		.byte	0xf
 3397 07ed 5D000000 		.4byte	0x5d
ARM GAS  C:\Users\jens-\AppData\Local\Temp\cc4C0Tnp.s 			page 96


 3398 07f1 A0       		.byte	0xa0
 3399 07f2 18       		.uleb128 0x18
 3400 07f3 A3020000 		.4byte	.LASF114
 3401 07f7 06       		.byte	0x6
 3402 07f8 8F02     		.2byte	0x28f
 3403 07fa 16       		.byte	0x16
 3404 07fb 59010000 		.4byte	0x159
 3405 07ff A4       		.byte	0xa4
 3406 0800 18       		.uleb128 0x18
 3407 0801 43010000 		.4byte	.LASF115
 3408 0805 06       		.byte	0x6
 3409 0806 9002     		.2byte	0x290
 3410 0808 16       		.byte	0x16
 3411 0809 59010000 		.4byte	0x159
 3412 080d AC       		.byte	0xac
 3413 080e 18       		.uleb128 0x18
 3414 080f 92020000 		.4byte	.LASF116
 3415 0813 06       		.byte	0x6
 3416 0814 9102     		.2byte	0x291
 3417 0816 16       		.byte	0x16
 3418 0817 59010000 		.4byte	0x159
 3419 081b B4       		.byte	0xb4
 3420 081c 18       		.uleb128 0x18
 3421 081d D2000000 		.4byte	.LASF117
 3422 0821 06       		.byte	0x6
 3423 0822 9202     		.2byte	0x292
 3424 0824 16       		.byte	0x16
 3425 0825 59010000 		.4byte	0x159
 3426 0829 BC       		.byte	0xbc
 3427 082a 18       		.uleb128 0x18
 3428 082b E1000000 		.4byte	.LASF118
 3429 082f 06       		.byte	0x6
 3430 0830 9302     		.2byte	0x293
 3431 0832 16       		.byte	0x16
 3432 0833 59010000 		.4byte	0x159
 3433 0837 C4       		.byte	0xc4
 3434 0838 18       		.uleb128 0x18
 3435 0839 7B070000 		.4byte	.LASF119
 3436 083d 06       		.byte	0x6
 3437 083e 9402     		.2byte	0x294
 3438 0840 08       		.byte	0x8
 3439 0841 5D000000 		.4byte	0x5d
 3440 0845 CC       		.byte	0xcc
 3441 0846 00       		.byte	0
 3442 0847 0C       		.uleb128 0xc
 3443 0848 A0000000 		.4byte	0xa0
 3444 084c 57080000 		.4byte	0x857
 3445 0850 0D       		.uleb128 0xd
 3446 0851 64000000 		.4byte	0x64
 3447 0855 19       		.byte	0x19
 3448 0856 00       		.byte	0
 3449 0857 0C       		.uleb128 0xc
 3450 0858 A0000000 		.4byte	0xa0
 3451 085c 67080000 		.4byte	0x867
 3452 0860 0D       		.uleb128 0xd
 3453 0861 64000000 		.4byte	0x64
 3454 0865 07       		.byte	0x7
ARM GAS  C:\Users\jens-\AppData\Local\Temp\cc4C0Tnp.s 			page 97


 3455 0866 00       		.byte	0
 3456 0867 0C       		.uleb128 0xc
 3457 0868 A0000000 		.4byte	0xa0
 3458 086c 77080000 		.4byte	0x877
 3459 0870 0D       		.uleb128 0xd
 3460 0871 64000000 		.4byte	0x64
 3461 0875 17       		.byte	0x17
 3462 0876 00       		.byte	0
 3463 0877 1B       		.uleb128 0x1b
 3464 0878 F0       		.byte	0xf0
 3465 0879 06       		.byte	0x6
 3466 087a 9902     		.2byte	0x299
 3467 087c 07       		.byte	0x7
 3468 087d 9E080000 		.4byte	0x89e
 3469 0881 18       		.uleb128 0x18
 3470 0882 EC050000 		.4byte	.LASF120
 3471 0886 06       		.byte	0x6
 3472 0887 9C02     		.2byte	0x29c
 3473 0889 1B       		.byte	0x1b
 3474 088a 9E080000 		.4byte	0x89e
 3475 088e 00       		.byte	0
 3476 088f 18       		.uleb128 0x18
 3477 0890 040A0000 		.4byte	.LASF121
 3478 0894 06       		.byte	0x6
 3479 0895 9D02     		.2byte	0x29d
 3480 0897 18       		.byte	0x18
 3481 0898 AE080000 		.4byte	0x8ae
 3482 089c 78       		.byte	0x78
 3483 089d 00       		.byte	0
 3484 089e 0C       		.uleb128 0xc
 3485 089f 4E030000 		.4byte	0x34e
 3486 08a3 AE080000 		.4byte	0x8ae
 3487 08a7 0D       		.uleb128 0xd
 3488 08a8 64000000 		.4byte	0x64
 3489 08ac 1D       		.byte	0x1d
 3490 08ad 00       		.byte	0
 3491 08ae 0C       		.uleb128 0xc
 3492 08af 64000000 		.4byte	0x64
 3493 08b3 BE080000 		.4byte	0x8be
 3494 08b7 0D       		.uleb128 0xd
 3495 08b8 64000000 		.4byte	0x64
 3496 08bc 1D       		.byte	0x1d
 3497 08bd 00       		.byte	0
 3498 08be 1C       		.uleb128 0x1c
 3499 08bf F0       		.byte	0xf0
 3500 08c0 06       		.byte	0x6
 3501 08c1 7E02     		.2byte	0x27e
 3502 08c3 03       		.byte	0x3
 3503 08c4 E3080000 		.4byte	0x8e3
 3504 08c8 1D       		.uleb128 0x1d
 3505 08c9 2A080000 		.4byte	.LASF71
 3506 08cd 06       		.byte	0x6
 3507 08ce 9502     		.2byte	0x295
 3508 08d0 0B       		.byte	0xb
 3509 08d1 32070000 		.4byte	0x732
 3510 08d5 1D       		.uleb128 0x1d
 3511 08d6 2C010000 		.4byte	.LASF122
ARM GAS  C:\Users\jens-\AppData\Local\Temp\cc4C0Tnp.s 			page 98


 3512 08da 06       		.byte	0x6
 3513 08db 9E02     		.2byte	0x29e
 3514 08dd 0B       		.byte	0xb
 3515 08de 77080000 		.4byte	0x877
 3516 08e2 00       		.byte	0
 3517 08e3 0C       		.uleb128 0xc
 3518 08e4 A0000000 		.4byte	0xa0
 3519 08e8 F3080000 		.4byte	0x8f3
 3520 08ec 0D       		.uleb128 0xd
 3521 08ed 64000000 		.4byte	0x64
 3522 08f1 18       		.byte	0x18
 3523 08f2 00       		.byte	0
 3524 08f3 09       		.uleb128 0x9
 3525 08f4 21010000 		.4byte	.LASF124
 3526 08f8 06       		.uleb128 0x6
 3527 08f9 04       		.byte	0x4
 3528 08fa F3080000 		.4byte	0x8f3
 3529 08fe 1E       		.uleb128 0x1e
 3530 08ff 09090000 		.4byte	0x909
 3531 0903 16       		.uleb128 0x16
 3532 0904 B5040000 		.4byte	0x4b5
 3533 0908 00       		.byte	0
 3534 0909 06       		.uleb128 0x6
 3535 090a 04       		.byte	0x4
 3536 090b FE080000 		.4byte	0x8fe
 3537 090f 06       		.uleb128 0x6
 3538 0910 04       		.byte	0x4
 3539 0911 DF010000 		.4byte	0x1df
 3540 0915 1E       		.uleb128 0x1e
 3541 0916 20090000 		.4byte	0x920
 3542 091a 16       		.uleb128 0x16
 3543 091b 5D000000 		.4byte	0x5d
 3544 091f 00       		.byte	0
 3545 0920 06       		.uleb128 0x6
 3546 0921 04       		.byte	0x4
 3547 0922 26090000 		.4byte	0x926
 3548 0926 06       		.uleb128 0x6
 3549 0927 04       		.byte	0x4
 3550 0928 15090000 		.4byte	0x915
 3551 092c 0C       		.uleb128 0xc
 3552 092d 97060000 		.4byte	0x697
 3553 0931 3C090000 		.4byte	0x93c
 3554 0935 0D       		.uleb128 0xd
 3555 0936 64000000 		.4byte	0x64
 3556 093a 02       		.byte	0x2
 3557 093b 00       		.byte	0
 3558 093c 1F       		.uleb128 0x1f
 3559 093d 8A080000 		.4byte	.LASF125
 3560 0941 06       		.byte	0x6
 3561 0942 2E03     		.2byte	0x32e
 3562 0944 17       		.byte	0x17
 3563 0945 B5040000 		.4byte	0x4b5
 3564 0949 1F       		.uleb128 0x1f
 3565 094a AD090000 		.4byte	.LASF126
 3566 094e 06       		.byte	0x6
 3567 094f 2F03     		.2byte	0x32f
 3568 0951 1D       		.byte	0x1d
ARM GAS  C:\Users\jens-\AppData\Local\Temp\cc4C0Tnp.s 			page 99


 3569 0952 BB040000 		.4byte	0x4bb
 3570 0956 0C       		.uleb128 0xc
 3571 0957 A7000000 		.4byte	0xa7
 3572 095b 61090000 		.4byte	0x961
 3573 095f 20       		.uleb128 0x20
 3574 0960 00       		.byte	0
 3575 0961 05       		.uleb128 0x5
 3576 0962 56090000 		.4byte	0x956
 3577 0966 21       		.uleb128 0x21
 3578 0967 F3080000 		.4byte	.LASF127
 3579 096b 07       		.byte	0x7
 3580 096c AE       		.byte	0xae
 3581 096d 1C       		.byte	0x1c
 3582 096e 61090000 		.4byte	0x961
 3583 0972 21       		.uleb128 0x21
 3584 0973 40060000 		.4byte	.LASF128
 3585 0977 08       		.byte	0x8
 3586 0978 2C       		.byte	0x2c
 3587 0979 16       		.byte	0x16
 3588 097a 6B000000 		.4byte	0x6b
 3589 097e 21       		.uleb128 0x21
 3590 097f E8060000 		.4byte	.LASF129
 3591 0983 08       		.byte	0x8
 3592 0984 38       		.byte	0x38
 3593 0985 0F       		.byte	0xf
 3594 0986 85000000 		.4byte	0x85
 3595 098a 21       		.uleb128 0x21
 3596 098b 9C050000 		.4byte	.LASF130
 3597 098f 08       		.byte	0x8
 3598 0990 39       		.byte	0x39
 3599 0991 0F       		.byte	0xf
 3600 0992 85000000 		.4byte	0x85
 3601 0996 21       		.uleb128 0x21
 3602 0997 52010000 		.4byte	.LASF131
 3603 099b 08       		.byte	0x8
 3604 099c 3A       		.byte	0x3a
 3605 099d 0F       		.byte	0xf
 3606 099e 6B000000 		.4byte	0x6b
 3607 09a2 21       		.uleb128 0x21
 3608 09a3 37080000 		.4byte	.LASF132
 3609 09a7 08       		.byte	0x8
 3610 09a8 3B       		.byte	0x3b
 3611 09a9 0F       		.byte	0xf
 3612 09aa 85000000 		.4byte	0x85
 3613 09ae 21       		.uleb128 0x21
 3614 09af 66070000 		.4byte	.LASF133
 3615 09b3 09       		.byte	0x9
 3616 09b4 1C       		.byte	0x1c
 3617 09b5 0E       		.byte	0xe
 3618 09b6 6B000000 		.4byte	0x6b
 3619 09ba 0C       		.uleb128 0xc
 3620 09bb 6B000000 		.4byte	0x6b
 3621 09bf CA090000 		.4byte	0x9ca
 3622 09c3 0D       		.uleb128 0xd
 3623 09c4 64000000 		.4byte	0x64
 3624 09c8 01       		.byte	0x1
 3625 09c9 00       		.byte	0
ARM GAS  C:\Users\jens-\AppData\Local\Temp\cc4C0Tnp.s 			page 100


 3626 09ca 21       		.uleb128 0x21
 3627 09cb 34010000 		.4byte	.LASF134
 3628 09cf 0A       		.byte	0xa
 3629 09d0 1C       		.byte	0x1c
 3630 09d1 0E       		.byte	0xe
 3631 09d2 BA090000 		.4byte	0x9ba
 3632 09d6 0E       		.uleb128 0xe
 3633 09d7 10       		.byte	0x10
 3634 09d8 0B       		.byte	0xb
 3635 09d9 FB       		.byte	0xfb
 3636 09da 09       		.byte	0x9
 3637 09db 250A0000 		.4byte	0xa25
 3638 09df 0F       		.uleb128 0xf
 3639 09e0 63010000 		.4byte	.LASF135
 3640 09e4 0B       		.byte	0xb
 3641 09e5 FE       		.byte	0xfe
 3642 09e6 0C       		.byte	0xc
 3643 09e7 85000000 		.4byte	0x85
 3644 09eb 00       		.byte	0
 3645 09ec 18       		.uleb128 0x18
 3646 09ed C0090000 		.4byte	.LASF136
 3647 09f1 0B       		.byte	0xb
 3648 09f2 0301     		.2byte	0x103
 3649 09f4 0C       		.byte	0xc
 3650 09f5 85000000 		.4byte	0x85
 3651 09f9 04       		.byte	0x4
 3652 09fa 18       		.uleb128 0x18
 3653 09fb F2010000 		.4byte	.LASF137
 3654 09ff 0B       		.byte	0xb
 3655 0a00 0601     		.2byte	0x106
 3656 0a02 0B       		.byte	0xb
 3657 0a03 6B000000 		.4byte	0x6b
 3658 0a07 08       		.byte	0x8
 3659 0a08 18       		.uleb128 0x18
 3660 0a09 9E080000 		.4byte	.LASF138
 3661 0a0d 0B       		.byte	0xb
 3662 0a0e 0B01     		.2byte	0x10b
 3663 0a10 0B       		.byte	0xb
 3664 0a11 6B000000 		.4byte	0x6b
 3665 0a15 09       		.byte	0x9
 3666 0a16 18       		.uleb128 0x18
 3667 0a17 83090000 		.4byte	.LASF139
 3668 0a1b 0B       		.byte	0xb
 3669 0a1c 0E01     		.2byte	0x10e
 3670 0a1e 0C       		.byte	0xc
 3671 0a1f 85000000 		.4byte	0x85
 3672 0a23 0C       		.byte	0xc
 3673 0a24 00       		.byte	0
 3674 0a25 04       		.uleb128 0x4
 3675 0a26 96090000 		.4byte	.LASF140
 3676 0a2a 0B       		.byte	0xb
 3677 0a2b 0F01     		.2byte	0x10f
 3678 0a2d 03       		.byte	0x3
 3679 0a2e D6090000 		.4byte	0x9d6
 3680 0a32 1B       		.uleb128 0x1b
 3681 0a33 1C       		.byte	0x1c
 3682 0a34 0B       		.byte	0xb
ARM GAS  C:\Users\jens-\AppData\Local\Temp\cc4C0Tnp.s 			page 101


 3683 0a35 1601     		.2byte	0x116
 3684 0a37 09       		.byte	0x9
 3685 0a38 AD0A0000 		.4byte	0xaad
 3686 0a3c 18       		.uleb128 0x18
 3687 0a3d 0E070000 		.4byte	.LASF141
 3688 0a41 0B       		.byte	0xb
 3689 0a42 1B01     		.2byte	0x11b
 3690 0a44 0C       		.byte	0xc
 3691 0a45 85000000 		.4byte	0x85
 3692 0a49 00       		.byte	0
 3693 0a4a 18       		.uleb128 0x18
 3694 0a4b C5000000 		.4byte	.LASF142
 3695 0a4f 0B       		.byte	0xb
 3696 0a50 2001     		.2byte	0x120
 3697 0a52 0C       		.byte	0xc
 3698 0a53 85000000 		.4byte	0x85
 3699 0a57 04       		.byte	0x4
 3700 0a58 18       		.uleb128 0x18
 3701 0a59 4E090000 		.4byte	.LASF143
 3702 0a5d 0B       		.byte	0xb
 3703 0a5e 2301     		.2byte	0x123
 3704 0a60 0C       		.byte	0xc
 3705 0a61 85000000 		.4byte	0x85
 3706 0a65 08       		.byte	0x8
 3707 0a66 18       		.uleb128 0x18
 3708 0a67 63010000 		.4byte	.LASF135
 3709 0a6b 0B       		.byte	0xb
 3710 0a6c 2601     		.2byte	0x126
 3711 0a6e 0C       		.byte	0xc
 3712 0a6f 85000000 		.4byte	0x85
 3713 0a73 0C       		.byte	0xc
 3714 0a74 18       		.uleb128 0x18
 3715 0a75 C0090000 		.4byte	.LASF136
 3716 0a79 0B       		.byte	0xb
 3717 0a7a 2B01     		.2byte	0x12b
 3718 0a7c 0C       		.byte	0xc
 3719 0a7d 85000000 		.4byte	0x85
 3720 0a81 10       		.byte	0x10
 3721 0a82 18       		.uleb128 0x18
 3722 0a83 F2010000 		.4byte	.LASF137
 3723 0a87 0B       		.byte	0xb
 3724 0a88 2E01     		.2byte	0x12e
 3725 0a8a 0B       		.byte	0xb
 3726 0a8b 6B000000 		.4byte	0x6b
 3727 0a8f 14       		.byte	0x14
 3728 0a90 18       		.uleb128 0x18
 3729 0a91 9E080000 		.4byte	.LASF138
 3730 0a95 0B       		.byte	0xb
 3731 0a96 3301     		.2byte	0x133
 3732 0a98 0B       		.byte	0xb
 3733 0a99 6B000000 		.4byte	0x6b
 3734 0a9d 15       		.byte	0x15
 3735 0a9e 18       		.uleb128 0x18
 3736 0a9f 83090000 		.4byte	.LASF139
 3737 0aa3 0B       		.byte	0xb
 3738 0aa4 3601     		.2byte	0x136
 3739 0aa6 0C       		.byte	0xc
ARM GAS  C:\Users\jens-\AppData\Local\Temp\cc4C0Tnp.s 			page 102


 3740 0aa7 85000000 		.4byte	0x85
 3741 0aab 18       		.byte	0x18
 3742 0aac 00       		.byte	0
 3743 0aad 04       		.uleb128 0x4
 3744 0aae 0D060000 		.4byte	.LASF144
 3745 0ab2 0B       		.byte	0xb
 3746 0ab3 3701     		.2byte	0x137
 3747 0ab5 03       		.byte	0x3
 3748 0ab6 320A0000 		.4byte	0xa32
 3749 0aba 22       		.uleb128 0x22
 3750 0abb 07       		.byte	0x7
 3751 0abc 01       		.byte	0x1
 3752 0abd 2C000000 		.4byte	0x2c
 3753 0ac1 0B       		.byte	0xb
 3754 0ac2 5401     		.2byte	0x154
 3755 0ac4 01       		.byte	0x1
 3756 0ac5 E80A0000 		.4byte	0xae8
 3757 0ac9 23       		.uleb128 0x23
 3758 0aca 170A0000 		.4byte	.LASF145
 3759 0ace 00       		.byte	0
 3760 0acf 23       		.uleb128 0x23
 3761 0ad0 85050000 		.4byte	.LASF146
 3762 0ad4 01       		.byte	0x1
 3763 0ad5 23       		.uleb128 0x23
 3764 0ad6 AD050000 		.4byte	.LASF147
 3765 0ada 02       		.byte	0x2
 3766 0adb 23       		.uleb128 0x23
 3767 0adc F8060000 		.4byte	.LASF148
 3768 0ae0 03       		.byte	0x3
 3769 0ae1 23       		.uleb128 0x23
 3770 0ae2 46080000 		.4byte	.LASF149
 3771 0ae6 04       		.byte	0x4
 3772 0ae7 00       		.byte	0
 3773 0ae8 04       		.uleb128 0x4
 3774 0ae9 97000000 		.4byte	.LASF150
 3775 0aed 0B       		.byte	0xb
 3776 0aee 5A01     		.2byte	0x15a
 3777 0af0 03       		.byte	0x3
 3778 0af1 BA0A0000 		.4byte	0xaba
 3779 0af5 24       		.uleb128 0x24
 3780 0af6 56060000 		.4byte	.LASF156
 3781 0afa 01       		.byte	0x1
 3782 0afb 5405     		.2byte	0x554
 3783 0afd 21       		.byte	0x21
 3784 0afe E80A0000 		.4byte	0xae8
 3785 0b02 00000000 		.4byte	.LFB14
 3786 0b06 6A000000 		.4byte	.LFE14-.LFB14
 3787 0b0a 01       		.uleb128 0x1
 3788 0b0b 9C       		.byte	0x9c
 3789 0b0c 440C0000 		.4byte	0xc44
 3790 0b10 25       		.uleb128 0x25
 3791 0b11 46090000 		.4byte	.LASF158
 3792 0b15 01       		.byte	0x1
 3793 0b16 5405     		.2byte	0x554
 3794 0b18 48       		.byte	0x48
 3795 0b19 440C0000 		.4byte	0xc44
 3796 0b1d 04000000 		.4byte	.LLST29
ARM GAS  C:\Users\jens-\AppData\Local\Temp\cc4C0Tnp.s 			page 103


 3797 0b21 00000000 		.4byte	.LVUS29
 3798 0b25 26       		.uleb128 0x26
 3799 0b26 6900     		.ascii	"i\000"
 3800 0b28 01       		.byte	0x1
 3801 0b29 5605     		.2byte	0x556
 3802 0b2b 0C       		.byte	0xc
 3803 0b2c 85000000 		.4byte	0x85
 3804 0b30 26000000 		.4byte	.LLST30
 3805 0b34 22000000 		.4byte	.LVUS30
 3806 0b38 27       		.uleb128 0x27
 3807 0b39 C7050000 		.4byte	.LASF151
 3808 0b3d 01       		.byte	0x1
 3809 0b3e 5705     		.2byte	0x557
 3810 0b40 0C       		.byte	0xc
 3811 0b41 85000000 		.4byte	0x85
 3812 0b45 02       		.uleb128 0x2
 3813 0b46 91       		.byte	0x91
 3814 0b47 64       		.sleb128 -28
 3815 0b48 27       		.uleb128 0x27
 3816 0b49 18070000 		.4byte	.LASF152
 3817 0b4d 01       		.byte	0x1
 3818 0b4e 5805     		.2byte	0x558
 3819 0b50 0C       		.byte	0xc
 3820 0b51 4A0C0000 		.4byte	0xc4a
 3821 0b55 03       		.uleb128 0x3
 3822 0b56 91       		.byte	0x91
 3823 0b57 E47D     		.sleb128 -284
 3824 0b59 27       		.uleb128 0x27
 3825 0b5a 81060000 		.4byte	.LASF153
 3826 0b5e 01       		.byte	0x1
 3827 0b5f 5905     		.2byte	0x559
 3828 0b61 0C       		.byte	0xc
 3829 0b62 85000000 		.4byte	0x85
 3830 0b66 03       		.uleb128 0x3
 3831 0b67 91       		.byte	0x91
 3832 0b68 E07D     		.sleb128 -288
 3833 0b6a 28       		.uleb128 0x28
 3834 0b6b 21030000 		.4byte	.LASF154
 3835 0b6f 01       		.byte	0x1
 3836 0b70 5A05     		.2byte	0x55a
 3837 0b72 0C       		.byte	0xc
 3838 0b73 85000000 		.4byte	0x85
 3839 0b77 49000000 		.4byte	.LLST31
 3840 0b7b 45000000 		.4byte	.LVUS31
 3841 0b7f 28       		.uleb128 0x28
 3842 0b80 06060000 		.4byte	.LASF155
 3843 0b84 01       		.byte	0x1
 3844 0b85 5C05     		.2byte	0x55c
 3845 0b87 0C       		.byte	0xc
 3846 0b88 85000000 		.4byte	0x85
 3847 0b8c 6E000000 		.4byte	.LLST32
 3848 0b90 6C000000 		.4byte	.LVUS32
 3849 0b94 26       		.uleb128 0x26
 3850 0b95 72657400 		.ascii	"ret\000"
 3851 0b99 01       		.byte	0x1
 3852 0b9a 5D05     		.2byte	0x55d
 3853 0b9c 1E       		.byte	0x1e
ARM GAS  C:\Users\jens-\AppData\Local\Temp\cc4C0Tnp.s 			page 104


 3854 0b9d E80A0000 		.4byte	0xae8
 3855 0ba1 87000000 		.4byte	.LLST33
 3856 0ba5 81000000 		.4byte	.LVUS33
 3857 0ba9 29       		.uleb128 0x29
 3858 0baa 28000000 		.4byte	.LVL75
 3859 0bae EA190000 		.4byte	0x19ea
 3860 0bb2 CA0B0000 		.4byte	0xbca
 3861 0bb6 2A       		.uleb128 0x2a
 3862 0bb7 01       		.uleb128 0x1
 3863 0bb8 50       		.byte	0x50
 3864 0bb9 03       		.uleb128 0x3
 3865 0bba 91       		.byte	0x91
 3866 0bbb E87D     		.sleb128 -280
 3867 0bbd 2A       		.uleb128 0x2a
 3868 0bbe 01       		.uleb128 0x1
 3869 0bbf 51       		.byte	0x51
 3870 0bc0 02       		.uleb128 0x2
 3871 0bc1 77       		.byte	0x77
 3872 0bc2 04       		.sleb128 4
 3873 0bc3 2A       		.uleb128 0x2a
 3874 0bc4 01       		.uleb128 0x1
 3875 0bc5 52       		.byte	0x52
 3876 0bc6 02       		.uleb128 0x2
 3877 0bc7 08       		.byte	0x8
 3878 0bc8 FC       		.byte	0xfc
 3879 0bc9 00       		.byte	0
 3880 0bca 29       		.uleb128 0x29
 3881 0bcb 34000000 		.4byte	.LVL77
 3882 0bcf 99100000 		.4byte	0x1099
 3883 0bd3 E50B0000 		.4byte	0xbe5
 3884 0bd7 2A       		.uleb128 0x2a
 3885 0bd8 01       		.uleb128 0x1
 3886 0bd9 50       		.byte	0x50
 3887 0bda 03       		.uleb128 0x3
 3888 0bdb 91       		.byte	0x91
 3889 0bdc E47E     		.sleb128 -156
 3890 0bde 2A       		.uleb128 0x2a
 3891 0bdf 01       		.uleb128 0x1
 3892 0be0 51       		.byte	0x51
 3893 0be1 02       		.uleb128 0x2
 3894 0be2 08       		.byte	0x8
 3895 0be3 80       		.byte	0x80
 3896 0be4 00       		.byte	0
 3897 0be5 29       		.uleb128 0x29
 3898 0be6 40000000 		.4byte	.LVL78
 3899 0bea 3D0F0000 		.4byte	0xf3d
 3900 0bee 060C0000 		.4byte	0xc06
 3901 0bf2 2A       		.uleb128 0x2a
 3902 0bf3 01       		.uleb128 0x1
 3903 0bf4 50       		.byte	0x50
 3904 0bf5 02       		.uleb128 0x2
 3905 0bf6 77       		.byte	0x77
 3906 0bf7 00       		.sleb128 0
 3907 0bf8 2A       		.uleb128 0x2a
 3908 0bf9 01       		.uleb128 0x1
 3909 0bfa 51       		.byte	0x51
 3910 0bfb 03       		.uleb128 0x3
ARM GAS  C:\Users\jens-\AppData\Local\Temp\cc4C0Tnp.s 			page 105


 3911 0bfc 91       		.byte	0x91
 3912 0bfd E47D     		.sleb128 -284
 3913 0bff 2A       		.uleb128 0x2a
 3914 0c00 01       		.uleb128 0x1
 3915 0c01 52       		.byte	0x52
 3916 0c02 02       		.uleb128 0x2
 3917 0c03 74       		.byte	0x74
 3918 0c04 00       		.sleb128 0
 3919 0c05 00       		.byte	0
 3920 0c06 29       		.uleb128 0x29
 3921 0c07 52000000 		.4byte	.LVL81
 3922 0c0b 3D0F0000 		.4byte	0xf3d
 3923 0c0f 210C0000 		.4byte	0xc21
 3924 0c13 2A       		.uleb128 0x2a
 3925 0c14 01       		.uleb128 0x1
 3926 0c15 51       		.byte	0x51
 3927 0c16 03       		.uleb128 0x3
 3928 0c17 91       		.byte	0x91
 3929 0c18 E47D     		.sleb128 -284
 3930 0c1a 2A       		.uleb128 0x2a
 3931 0c1b 01       		.uleb128 0x1
 3932 0c1c 52       		.byte	0x52
 3933 0c1d 02       		.uleb128 0x2
 3934 0c1e 74       		.byte	0x74
 3935 0c1f 00       		.sleb128 0
 3936 0c20 00       		.byte	0
 3937 0c21 2B       		.uleb128 0x2b
 3938 0c22 60000000 		.4byte	.LVL83
 3939 0c26 1C110000 		.4byte	0x111c
 3940 0c2a 2A       		.uleb128 0x2a
 3941 0c2b 01       		.uleb128 0x1
 3942 0c2c 50       		.byte	0x50
 3943 0c2d 02       		.uleb128 0x2
 3944 0c2e 75       		.byte	0x75
 3945 0c2f 00       		.sleb128 0
 3946 0c30 2A       		.uleb128 0x2a
 3947 0c31 01       		.uleb128 0x1
 3948 0c32 51       		.byte	0x51
 3949 0c33 02       		.uleb128 0x2
 3950 0c34 7D       		.byte	0x7d
 3951 0c35 00       		.sleb128 0
 3952 0c36 2A       		.uleb128 0x2a
 3953 0c37 01       		.uleb128 0x1
 3954 0c38 52       		.byte	0x52
 3955 0c39 02       		.uleb128 0x2
 3956 0c3a 91       		.byte	0x91
 3957 0c3b 64       		.sleb128 -28
 3958 0c3c 2A       		.uleb128 0x2a
 3959 0c3d 01       		.uleb128 0x1
 3960 0c3e 53       		.byte	0x53
 3961 0c3f 02       		.uleb128 0x2
 3962 0c40 74       		.byte	0x74
 3963 0c41 00       		.sleb128 0
 3964 0c42 00       		.byte	0
 3965 0c43 00       		.byte	0
 3966 0c44 06       		.uleb128 0x6
 3967 0c45 04       		.byte	0x4
ARM GAS  C:\Users\jens-\AppData\Local\Temp\cc4C0Tnp.s 			page 106


 3968 0c46 AD0A0000 		.4byte	0xaad
 3969 0c4a 0C       		.uleb128 0xc
 3970 0c4b 85000000 		.4byte	0x85
 3971 0c4f 5A0C0000 		.4byte	0xc5a
 3972 0c53 0D       		.uleb128 0xd
 3973 0c54 64000000 		.4byte	0x64
 3974 0c58 3F       		.byte	0x3f
 3975 0c59 00       		.byte	0
 3976 0c5a 24       		.uleb128 0x24
 3977 0c5b AA030000 		.4byte	.LASF157
 3978 0c5f 01       		.byte	0x1
 3979 0c60 0D05     		.2byte	0x50d
 3980 0c62 0F       		.byte	0xf
 3981 0c63 85000000 		.4byte	0x85
 3982 0c67 00000000 		.4byte	.LFB13
 3983 0c6b 74000000 		.4byte	.LFE13-.LFB13
 3984 0c6f 01       		.uleb128 0x1
 3985 0c70 9C       		.byte	0x9c
 3986 0c71 FD0C0000 		.4byte	0xcfd
 3987 0c75 25       		.uleb128 0x25
 3988 0c76 D7080000 		.4byte	.LASF159
 3989 0c7a 01       		.byte	0x1
 3990 0c7b 0D05     		.2byte	0x50d
 3991 0c7d 24       		.byte	0x24
 3992 0c7e FD0C0000 		.4byte	0xcfd
 3993 0c82 C5000000 		.4byte	.LLST17
 3994 0c86 B1000000 		.4byte	.LVUS17
 3995 0c8a 2C       		.uleb128 0x2c
 3996 0c8b B1060000 		.4byte	.LASF160
 3997 0c8f 01       		.byte	0x1
 3998 0c90 0E05     		.2byte	0x50e
 3999 0c92 21       		.byte	0x21
 4000 0c93 FD0C0000 		.4byte	0xcfd
 4001 0c97 01       		.uleb128 0x1
 4002 0c98 51       		.byte	0x51
 4003 0c99 2C       		.uleb128 0x2c
 4004 0c9a 36090000 		.4byte	.LASF161
 4005 0c9e 01       		.byte	0x1
 4006 0c9f 0F05     		.2byte	0x50f
 4007 0ca1 21       		.byte	0x21
 4008 0ca2 FD0C0000 		.4byte	0xcfd
 4009 0ca6 01       		.uleb128 0x1
 4010 0ca7 52       		.byte	0x52
 4011 0ca8 25       		.uleb128 0x25
 4012 0ca9 B0000000 		.4byte	.LASF162
 4013 0cad 01       		.byte	0x1
 4014 0cae 1005     		.2byte	0x510
 4015 0cb0 20       		.byte	0x20
 4016 0cb1 85000000 		.4byte	0x85
 4017 0cb5 58010000 		.4byte	.LLST18
 4018 0cb9 4A010000 		.4byte	.LVUS18
 4019 0cbd 25       		.uleb128 0x25
 4020 0cbe 1C010000 		.4byte	.LASF163
 4021 0cc2 01       		.byte	0x1
 4022 0cc3 1105     		.2byte	0x511
 4023 0cc5 20       		.byte	0x20
 4024 0cc6 85000000 		.4byte	0x85
ARM GAS  C:\Users\jens-\AppData\Local\Temp\cc4C0Tnp.s 			page 107


 4025 0cca BE010000 		.4byte	.LLST19
 4026 0cce B8010000 		.4byte	.LVUS19
 4027 0cd2 2D       		.uleb128 0x2d
 4028 0cd3 6C656E00 		.ascii	"len\000"
 4029 0cd7 01       		.byte	0x1
 4030 0cd8 1205     		.2byte	0x512
 4031 0cda 20       		.byte	0x20
 4032 0cdb 85000000 		.4byte	0x85
 4033 0cdf F0010000 		.4byte	.LLST20
 4034 0ce3 EA010000 		.4byte	.LVUS20
 4035 0ce7 28       		.uleb128 0x28
 4036 0ce8 24090000 		.4byte	.LASF164
 4037 0cec 01       		.byte	0x1
 4038 0ced 1405     		.2byte	0x514
 4039 0cef 0C       		.byte	0xc
 4040 0cf0 85000000 		.4byte	0x85
 4041 0cf4 22020000 		.4byte	.LLST21
 4042 0cf8 1C020000 		.4byte	.LVUS21
 4043 0cfc 00       		.byte	0
 4044 0cfd 06       		.uleb128 0x6
 4045 0cfe 04       		.byte	0x4
 4046 0cff 85000000 		.4byte	0x85
 4047 0d03 24       		.uleb128 0x24
 4048 0d04 CA030000 		.4byte	.LASF165
 4049 0d08 01       		.byte	0x1
 4050 0d09 B904     		.2byte	0x4b9
 4051 0d0b 21       		.byte	0x21
 4052 0d0c E80A0000 		.4byte	0xae8
 4053 0d10 00000000 		.4byte	.LFB12
 4054 0d14 80000000 		.4byte	.LFE12-.LFB12
 4055 0d18 01       		.uleb128 0x1
 4056 0d19 9C       		.byte	0x9c
 4057 0d1a 820E0000 		.4byte	0xe82
 4058 0d1e 25       		.uleb128 0x25
 4059 0d1f D7080000 		.4byte	.LASF159
 4060 0d23 01       		.byte	0x1
 4061 0d24 B904     		.2byte	0x4b9
 4062 0d26 38       		.byte	0x38
 4063 0d27 85000000 		.4byte	0x85
 4064 0d2b 5C020000 		.4byte	.LLST34
 4065 0d2f 4E020000 		.4byte	.LVUS34
 4066 0d33 25       		.uleb128 0x25
 4067 0d34 B7000000 		.4byte	.LASF166
 4068 0d38 01       		.byte	0x1
 4069 0d39 BA04     		.2byte	0x4ba
 4070 0d3b 38       		.byte	0x38
 4071 0d3c 85000000 		.4byte	0x85
 4072 0d40 BE020000 		.4byte	.LLST35
 4073 0d44 BA020000 		.4byte	.LVUS35
 4074 0d48 25       		.uleb128 0x25
 4075 0d49 AF040000 		.4byte	.LASF167
 4076 0d4d 01       		.byte	0x1
 4077 0d4e BB04     		.2byte	0x4bb
 4078 0d50 38       		.byte	0x38
 4079 0d51 85000000 		.4byte	0x85
 4080 0d55 E0020000 		.4byte	.LLST36
 4081 0d59 DC020000 		.4byte	.LVUS36
ARM GAS  C:\Users\jens-\AppData\Local\Temp\cc4C0Tnp.s 			page 108


 4082 0d5d 25       		.uleb128 0x25
 4083 0d5e 6D030000 		.4byte	.LASF168
 4084 0d62 01       		.byte	0x1
 4085 0d63 BC04     		.2byte	0x4bc
 4086 0d65 38       		.byte	0x38
 4087 0d66 85000000 		.4byte	0x85
 4088 0d6a 02030000 		.4byte	.LLST37
 4089 0d6e FE020000 		.4byte	.LVUS37
 4090 0d72 25       		.uleb128 0x25
 4091 0d73 46090000 		.4byte	.LASF158
 4092 0d77 01       		.byte	0x1
 4093 0d78 BD04     		.2byte	0x4bd
 4094 0d7a 4B       		.byte	0x4b
 4095 0d7b 440C0000 		.4byte	0xc44
 4096 0d7f 24030000 		.4byte	.LLST38
 4097 0d83 20030000 		.4byte	.LVUS38
 4098 0d87 26       		.uleb128 0x26
 4099 0d88 72657400 		.ascii	"ret\000"
 4100 0d8c 01       		.byte	0x1
 4101 0d8d BF04     		.2byte	0x4bf
 4102 0d8f 1E       		.byte	0x1e
 4103 0d90 E80A0000 		.4byte	0xae8
 4104 0d94 4A030000 		.4byte	.LLST39
 4105 0d98 44030000 		.4byte	.LVUS39
 4106 0d9c 27       		.uleb128 0x27
 4107 0d9d 18070000 		.4byte	.LASF152
 4108 0da1 01       		.byte	0x1
 4109 0da2 C004     		.2byte	0x4c0
 4110 0da4 0C       		.byte	0xc
 4111 0da5 4A0C0000 		.4byte	0xc4a
 4112 0da9 03       		.uleb128 0x3
 4113 0daa 91       		.byte	0x91
 4114 0dab E07D     		.sleb128 -288
 4115 0dad 28       		.uleb128 0x28
 4116 0dae 75080000 		.4byte	.LASF169
 4117 0db2 01       		.byte	0x1
 4118 0db3 C304     		.2byte	0x4c3
 4119 0db5 0C       		.byte	0xc
 4120 0db6 85000000 		.4byte	0x85
 4121 0dba 76030000 		.4byte	.LLST40
 4122 0dbe 74030000 		.4byte	.LVUS40
 4123 0dc2 29       		.uleb128 0x29
 4124 0dc3 2A000000 		.4byte	.LVL90
 4125 0dc7 99100000 		.4byte	0x1099
 4126 0dcb DD0D0000 		.4byte	0xddd
 4127 0dcf 2A       		.uleb128 0x2a
 4128 0dd0 01       		.uleb128 0x1
 4129 0dd1 50       		.byte	0x50
 4130 0dd2 03       		.uleb128 0x3
 4131 0dd3 74       		.byte	0x74
 4132 0dd4 8001     		.sleb128 128
 4133 0dd6 2A       		.uleb128 0x2a
 4134 0dd7 01       		.uleb128 0x1
 4135 0dd8 51       		.byte	0x51
 4136 0dd9 02       		.uleb128 0x2
 4137 0dda 08       		.byte	0x8
 4138 0ddb 80       		.byte	0x80
ARM GAS  C:\Users\jens-\AppData\Local\Temp\cc4C0Tnp.s 			page 109


 4139 0ddc 00       		.byte	0
 4140 0ddd 29       		.uleb128 0x29
 4141 0dde 3A000000 		.4byte	.LVL91
 4142 0de2 99100000 		.4byte	0x1099
 4143 0de6 F80D0000 		.4byte	0xdf8
 4144 0dea 2A       		.uleb128 0x2a
 4145 0deb 01       		.uleb128 0x1
 4146 0dec 50       		.byte	0x50
 4147 0ded 03       		.uleb128 0x3
 4148 0dee 75       		.byte	0x75
 4149 0def 8001     		.sleb128 128
 4150 0df1 2A       		.uleb128 0x2a
 4151 0df2 01       		.uleb128 0x1
 4152 0df3 51       		.byte	0x51
 4153 0df4 02       		.uleb128 0x2
 4154 0df5 08       		.byte	0x8
 4155 0df6 80       		.byte	0x80
 4156 0df7 00       		.byte	0
 4157 0df8 29       		.uleb128 0x29
 4158 0df9 52000000 		.4byte	.LVL94
 4159 0dfd EA190000 		.4byte	0x19ea
 4160 0e01 1B0E0000 		.4byte	0xe1b
 4161 0e05 2A       		.uleb128 0x2a
 4162 0e06 01       		.uleb128 0x1
 4163 0e07 50       		.byte	0x50
 4164 0e08 02       		.uleb128 0x2
 4165 0e09 76       		.byte	0x76
 4166 0e0a 00       		.sleb128 0
 4167 0e0b 2A       		.uleb128 0x2a
 4168 0e0c 01       		.uleb128 0x1
 4169 0e0d 51       		.byte	0x51
 4170 0e0e 05       		.uleb128 0x5
 4171 0e0f 74       		.byte	0x74
 4172 0e10 00       		.sleb128 0
 4173 0e11 77       		.byte	0x77
 4174 0e12 00       		.sleb128 0
 4175 0e13 22       		.byte	0x22
 4176 0e14 2A       		.uleb128 0x2a
 4177 0e15 01       		.uleb128 0x1
 4178 0e16 52       		.byte	0x52
 4179 0e17 02       		.uleb128 0x2
 4180 0e18 78       		.byte	0x78
 4181 0e19 00       		.sleb128 0
 4182 0e1a 00       		.byte	0
 4183 0e1b 29       		.uleb128 0x29
 4184 0e1c 62000000 		.4byte	.LVL97
 4185 0e20 EA190000 		.4byte	0x19ea
 4186 0e24 3C0E0000 		.4byte	0xe3c
 4187 0e28 2A       		.uleb128 0x2a
 4188 0e29 01       		.uleb128 0x1
 4189 0e2a 50       		.byte	0x50
 4190 0e2b 02       		.uleb128 0x2
 4191 0e2c 7D       		.byte	0x7d
 4192 0e2d 00       		.sleb128 0
 4193 0e2e 2A       		.uleb128 0x2a
 4194 0e2f 01       		.uleb128 0x1
 4195 0e30 51       		.byte	0x51
ARM GAS  C:\Users\jens-\AppData\Local\Temp\cc4C0Tnp.s 			page 110


 4196 0e31 02       		.uleb128 0x2
 4197 0e32 75       		.byte	0x75
 4198 0e33 00       		.sleb128 0
 4199 0e34 2A       		.uleb128 0x2a
 4200 0e35 01       		.uleb128 0x1
 4201 0e36 52       		.byte	0x52
 4202 0e37 03       		.uleb128 0x3
 4203 0e38 0A       		.byte	0xa
 4204 0e39 0001     		.2byte	0x100
 4205 0e3b 00       		.byte	0
 4206 0e3c 29       		.uleb128 0x29
 4207 0e3d 6C000000 		.4byte	.LVL98
 4208 0e41 3D0F0000 		.4byte	0xf3d
 4209 0e45 5C0E0000 		.4byte	0xe5c
 4210 0e49 2A       		.uleb128 0x2a
 4211 0e4a 01       		.uleb128 0x1
 4212 0e4b 50       		.byte	0x50
 4213 0e4c 02       		.uleb128 0x2
 4214 0e4d 74       		.byte	0x74
 4215 0e4e 00       		.sleb128 0
 4216 0e4f 2A       		.uleb128 0x2a
 4217 0e50 01       		.uleb128 0x1
 4218 0e51 51       		.byte	0x51
 4219 0e52 02       		.uleb128 0x2
 4220 0e53 7D       		.byte	0x7d
 4221 0e54 00       		.sleb128 0
 4222 0e55 2A       		.uleb128 0x2a
 4223 0e56 01       		.uleb128 0x1
 4224 0e57 52       		.byte	0x52
 4225 0e58 02       		.uleb128 0x2
 4226 0e59 79       		.byte	0x79
 4227 0e5a 00       		.sleb128 0
 4228 0e5b 00       		.byte	0
 4229 0e5c 2B       		.uleb128 0x2b
 4230 0e5d 7E000000 		.4byte	.LVL101
 4231 0e61 EA190000 		.4byte	0x19ea
 4232 0e65 2A       		.uleb128 0x2a
 4233 0e66 01       		.uleb128 0x1
 4234 0e67 50       		.byte	0x50
 4235 0e68 02       		.uleb128 0x2
 4236 0e69 76       		.byte	0x76
 4237 0e6a 00       		.sleb128 0
 4238 0e6b 2A       		.uleb128 0x2a
 4239 0e6c 01       		.uleb128 0x1
 4240 0e6d 51       		.byte	0x51
 4241 0e6e 0B       		.uleb128 0xb
 4242 0e6f 77       		.byte	0x77
 4243 0e70 00       		.sleb128 0
 4244 0e71 32       		.byte	0x32
 4245 0e72 24       		.byte	0x24
 4246 0e73 91       		.byte	0x91
 4247 0e74 00       		.sleb128 0
 4248 0e75 22       		.byte	0x22
 4249 0e76 0A       		.byte	0xa
 4250 0e77 2001     		.2byte	0x120
 4251 0e79 1C       		.byte	0x1c
 4252 0e7a 2A       		.uleb128 0x2a
ARM GAS  C:\Users\jens-\AppData\Local\Temp\cc4C0Tnp.s 			page 111


 4253 0e7b 01       		.uleb128 0x1
 4254 0e7c 52       		.byte	0x52
 4255 0e7d 02       		.uleb128 0x2
 4256 0e7e 78       		.byte	0x78
 4257 0e7f 00       		.sleb128 0
 4258 0e80 00       		.byte	0
 4259 0e81 00       		.byte	0
 4260 0e82 24       		.uleb128 0x24
 4261 0e83 1B040000 		.4byte	.LASF170
 4262 0e87 01       		.byte	0x1
 4263 0e88 4504     		.2byte	0x445
 4264 0e8a 21       		.byte	0x21
 4265 0e8b E80A0000 		.4byte	0xae8
 4266 0e8f 00000000 		.4byte	.LFB11
 4267 0e93 30000000 		.4byte	.LFE11-.LFB11
 4268 0e97 01       		.uleb128 0x1
 4269 0e98 9C       		.byte	0x9c
 4270 0e99 3D0F0000 		.4byte	0xf3d
 4271 0e9d 25       		.uleb128 0x25
 4272 0e9e 73070000 		.4byte	.LASF171
 4273 0ea2 01       		.byte	0x1
 4274 0ea3 4504     		.2byte	0x445
 4275 0ea5 31       		.byte	0x31
 4276 0ea6 85000000 		.4byte	0x85
 4277 0eaa 8D030000 		.4byte	.LLST41
 4278 0eae 89030000 		.4byte	.LVUS41
 4279 0eb2 25       		.uleb128 0x25
 4280 0eb3 3C030000 		.4byte	.LASF172
 4281 0eb7 01       		.byte	0x1
 4282 0eb8 4604     		.2byte	0x446
 4283 0eba 30       		.byte	0x30
 4284 0ebb 85000000 		.4byte	0x85
 4285 0ebf AF030000 		.4byte	.LLST42
 4286 0ec3 AB030000 		.4byte	.LVUS42
 4287 0ec7 25       		.uleb128 0x25
 4288 0ec8 46090000 		.4byte	.LASF158
 4289 0ecc 01       		.byte	0x1
 4290 0ecd 4704     		.2byte	0x447
 4291 0ecf 43       		.byte	0x43
 4292 0ed0 440C0000 		.4byte	0xc44
 4293 0ed4 D1030000 		.4byte	.LLST43
 4294 0ed8 CD030000 		.4byte	.LVUS43
 4295 0edc 28       		.uleb128 0x28
 4296 0edd B40A0000 		.4byte	.LASF173
 4297 0ee1 01       		.byte	0x1
 4298 0ee2 4904     		.2byte	0x449
 4299 0ee4 0C       		.byte	0xc
 4300 0ee5 85000000 		.4byte	0x85
 4301 0ee9 F9030000 		.4byte	.LLST44
 4302 0eed EF030000 		.4byte	.LVUS44
 4303 0ef1 26       		.uleb128 0x26
 4304 0ef2 72657400 		.ascii	"ret\000"
 4305 0ef6 01       		.byte	0x1
 4306 0ef7 4A04     		.2byte	0x44a
 4307 0ef9 1E       		.byte	0x1e
 4308 0efa E80A0000 		.4byte	0xae8
 4309 0efe 47040000 		.4byte	.LLST45
ARM GAS  C:\Users\jens-\AppData\Local\Temp\cc4C0Tnp.s 			page 112


 4310 0f02 3D040000 		.4byte	.LVUS45
 4311 0f06 29       		.uleb128 0x29
 4312 0f07 0C000000 		.4byte	.LVL104
 4313 0f0b 3D0F0000 		.4byte	0xf3d
 4314 0f0f 260F0000 		.4byte	0xf26
 4315 0f13 2A       		.uleb128 0x2a
 4316 0f14 01       		.uleb128 0x1
 4317 0f15 50       		.byte	0x50
 4318 0f16 02       		.uleb128 0x2
 4319 0f17 76       		.byte	0x76
 4320 0f18 00       		.sleb128 0
 4321 0f19 2A       		.uleb128 0x2a
 4322 0f1a 01       		.uleb128 0x1
 4323 0f1b 51       		.byte	0x51
 4324 0f1c 02       		.uleb128 0x2
 4325 0f1d 75       		.byte	0x75
 4326 0f1e 00       		.sleb128 0
 4327 0f1f 2A       		.uleb128 0x2a
 4328 0f20 01       		.uleb128 0x1
 4329 0f21 52       		.byte	0x52
 4330 0f22 02       		.uleb128 0x2
 4331 0f23 74       		.byte	0x74
 4332 0f24 00       		.sleb128 0
 4333 0f25 00       		.byte	0
 4334 0f26 2B       		.uleb128 0x2b
 4335 0f27 2C000000 		.4byte	.LVL110
 4336 0f2b 3D0F0000 		.4byte	0xf3d
 4337 0f2f 2A       		.uleb128 0x2a
 4338 0f30 01       		.uleb128 0x1
 4339 0f31 51       		.byte	0x51
 4340 0f32 02       		.uleb128 0x2
 4341 0f33 75       		.byte	0x75
 4342 0f34 00       		.sleb128 0
 4343 0f35 2A       		.uleb128 0x2a
 4344 0f36 01       		.uleb128 0x1
 4345 0f37 52       		.byte	0x52
 4346 0f38 02       		.uleb128 0x2
 4347 0f39 74       		.byte	0x74
 4348 0f3a 00       		.sleb128 0
 4349 0f3b 00       		.byte	0
 4350 0f3c 00       		.byte	0
 4351 0f3d 24       		.uleb128 0x24
 4352 0f3e 9B010000 		.4byte	.LASF174
 4353 0f42 01       		.byte	0x1
 4354 0f43 DF03     		.2byte	0x3df
 4355 0f45 21       		.byte	0x21
 4356 0f46 E80A0000 		.4byte	0xae8
 4357 0f4a 00000000 		.4byte	.LFB10
 4358 0f4e 2A000000 		.4byte	.LFE10-.LFB10
 4359 0f52 01       		.uleb128 0x1
 4360 0f53 9C       		.byte	0x9c
 4361 0f54 23100000 		.4byte	0x1023
 4362 0f58 25       		.uleb128 0x25
 4363 0f59 73070000 		.4byte	.LASF171
 4364 0f5d 01       		.byte	0x1
 4365 0f5e DF03     		.2byte	0x3df
 4366 0f60 31       		.byte	0x31
ARM GAS  C:\Users\jens-\AppData\Local\Temp\cc4C0Tnp.s 			page 113


 4367 0f61 85000000 		.4byte	0x85
 4368 0f65 8D040000 		.4byte	.LLST22
 4369 0f69 87040000 		.4byte	.LVUS22
 4370 0f6d 25       		.uleb128 0x25
 4371 0f6e 940A0000 		.4byte	.LASF175
 4372 0f72 01       		.byte	0x1
 4373 0f73 E003     		.2byte	0x3e0
 4374 0f75 31       		.byte	0x31
 4375 0f76 FD0C0000 		.4byte	0xcfd
 4376 0f7a BD040000 		.4byte	.LLST23
 4377 0f7e B9040000 		.4byte	.LVUS23
 4378 0f82 25       		.uleb128 0x25
 4379 0f83 46090000 		.4byte	.LASF158
 4380 0f87 01       		.byte	0x1
 4381 0f88 E103     		.2byte	0x3e1
 4382 0f8a 43       		.byte	0x43
 4383 0f8b 440C0000 		.4byte	0xc44
 4384 0f8f DF040000 		.4byte	.LLST24
 4385 0f93 DB040000 		.4byte	.LVUS24
 4386 0f97 26       		.uleb128 0x26
 4387 0f98 72657400 		.ascii	"ret\000"
 4388 0f9c 01       		.byte	0x1
 4389 0f9d E303     		.2byte	0x3e3
 4390 0f9f 1E       		.byte	0x1e
 4391 0fa0 E80A0000 		.4byte	0xae8
 4392 0fa4 06050000 		.4byte	.LLST25
 4393 0fa8 00050000 		.4byte	.LVUS25
 4394 0fac 26       		.uleb128 0x26
 4395 0fad 726300   		.ascii	"rc\000"
 4396 0fb0 01       		.byte	0x1
 4397 0fb1 E503     		.2byte	0x3e5
 4398 0fb3 0E       		.byte	0xe
 4399 0fb4 AC000000 		.4byte	0xac
 4400 0fb8 35050000 		.4byte	.LLST26
 4401 0fbc 31050000 		.4byte	.LVUS26
 4402 0fc0 28       		.uleb128 0x28
 4403 0fc1 5B070000 		.4byte	.LASF176
 4404 0fc5 01       		.byte	0x1
 4405 0fc6 E603     		.2byte	0x3e6
 4406 0fc8 0C       		.byte	0xc
 4407 0fc9 85000000 		.4byte	0x85
 4408 0fcd 55050000 		.4byte	.LLST27
 4409 0fd1 53050000 		.4byte	.LVUS27
 4410 0fd5 28       		.uleb128 0x28
 4411 0fd6 88060000 		.4byte	.LASF177
 4412 0fda 01       		.byte	0x1
 4413 0fdb E803     		.2byte	0x3e8
 4414 0fdd 10       		.byte	0x10
 4415 0fde 85000000 		.4byte	0x85
 4416 0fe2 6C050000 		.4byte	.LLST28
 4417 0fe6 68050000 		.4byte	.LVUS28
 4418 0fea 2E       		.uleb128 0x2e
 4419 0feb 0E000000 		.4byte	.LVL65
 4420 0fef F5190000 		.4byte	0x19f5
 4421 0ff3 29       		.uleb128 0x29
 4422 0ff4 1A000000 		.4byte	.LVL66
 4423 0ff8 011A0000 		.4byte	0x1a01
ARM GAS  C:\Users\jens-\AppData\Local\Temp\cc4C0Tnp.s 			page 114


 4424 0ffc 19100000 		.4byte	0x1019
 4425 1000 2A       		.uleb128 0x2a
 4426 1001 01       		.uleb128 0x1
 4427 1002 50       		.byte	0x50
 4428 1003 08       		.uleb128 0x8
 4429 1004 74       		.byte	0x74
 4430 1005 00       		.sleb128 0
 4431 1006 09       		.byte	0x9
 4432 1007 EC       		.byte	0xec
 4433 1008 24       		.byte	0x24
 4434 1009 09       		.byte	0x9
 4435 100a FC       		.byte	0xfc
 4436 100b 25       		.byte	0x25
 4437 100c 2A       		.uleb128 0x2a
 4438 100d 01       		.uleb128 0x1
 4439 100e 51       		.byte	0x51
 4440 100f 02       		.uleb128 0x2
 4441 1010 76       		.byte	0x76
 4442 1011 00       		.sleb128 0
 4443 1012 2A       		.uleb128 0x2a
 4444 1013 01       		.uleb128 0x1
 4445 1014 52       		.byte	0x52
 4446 1015 02       		.uleb128 0x2
 4447 1016 75       		.byte	0x75
 4448 1017 00       		.sleb128 0
 4449 1018 00       		.byte	0
 4450 1019 2E       		.uleb128 0x2e
 4451 101a 20000000 		.4byte	.LVL68
 4452 101e 0D1A0000 		.4byte	0x1a0d
 4453 1022 00       		.byte	0
 4454 1023 24       		.uleb128 0x24
 4455 1024 75060000 		.4byte	.LASF178
 4456 1028 01       		.byte	0x1
 4457 1029 BC03     		.2byte	0x3bc
 4458 102b 21       		.byte	0x21
 4459 102c E80A0000 		.4byte	0xae8
 4460 1030 00000000 		.4byte	.LFB9
 4461 1034 34000000 		.4byte	.LFE9-.LFB9
 4462 1038 01       		.uleb128 0x1
 4463 1039 9C       		.byte	0x9c
 4464 103a 93100000 		.4byte	0x1093
 4465 103e 25       		.uleb128 0x25
 4466 103f C1080000 		.4byte	.LASF179
 4467 1043 01       		.byte	0x1
 4468 1044 BC03     		.2byte	0x3bc
 4469 1046 45       		.byte	0x45
 4470 1047 93100000 		.4byte	0x1093
 4471 104b 9F050000 		.4byte	.LLST13
 4472 104f 93050000 		.4byte	.LVUS13
 4473 1053 26       		.uleb128 0x26
 4474 1054 72657400 		.ascii	"ret\000"
 4475 1058 01       		.byte	0x1
 4476 1059 BE03     		.2byte	0x3be
 4477 105b 1E       		.byte	0x1e
 4478 105c E80A0000 		.4byte	0xae8
 4479 1060 F8050000 		.4byte	.LLST14
 4480 1064 F2050000 		.4byte	.LVUS14
ARM GAS  C:\Users\jens-\AppData\Local\Temp\cc4C0Tnp.s 			page 115


 4481 1068 28       		.uleb128 0x28
 4482 1069 D7080000 		.4byte	.LASF159
 4483 106d 01       		.byte	0x1
 4484 106e BF03     		.2byte	0x3bf
 4485 1070 0C       		.byte	0xc
 4486 1071 85000000 		.4byte	0x85
 4487 1075 25060000 		.4byte	.LLST15
 4488 1079 23060000 		.4byte	.LVUS15
 4489 107d 28       		.uleb128 0x28
 4490 107e B1060000 		.4byte	.LASF160
 4491 1082 01       		.byte	0x1
 4492 1083 C003     		.2byte	0x3c0
 4493 1085 0C       		.byte	0xc
 4494 1086 85000000 		.4byte	0x85
 4495 108a 3A060000 		.4byte	.LLST16
 4496 108e 38060000 		.4byte	.LVUS16
 4497 1092 00       		.byte	0
 4498 1093 06       		.uleb128 0x6
 4499 1094 04       		.byte	0x4
 4500 1095 250A0000 		.4byte	0xa25
 4501 1099 24       		.uleb128 0x24
 4502 109a 660A0000 		.4byte	.LASF180
 4503 109e 01       		.byte	0x1
 4504 109f 9B03     		.2byte	0x39b
 4505 10a1 0E       		.byte	0xe
 4506 10a2 6B000000 		.4byte	0x6b
 4507 10a6 00000000 		.4byte	.LFB8
 4508 10aa 3A000000 		.4byte	.LFE8-.LFB8
 4509 10ae 01       		.uleb128 0x1
 4510 10af 9C       		.byte	0x9c
 4511 10b0 16110000 		.4byte	0x1116
 4512 10b4 25       		.uleb128 0x25
 4513 10b5 940A0000 		.4byte	.LASF175
 4514 10b9 01       		.byte	0x1
 4515 10ba 9B03     		.2byte	0x39b
 4516 10bc 21       		.byte	0x21
 4517 10bd 16110000 		.4byte	0x1116
 4518 10c1 53060000 		.4byte	.LLST9
 4519 10c5 4D060000 		.4byte	.LVUS9
 4520 10c9 2F       		.uleb128 0x2f
 4521 10ca 6C656E00 		.ascii	"len\000"
 4522 10ce 01       		.byte	0x1
 4523 10cf 9B03     		.2byte	0x39b
 4524 10d1 33       		.byte	0x33
 4525 10d2 85000000 		.4byte	0x85
 4526 10d6 01       		.uleb128 0x1
 4527 10d7 51       		.byte	0x51
 4528 10d8 26       		.uleb128 0x26
 4529 10d9 63726300 		.ascii	"crc\000"
 4530 10dd 01       		.byte	0x1
 4531 10de 9D03     		.2byte	0x39d
 4532 10e0 0B       		.byte	0xb
 4533 10e1 6B000000 		.4byte	0x6b
 4534 10e5 87060000 		.4byte	.LLST10
 4535 10e9 7F060000 		.4byte	.LVUS10
 4536 10ed 26       		.uleb128 0x26
 4537 10ee 6900     		.ascii	"i\000"
ARM GAS  C:\Users\jens-\AppData\Local\Temp\cc4C0Tnp.s 			page 116


 4538 10f0 01       		.byte	0x1
 4539 10f1 9E03     		.2byte	0x39e
 4540 10f3 0B       		.byte	0xb
 4541 10f4 6B000000 		.4byte	0x6b
 4542 10f8 C3060000 		.4byte	.LLST11
 4543 10fc BD060000 		.4byte	.LVUS11
 4544 1100 26       		.uleb128 0x26
 4545 1101 636E7400 		.ascii	"cnt\000"
 4546 1105 01       		.byte	0x1
 4547 1106 9F03     		.2byte	0x39f
 4548 1108 0C       		.byte	0xc
 4549 1109 78000000 		.4byte	0x78
 4550 110d F3060000 		.4byte	.LLST12
 4551 1111 ED060000 		.4byte	.LVUS12
 4552 1115 00       		.byte	0
 4553 1116 06       		.uleb128 0x6
 4554 1117 04       		.byte	0x4
 4555 1118 6B000000 		.4byte	0x6b
 4556 111c 30       		.uleb128 0x30
 4557 111d 25060000 		.4byte	.LASF185
 4558 1121 01       		.byte	0x1
 4559 1122 4F03     		.2byte	0x34f
 4560 1124 0D       		.byte	0xd
 4561 1125 00000000 		.4byte	.LFB7
 4562 1129 54000000 		.4byte	.LFE7-.LFB7
 4563 112d 01       		.uleb128 0x1
 4564 112e 9C       		.byte	0x9c
 4565 112f 82110000 		.4byte	0x1182
 4566 1133 25       		.uleb128 0x25
 4567 1134 06060000 		.4byte	.LASF155
 4568 1138 01       		.byte	0x1
 4569 1139 4F03     		.2byte	0x34f
 4570 113b 26       		.byte	0x26
 4571 113c 85000000 		.4byte	0x85
 4572 1140 23070000 		.4byte	.LLST6
 4573 1144 1D070000 		.4byte	.LVUS6
 4574 1148 25       		.uleb128 0x25
 4575 1149 C40A0000 		.4byte	.LASF181
 4576 114d 01       		.byte	0x1
 4577 114e 5003     		.2byte	0x350
 4578 1150 26       		.byte	0x26
 4579 1151 FD0C0000 		.4byte	0xcfd
 4580 1155 57070000 		.4byte	.LLST7
 4581 1159 4F070000 		.4byte	.LVUS7
 4582 115d 2C       		.uleb128 0x2c
 4583 115e 16030000 		.4byte	.LASF182
 4584 1162 01       		.byte	0x1
 4585 1163 5103     		.2byte	0x351
 4586 1165 26       		.byte	0x26
 4587 1166 FD0C0000 		.4byte	0xcfd
 4588 116a 01       		.uleb128 0x1
 4589 116b 52       		.byte	0x52
 4590 116c 25       		.uleb128 0x25
 4591 116d 46090000 		.4byte	.LASF158
 4592 1171 01       		.byte	0x1
 4593 1172 5203     		.2byte	0x352
 4594 1174 37       		.byte	0x37
ARM GAS  C:\Users\jens-\AppData\Local\Temp\cc4C0Tnp.s 			page 117


 4595 1175 440C0000 		.4byte	0xc44
 4596 1179 99070000 		.4byte	.LLST8
 4597 117d 91070000 		.4byte	.LVUS8
 4598 1181 00       		.byte	0
 4599 1182 24       		.uleb128 0x24
 4600 1183 B6010000 		.4byte	.LASF183
 4601 1187 01       		.byte	0x1
 4602 1188 2203     		.2byte	0x322
 4603 118a 0F       		.byte	0xf
 4604 118b 85000000 		.4byte	0x85
 4605 118f 00000000 		.4byte	.LFB6
 4606 1193 1A000000 		.4byte	.LFE6-.LFB6
 4607 1197 01       		.uleb128 0x1
 4608 1198 9C       		.byte	0x9c
 4609 1199 D7110000 		.4byte	0x11d7
 4610 119d 25       		.uleb128 0x25
 4611 119e 06060000 		.4byte	.LASF155
 4612 11a2 01       		.byte	0x1
 4613 11a3 2203     		.2byte	0x322
 4614 11a5 29       		.byte	0x29
 4615 11a6 85000000 		.4byte	0x85
 4616 11aa D7070000 		.4byte	.LLST4
 4617 11ae D3070000 		.4byte	.LVUS4
 4618 11b2 2C       		.uleb128 0x2c
 4619 11b3 46090000 		.4byte	.LASF158
 4620 11b7 01       		.byte	0x1
 4621 11b8 2203     		.2byte	0x322
 4622 11ba 4B       		.byte	0x4b
 4623 11bb 440C0000 		.4byte	0xc44
 4624 11bf 01       		.uleb128 0x1
 4625 11c0 51       		.byte	0x51
 4626 11c1 28       		.uleb128 0x28
 4627 11c2 DB060000 		.4byte	.LASF184
 4628 11c6 01       		.byte	0x1
 4629 11c7 2403     		.2byte	0x324
 4630 11c9 0C       		.byte	0xc
 4631 11ca 85000000 		.4byte	0x85
 4632 11ce FB070000 		.4byte	.LLST5
 4633 11d2 F5070000 		.4byte	.LVUS5
 4634 11d6 00       		.byte	0
 4635 11d7 30       		.uleb128 0x30
 4636 11d8 CF010000 		.4byte	.LASF186
 4637 11dc 01       		.byte	0x1
 4638 11dd F602     		.2byte	0x2f6
 4639 11df 0D       		.byte	0xd
 4640 11e0 00000000 		.4byte	.LFB5
 4641 11e4 32000000 		.4byte	.LFE5-.LFB5
 4642 11e8 01       		.uleb128 0x1
 4643 11e9 9C       		.byte	0x9c
 4644 11ea 61120000 		.4byte	0x1261
 4645 11ee 2C       		.uleb128 0x2c
 4646 11ef BD030000 		.4byte	.LASF187
 4647 11f3 01       		.byte	0x1
 4648 11f4 F602     		.2byte	0x2f6
 4649 11f6 29       		.byte	0x29
 4650 11f7 FD0C0000 		.4byte	0xcfd
 4651 11fb 01       		.uleb128 0x1
ARM GAS  C:\Users\jens-\AppData\Local\Temp\cc4C0Tnp.s 			page 118


 4652 11fc 50       		.byte	0x50
 4653 11fd 2C       		.uleb128 0x2c
 4654 11fe 46090000 		.4byte	.LASF158
 4655 1202 01       		.byte	0x1
 4656 1203 F602     		.2byte	0x2f6
 4657 1205 51       		.byte	0x51
 4658 1206 440C0000 		.4byte	0xc44
 4659 120a 01       		.uleb128 0x1
 4660 120b 51       		.byte	0x51
 4661 120c 28       		.uleb128 0x28
 4662 120d 06060000 		.4byte	.LASF155
 4663 1211 01       		.byte	0x1
 4664 1212 F802     		.2byte	0x2f8
 4665 1214 0C       		.byte	0xc
 4666 1215 85000000 		.4byte	0x85
 4667 1219 2B080000 		.4byte	.LLST0
 4668 121d 25080000 		.4byte	.LVUS0
 4669 1221 28       		.uleb128 0x28
 4670 1222 7D030000 		.4byte	.LASF188
 4671 1226 01       		.byte	0x1
 4672 1227 F902     		.2byte	0x2f9
 4673 1229 0C       		.byte	0xc
 4674 122a 85000000 		.4byte	0x85
 4675 122e 5D080000 		.4byte	.LLST1
 4676 1232 55080000 		.4byte	.LVUS1
 4677 1236 28       		.uleb128 0x28
 4678 1237 E7090000 		.4byte	.LASF189
 4679 123b 01       		.byte	0x1
 4680 123c FA02     		.2byte	0x2fa
 4681 123e 0C       		.byte	0xc
 4682 123f 85000000 		.4byte	0x85
 4683 1243 96080000 		.4byte	.LLST2
 4684 1247 92080000 		.4byte	.LVUS2
 4685 124b 28       		.uleb128 0x28
 4686 124c DB060000 		.4byte	.LASF184
 4687 1250 01       		.byte	0x1
 4688 1251 FB02     		.2byte	0x2fb
 4689 1253 0C       		.byte	0xc
 4690 1254 85000000 		.4byte	0x85
 4691 1258 B7080000 		.4byte	.LLST3
 4692 125c B5080000 		.4byte	.LVUS3
 4693 1260 00       		.byte	0
 4694 1261 31       		.uleb128 0x31
 4695 1262 13020000 		.4byte	.LASF190
 4696 1266 01       		.byte	0x1
 4697 1267 DC02     		.2byte	0x2dc
 4698 1269 08       		.byte	0x8
 4699 126a 85000000 		.4byte	0x85
 4700 126e 00000000 		.4byte	.LFB4
 4701 1272 06000000 		.4byte	.LFE4-.LFB4
 4702 1276 01       		.uleb128 0x1
 4703 1277 9C       		.byte	0x9c
 4704 1278 92120000 		.4byte	0x1292
 4705 127c 25       		.uleb128 0x25
 4706 127d 46090000 		.4byte	.LASF158
 4707 1281 01       		.byte	0x1
 4708 1282 DC02     		.2byte	0x2dc
ARM GAS  C:\Users\jens-\AppData\Local\Temp\cc4C0Tnp.s 			page 119


 4709 1284 39       		.byte	0x39
 4710 1285 440C0000 		.4byte	0xc44
 4711 1289 CE080000 		.4byte	.LLST93
 4712 128d CA080000 		.4byte	.LVUS93
 4713 1291 00       		.byte	0
 4714 1292 31       		.uleb128 0x31
 4715 1293 68020000 		.4byte	.LASF191
 4716 1297 01       		.byte	0x1
 4717 1298 7502     		.2byte	0x275
 4718 129a 1A       		.byte	0x1a
 4719 129b E80A0000 		.4byte	0xae8
 4720 129f 00000000 		.4byte	.LFB3
 4721 12a3 66000000 		.4byte	.LFE3-.LFB3
 4722 12a7 01       		.uleb128 0x1
 4723 12a8 9C       		.byte	0x9c
 4724 12a9 C3130000 		.4byte	0x13c3
 4725 12ad 25       		.uleb128 0x25
 4726 12ae 46090000 		.4byte	.LASF158
 4727 12b2 01       		.byte	0x1
 4728 12b3 7502     		.2byte	0x275
 4729 12b5 47       		.byte	0x47
 4730 12b6 440C0000 		.4byte	0xc44
 4731 12ba F3080000 		.4byte	.LLST88
 4732 12be EF080000 		.4byte	.LVUS88
 4733 12c2 26       		.uleb128 0x26
 4734 12c3 6900     		.ascii	"i\000"
 4735 12c5 01       		.byte	0x1
 4736 12c6 7702     		.2byte	0x277
 4737 12c8 0C       		.byte	0xc
 4738 12c9 85000000 		.4byte	0x85
 4739 12cd 13090000 		.4byte	.LLST89
 4740 12d1 11090000 		.4byte	.LVUS89
 4741 12d5 28       		.uleb128 0x28
 4742 12d6 06060000 		.4byte	.LASF155
 4743 12da 01       		.byte	0x1
 4744 12db 7802     		.2byte	0x278
 4745 12dd 0C       		.byte	0xc
 4746 12de 85000000 		.4byte	0x85
 4747 12e2 30090000 		.4byte	.LLST90
 4748 12e6 26090000 		.4byte	.LVUS90
 4749 12ea 27       		.uleb128 0x27
 4750 12eb B40A0000 		.4byte	.LASF173
 4751 12ef 01       		.byte	0x1
 4752 12f0 7902     		.2byte	0x279
 4753 12f2 0C       		.byte	0xc
 4754 12f3 85000000 		.4byte	0x85
 4755 12f7 02       		.uleb128 0x2
 4756 12f8 91       		.byte	0x91
 4757 12f9 64       		.sleb128 -28
 4758 12fa 27       		.uleb128 0x27
 4759 12fb 44040000 		.4byte	.LASF192
 4760 12ff 01       		.byte	0x1
 4761 1300 7A02     		.2byte	0x27a
 4762 1302 0C       		.byte	0xc
 4763 1303 85000000 		.4byte	0x85
 4764 1307 02       		.uleb128 0x2
 4765 1308 91       		.byte	0x91
ARM GAS  C:\Users\jens-\AppData\Local\Temp\cc4C0Tnp.s 			page 120


 4766 1309 60       		.sleb128 -32
 4767 130a 26       		.uleb128 0x26
 4768 130b 72657400 		.ascii	"ret\000"
 4769 130f 01       		.byte	0x1
 4770 1310 7B02     		.2byte	0x27b
 4771 1312 1E       		.byte	0x1e
 4772 1313 E80A0000 		.4byte	0xae8
 4773 1317 79090000 		.4byte	.LLST91
 4774 131b 71090000 		.4byte	.LVUS91
 4775 131f 27       		.uleb128 0x27
 4776 1320 18070000 		.4byte	.LASF152
 4777 1324 01       		.byte	0x1
 4778 1325 7C02     		.2byte	0x27c
 4779 1327 0C       		.byte	0xc
 4780 1328 4A0C0000 		.4byte	0xc4a
 4781 132c 03       		.uleb128 0x3
 4782 132d 91       		.byte	0x91
 4783 132e E07D     		.sleb128 -288
 4784 1330 32       		.uleb128 0x32
 4785 1331 A0000000 		.4byte	.Ldebug_ranges0+0xa0
 4786 1335 A6130000 		.4byte	0x13a6
 4787 1339 28       		.uleb128 0x28
 4788 133a F2000000 		.4byte	.LASF193
 4789 133e 01       		.byte	0x1
 4790 133f 8902     		.2byte	0x289
 4791 1341 10       		.byte	0x10
 4792 1342 85000000 		.4byte	0x85
 4793 1346 B1090000 		.4byte	.LLST92
 4794 134a AF090000 		.4byte	.LVUS92
 4795 134e 29       		.uleb128 0x29
 4796 134f 36000000 		.4byte	.LVL271
 4797 1353 99100000 		.4byte	0x1099
 4798 1357 69130000 		.4byte	0x1369
 4799 135b 2A       		.uleb128 0x2a
 4800 135c 01       		.uleb128 0x1
 4801 135d 50       		.byte	0x50
 4802 135e 03       		.uleb128 0x3
 4803 135f 91       		.byte	0x91
 4804 1360 E07E     		.sleb128 -160
 4805 1362 2A       		.uleb128 0x2a
 4806 1363 01       		.uleb128 0x1
 4807 1364 51       		.byte	0x51
 4808 1365 02       		.uleb128 0x2
 4809 1366 08       		.byte	0x8
 4810 1367 80       		.byte	0x80
 4811 1368 00       		.byte	0
 4812 1369 29       		.uleb128 0x29
 4813 136a 4A000000 		.4byte	.LVL275
 4814 136e 1C110000 		.4byte	0x111c
 4815 1372 8F130000 		.4byte	0x138f
 4816 1376 2A       		.uleb128 0x2a
 4817 1377 01       		.uleb128 0x1
 4818 1378 50       		.byte	0x50
 4819 1379 02       		.uleb128 0x2
 4820 137a 74       		.byte	0x74
 4821 137b 00       		.sleb128 0
 4822 137c 2A       		.uleb128 0x2a
ARM GAS  C:\Users\jens-\AppData\Local\Temp\cc4C0Tnp.s 			page 121


 4823 137d 01       		.uleb128 0x1
 4824 137e 51       		.byte	0x51
 4825 137f 02       		.uleb128 0x2
 4826 1380 91       		.byte	0x91
 4827 1381 64       		.sleb128 -28
 4828 1382 2A       		.uleb128 0x2a
 4829 1383 01       		.uleb128 0x1
 4830 1384 52       		.byte	0x52
 4831 1385 02       		.uleb128 0x2
 4832 1386 91       		.byte	0x91
 4833 1387 60       		.sleb128 -32
 4834 1388 2A       		.uleb128 0x2a
 4835 1389 01       		.uleb128 0x1
 4836 138a 53       		.byte	0x53
 4837 138b 02       		.uleb128 0x2
 4838 138c 76       		.byte	0x76
 4839 138d 00       		.sleb128 0
 4840 138e 00       		.byte	0
 4841 138f 2B       		.uleb128 0x2b
 4842 1390 58000000 		.4byte	.LVL277
 4843 1394 820E0000 		.4byte	0xe82
 4844 1398 2A       		.uleb128 0x2a
 4845 1399 01       		.uleb128 0x1
 4846 139a 51       		.byte	0x51
 4847 139b 02       		.uleb128 0x2
 4848 139c 7D       		.byte	0x7d
 4849 139d 00       		.sleb128 0
 4850 139e 2A       		.uleb128 0x2a
 4851 139f 01       		.uleb128 0x1
 4852 13a0 52       		.byte	0x52
 4853 13a1 02       		.uleb128 0x2
 4854 13a2 76       		.byte	0x76
 4855 13a3 00       		.sleb128 0
 4856 13a4 00       		.byte	0
 4857 13a5 00       		.byte	0
 4858 13a6 2B       		.uleb128 0x2b
 4859 13a7 16000000 		.4byte	.LVL265
 4860 13ab 191A0000 		.4byte	0x1a19
 4861 13af 2A       		.uleb128 0x2a
 4862 13b0 01       		.uleb128 0x1
 4863 13b1 50       		.byte	0x50
 4864 13b2 02       		.uleb128 0x2
 4865 13b3 7D       		.byte	0x7d
 4866 13b4 00       		.sleb128 0
 4867 13b5 2A       		.uleb128 0x2a
 4868 13b6 01       		.uleb128 0x1
 4869 13b7 51       		.byte	0x51
 4870 13b8 01       		.uleb128 0x1
 4871 13b9 30       		.byte	0x30
 4872 13ba 2A       		.uleb128 0x2a
 4873 13bb 01       		.uleb128 0x1
 4874 13bc 52       		.byte	0x52
 4875 13bd 03       		.uleb128 0x3
 4876 13be 0A       		.byte	0xa
 4877 13bf 0001     		.2byte	0x100
 4878 13c1 00       		.byte	0
 4879 13c2 00       		.byte	0
ARM GAS  C:\Users\jens-\AppData\Local\Temp\cc4C0Tnp.s 			page 122


 4880 13c3 31       		.uleb128 0x31
 4881 13c4 F3050000 		.4byte	.LASF194
 4882 13c8 01       		.byte	0x1
 4883 13c9 9B01     		.2byte	0x19b
 4884 13cb 1A       		.byte	0x1a
 4885 13cc E80A0000 		.4byte	0xae8
 4886 13d0 00000000 		.4byte	.LFB2
 4887 13d4 74010000 		.4byte	.LFE2-.LFB2
 4888 13d8 01       		.uleb128 0x1
 4889 13d9 9C       		.byte	0x9c
 4890 13da A3160000 		.4byte	0x16a3
 4891 13de 25       		.uleb128 0x25
 4892 13df 1C010000 		.4byte	.LASF163
 4893 13e3 01       		.byte	0x1
 4894 13e4 9B01     		.2byte	0x19b
 4895 13e6 34       		.byte	0x34
 4896 13e7 85000000 		.4byte	0x85
 4897 13eb D2090000 		.4byte	.LLST73
 4898 13ef C4090000 		.4byte	.LVUS73
 4899 13f3 25       		.uleb128 0x25
 4900 13f4 65040000 		.4byte	.LASF195
 4901 13f8 01       		.byte	0x1
 4902 13f9 9C01     		.2byte	0x19c
 4903 13fb 34       		.byte	0x34
 4904 13fc 71010000 		.4byte	0x171
 4905 1400 310A0000 		.4byte	.LLST74
 4906 1404 270A0000 		.4byte	.LVUS74
 4907 1408 25       		.uleb128 0x25
 4908 1409 E1030000 		.4byte	.LASF196
 4909 140d 01       		.byte	0x1
 4910 140e 9D01     		.2byte	0x19d
 4911 1410 34       		.byte	0x34
 4912 1411 85000000 		.4byte	0x85
 4913 1415 7E0A0000 		.4byte	.LLST75
 4914 1419 760A0000 		.4byte	.LVUS75
 4915 141d 25       		.uleb128 0x25
 4916 141e 46090000 		.4byte	.LASF158
 4917 1422 01       		.byte	0x1
 4918 1423 9E01     		.2byte	0x19e
 4919 1425 47       		.byte	0x47
 4920 1426 440C0000 		.4byte	0xc44
 4921 142a B60A0000 		.4byte	.LLST76
 4922 142e B20A0000 		.4byte	.LVUS76
 4923 1432 26       		.uleb128 0x26
 4924 1433 72657400 		.ascii	"ret\000"
 4925 1437 01       		.byte	0x1
 4926 1438 A001     		.2byte	0x1a0
 4927 143a 1E       		.byte	0x1e
 4928 143b E80A0000 		.4byte	0xae8
 4929 143f E20A0000 		.4byte	.LLST77
 4930 1443 D40A0000 		.4byte	.LVUS77
 4931 1447 26       		.uleb128 0x26
 4932 1448 6900     		.ascii	"i\000"
 4933 144a 01       		.byte	0x1
 4934 144b A101     		.2byte	0x1a1
 4935 144d 0C       		.byte	0xc
 4936 144e 85000000 		.4byte	0x85
ARM GAS  C:\Users\jens-\AppData\Local\Temp\cc4C0Tnp.s 			page 123


 4937 1452 400B0000 		.4byte	.LLST78
 4938 1456 3A0B0000 		.4byte	.LVUS78
 4939 145a 28       		.uleb128 0x28
 4940 145b D9020000 		.4byte	.LASF197
 4941 145f 01       		.byte	0x1
 4942 1460 A201     		.2byte	0x1a2
 4943 1462 0C       		.byte	0xc
 4944 1463 85000000 		.4byte	0x85
 4945 1467 6D0B0000 		.4byte	.LLST79
 4946 146b 690B0000 		.4byte	.LVUS79
 4947 146f 28       		.uleb128 0x28
 4948 1470 24040000 		.4byte	.LASF198
 4949 1474 01       		.byte	0x1
 4950 1475 A301     		.2byte	0x1a3
 4951 1477 0C       		.byte	0xc
 4952 1478 85000000 		.4byte	0x85
 4953 147c 900B0000 		.4byte	.LLST80
 4954 1480 8C0B0000 		.4byte	.LVUS80
 4955 1484 27       		.uleb128 0x27
 4956 1485 18070000 		.4byte	.LASF152
 4957 1489 01       		.byte	0x1
 4958 148a A401     		.2byte	0x1a4
 4959 148c 0C       		.byte	0xc
 4960 148d 4A0C0000 		.4byte	0xc4a
 4961 1491 03       		.uleb128 0x3
 4962 1492 91       		.byte	0x91
 4963 1493 D87D     		.sleb128 -296
 4964 1495 27       		.uleb128 0x27
 4965 1496 D7080000 		.4byte	.LASF159
 4966 149a 01       		.byte	0x1
 4967 149b A501     		.2byte	0x1a5
 4968 149d 0C       		.byte	0xc
 4969 149e 85000000 		.4byte	0x85
 4970 14a2 03       		.uleb128 0x3
 4971 14a3 91       		.byte	0x91
 4972 14a4 D47D     		.sleb128 -300
 4973 14a6 27       		.uleb128 0x27
 4974 14a7 B1060000 		.4byte	.LASF160
 4975 14ab 01       		.byte	0x1
 4976 14ac A601     		.2byte	0x1a6
 4977 14ae 0C       		.byte	0xc
 4978 14af 85000000 		.4byte	0x85
 4979 14b3 03       		.uleb128 0x3
 4980 14b4 91       		.byte	0x91
 4981 14b5 D07D     		.sleb128 -304
 4982 14b7 28       		.uleb128 0x28
 4983 14b8 21030000 		.4byte	.LASF154
 4984 14bc 01       		.byte	0x1
 4985 14bd A701     		.2byte	0x1a7
 4986 14bf 0C       		.byte	0xc
 4987 14c0 85000000 		.4byte	0x85
 4988 14c4 C00B0000 		.4byte	.LLST81
 4989 14c8 AE0B0000 		.4byte	.LVUS81
 4990 14cc 27       		.uleb128 0x27
 4991 14cd B40A0000 		.4byte	.LASF173
 4992 14d1 01       		.byte	0x1
 4993 14d2 A801     		.2byte	0x1a8
ARM GAS  C:\Users\jens-\AppData\Local\Temp\cc4C0Tnp.s 			page 124


 4994 14d4 0C       		.byte	0xc
 4995 14d5 85000000 		.4byte	0x85
 4996 14d9 03       		.uleb128 0x3
 4997 14da 91       		.byte	0x91
 4998 14db CC7D     		.sleb128 -308
 4999 14dd 27       		.uleb128 0x27
 5000 14de 44040000 		.4byte	.LASF192
 5001 14e2 01       		.byte	0x1
 5002 14e3 A901     		.2byte	0x1a9
 5003 14e5 0C       		.byte	0xc
 5004 14e6 85000000 		.4byte	0x85
 5005 14ea 03       		.uleb128 0x3
 5006 14eb 91       		.byte	0x91
 5007 14ec C87D     		.sleb128 -312
 5008 14ee 28       		.uleb128 0x28
 5009 14ef 6D000000 		.4byte	.LASF199
 5010 14f3 01       		.byte	0x1
 5011 14f4 AA01     		.2byte	0x1aa
 5012 14f6 0C       		.byte	0xc
 5013 14f7 71010000 		.4byte	0x171
 5014 14fb 360C0000 		.4byte	.LLST82
 5015 14ff 320C0000 		.4byte	.LVUS82
 5016 1503 28       		.uleb128 0x28
 5017 1504 D90A0000 		.4byte	.LASF200
 5018 1508 01       		.byte	0x1
 5019 1509 AB01     		.2byte	0x1ab
 5020 150b 0C       		.byte	0xc
 5021 150c 85000000 		.4byte	0x85
 5022 1510 5E0C0000 		.4byte	.LLST83
 5023 1514 540C0000 		.4byte	.LVUS83
 5024 1518 33       		.uleb128 0x33
 5025 1519 70000000 		.4byte	.Ldebug_ranges0+0x70
 5026 151d 28       		.uleb128 0x28
 5027 151e F2000000 		.4byte	.LASF193
 5028 1522 01       		.byte	0x1
 5029 1523 B001     		.2byte	0x1b0
 5030 1525 10       		.byte	0x10
 5031 1526 85000000 		.4byte	0x85
 5032 152a A50C0000 		.4byte	.LLST84
 5033 152e A10C0000 		.4byte	.LVUS84
 5034 1532 27       		.uleb128 0x27
 5035 1533 530A0000 		.4byte	.LASF201
 5036 1537 01       		.byte	0x1
 5037 1538 B101     		.2byte	0x1b1
 5038 153a 10       		.byte	0x10
 5039 153b 85000000 		.4byte	0x85
 5040 153f 03       		.uleb128 0x3
 5041 1540 91       		.byte	0x91
 5042 1541 C47D     		.sleb128 -316
 5043 1543 33       		.uleb128 0x33
 5044 1544 88000000 		.4byte	.Ldebug_ranges0+0x88
 5045 1548 28       		.uleb128 0x28
 5046 1549 450A0000 		.4byte	.LASF202
 5047 154d 01       		.byte	0x1
 5048 154e B501     		.2byte	0x1b5
 5049 1550 14       		.byte	0x14
 5050 1551 85000000 		.4byte	0x85
ARM GAS  C:\Users\jens-\AppData\Local\Temp\cc4C0Tnp.s 			page 125


 5051 1555 D50C0000 		.4byte	.LLST85
 5052 1559 C50C0000 		.4byte	.LVUS85
 5053 155d 28       		.uleb128 0x28
 5054 155e 06060000 		.4byte	.LASF155
 5055 1562 01       		.byte	0x1
 5056 1563 B701     		.2byte	0x1b7
 5057 1565 14       		.byte	0x14
 5058 1566 85000000 		.4byte	0x85
 5059 156a 3E0D0000 		.4byte	.LLST86
 5060 156e 380D0000 		.4byte	.LVUS86
 5061 1572 34       		.uleb128 0x34
 5062 1573 A6000000 		.4byte	.LBB14
 5063 1577 16000000 		.4byte	.LBE14-.LBB14
 5064 157b 9E150000 		.4byte	0x159e
 5065 157f 28       		.uleb128 0x28
 5066 1580 57030000 		.4byte	.LASF203
 5067 1584 01       		.byte	0x1
 5068 1585 1702     		.2byte	0x217
 5069 1587 1C       		.byte	0x1c
 5070 1588 85000000 		.4byte	0x85
 5071 158c 6B0D0000 		.4byte	.LLST87
 5072 1590 670D0000 		.4byte	.LVUS87
 5073 1594 2E       		.uleb128 0x2e
 5074 1595 BA000000 		.4byte	.LVL232
 5075 1599 EA190000 		.4byte	0x19ea
 5076 159d 00       		.byte	0
 5077 159e 29       		.uleb128 0x29
 5078 159f 5A000000 		.4byte	.LVL215
 5079 15a3 EA190000 		.4byte	0x19ea
 5080 15a7 B9150000 		.4byte	0x15b9
 5081 15ab 2A       		.uleb128 0x2a
 5082 15ac 01       		.uleb128 0x1
 5083 15ad 50       		.byte	0x50
 5084 15ae 03       		.uleb128 0x3
 5085 15af 91       		.byte	0x91
 5086 15b0 D87E     		.sleb128 -168
 5087 15b2 2A       		.uleb128 0x2a
 5088 15b3 01       		.uleb128 0x1
 5089 15b4 52       		.byte	0x52
 5090 15b5 02       		.uleb128 0x2
 5091 15b6 08       		.byte	0x8
 5092 15b7 80       		.byte	0x80
 5093 15b8 00       		.byte	0
 5094 15b9 29       		.uleb128 0x29
 5095 15ba 8C000000 		.4byte	.LVL222
 5096 15be 82110000 		.4byte	0x1182
 5097 15c2 D3150000 		.4byte	0x15d3
 5098 15c6 2A       		.uleb128 0x2a
 5099 15c7 01       		.uleb128 0x1
 5100 15c8 50       		.byte	0x50
 5101 15c9 02       		.uleb128 0x2
 5102 15ca 74       		.byte	0x74
 5103 15cb 00       		.sleb128 0
 5104 15cc 2A       		.uleb128 0x2a
 5105 15cd 01       		.uleb128 0x1
 5106 15ce 51       		.byte	0x51
 5107 15cf 02       		.uleb128 0x2
ARM GAS  C:\Users\jens-\AppData\Local\Temp\cc4C0Tnp.s 			page 126


 5108 15d0 76       		.byte	0x76
 5109 15d1 00       		.sleb128 0
 5110 15d2 00       		.byte	0
 5111 15d3 29       		.uleb128 0x29
 5112 15d4 A2000000 		.4byte	.LVL225
 5113 15d8 5A0C0000 		.4byte	0xc5a
 5114 15dc F6150000 		.4byte	0x15f6
 5115 15e0 2A       		.uleb128 0x2a
 5116 15e1 01       		.uleb128 0x1
 5117 15e2 50       		.byte	0x50
 5118 15e3 03       		.uleb128 0x3
 5119 15e4 91       		.byte	0x91
 5120 15e5 D47D     		.sleb128 -300
 5121 15e7 2A       		.uleb128 0x2a
 5122 15e8 01       		.uleb128 0x1
 5123 15e9 51       		.byte	0x51
 5124 15ea 03       		.uleb128 0x3
 5125 15eb 91       		.byte	0x91
 5126 15ec D07D     		.sleb128 -304
 5127 15ee 2A       		.uleb128 0x2a
 5128 15ef 01       		.uleb128 0x1
 5129 15f0 52       		.byte	0x52
 5130 15f1 03       		.uleb128 0x3
 5131 15f2 91       		.byte	0x91
 5132 15f3 C47D     		.sleb128 -316
 5133 15f5 00       		.byte	0
 5134 15f6 29       		.uleb128 0x29
 5135 15f7 C4000000 		.4byte	.LVL233
 5136 15fb 99100000 		.4byte	0x1099
 5137 15ff 11160000 		.4byte	0x1611
 5138 1603 2A       		.uleb128 0x2a
 5139 1604 01       		.uleb128 0x1
 5140 1605 50       		.byte	0x50
 5141 1606 03       		.uleb128 0x3
 5142 1607 91       		.byte	0x91
 5143 1608 D87E     		.sleb128 -168
 5144 160a 2A       		.uleb128 0x2a
 5145 160b 01       		.uleb128 0x1
 5146 160c 51       		.byte	0x51
 5147 160d 02       		.uleb128 0x2
 5148 160e 08       		.byte	0x8
 5149 160f 80       		.byte	0x80
 5150 1610 00       		.byte	0
 5151 1611 29       		.uleb128 0x29
 5152 1612 D6000000 		.4byte	.LVL236
 5153 1616 3D0F0000 		.4byte	0xf3d
 5154 161a 2C160000 		.4byte	0x162c
 5155 161e 2A       		.uleb128 0x2a
 5156 161f 01       		.uleb128 0x1
 5157 1620 51       		.byte	0x51
 5158 1621 03       		.uleb128 0x3
 5159 1622 91       		.byte	0x91
 5160 1623 D87D     		.sleb128 -296
 5161 1625 2A       		.uleb128 0x2a
 5162 1626 01       		.uleb128 0x1
 5163 1627 52       		.byte	0x52
 5164 1628 02       		.uleb128 0x2
ARM GAS  C:\Users\jens-\AppData\Local\Temp\cc4C0Tnp.s 			page 127


 5165 1629 76       		.byte	0x76
 5166 162a 00       		.sleb128 0
 5167 162b 00       		.byte	0
 5168 162c 29       		.uleb128 0x29
 5169 162d 02010000 		.4byte	.LVL243
 5170 1631 1C110000 		.4byte	0x111c
 5171 1635 54160000 		.4byte	0x1654
 5172 1639 2A       		.uleb128 0x2a
 5173 163a 01       		.uleb128 0x1
 5174 163b 50       		.byte	0x50
 5175 163c 02       		.uleb128 0x2
 5176 163d 74       		.byte	0x74
 5177 163e 00       		.sleb128 0
 5178 163f 2A       		.uleb128 0x2a
 5179 1640 01       		.uleb128 0x1
 5180 1641 51       		.byte	0x51
 5181 1642 03       		.uleb128 0x3
 5182 1643 91       		.byte	0x91
 5183 1644 CC7D     		.sleb128 -308
 5184 1646 2A       		.uleb128 0x2a
 5185 1647 01       		.uleb128 0x1
 5186 1648 52       		.byte	0x52
 5187 1649 03       		.uleb128 0x3
 5188 164a 91       		.byte	0x91
 5189 164b C87D     		.sleb128 -312
 5190 164d 2A       		.uleb128 0x2a
 5191 164e 01       		.uleb128 0x1
 5192 164f 53       		.byte	0x53
 5193 1650 02       		.uleb128 0x2
 5194 1651 76       		.byte	0x76
 5195 1652 00       		.sleb128 0
 5196 1653 00       		.byte	0
 5197 1654 29       		.uleb128 0x29
 5198 1655 0C010000 		.4byte	.LVL244
 5199 1659 191A0000 		.4byte	0x1a19
 5200 165d 74160000 		.4byte	0x1674
 5201 1661 2A       		.uleb128 0x2a
 5202 1662 01       		.uleb128 0x1
 5203 1663 50       		.byte	0x50
 5204 1664 03       		.uleb128 0x3
 5205 1665 91       		.byte	0x91
 5206 1666 E07D     		.sleb128 -288
 5207 1668 2A       		.uleb128 0x2a
 5208 1669 01       		.uleb128 0x1
 5209 166a 51       		.byte	0x51
 5210 166b 01       		.uleb128 0x1
 5211 166c 30       		.byte	0x30
 5212 166d 2A       		.uleb128 0x2a
 5213 166e 01       		.uleb128 0x1
 5214 166f 52       		.byte	0x52
 5215 1670 02       		.uleb128 0x2
 5216 1671 08       		.byte	0x8
 5217 1672 F8       		.byte	0xf8
 5218 1673 00       		.byte	0
 5219 1674 29       		.uleb128 0x29
 5220 1675 38010000 		.4byte	.LVL250
 5221 1679 EA190000 		.4byte	0x19ea
ARM GAS  C:\Users\jens-\AppData\Local\Temp\cc4C0Tnp.s 			page 128


 5222 167d 89160000 		.4byte	0x1689
 5223 1681 2A       		.uleb128 0x2a
 5224 1682 01       		.uleb128 0x1
 5225 1683 50       		.byte	0x50
 5226 1684 03       		.uleb128 0x3
 5227 1685 91       		.byte	0x91
 5228 1686 E47D     		.sleb128 -284
 5229 1688 00       		.byte	0
 5230 1689 2B       		.uleb128 0x2b
 5231 168a 5E010000 		.4byte	.LVL255
 5232 168e 3D0F0000 		.4byte	0xf3d
 5233 1692 2A       		.uleb128 0x2a
 5234 1693 01       		.uleb128 0x1
 5235 1694 51       		.byte	0x51
 5236 1695 03       		.uleb128 0x3
 5237 1696 91       		.byte	0x91
 5238 1697 D87D     		.sleb128 -296
 5239 1699 2A       		.uleb128 0x2a
 5240 169a 01       		.uleb128 0x1
 5241 169b 52       		.byte	0x52
 5242 169c 02       		.uleb128 0x2
 5243 169d 76       		.byte	0x76
 5244 169e 00       		.sleb128 0
 5245 169f 00       		.byte	0
 5246 16a0 00       		.byte	0
 5247 16a1 00       		.byte	0
 5248 16a2 00       		.byte	0
 5249 16a3 35       		.uleb128 0x35
 5250 16a4 E1080000 		.4byte	.LASF204
 5251 16a8 01       		.byte	0x1
 5252 16a9 A9       		.byte	0xa9
 5253 16aa 1A       		.byte	0x1a
 5254 16ab E80A0000 		.4byte	0xae8
 5255 16af 00000000 		.4byte	.LFB1
 5256 16b3 FE010000 		.4byte	.LFE1-.LFB1
 5257 16b7 01       		.uleb128 0x1
 5258 16b8 9C       		.byte	0x9c
 5259 16b9 3B190000 		.4byte	0x193b
 5260 16bd 36       		.uleb128 0x36
 5261 16be 1C010000 		.4byte	.LASF163
 5262 16c2 01       		.byte	0x1
 5263 16c3 A9       		.byte	0xa9
 5264 16c4 33       		.byte	0x33
 5265 16c5 85000000 		.4byte	0x85
 5266 16c9 AD0D0000 		.4byte	.LLST49
 5267 16cd 9D0D0000 		.4byte	.LVUS49
 5268 16d1 36       		.uleb128 0x36
 5269 16d2 65040000 		.4byte	.LASF195
 5270 16d6 01       		.byte	0x1
 5271 16d7 AA       		.byte	0xaa
 5272 16d8 30       		.byte	0x30
 5273 16d9 71010000 		.4byte	0x171
 5274 16dd 1B0E0000 		.4byte	.LLST50
 5275 16e1 110E0000 		.4byte	.LVUS50
 5276 16e5 36       		.uleb128 0x36
 5277 16e6 E1030000 		.4byte	.LASF196
 5278 16ea 01       		.byte	0x1
ARM GAS  C:\Users\jens-\AppData\Local\Temp\cc4C0Tnp.s 			page 129


 5279 16eb AB       		.byte	0xab
 5280 16ec 30       		.byte	0x30
 5281 16ed 85000000 		.4byte	0x85
 5282 16f1 680E0000 		.4byte	.LLST51
 5283 16f5 5C0E0000 		.4byte	.LVUS51
 5284 16f9 36       		.uleb128 0x36
 5285 16fa 46090000 		.4byte	.LASF158
 5286 16fe 01       		.byte	0x1
 5287 16ff AC       		.byte	0xac
 5288 1700 43       		.byte	0x43
 5289 1701 440C0000 		.4byte	0xc44
 5290 1705 D20E0000 		.4byte	.LLST52
 5291 1709 BC0E0000 		.4byte	.LVUS52
 5292 170d 37       		.uleb128 0x37
 5293 170e 72657400 		.ascii	"ret\000"
 5294 1712 01       		.byte	0x1
 5295 1713 AE       		.byte	0xae
 5296 1714 1E       		.byte	0x1e
 5297 1715 E80A0000 		.4byte	0xae8
 5298 1719 6C0F0000 		.4byte	.LLST53
 5299 171d 560F0000 		.4byte	.LVUS53
 5300 1721 37       		.uleb128 0x37
 5301 1722 6900     		.ascii	"i\000"
 5302 1724 01       		.byte	0x1
 5303 1725 AF       		.byte	0xaf
 5304 1726 0C       		.byte	0xc
 5305 1727 85000000 		.4byte	0x85
 5306 172b 00100000 		.4byte	.LLST54
 5307 172f F00F0000 		.4byte	.LVUS54
 5308 1733 38       		.uleb128 0x38
 5309 1734 C8080000 		.4byte	.LASF205
 5310 1738 01       		.byte	0x1
 5311 1739 B0       		.byte	0xb0
 5312 173a 0C       		.byte	0xc
 5313 173b 85000000 		.4byte	0x85
 5314 173f 6E100000 		.4byte	.LLST55
 5315 1743 66100000 		.4byte	.LVUS55
 5316 1747 38       		.uleb128 0x38
 5317 1748 62050000 		.4byte	.LASF206
 5318 174c 01       		.byte	0x1
 5319 174d B1       		.byte	0xb1
 5320 174e 0C       		.byte	0xc
 5321 174f 85000000 		.4byte	0x85
 5322 1753 A6100000 		.4byte	.LLST56
 5323 1757 A2100000 		.4byte	.LVUS56
 5324 175b 38       		.uleb128 0x38
 5325 175c 76090000 		.4byte	.LASF207
 5326 1760 01       		.byte	0x1
 5327 1761 B2       		.byte	0xb2
 5328 1762 0C       		.byte	0xc
 5329 1763 85000000 		.4byte	0x85
 5330 1767 D0100000 		.4byte	.LLST57
 5331 176b C6100000 		.4byte	.LVUS57
 5332 176f 38       		.uleb128 0x38
 5333 1770 8E040000 		.4byte	.LASF208
 5334 1774 01       		.byte	0x1
 5335 1775 B3       		.byte	0xb3
ARM GAS  C:\Users\jens-\AppData\Local\Temp\cc4C0Tnp.s 			page 130


 5336 1776 0C       		.byte	0xc
 5337 1777 85000000 		.4byte	0x85
 5338 177b 35110000 		.4byte	.LLST58
 5339 177f 1F110000 		.4byte	.LVUS58
 5340 1783 38       		.uleb128 0x38
 5341 1784 B8020000 		.4byte	.LASF209
 5342 1788 01       		.byte	0x1
 5343 1789 B4       		.byte	0xb4
 5344 178a 0C       		.byte	0xc
 5345 178b 85000000 		.4byte	0x85
 5346 178f D7110000 		.4byte	.LLST59
 5347 1793 D3110000 		.4byte	.LVUS59
 5348 1797 38       		.uleb128 0x38
 5349 1798 DA050000 		.4byte	.LASF210
 5350 179c 01       		.byte	0x1
 5351 179d B5       		.byte	0xb5
 5352 179e 0C       		.byte	0xc
 5353 179f 85000000 		.4byte	0x85
 5354 17a3 FE110000 		.4byte	.LLST60
 5355 17a7 F6110000 		.4byte	.LVUS60
 5356 17ab 38       		.uleb128 0x38
 5357 17ac FB080000 		.4byte	.LASF211
 5358 17b0 01       		.byte	0x1
 5359 17b1 B6       		.byte	0xb6
 5360 17b2 0C       		.byte	0xc
 5361 17b3 85000000 		.4byte	0x85
 5362 17b7 3D120000 		.4byte	.LLST61
 5363 17bb 35120000 		.4byte	.LVUS61
 5364 17bf 38       		.uleb128 0x38
 5365 17c0 D90A0000 		.4byte	.LASF200
 5366 17c4 01       		.byte	0x1
 5367 17c5 B7       		.byte	0xb7
 5368 17c6 0C       		.byte	0xc
 5369 17c7 85000000 		.4byte	0x85
 5370 17cb 82120000 		.4byte	.LLST62
 5371 17cf 74120000 		.4byte	.LVUS62
 5372 17d3 33       		.uleb128 0x33
 5373 17d4 00000000 		.4byte	.Ldebug_ranges0+0
 5374 17d8 38       		.uleb128 0x38
 5375 17d9 C7050000 		.4byte	.LASF151
 5376 17dd 01       		.byte	0x1
 5377 17de BC       		.byte	0xbc
 5378 17df 10       		.byte	0x10
 5379 17e0 85000000 		.4byte	0x85
 5380 17e4 E7120000 		.4byte	.LLST63
 5381 17e8 D7120000 		.4byte	.LVUS63
 5382 17ec 38       		.uleb128 0x38
 5383 17ed 17090000 		.4byte	.LASF212
 5384 17f1 01       		.byte	0x1
 5385 17f2 BD       		.byte	0xbd
 5386 17f3 10       		.byte	0x10
 5387 17f4 85000000 		.4byte	0x85
 5388 17f8 8E130000 		.4byte	.LLST64
 5389 17fc 88130000 		.4byte	.LVUS64
 5390 1800 38       		.uleb128 0x38
 5391 1801 06060000 		.4byte	.LASF155
 5392 1805 01       		.byte	0x1
ARM GAS  C:\Users\jens-\AppData\Local\Temp\cc4C0Tnp.s 			page 131


 5393 1806 BF       		.byte	0xbf
 5394 1807 10       		.byte	0x10
 5395 1808 85000000 		.4byte	0x85
 5396 180c C7130000 		.4byte	.LLST65
 5397 1810 BB130000 		.4byte	.LVUS65
 5398 1814 38       		.uleb128 0x38
 5399 1815 DF020000 		.4byte	.LASF213
 5400 1819 01       		.byte	0x1
 5401 181a C0       		.byte	0xc0
 5402 181b 10       		.byte	0x10
 5403 181c 85000000 		.4byte	0x85
 5404 1820 21140000 		.4byte	.LLST66
 5405 1824 19140000 		.4byte	.LVUS66
 5406 1828 38       		.uleb128 0x38
 5407 1829 A3040000 		.4byte	.LASF214
 5408 182d 01       		.byte	0x1
 5409 182e C5       		.byte	0xc5
 5410 182f 10       		.byte	0x10
 5411 1830 85000000 		.4byte	0x85
 5412 1834 67140000 		.4byte	.LLST67
 5413 1838 59140000 		.4byte	.LVUS67
 5414 183c 32       		.uleb128 0x32
 5415 183d 28000000 		.4byte	.Ldebug_ranges0+0x28
 5416 1841 5A180000 		.4byte	0x185a
 5417 1845 38       		.uleb128 0x38
 5418 1846 B9060000 		.4byte	.LASF215
 5419 184a 01       		.byte	0x1
 5420 184b E2       		.byte	0xe2
 5421 184c 14       		.byte	0x14
 5422 184d 85000000 		.4byte	0x85
 5423 1851 E6140000 		.4byte	.LLST68
 5424 1855 DA140000 		.4byte	.LVUS68
 5425 1859 00       		.byte	0
 5426 185a 32       		.uleb128 0x32
 5427 185b 40000000 		.4byte	.Ldebug_ranges0+0x40
 5428 185f DC180000 		.4byte	0x18dc
 5429 1863 28       		.uleb128 0x28
 5430 1864 D7080000 		.4byte	.LASF159
 5431 1868 01       		.byte	0x1
 5432 1869 3B01     		.2byte	0x13b
 5433 186b 1C       		.byte	0x1c
 5434 186c 85000000 		.4byte	0x85
 5435 1870 4D150000 		.4byte	.LLST69
 5436 1874 45150000 		.4byte	.LVUS69
 5437 1878 28       		.uleb128 0x28
 5438 1879 B1060000 		.4byte	.LASF160
 5439 187d 01       		.byte	0x1
 5440 187e 3C01     		.2byte	0x13c
 5441 1880 1C       		.byte	0x1c
 5442 1881 85000000 		.4byte	0x85
 5443 1885 8D150000 		.4byte	.LLST70
 5444 1889 83150000 		.4byte	.LVUS70
 5445 188d 33       		.uleb128 0x33
 5446 188e 58000000 		.4byte	.Ldebug_ranges0+0x58
 5447 1892 28       		.uleb128 0x28
 5448 1893 48030000 		.4byte	.LASF216
 5449 1897 01       		.byte	0x1
ARM GAS  C:\Users\jens-\AppData\Local\Temp\cc4C0Tnp.s 			page 132


 5450 1898 4101     		.2byte	0x141
 5451 189a 20       		.byte	0x20
 5452 189b 85000000 		.4byte	0x85
 5453 189f E4150000 		.4byte	.LLST71
 5454 18a3 E0150000 		.4byte	.LVUS71
 5455 18a7 28       		.uleb128 0x28
 5456 18a8 77010000 		.4byte	.LASF217
 5457 18ac 01       		.byte	0x1
 5458 18ad 4201     		.2byte	0x142
 5459 18af 20       		.byte	0x20
 5460 18b0 85000000 		.4byte	0x85
 5461 18b4 04160000 		.4byte	.LLST72
 5462 18b8 02160000 		.4byte	.LVUS72
 5463 18bc 29       		.uleb128 0x29
 5464 18bd A2010000 		.4byte	.LVL194
 5465 18c1 030D0000 		.4byte	0xd03
 5466 18c5 D1180000 		.4byte	0x18d1
 5467 18c9 2A       		.uleb128 0x2a
 5468 18ca 02       		.uleb128 0x2
 5469 18cb 7D       		.byte	0x7d
 5470 18cc 00       		.sleb128 0
 5471 18cd 02       		.uleb128 0x2
 5472 18ce 77       		.byte	0x77
 5473 18cf 00       		.sleb128 0
 5474 18d0 00       		.byte	0
 5475 18d1 2E       		.uleb128 0x2e
 5476 18d2 B2010000 		.4byte	.LVL196
 5477 18d6 EA190000 		.4byte	0x19ea
 5478 18da 00       		.byte	0
 5479 18db 00       		.byte	0
 5480 18dc 29       		.uleb128 0x29
 5481 18dd C6000000 		.4byte	.LVL155
 5482 18e1 EA190000 		.4byte	0x19ea
 5483 18e5 F6180000 		.4byte	0x18f6
 5484 18e9 2A       		.uleb128 0x2a
 5485 18ea 01       		.uleb128 0x1
 5486 18eb 50       		.byte	0x50
 5487 18ec 02       		.uleb128 0x2
 5488 18ed 76       		.byte	0x76
 5489 18ee 00       		.sleb128 0
 5490 18ef 2A       		.uleb128 0x2a
 5491 18f0 01       		.uleb128 0x1
 5492 18f1 52       		.byte	0x52
 5493 18f2 02       		.uleb128 0x2
 5494 18f3 75       		.byte	0x75
 5495 18f4 00       		.sleb128 0
 5496 18f5 00       		.byte	0
 5497 18f6 29       		.uleb128 0x29
 5498 18f7 2A010000 		.4byte	.LVL170
 5499 18fb 030D0000 		.4byte	0xd03
 5500 18ff 23190000 		.4byte	0x1923
 5501 1903 2A       		.uleb128 0x2a
 5502 1904 01       		.uleb128 0x1
 5503 1905 51       		.byte	0x51
 5504 1906 02       		.uleb128 0x2
 5505 1907 76       		.byte	0x76
 5506 1908 00       		.sleb128 0
ARM GAS  C:\Users\jens-\AppData\Local\Temp\cc4C0Tnp.s 			page 133


 5507 1909 2A       		.uleb128 0x2a
 5508 190a 01       		.uleb128 0x1
 5509 190b 52       		.byte	0x52
 5510 190c 08       		.uleb128 0x8
 5511 190d 7B       		.byte	0x7b
 5512 190e 00       		.sleb128 0
 5513 190f 08       		.byte	0x8
 5514 1910 7F       		.byte	0x7f
 5515 1911 1A       		.byte	0x1a
 5516 1912 23       		.byte	0x23
 5517 1913 8001     		.uleb128 0x80
 5518 1915 2A       		.uleb128 0x2a
 5519 1916 01       		.uleb128 0x1
 5520 1917 53       		.byte	0x53
 5521 1918 02       		.uleb128 0x2
 5522 1919 75       		.byte	0x75
 5523 191a 00       		.sleb128 0
 5524 191b 2A       		.uleb128 0x2a
 5525 191c 02       		.uleb128 0x2
 5526 191d 7D       		.byte	0x7d
 5527 191e 00       		.sleb128 0
 5528 191f 02       		.uleb128 0x2
 5529 1920 79       		.byte	0x79
 5530 1921 00       		.sleb128 0
 5531 1922 00       		.byte	0
 5532 1923 2B       		.uleb128 0x2b
 5533 1924 C0010000 		.4byte	.LVL198
 5534 1928 82110000 		.4byte	0x1182
 5535 192c 2A       		.uleb128 0x2a
 5536 192d 01       		.uleb128 0x1
 5537 192e 50       		.byte	0x50
 5538 192f 02       		.uleb128 0x2
 5539 1930 74       		.byte	0x74
 5540 1931 00       		.sleb128 0
 5541 1932 2A       		.uleb128 0x2a
 5542 1933 01       		.uleb128 0x1
 5543 1934 51       		.byte	0x51
 5544 1935 02       		.uleb128 0x2
 5545 1936 77       		.byte	0x77
 5546 1937 00       		.sleb128 0
 5547 1938 00       		.byte	0
 5548 1939 00       		.byte	0
 5549 193a 00       		.byte	0
 5550 193b 35       		.uleb128 0x35
 5551 193c A4010000 		.4byte	.LASF218
 5552 1940 01       		.byte	0x1
 5553 1941 5F       		.byte	0x5f
 5554 1942 1A       		.byte	0x1a
 5555 1943 E80A0000 		.4byte	0xae8
 5556 1947 00000000 		.4byte	.LFB0
 5557 194b 96000000 		.4byte	.LFE0-.LFB0
 5558 194f 01       		.uleb128 0x1
 5559 1950 9C       		.byte	0x9c
 5560 1951 EA190000 		.4byte	0x19ea
 5561 1955 36       		.uleb128 0x36
 5562 1956 C1080000 		.4byte	.LASF179
 5563 195a 01       		.byte	0x1
ARM GAS  C:\Users\jens-\AppData\Local\Temp\cc4C0Tnp.s 			page 134


 5564 195b 5F       		.byte	0x5f
 5565 195c 44       		.byte	0x44
 5566 195d 93100000 		.4byte	0x1093
 5567 1961 23160000 		.4byte	.LLST46
 5568 1965 17160000 		.4byte	.LVUS46
 5569 1969 36       		.uleb128 0x36
 5570 196a 46090000 		.4byte	.LASF158
 5571 196e 01       		.byte	0x1
 5572 196f 5F       		.byte	0x5f
 5573 1970 66       		.byte	0x66
 5574 1971 440C0000 		.4byte	0xc44
 5575 1975 7D160000 		.4byte	.LLST47
 5576 1979 73160000 		.4byte	.LVUS47
 5577 197d 37       		.uleb128 0x37
 5578 197e 72657400 		.ascii	"ret\000"
 5579 1982 01       		.byte	0x1
 5580 1983 61       		.byte	0x61
 5581 1984 1E       		.byte	0x1e
 5582 1985 E80A0000 		.4byte	0xae8
 5583 1989 CB160000 		.4byte	.LLST48
 5584 198d BF160000 		.4byte	.LVUS48
 5585 1991 29       		.uleb128 0x29
 5586 1992 24000000 		.4byte	.LVL114
 5587 1996 23100000 		.4byte	0x1023
 5588 199a A5190000 		.4byte	0x19a5
 5589 199e 2A       		.uleb128 0x2a
 5590 199f 01       		.uleb128 0x1
 5591 19a0 50       		.byte	0x50
 5592 19a1 02       		.uleb128 0x2
 5593 19a2 74       		.byte	0x74
 5594 19a3 00       		.sleb128 0
 5595 19a4 00       		.byte	0
 5596 19a5 29       		.uleb128 0x29
 5597 19a6 64000000 		.4byte	.LVL117
 5598 19aa D7110000 		.4byte	0x11d7
 5599 19ae BF190000 		.4byte	0x19bf
 5600 19b2 2A       		.uleb128 0x2a
 5601 19b3 01       		.uleb128 0x1
 5602 19b4 50       		.byte	0x50
 5603 19b5 02       		.uleb128 0x2
 5604 19b6 74       		.byte	0x74
 5605 19b7 00       		.sleb128 0
 5606 19b8 2A       		.uleb128 0x2a
 5607 19b9 01       		.uleb128 0x1
 5608 19ba 51       		.byte	0x51
 5609 19bb 02       		.uleb128 0x2
 5610 19bc 76       		.byte	0x76
 5611 19bd 00       		.sleb128 0
 5612 19be 00       		.byte	0
 5613 19bf 29       		.uleb128 0x29
 5614 19c0 74000000 		.4byte	.LVL118
 5615 19c4 F50A0000 		.4byte	0xaf5
 5616 19c8 D3190000 		.4byte	0x19d3
 5617 19cc 2A       		.uleb128 0x2a
 5618 19cd 01       		.uleb128 0x1
 5619 19ce 50       		.byte	0x50
 5620 19cf 02       		.uleb128 0x2
ARM GAS  C:\Users\jens-\AppData\Local\Temp\cc4C0Tnp.s 			page 135


 5621 19d0 76       		.byte	0x76
 5622 19d1 00       		.sleb128 0
 5623 19d2 00       		.byte	0
 5624 19d3 2B       		.uleb128 0x2b
 5625 19d4 7E000000 		.4byte	.LVL120
 5626 19d8 D7110000 		.4byte	0x11d7
 5627 19dc 2A       		.uleb128 0x2a
 5628 19dd 01       		.uleb128 0x1
 5629 19de 50       		.byte	0x50
 5630 19df 02       		.uleb128 0x2
 5631 19e0 74       		.byte	0x74
 5632 19e1 00       		.sleb128 0
 5633 19e2 2A       		.uleb128 0x2a
 5634 19e3 01       		.uleb128 0x1
 5635 19e4 51       		.byte	0x51
 5636 19e5 02       		.uleb128 0x2
 5637 19e6 76       		.byte	0x76
 5638 19e7 00       		.sleb128 0
 5639 19e8 00       		.byte	0
 5640 19e9 00       		.byte	0
 5641 19ea 39       		.uleb128 0x39
 5642 19eb 56040000 		.4byte	.LASF222
 5643 19ef 77040000 		.4byte	.LASF224
 5644 19f3 0C       		.byte	0xc
 5645 19f4 00       		.byte	0
 5646 19f5 3A       		.uleb128 0x3a
 5647 19f6 13000000 		.4byte	.LASF219
 5648 19fa 13000000 		.4byte	.LASF219
 5649 19fe 0A       		.byte	0xa
 5650 19ff 46       		.byte	0x46
 5651 1a00 0A       		.byte	0xa
 5652 1a01 3A       		.uleb128 0x3a
 5653 1a02 7D000000 		.4byte	.LASF220
 5654 1a06 7D000000 		.4byte	.LASF220
 5655 1a0a 0A       		.byte	0xa
 5656 1a0b 4B       		.byte	0x4b
 5657 1a0c 0A       		.byte	0xa
 5658 1a0d 3A       		.uleb128 0x3a
 5659 1a0e A5070000 		.4byte	.LASF221
 5660 1a12 A5070000 		.4byte	.LASF221
 5661 1a16 08       		.byte	0x8
 5662 1a17 95       		.byte	0x95
 5663 1a18 0A       		.byte	0xa
 5664 1a19 39       		.uleb128 0x39
 5665 1a1a D3090000 		.4byte	.LASF223
 5666 1a1e 90060000 		.4byte	.LASF225
 5667 1a22 0C       		.byte	0xc
 5668 1a23 00       		.byte	0
 5669 1a24 00       		.byte	0
 5670              		.section	.debug_abbrev,"",%progbits
 5671              	.Ldebug_abbrev0:
 5672 0000 01       		.uleb128 0x1
 5673 0001 11       		.uleb128 0x11
 5674 0002 01       		.byte	0x1
 5675 0003 25       		.uleb128 0x25
 5676 0004 0E       		.uleb128 0xe
 5677 0005 13       		.uleb128 0x13
ARM GAS  C:\Users\jens-\AppData\Local\Temp\cc4C0Tnp.s 			page 136


 5678 0006 0B       		.uleb128 0xb
 5679 0007 03       		.uleb128 0x3
 5680 0008 0E       		.uleb128 0xe
 5681 0009 1B       		.uleb128 0x1b
 5682 000a 0E       		.uleb128 0xe
 5683 000b 55       		.uleb128 0x55
 5684 000c 17       		.uleb128 0x17
 5685 000d 11       		.uleb128 0x11
 5686 000e 01       		.uleb128 0x1
 5687 000f 10       		.uleb128 0x10
 5688 0010 17       		.uleb128 0x17
 5689 0011 00       		.byte	0
 5690 0012 00       		.byte	0
 5691 0013 02       		.uleb128 0x2
 5692 0014 24       		.uleb128 0x24
 5693 0015 00       		.byte	0
 5694 0016 0B       		.uleb128 0xb
 5695 0017 0B       		.uleb128 0xb
 5696 0018 3E       		.uleb128 0x3e
 5697 0019 0B       		.uleb128 0xb
 5698 001a 03       		.uleb128 0x3
 5699 001b 0E       		.uleb128 0xe
 5700 001c 00       		.byte	0
 5701 001d 00       		.byte	0
 5702 001e 03       		.uleb128 0x3
 5703 001f 24       		.uleb128 0x24
 5704 0020 00       		.byte	0
 5705 0021 0B       		.uleb128 0xb
 5706 0022 0B       		.uleb128 0xb
 5707 0023 3E       		.uleb128 0x3e
 5708 0024 0B       		.uleb128 0xb
 5709 0025 03       		.uleb128 0x3
 5710 0026 08       		.uleb128 0x8
 5711 0027 00       		.byte	0
 5712 0028 00       		.byte	0
 5713 0029 04       		.uleb128 0x4
 5714 002a 16       		.uleb128 0x16
 5715 002b 00       		.byte	0
 5716 002c 03       		.uleb128 0x3
 5717 002d 0E       		.uleb128 0xe
 5718 002e 3A       		.uleb128 0x3a
 5719 002f 0B       		.uleb128 0xb
 5720 0030 3B       		.uleb128 0x3b
 5721 0031 05       		.uleb128 0x5
 5722 0032 39       		.uleb128 0x39
 5723 0033 0B       		.uleb128 0xb
 5724 0034 49       		.uleb128 0x49
 5725 0035 13       		.uleb128 0x13
 5726 0036 00       		.byte	0
 5727 0037 00       		.byte	0
 5728 0038 05       		.uleb128 0x5
 5729 0039 26       		.uleb128 0x26
 5730 003a 00       		.byte	0
 5731 003b 49       		.uleb128 0x49
 5732 003c 13       		.uleb128 0x13
 5733 003d 00       		.byte	0
 5734 003e 00       		.byte	0
ARM GAS  C:\Users\jens-\AppData\Local\Temp\cc4C0Tnp.s 			page 137


 5735 003f 06       		.uleb128 0x6
 5736 0040 0F       		.uleb128 0xf
 5737 0041 00       		.byte	0
 5738 0042 0B       		.uleb128 0xb
 5739 0043 0B       		.uleb128 0xb
 5740 0044 49       		.uleb128 0x49
 5741 0045 13       		.uleb128 0x13
 5742 0046 00       		.byte	0
 5743 0047 00       		.byte	0
 5744 0048 07       		.uleb128 0x7
 5745 0049 15       		.uleb128 0x15
 5746 004a 00       		.byte	0
 5747 004b 27       		.uleb128 0x27
 5748 004c 19       		.uleb128 0x19
 5749 004d 00       		.byte	0
 5750 004e 00       		.byte	0
 5751 004f 08       		.uleb128 0x8
 5752 0050 16       		.uleb128 0x16
 5753 0051 00       		.byte	0
 5754 0052 03       		.uleb128 0x3
 5755 0053 0E       		.uleb128 0xe
 5756 0054 3A       		.uleb128 0x3a
 5757 0055 0B       		.uleb128 0xb
 5758 0056 3B       		.uleb128 0x3b
 5759 0057 0B       		.uleb128 0xb
 5760 0058 39       		.uleb128 0x39
 5761 0059 0B       		.uleb128 0xb
 5762 005a 49       		.uleb128 0x49
 5763 005b 13       		.uleb128 0x13
 5764 005c 00       		.byte	0
 5765 005d 00       		.byte	0
 5766 005e 09       		.uleb128 0x9
 5767 005f 13       		.uleb128 0x13
 5768 0060 00       		.byte	0
 5769 0061 03       		.uleb128 0x3
 5770 0062 0E       		.uleb128 0xe
 5771 0063 3C       		.uleb128 0x3c
 5772 0064 19       		.uleb128 0x19
 5773 0065 00       		.byte	0
 5774 0066 00       		.byte	0
 5775 0067 0A       		.uleb128 0xa
 5776 0068 17       		.uleb128 0x17
 5777 0069 01       		.byte	0x1
 5778 006a 0B       		.uleb128 0xb
 5779 006b 0B       		.uleb128 0xb
 5780 006c 3A       		.uleb128 0x3a
 5781 006d 0B       		.uleb128 0xb
 5782 006e 3B       		.uleb128 0x3b
 5783 006f 0B       		.uleb128 0xb
 5784 0070 39       		.uleb128 0x39
 5785 0071 0B       		.uleb128 0xb
 5786 0072 01       		.uleb128 0x1
 5787 0073 13       		.uleb128 0x13
 5788 0074 00       		.byte	0
 5789 0075 00       		.byte	0
 5790 0076 0B       		.uleb128 0xb
 5791 0077 0D       		.uleb128 0xd
ARM GAS  C:\Users\jens-\AppData\Local\Temp\cc4C0Tnp.s 			page 138


 5792 0078 00       		.byte	0
 5793 0079 03       		.uleb128 0x3
 5794 007a 0E       		.uleb128 0xe
 5795 007b 3A       		.uleb128 0x3a
 5796 007c 0B       		.uleb128 0xb
 5797 007d 3B       		.uleb128 0x3b
 5798 007e 0B       		.uleb128 0xb
 5799 007f 39       		.uleb128 0x39
 5800 0080 0B       		.uleb128 0xb
 5801 0081 49       		.uleb128 0x49
 5802 0082 13       		.uleb128 0x13
 5803 0083 00       		.byte	0
 5804 0084 00       		.byte	0
 5805 0085 0C       		.uleb128 0xc
 5806 0086 01       		.uleb128 0x1
 5807 0087 01       		.byte	0x1
 5808 0088 49       		.uleb128 0x49
 5809 0089 13       		.uleb128 0x13
 5810 008a 01       		.uleb128 0x1
 5811 008b 13       		.uleb128 0x13
 5812 008c 00       		.byte	0
 5813 008d 00       		.byte	0
 5814 008e 0D       		.uleb128 0xd
 5815 008f 21       		.uleb128 0x21
 5816 0090 00       		.byte	0
 5817 0091 49       		.uleb128 0x49
 5818 0092 13       		.uleb128 0x13
 5819 0093 2F       		.uleb128 0x2f
 5820 0094 0B       		.uleb128 0xb
 5821 0095 00       		.byte	0
 5822 0096 00       		.byte	0
 5823 0097 0E       		.uleb128 0xe
 5824 0098 13       		.uleb128 0x13
 5825 0099 01       		.byte	0x1
 5826 009a 0B       		.uleb128 0xb
 5827 009b 0B       		.uleb128 0xb
 5828 009c 3A       		.uleb128 0x3a
 5829 009d 0B       		.uleb128 0xb
 5830 009e 3B       		.uleb128 0x3b
 5831 009f 0B       		.uleb128 0xb
 5832 00a0 39       		.uleb128 0x39
 5833 00a1 0B       		.uleb128 0xb
 5834 00a2 01       		.uleb128 0x1
 5835 00a3 13       		.uleb128 0x13
 5836 00a4 00       		.byte	0
 5837 00a5 00       		.byte	0
 5838 00a6 0F       		.uleb128 0xf
 5839 00a7 0D       		.uleb128 0xd
 5840 00a8 00       		.byte	0
 5841 00a9 03       		.uleb128 0x3
 5842 00aa 0E       		.uleb128 0xe
 5843 00ab 3A       		.uleb128 0x3a
 5844 00ac 0B       		.uleb128 0xb
 5845 00ad 3B       		.uleb128 0x3b
 5846 00ae 0B       		.uleb128 0xb
 5847 00af 39       		.uleb128 0x39
 5848 00b0 0B       		.uleb128 0xb
ARM GAS  C:\Users\jens-\AppData\Local\Temp\cc4C0Tnp.s 			page 139


 5849 00b1 49       		.uleb128 0x49
 5850 00b2 13       		.uleb128 0x13
 5851 00b3 38       		.uleb128 0x38
 5852 00b4 0B       		.uleb128 0xb
 5853 00b5 00       		.byte	0
 5854 00b6 00       		.byte	0
 5855 00b7 10       		.uleb128 0x10
 5856 00b8 0F       		.uleb128 0xf
 5857 00b9 00       		.byte	0
 5858 00ba 0B       		.uleb128 0xb
 5859 00bb 0B       		.uleb128 0xb
 5860 00bc 00       		.byte	0
 5861 00bd 00       		.byte	0
 5862 00be 11       		.uleb128 0x11
 5863 00bf 13       		.uleb128 0x13
 5864 00c0 01       		.byte	0x1
 5865 00c1 03       		.uleb128 0x3
 5866 00c2 0E       		.uleb128 0xe
 5867 00c3 0B       		.uleb128 0xb
 5868 00c4 0B       		.uleb128 0xb
 5869 00c5 3A       		.uleb128 0x3a
 5870 00c6 0B       		.uleb128 0xb
 5871 00c7 3B       		.uleb128 0x3b
 5872 00c8 0B       		.uleb128 0xb
 5873 00c9 39       		.uleb128 0x39
 5874 00ca 0B       		.uleb128 0xb
 5875 00cb 01       		.uleb128 0x1
 5876 00cc 13       		.uleb128 0x13
 5877 00cd 00       		.byte	0
 5878 00ce 00       		.byte	0
 5879 00cf 12       		.uleb128 0x12
 5880 00d0 0D       		.uleb128 0xd
 5881 00d1 00       		.byte	0
 5882 00d2 03       		.uleb128 0x3
 5883 00d3 08       		.uleb128 0x8
 5884 00d4 3A       		.uleb128 0x3a
 5885 00d5 0B       		.uleb128 0xb
 5886 00d6 3B       		.uleb128 0x3b
 5887 00d7 0B       		.uleb128 0xb
 5888 00d8 39       		.uleb128 0x39
 5889 00d9 0B       		.uleb128 0xb
 5890 00da 49       		.uleb128 0x49
 5891 00db 13       		.uleb128 0x13
 5892 00dc 38       		.uleb128 0x38
 5893 00dd 0B       		.uleb128 0xb
 5894 00de 00       		.byte	0
 5895 00df 00       		.byte	0
 5896 00e0 13       		.uleb128 0x13
 5897 00e1 13       		.uleb128 0x13
 5898 00e2 01       		.byte	0x1
 5899 00e3 03       		.uleb128 0x3
 5900 00e4 0E       		.uleb128 0xe
 5901 00e5 0B       		.uleb128 0xb
 5902 00e6 05       		.uleb128 0x5
 5903 00e7 3A       		.uleb128 0x3a
 5904 00e8 0B       		.uleb128 0xb
 5905 00e9 3B       		.uleb128 0x3b
ARM GAS  C:\Users\jens-\AppData\Local\Temp\cc4C0Tnp.s 			page 140


 5906 00ea 0B       		.uleb128 0xb
 5907 00eb 39       		.uleb128 0x39
 5908 00ec 0B       		.uleb128 0xb
 5909 00ed 01       		.uleb128 0x1
 5910 00ee 13       		.uleb128 0x13
 5911 00ef 00       		.byte	0
 5912 00f0 00       		.byte	0
 5913 00f1 14       		.uleb128 0x14
 5914 00f2 0D       		.uleb128 0xd
 5915 00f3 00       		.byte	0
 5916 00f4 03       		.uleb128 0x3
 5917 00f5 0E       		.uleb128 0xe
 5918 00f6 3A       		.uleb128 0x3a
 5919 00f7 0B       		.uleb128 0xb
 5920 00f8 3B       		.uleb128 0x3b
 5921 00f9 0B       		.uleb128 0xb
 5922 00fa 39       		.uleb128 0x39
 5923 00fb 0B       		.uleb128 0xb
 5924 00fc 49       		.uleb128 0x49
 5925 00fd 13       		.uleb128 0x13
 5926 00fe 38       		.uleb128 0x38
 5927 00ff 05       		.uleb128 0x5
 5928 0100 00       		.byte	0
 5929 0101 00       		.byte	0
 5930 0102 15       		.uleb128 0x15
 5931 0103 15       		.uleb128 0x15
 5932 0104 01       		.byte	0x1
 5933 0105 27       		.uleb128 0x27
 5934 0106 19       		.uleb128 0x19
 5935 0107 49       		.uleb128 0x49
 5936 0108 13       		.uleb128 0x13
 5937 0109 01       		.uleb128 0x1
 5938 010a 13       		.uleb128 0x13
 5939 010b 00       		.byte	0
 5940 010c 00       		.byte	0
 5941 010d 16       		.uleb128 0x16
 5942 010e 05       		.uleb128 0x5
 5943 010f 00       		.byte	0
 5944 0110 49       		.uleb128 0x49
 5945 0111 13       		.uleb128 0x13
 5946 0112 00       		.byte	0
 5947 0113 00       		.byte	0
 5948 0114 17       		.uleb128 0x17
 5949 0115 13       		.uleb128 0x13
 5950 0116 01       		.byte	0x1
 5951 0117 03       		.uleb128 0x3
 5952 0118 0E       		.uleb128 0xe
 5953 0119 0B       		.uleb128 0xb
 5954 011a 05       		.uleb128 0x5
 5955 011b 3A       		.uleb128 0x3a
 5956 011c 0B       		.uleb128 0xb
 5957 011d 3B       		.uleb128 0x3b
 5958 011e 05       		.uleb128 0x5
 5959 011f 39       		.uleb128 0x39
 5960 0120 0B       		.uleb128 0xb
 5961 0121 01       		.uleb128 0x1
 5962 0122 13       		.uleb128 0x13
ARM GAS  C:\Users\jens-\AppData\Local\Temp\cc4C0Tnp.s 			page 141


 5963 0123 00       		.byte	0
 5964 0124 00       		.byte	0
 5965 0125 18       		.uleb128 0x18
 5966 0126 0D       		.uleb128 0xd
 5967 0127 00       		.byte	0
 5968 0128 03       		.uleb128 0x3
 5969 0129 0E       		.uleb128 0xe
 5970 012a 3A       		.uleb128 0x3a
 5971 012b 0B       		.uleb128 0xb
 5972 012c 3B       		.uleb128 0x3b
 5973 012d 05       		.uleb128 0x5
 5974 012e 39       		.uleb128 0x39
 5975 012f 0B       		.uleb128 0xb
 5976 0130 49       		.uleb128 0x49
 5977 0131 13       		.uleb128 0x13
 5978 0132 38       		.uleb128 0x38
 5979 0133 0B       		.uleb128 0xb
 5980 0134 00       		.byte	0
 5981 0135 00       		.byte	0
 5982 0136 19       		.uleb128 0x19
 5983 0137 0D       		.uleb128 0xd
 5984 0138 00       		.byte	0
 5985 0139 03       		.uleb128 0x3
 5986 013a 0E       		.uleb128 0xe
 5987 013b 3A       		.uleb128 0x3a
 5988 013c 0B       		.uleb128 0xb
 5989 013d 3B       		.uleb128 0x3b
 5990 013e 05       		.uleb128 0x5
 5991 013f 39       		.uleb128 0x39
 5992 0140 0B       		.uleb128 0xb
 5993 0141 49       		.uleb128 0x49
 5994 0142 13       		.uleb128 0x13
 5995 0143 38       		.uleb128 0x38
 5996 0144 05       		.uleb128 0x5
 5997 0145 00       		.byte	0
 5998 0146 00       		.byte	0
 5999 0147 1A       		.uleb128 0x1a
 6000 0148 13       		.uleb128 0x13
 6001 0149 01       		.byte	0x1
 6002 014a 03       		.uleb128 0x3
 6003 014b 0E       		.uleb128 0xe
 6004 014c 0B       		.uleb128 0xb
 6005 014d 0B       		.uleb128 0xb
 6006 014e 3A       		.uleb128 0x3a
 6007 014f 0B       		.uleb128 0xb
 6008 0150 3B       		.uleb128 0x3b
 6009 0151 05       		.uleb128 0x5
 6010 0152 39       		.uleb128 0x39
 6011 0153 0B       		.uleb128 0xb
 6012 0154 01       		.uleb128 0x1
 6013 0155 13       		.uleb128 0x13
 6014 0156 00       		.byte	0
 6015 0157 00       		.byte	0
 6016 0158 1B       		.uleb128 0x1b
 6017 0159 13       		.uleb128 0x13
 6018 015a 01       		.byte	0x1
 6019 015b 0B       		.uleb128 0xb
ARM GAS  C:\Users\jens-\AppData\Local\Temp\cc4C0Tnp.s 			page 142


 6020 015c 0B       		.uleb128 0xb
 6021 015d 3A       		.uleb128 0x3a
 6022 015e 0B       		.uleb128 0xb
 6023 015f 3B       		.uleb128 0x3b
 6024 0160 05       		.uleb128 0x5
 6025 0161 39       		.uleb128 0x39
 6026 0162 0B       		.uleb128 0xb
 6027 0163 01       		.uleb128 0x1
 6028 0164 13       		.uleb128 0x13
 6029 0165 00       		.byte	0
 6030 0166 00       		.byte	0
 6031 0167 1C       		.uleb128 0x1c
 6032 0168 17       		.uleb128 0x17
 6033 0169 01       		.byte	0x1
 6034 016a 0B       		.uleb128 0xb
 6035 016b 0B       		.uleb128 0xb
 6036 016c 3A       		.uleb128 0x3a
 6037 016d 0B       		.uleb128 0xb
 6038 016e 3B       		.uleb128 0x3b
 6039 016f 05       		.uleb128 0x5
 6040 0170 39       		.uleb128 0x39
 6041 0171 0B       		.uleb128 0xb
 6042 0172 01       		.uleb128 0x1
 6043 0173 13       		.uleb128 0x13
 6044 0174 00       		.byte	0
 6045 0175 00       		.byte	0
 6046 0176 1D       		.uleb128 0x1d
 6047 0177 0D       		.uleb128 0xd
 6048 0178 00       		.byte	0
 6049 0179 03       		.uleb128 0x3
 6050 017a 0E       		.uleb128 0xe
 6051 017b 3A       		.uleb128 0x3a
 6052 017c 0B       		.uleb128 0xb
 6053 017d 3B       		.uleb128 0x3b
 6054 017e 05       		.uleb128 0x5
 6055 017f 39       		.uleb128 0x39
 6056 0180 0B       		.uleb128 0xb
 6057 0181 49       		.uleb128 0x49
 6058 0182 13       		.uleb128 0x13
 6059 0183 00       		.byte	0
 6060 0184 00       		.byte	0
 6061 0185 1E       		.uleb128 0x1e
 6062 0186 15       		.uleb128 0x15
 6063 0187 01       		.byte	0x1
 6064 0188 27       		.uleb128 0x27
 6065 0189 19       		.uleb128 0x19
 6066 018a 01       		.uleb128 0x1
 6067 018b 13       		.uleb128 0x13
 6068 018c 00       		.byte	0
 6069 018d 00       		.byte	0
 6070 018e 1F       		.uleb128 0x1f
 6071 018f 34       		.uleb128 0x34
 6072 0190 00       		.byte	0
 6073 0191 03       		.uleb128 0x3
 6074 0192 0E       		.uleb128 0xe
 6075 0193 3A       		.uleb128 0x3a
 6076 0194 0B       		.uleb128 0xb
ARM GAS  C:\Users\jens-\AppData\Local\Temp\cc4C0Tnp.s 			page 143


 6077 0195 3B       		.uleb128 0x3b
 6078 0196 05       		.uleb128 0x5
 6079 0197 39       		.uleb128 0x39
 6080 0198 0B       		.uleb128 0xb
 6081 0199 49       		.uleb128 0x49
 6082 019a 13       		.uleb128 0x13
 6083 019b 3F       		.uleb128 0x3f
 6084 019c 19       		.uleb128 0x19
 6085 019d 3C       		.uleb128 0x3c
 6086 019e 19       		.uleb128 0x19
 6087 019f 00       		.byte	0
 6088 01a0 00       		.byte	0
 6089 01a1 20       		.uleb128 0x20
 6090 01a2 21       		.uleb128 0x21
 6091 01a3 00       		.byte	0
 6092 01a4 00       		.byte	0
 6093 01a5 00       		.byte	0
 6094 01a6 21       		.uleb128 0x21
 6095 01a7 34       		.uleb128 0x34
 6096 01a8 00       		.byte	0
 6097 01a9 03       		.uleb128 0x3
 6098 01aa 0E       		.uleb128 0xe
 6099 01ab 3A       		.uleb128 0x3a
 6100 01ac 0B       		.uleb128 0xb
 6101 01ad 3B       		.uleb128 0x3b
 6102 01ae 0B       		.uleb128 0xb
 6103 01af 39       		.uleb128 0x39
 6104 01b0 0B       		.uleb128 0xb
 6105 01b1 49       		.uleb128 0x49
 6106 01b2 13       		.uleb128 0x13
 6107 01b3 3F       		.uleb128 0x3f
 6108 01b4 19       		.uleb128 0x19
 6109 01b5 3C       		.uleb128 0x3c
 6110 01b6 19       		.uleb128 0x19
 6111 01b7 00       		.byte	0
 6112 01b8 00       		.byte	0
 6113 01b9 22       		.uleb128 0x22
 6114 01ba 04       		.uleb128 0x4
 6115 01bb 01       		.byte	0x1
 6116 01bc 3E       		.uleb128 0x3e
 6117 01bd 0B       		.uleb128 0xb
 6118 01be 0B       		.uleb128 0xb
 6119 01bf 0B       		.uleb128 0xb
 6120 01c0 49       		.uleb128 0x49
 6121 01c1 13       		.uleb128 0x13
 6122 01c2 3A       		.uleb128 0x3a
 6123 01c3 0B       		.uleb128 0xb
 6124 01c4 3B       		.uleb128 0x3b
 6125 01c5 05       		.uleb128 0x5
 6126 01c6 39       		.uleb128 0x39
 6127 01c7 0B       		.uleb128 0xb
 6128 01c8 01       		.uleb128 0x1
 6129 01c9 13       		.uleb128 0x13
 6130 01ca 00       		.byte	0
 6131 01cb 00       		.byte	0
 6132 01cc 23       		.uleb128 0x23
 6133 01cd 28       		.uleb128 0x28
ARM GAS  C:\Users\jens-\AppData\Local\Temp\cc4C0Tnp.s 			page 144


 6134 01ce 00       		.byte	0
 6135 01cf 03       		.uleb128 0x3
 6136 01d0 0E       		.uleb128 0xe
 6137 01d1 1C       		.uleb128 0x1c
 6138 01d2 0B       		.uleb128 0xb
 6139 01d3 00       		.byte	0
 6140 01d4 00       		.byte	0
 6141 01d5 24       		.uleb128 0x24
 6142 01d6 2E       		.uleb128 0x2e
 6143 01d7 01       		.byte	0x1
 6144 01d8 03       		.uleb128 0x3
 6145 01d9 0E       		.uleb128 0xe
 6146 01da 3A       		.uleb128 0x3a
 6147 01db 0B       		.uleb128 0xb
 6148 01dc 3B       		.uleb128 0x3b
 6149 01dd 05       		.uleb128 0x5
 6150 01de 39       		.uleb128 0x39
 6151 01df 0B       		.uleb128 0xb
 6152 01e0 27       		.uleb128 0x27
 6153 01e1 19       		.uleb128 0x19
 6154 01e2 49       		.uleb128 0x49
 6155 01e3 13       		.uleb128 0x13
 6156 01e4 11       		.uleb128 0x11
 6157 01e5 01       		.uleb128 0x1
 6158 01e6 12       		.uleb128 0x12
 6159 01e7 06       		.uleb128 0x6
 6160 01e8 40       		.uleb128 0x40
 6161 01e9 18       		.uleb128 0x18
 6162 01ea 9742     		.uleb128 0x2117
 6163 01ec 19       		.uleb128 0x19
 6164 01ed 01       		.uleb128 0x1
 6165 01ee 13       		.uleb128 0x13
 6166 01ef 00       		.byte	0
 6167 01f0 00       		.byte	0
 6168 01f1 25       		.uleb128 0x25
 6169 01f2 05       		.uleb128 0x5
 6170 01f3 00       		.byte	0
 6171 01f4 03       		.uleb128 0x3
 6172 01f5 0E       		.uleb128 0xe
 6173 01f6 3A       		.uleb128 0x3a
 6174 01f7 0B       		.uleb128 0xb
 6175 01f8 3B       		.uleb128 0x3b
 6176 01f9 05       		.uleb128 0x5
 6177 01fa 39       		.uleb128 0x39
 6178 01fb 0B       		.uleb128 0xb
 6179 01fc 49       		.uleb128 0x49
 6180 01fd 13       		.uleb128 0x13
 6181 01fe 02       		.uleb128 0x2
 6182 01ff 17       		.uleb128 0x17
 6183 0200 B742     		.uleb128 0x2137
 6184 0202 17       		.uleb128 0x17
 6185 0203 00       		.byte	0
 6186 0204 00       		.byte	0
 6187 0205 26       		.uleb128 0x26
 6188 0206 34       		.uleb128 0x34
 6189 0207 00       		.byte	0
 6190 0208 03       		.uleb128 0x3
ARM GAS  C:\Users\jens-\AppData\Local\Temp\cc4C0Tnp.s 			page 145


 6191 0209 08       		.uleb128 0x8
 6192 020a 3A       		.uleb128 0x3a
 6193 020b 0B       		.uleb128 0xb
 6194 020c 3B       		.uleb128 0x3b
 6195 020d 05       		.uleb128 0x5
 6196 020e 39       		.uleb128 0x39
 6197 020f 0B       		.uleb128 0xb
 6198 0210 49       		.uleb128 0x49
 6199 0211 13       		.uleb128 0x13
 6200 0212 02       		.uleb128 0x2
 6201 0213 17       		.uleb128 0x17
 6202 0214 B742     		.uleb128 0x2137
 6203 0216 17       		.uleb128 0x17
 6204 0217 00       		.byte	0
 6205 0218 00       		.byte	0
 6206 0219 27       		.uleb128 0x27
 6207 021a 34       		.uleb128 0x34
 6208 021b 00       		.byte	0
 6209 021c 03       		.uleb128 0x3
 6210 021d 0E       		.uleb128 0xe
 6211 021e 3A       		.uleb128 0x3a
 6212 021f 0B       		.uleb128 0xb
 6213 0220 3B       		.uleb128 0x3b
 6214 0221 05       		.uleb128 0x5
 6215 0222 39       		.uleb128 0x39
 6216 0223 0B       		.uleb128 0xb
 6217 0224 49       		.uleb128 0x49
 6218 0225 13       		.uleb128 0x13
 6219 0226 02       		.uleb128 0x2
 6220 0227 18       		.uleb128 0x18
 6221 0228 00       		.byte	0
 6222 0229 00       		.byte	0
 6223 022a 28       		.uleb128 0x28
 6224 022b 34       		.uleb128 0x34
 6225 022c 00       		.byte	0
 6226 022d 03       		.uleb128 0x3
 6227 022e 0E       		.uleb128 0xe
 6228 022f 3A       		.uleb128 0x3a
 6229 0230 0B       		.uleb128 0xb
 6230 0231 3B       		.uleb128 0x3b
 6231 0232 05       		.uleb128 0x5
 6232 0233 39       		.uleb128 0x39
 6233 0234 0B       		.uleb128 0xb
 6234 0235 49       		.uleb128 0x49
 6235 0236 13       		.uleb128 0x13
 6236 0237 02       		.uleb128 0x2
 6237 0238 17       		.uleb128 0x17
 6238 0239 B742     		.uleb128 0x2137
 6239 023b 17       		.uleb128 0x17
 6240 023c 00       		.byte	0
 6241 023d 00       		.byte	0
 6242 023e 29       		.uleb128 0x29
 6243 023f 898201   		.uleb128 0x4109
 6244 0242 01       		.byte	0x1
 6245 0243 11       		.uleb128 0x11
 6246 0244 01       		.uleb128 0x1
 6247 0245 31       		.uleb128 0x31
ARM GAS  C:\Users\jens-\AppData\Local\Temp\cc4C0Tnp.s 			page 146


 6248 0246 13       		.uleb128 0x13
 6249 0247 01       		.uleb128 0x1
 6250 0248 13       		.uleb128 0x13
 6251 0249 00       		.byte	0
 6252 024a 00       		.byte	0
 6253 024b 2A       		.uleb128 0x2a
 6254 024c 8A8201   		.uleb128 0x410a
 6255 024f 00       		.byte	0
 6256 0250 02       		.uleb128 0x2
 6257 0251 18       		.uleb128 0x18
 6258 0252 9142     		.uleb128 0x2111
 6259 0254 18       		.uleb128 0x18
 6260 0255 00       		.byte	0
 6261 0256 00       		.byte	0
 6262 0257 2B       		.uleb128 0x2b
 6263 0258 898201   		.uleb128 0x4109
 6264 025b 01       		.byte	0x1
 6265 025c 11       		.uleb128 0x11
 6266 025d 01       		.uleb128 0x1
 6267 025e 31       		.uleb128 0x31
 6268 025f 13       		.uleb128 0x13
 6269 0260 00       		.byte	0
 6270 0261 00       		.byte	0
 6271 0262 2C       		.uleb128 0x2c
 6272 0263 05       		.uleb128 0x5
 6273 0264 00       		.byte	0
 6274 0265 03       		.uleb128 0x3
 6275 0266 0E       		.uleb128 0xe
 6276 0267 3A       		.uleb128 0x3a
 6277 0268 0B       		.uleb128 0xb
 6278 0269 3B       		.uleb128 0x3b
 6279 026a 05       		.uleb128 0x5
 6280 026b 39       		.uleb128 0x39
 6281 026c 0B       		.uleb128 0xb
 6282 026d 49       		.uleb128 0x49
 6283 026e 13       		.uleb128 0x13
 6284 026f 02       		.uleb128 0x2
 6285 0270 18       		.uleb128 0x18
 6286 0271 00       		.byte	0
 6287 0272 00       		.byte	0
 6288 0273 2D       		.uleb128 0x2d
 6289 0274 05       		.uleb128 0x5
 6290 0275 00       		.byte	0
 6291 0276 03       		.uleb128 0x3
 6292 0277 08       		.uleb128 0x8
 6293 0278 3A       		.uleb128 0x3a
 6294 0279 0B       		.uleb128 0xb
 6295 027a 3B       		.uleb128 0x3b
 6296 027b 05       		.uleb128 0x5
 6297 027c 39       		.uleb128 0x39
 6298 027d 0B       		.uleb128 0xb
 6299 027e 49       		.uleb128 0x49
 6300 027f 13       		.uleb128 0x13
 6301 0280 02       		.uleb128 0x2
 6302 0281 17       		.uleb128 0x17
 6303 0282 B742     		.uleb128 0x2137
 6304 0284 17       		.uleb128 0x17
ARM GAS  C:\Users\jens-\AppData\Local\Temp\cc4C0Tnp.s 			page 147


 6305 0285 00       		.byte	0
 6306 0286 00       		.byte	0
 6307 0287 2E       		.uleb128 0x2e
 6308 0288 898201   		.uleb128 0x4109
 6309 028b 00       		.byte	0
 6310 028c 11       		.uleb128 0x11
 6311 028d 01       		.uleb128 0x1
 6312 028e 31       		.uleb128 0x31
 6313 028f 13       		.uleb128 0x13
 6314 0290 00       		.byte	0
 6315 0291 00       		.byte	0
 6316 0292 2F       		.uleb128 0x2f
 6317 0293 05       		.uleb128 0x5
 6318 0294 00       		.byte	0
 6319 0295 03       		.uleb128 0x3
 6320 0296 08       		.uleb128 0x8
 6321 0297 3A       		.uleb128 0x3a
 6322 0298 0B       		.uleb128 0xb
 6323 0299 3B       		.uleb128 0x3b
 6324 029a 05       		.uleb128 0x5
 6325 029b 39       		.uleb128 0x39
 6326 029c 0B       		.uleb128 0xb
 6327 029d 49       		.uleb128 0x49
 6328 029e 13       		.uleb128 0x13
 6329 029f 02       		.uleb128 0x2
 6330 02a0 18       		.uleb128 0x18
 6331 02a1 00       		.byte	0
 6332 02a2 00       		.byte	0
 6333 02a3 30       		.uleb128 0x30
 6334 02a4 2E       		.uleb128 0x2e
 6335 02a5 01       		.byte	0x1
 6336 02a6 03       		.uleb128 0x3
 6337 02a7 0E       		.uleb128 0xe
 6338 02a8 3A       		.uleb128 0x3a
 6339 02a9 0B       		.uleb128 0xb
 6340 02aa 3B       		.uleb128 0x3b
 6341 02ab 05       		.uleb128 0x5
 6342 02ac 39       		.uleb128 0x39
 6343 02ad 0B       		.uleb128 0xb
 6344 02ae 27       		.uleb128 0x27
 6345 02af 19       		.uleb128 0x19
 6346 02b0 11       		.uleb128 0x11
 6347 02b1 01       		.uleb128 0x1
 6348 02b2 12       		.uleb128 0x12
 6349 02b3 06       		.uleb128 0x6
 6350 02b4 40       		.uleb128 0x40
 6351 02b5 18       		.uleb128 0x18
 6352 02b6 9742     		.uleb128 0x2117
 6353 02b8 19       		.uleb128 0x19
 6354 02b9 01       		.uleb128 0x1
 6355 02ba 13       		.uleb128 0x13
 6356 02bb 00       		.byte	0
 6357 02bc 00       		.byte	0
 6358 02bd 31       		.uleb128 0x31
 6359 02be 2E       		.uleb128 0x2e
 6360 02bf 01       		.byte	0x1
 6361 02c0 3F       		.uleb128 0x3f
ARM GAS  C:\Users\jens-\AppData\Local\Temp\cc4C0Tnp.s 			page 148


 6362 02c1 19       		.uleb128 0x19
 6363 02c2 03       		.uleb128 0x3
 6364 02c3 0E       		.uleb128 0xe
 6365 02c4 3A       		.uleb128 0x3a
 6366 02c5 0B       		.uleb128 0xb
 6367 02c6 3B       		.uleb128 0x3b
 6368 02c7 05       		.uleb128 0x5
 6369 02c8 39       		.uleb128 0x39
 6370 02c9 0B       		.uleb128 0xb
 6371 02ca 27       		.uleb128 0x27
 6372 02cb 19       		.uleb128 0x19
 6373 02cc 49       		.uleb128 0x49
 6374 02cd 13       		.uleb128 0x13
 6375 02ce 11       		.uleb128 0x11
 6376 02cf 01       		.uleb128 0x1
 6377 02d0 12       		.uleb128 0x12
 6378 02d1 06       		.uleb128 0x6
 6379 02d2 40       		.uleb128 0x40
 6380 02d3 18       		.uleb128 0x18
 6381 02d4 9742     		.uleb128 0x2117
 6382 02d6 19       		.uleb128 0x19
 6383 02d7 01       		.uleb128 0x1
 6384 02d8 13       		.uleb128 0x13
 6385 02d9 00       		.byte	0
 6386 02da 00       		.byte	0
 6387 02db 32       		.uleb128 0x32
 6388 02dc 0B       		.uleb128 0xb
 6389 02dd 01       		.byte	0x1
 6390 02de 55       		.uleb128 0x55
 6391 02df 17       		.uleb128 0x17
 6392 02e0 01       		.uleb128 0x1
 6393 02e1 13       		.uleb128 0x13
 6394 02e2 00       		.byte	0
 6395 02e3 00       		.byte	0
 6396 02e4 33       		.uleb128 0x33
 6397 02e5 0B       		.uleb128 0xb
 6398 02e6 01       		.byte	0x1
 6399 02e7 55       		.uleb128 0x55
 6400 02e8 17       		.uleb128 0x17
 6401 02e9 00       		.byte	0
 6402 02ea 00       		.byte	0
 6403 02eb 34       		.uleb128 0x34
 6404 02ec 0B       		.uleb128 0xb
 6405 02ed 01       		.byte	0x1
 6406 02ee 11       		.uleb128 0x11
 6407 02ef 01       		.uleb128 0x1
 6408 02f0 12       		.uleb128 0x12
 6409 02f1 06       		.uleb128 0x6
 6410 02f2 01       		.uleb128 0x1
 6411 02f3 13       		.uleb128 0x13
 6412 02f4 00       		.byte	0
 6413 02f5 00       		.byte	0
 6414 02f6 35       		.uleb128 0x35
 6415 02f7 2E       		.uleb128 0x2e
 6416 02f8 01       		.byte	0x1
 6417 02f9 3F       		.uleb128 0x3f
 6418 02fa 19       		.uleb128 0x19
ARM GAS  C:\Users\jens-\AppData\Local\Temp\cc4C0Tnp.s 			page 149


 6419 02fb 03       		.uleb128 0x3
 6420 02fc 0E       		.uleb128 0xe
 6421 02fd 3A       		.uleb128 0x3a
 6422 02fe 0B       		.uleb128 0xb
 6423 02ff 3B       		.uleb128 0x3b
 6424 0300 0B       		.uleb128 0xb
 6425 0301 39       		.uleb128 0x39
 6426 0302 0B       		.uleb128 0xb
 6427 0303 27       		.uleb128 0x27
 6428 0304 19       		.uleb128 0x19
 6429 0305 49       		.uleb128 0x49
 6430 0306 13       		.uleb128 0x13
 6431 0307 11       		.uleb128 0x11
 6432 0308 01       		.uleb128 0x1
 6433 0309 12       		.uleb128 0x12
 6434 030a 06       		.uleb128 0x6
 6435 030b 40       		.uleb128 0x40
 6436 030c 18       		.uleb128 0x18
 6437 030d 9742     		.uleb128 0x2117
 6438 030f 19       		.uleb128 0x19
 6439 0310 01       		.uleb128 0x1
 6440 0311 13       		.uleb128 0x13
 6441 0312 00       		.byte	0
 6442 0313 00       		.byte	0
 6443 0314 36       		.uleb128 0x36
 6444 0315 05       		.uleb128 0x5
 6445 0316 00       		.byte	0
 6446 0317 03       		.uleb128 0x3
 6447 0318 0E       		.uleb128 0xe
 6448 0319 3A       		.uleb128 0x3a
 6449 031a 0B       		.uleb128 0xb
 6450 031b 3B       		.uleb128 0x3b
 6451 031c 0B       		.uleb128 0xb
 6452 031d 39       		.uleb128 0x39
 6453 031e 0B       		.uleb128 0xb
 6454 031f 49       		.uleb128 0x49
 6455 0320 13       		.uleb128 0x13
 6456 0321 02       		.uleb128 0x2
 6457 0322 17       		.uleb128 0x17
 6458 0323 B742     		.uleb128 0x2137
 6459 0325 17       		.uleb128 0x17
 6460 0326 00       		.byte	0
 6461 0327 00       		.byte	0
 6462 0328 37       		.uleb128 0x37
 6463 0329 34       		.uleb128 0x34
 6464 032a 00       		.byte	0
 6465 032b 03       		.uleb128 0x3
 6466 032c 08       		.uleb128 0x8
 6467 032d 3A       		.uleb128 0x3a
 6468 032e 0B       		.uleb128 0xb
 6469 032f 3B       		.uleb128 0x3b
 6470 0330 0B       		.uleb128 0xb
 6471 0331 39       		.uleb128 0x39
 6472 0332 0B       		.uleb128 0xb
 6473 0333 49       		.uleb128 0x49
 6474 0334 13       		.uleb128 0x13
 6475 0335 02       		.uleb128 0x2
ARM GAS  C:\Users\jens-\AppData\Local\Temp\cc4C0Tnp.s 			page 150


 6476 0336 17       		.uleb128 0x17
 6477 0337 B742     		.uleb128 0x2137
 6478 0339 17       		.uleb128 0x17
 6479 033a 00       		.byte	0
 6480 033b 00       		.byte	0
 6481 033c 38       		.uleb128 0x38
 6482 033d 34       		.uleb128 0x34
 6483 033e 00       		.byte	0
 6484 033f 03       		.uleb128 0x3
 6485 0340 0E       		.uleb128 0xe
 6486 0341 3A       		.uleb128 0x3a
 6487 0342 0B       		.uleb128 0xb
 6488 0343 3B       		.uleb128 0x3b
 6489 0344 0B       		.uleb128 0xb
 6490 0345 39       		.uleb128 0x39
 6491 0346 0B       		.uleb128 0xb
 6492 0347 49       		.uleb128 0x49
 6493 0348 13       		.uleb128 0x13
 6494 0349 02       		.uleb128 0x2
 6495 034a 17       		.uleb128 0x17
 6496 034b B742     		.uleb128 0x2137
 6497 034d 17       		.uleb128 0x17
 6498 034e 00       		.byte	0
 6499 034f 00       		.byte	0
 6500 0350 39       		.uleb128 0x39
 6501 0351 2E       		.uleb128 0x2e
 6502 0352 00       		.byte	0
 6503 0353 3F       		.uleb128 0x3f
 6504 0354 19       		.uleb128 0x19
 6505 0355 3C       		.uleb128 0x3c
 6506 0356 19       		.uleb128 0x19
 6507 0357 6E       		.uleb128 0x6e
 6508 0358 0E       		.uleb128 0xe
 6509 0359 03       		.uleb128 0x3
 6510 035a 0E       		.uleb128 0xe
 6511 035b 3A       		.uleb128 0x3a
 6512 035c 0B       		.uleb128 0xb
 6513 035d 3B       		.uleb128 0x3b
 6514 035e 0B       		.uleb128 0xb
 6515 035f 00       		.byte	0
 6516 0360 00       		.byte	0
 6517 0361 3A       		.uleb128 0x3a
 6518 0362 2E       		.uleb128 0x2e
 6519 0363 00       		.byte	0
 6520 0364 3F       		.uleb128 0x3f
 6521 0365 19       		.uleb128 0x19
 6522 0366 3C       		.uleb128 0x3c
 6523 0367 19       		.uleb128 0x19
 6524 0368 6E       		.uleb128 0x6e
 6525 0369 0E       		.uleb128 0xe
 6526 036a 03       		.uleb128 0x3
 6527 036b 0E       		.uleb128 0xe
 6528 036c 3A       		.uleb128 0x3a
 6529 036d 0B       		.uleb128 0xb
 6530 036e 3B       		.uleb128 0x3b
 6531 036f 0B       		.uleb128 0xb
 6532 0370 39       		.uleb128 0x39
ARM GAS  C:\Users\jens-\AppData\Local\Temp\cc4C0Tnp.s 			page 151


 6533 0371 0B       		.uleb128 0xb
 6534 0372 00       		.byte	0
 6535 0373 00       		.byte	0
 6536 0374 00       		.byte	0
 6537              		.section	.debug_loc,"",%progbits
 6538              	.Ldebug_loc0:
 6539              	.LVUS29:
 6540 0000 00       		.uleb128 0
 6541 0001 00       		.uleb128 .LVU224
 6542 0002 00       		.uleb128 .LVU224
 6543 0003 00       		.uleb128 0
 6544              	.LLST29:
 6545 0004 00000000 		.4byte	.LVL71
 6546 0008 10000000 		.4byte	.LVL73
 6547 000c 0100     		.2byte	0x1
 6548 000e 50       		.byte	0x50
 6549 000f 10000000 		.4byte	.LVL73
 6550 0013 6A000000 		.4byte	.LFE14
 6551 0017 0100     		.2byte	0x1
 6552 0019 54       		.byte	0x54
 6553 001a 00000000 		.4byte	0
 6554 001e 00000000 		.4byte	0
 6555              	.LVUS30:
 6556 0022 02       		.uleb128 .LVU222
 6557 0023 00       		.uleb128 .LVU224
 6558 0024 00       		.uleb128 .LVU224
 6559 0025 00       		.uleb128 0
 6560              	.LLST30:
 6561 0026 0C000000 		.4byte	.LVL72
 6562 002a 10000000 		.4byte	.LVL73
 6563 002e 0200     		.2byte	0x2
 6564 0030 30       		.byte	0x30
 6565 0031 9F       		.byte	0x9f
 6566 0032 10000000 		.4byte	.LVL73
 6567 0036 6A000000 		.4byte	.LFE14
 6568 003a 0100     		.2byte	0x1
 6569 003c 56       		.byte	0x56
 6570 003d 00000000 		.4byte	0
 6571 0041 00000000 		.4byte	0
 6572              	.LVUS31:
 6573 0045 00       		.uleb128 .LVU245
 6574 0046 00       		.uleb128 .LVU247
 6575 0047 00       		.uleb128 .LVU247
 6576 0048 00       		.uleb128 .LVU248
 6577              	.LLST31:
 6578 0049 48000000 		.4byte	.LVL79
 6579 004d 4E000000 		.4byte	.LVL80
 6580 0051 0600     		.2byte	0x6
 6581 0053 70       		.byte	0x70
 6582 0054 00       		.sleb128 0
 6583 0055 73       		.byte	0x73
 6584 0056 00       		.sleb128 0
 6585 0057 22       		.byte	0x22
 6586 0058 9F       		.byte	0x9f
 6587 0059 4E000000 		.4byte	.LVL80
 6588 005d 51000000 		.4byte	.LVL81-1
 6589 0061 0100     		.2byte	0x1
ARM GAS  C:\Users\jens-\AppData\Local\Temp\cc4C0Tnp.s 			page 152


 6590 0063 50       		.byte	0x50
 6591 0064 00000000 		.4byte	0
 6592 0068 00000000 		.4byte	0
 6593              	.LVUS32:
 6594 006c 00       		.uleb128 .LVU220
 6595 006d 00       		.uleb128 0
 6596              	.LLST32:
 6597 006e 0C000000 		.4byte	.LVL72
 6598 0072 6A000000 		.4byte	.LFE14
 6599 0076 0100     		.2byte	0x1
 6600 0078 55       		.byte	0x55
 6601 0079 00000000 		.4byte	0
 6602 007d 00000000 		.4byte	0
 6603              	.LVUS33:
 6604 0081 01       		.uleb128 .LVU221
 6605 0082 00       		.uleb128 .LVU224
 6606 0083 00       		.uleb128 .LVU224
 6607 0084 00       		.uleb128 .LVU231
 6608 0085 00       		.uleb128 .LVU249
 6609 0086 00       		.uleb128 0
 6610              	.LLST33:
 6611 0087 0C000000 		.4byte	.LVL72
 6612 008b 10000000 		.4byte	.LVL73
 6613 008f 0200     		.2byte	0x2
 6614 0091 31       		.byte	0x31
 6615 0092 9F       		.byte	0x9f
 6616 0093 10000000 		.4byte	.LVL73
 6617 0097 1E000000 		.4byte	.LVL74
 6618 009b 0100     		.2byte	0x1
 6619 009d 57       		.byte	0x57
 6620 009e 54000000 		.4byte	.LVL82
 6621 00a2 6A000000 		.4byte	.LFE14
 6622 00a6 0100     		.2byte	0x1
 6623 00a8 57       		.byte	0x57
 6624 00a9 00000000 		.4byte	0
 6625 00ad 00000000 		.4byte	0
 6626              	.LVUS17:
 6627 00b1 00       		.uleb128 0
 6628 00b2 00       		.uleb128 .LVU158
 6629 00b3 00       		.uleb128 .LVU158
 6630 00b4 00       		.uleb128 .LVU159
 6631 00b5 00       		.uleb128 .LVU159
 6632 00b6 00       		.uleb128 .LVU162
 6633 00b7 00       		.uleb128 .LVU162
 6634 00b8 00       		.uleb128 .LVU164
 6635 00b9 00       		.uleb128 .LVU164
 6636 00ba 00       		.uleb128 .LVU169
 6637 00bb 00       		.uleb128 .LVU169
 6638 00bc 00       		.uleb128 .LVU170
 6639 00bd 00       		.uleb128 .LVU170
 6640 00be 00       		.uleb128 .LVU184
 6641 00bf 00       		.uleb128 .LVU184
 6642 00c0 00       		.uleb128 .LVU185
 6643 00c1 00       		.uleb128 .LVU185
 6644 00c2 00       		.uleb128 .LVU186
 6645 00c3 00       		.uleb128 .LVU186
 6646 00c4 00       		.uleb128 0
ARM GAS  C:\Users\jens-\AppData\Local\Temp\cc4C0Tnp.s 			page 153


 6647              	.LLST17:
 6648 00c5 00000000 		.4byte	.LVL47
 6649 00c9 32000000 		.4byte	.LVL50
 6650 00cd 0100     		.2byte	0x1
 6651 00cf 50       		.byte	0x50
 6652 00d0 32000000 		.4byte	.LVL50
 6653 00d4 34000000 		.4byte	.LVL51
 6654 00d8 0400     		.2byte	0x4
 6655 00da F3       		.byte	0xf3
 6656 00db 01       		.uleb128 0x1
 6657 00dc 50       		.byte	0x50
 6658 00dd 9F       		.byte	0x9f
 6659 00de 34000000 		.4byte	.LVL51
 6660 00e2 3C000000 		.4byte	.LVL52
 6661 00e6 0100     		.2byte	0x1
 6662 00e8 50       		.byte	0x50
 6663 00e9 3C000000 		.4byte	.LVL52
 6664 00ed 40000000 		.4byte	.LVL54
 6665 00f1 0400     		.2byte	0x4
 6666 00f3 F3       		.byte	0xf3
 6667 00f4 01       		.uleb128 0x1
 6668 00f5 50       		.byte	0x50
 6669 00f6 9F       		.byte	0x9f
 6670 00f7 40000000 		.4byte	.LVL54
 6671 00fb 4A000000 		.4byte	.LVL55
 6672 00ff 0100     		.2byte	0x1
 6673 0101 50       		.byte	0x50
 6674 0102 4A000000 		.4byte	.LVL55
 6675 0106 4C000000 		.4byte	.LVL56
 6676 010a 0400     		.2byte	0x4
 6677 010c F3       		.byte	0xf3
 6678 010d 01       		.uleb128 0x1
 6679 010e 50       		.byte	0x50
 6680 010f 9F       		.byte	0x9f
 6681 0110 4C000000 		.4byte	.LVL56
 6682 0114 6E000000 		.4byte	.LVL59
 6683 0118 0100     		.2byte	0x1
 6684 011a 50       		.byte	0x50
 6685 011b 6E000000 		.4byte	.LVL59
 6686 011f 70000000 		.4byte	.LVL60
 6687 0123 0400     		.2byte	0x4
 6688 0125 F3       		.byte	0xf3
 6689 0126 01       		.uleb128 0x1
 6690 0127 50       		.byte	0x50
 6691 0128 9F       		.byte	0x9f
 6692 0129 70000000 		.4byte	.LVL60
 6693 012d 72000000 		.4byte	.LVL61
 6694 0131 0100     		.2byte	0x1
 6695 0133 50       		.byte	0x50
 6696 0134 72000000 		.4byte	.LVL61
 6697 0138 74000000 		.4byte	.LFE13
 6698 013c 0400     		.2byte	0x4
 6699 013e F3       		.byte	0xf3
 6700 013f 01       		.uleb128 0x1
 6701 0140 50       		.byte	0x50
 6702 0141 9F       		.byte	0x9f
 6703 0142 00000000 		.4byte	0
ARM GAS  C:\Users\jens-\AppData\Local\Temp\cc4C0Tnp.s 			page 154


 6704 0146 00000000 		.4byte	0
 6705              	.LVUS18:
 6706 014a 00       		.uleb128 0
 6707 014b 00       		.uleb128 .LVU151
 6708 014c 00       		.uleb128 .LVU151
 6709 014d 00       		.uleb128 .LVU159
 6710 014e 00       		.uleb128 .LVU159
 6711 014f 00       		.uleb128 .LVU162
 6712 0150 00       		.uleb128 .LVU162
 6713 0151 00       		.uleb128 .LVU170
 6714 0152 00       		.uleb128 .LVU170
 6715 0153 00       		.uleb128 .LVU171
 6716 0154 00       		.uleb128 .LVU171
 6717 0155 00       		.uleb128 .LVU172
 6718 0156 00       		.uleb128 .LVU172
 6719 0157 00       		.uleb128 0
 6720              	.LLST18:
 6721 0158 00000000 		.4byte	.LVL47
 6722 015c 20000000 		.4byte	.LVL49
 6723 0160 0100     		.2byte	0x1
 6724 0162 53       		.byte	0x53
 6725 0163 20000000 		.4byte	.LVL49
 6726 0167 34000000 		.4byte	.LVL51
 6727 016b 0400     		.2byte	0x4
 6728 016d F3       		.byte	0xf3
 6729 016e 01       		.uleb128 0x1
 6730 016f 53       		.byte	0x53
 6731 0170 9F       		.byte	0x9f
 6732 0171 34000000 		.4byte	.LVL51
 6733 0175 3C000000 		.4byte	.LVL52
 6734 0179 0100     		.2byte	0x1
 6735 017b 53       		.byte	0x53
 6736 017c 3C000000 		.4byte	.LVL52
 6737 0180 4C000000 		.4byte	.LVL56
 6738 0184 0400     		.2byte	0x4
 6739 0186 F3       		.byte	0xf3
 6740 0187 01       		.uleb128 0x1
 6741 0188 53       		.byte	0x53
 6742 0189 9F       		.byte	0x9f
 6743 018a 4C000000 		.4byte	.LVL56
 6744 018e 4E000000 		.4byte	.LVL57
 6745 0192 0100     		.2byte	0x1
 6746 0194 53       		.byte	0x53
 6747 0195 4E000000 		.4byte	.LVL57
 6748 0199 50000000 		.4byte	.LVL58
 6749 019d 0300     		.2byte	0x3
 6750 019f 73       		.byte	0x73
 6751 01a0 7F       		.sleb128 -1
 6752 01a1 9F       		.byte	0x9f
 6753 01a2 50000000 		.4byte	.LVL58
 6754 01a6 74000000 		.4byte	.LFE13
 6755 01aa 0400     		.2byte	0x4
 6756 01ac F3       		.byte	0xf3
 6757 01ad 01       		.uleb128 0x1
 6758 01ae 53       		.byte	0x53
 6759 01af 9F       		.byte	0x9f
 6760 01b0 00000000 		.4byte	0
ARM GAS  C:\Users\jens-\AppData\Local\Temp\cc4C0Tnp.s 			page 155


 6761 01b4 00000000 		.4byte	0
 6762              	.LVUS19:
 6763 01b8 00       		.uleb128 0
 6764 01b9 00       		.uleb128 .LVU163
 6765 01ba 00       		.uleb128 .LVU163
 6766 01bb 00       		.uleb128 .LVU164
 6767 01bc 00       		.uleb128 .LVU164
 6768 01bd 00       		.uleb128 0
 6769              	.LLST19:
 6770 01be 00000000 		.4byte	.LVL47
 6771 01c2 3E000000 		.4byte	.LVL53
 6772 01c6 0200     		.2byte	0x2
 6773 01c8 91       		.byte	0x91
 6774 01c9 00       		.sleb128 0
 6775 01ca 3E000000 		.4byte	.LVL53
 6776 01ce 40000000 		.4byte	.LVL54
 6777 01d2 0200     		.2byte	0x2
 6778 01d4 7D       		.byte	0x7d
 6779 01d5 00       		.sleb128 0
 6780 01d6 40000000 		.4byte	.LVL54
 6781 01da 74000000 		.4byte	.LFE13
 6782 01de 0200     		.2byte	0x2
 6783 01e0 91       		.byte	0x91
 6784 01e1 00       		.sleb128 0
 6785 01e2 00000000 		.4byte	0
 6786 01e6 00000000 		.4byte	0
 6787              	.LVUS20:
 6788 01ea 00       		.uleb128 0
 6789 01eb 00       		.uleb128 .LVU163
 6790 01ec 00       		.uleb128 .LVU163
 6791 01ed 00       		.uleb128 .LVU164
 6792 01ee 00       		.uleb128 .LVU164
 6793 01ef 00       		.uleb128 0
 6794              	.LLST20:
 6795 01f0 00000000 		.4byte	.LVL47
 6796 01f4 3E000000 		.4byte	.LVL53
 6797 01f8 0200     		.2byte	0x2
 6798 01fa 91       		.byte	0x91
 6799 01fb 04       		.sleb128 4
 6800 01fc 3E000000 		.4byte	.LVL53
 6801 0200 40000000 		.4byte	.LVL54
 6802 0204 0200     		.2byte	0x2
 6803 0206 7D       		.byte	0x7d
 6804 0207 04       		.sleb128 4
 6805 0208 40000000 		.4byte	.LVL54
 6806 020c 74000000 		.4byte	.LFE13
 6807 0210 0200     		.2byte	0x2
 6808 0212 91       		.byte	0x91
 6809 0213 04       		.sleb128 4
 6810 0214 00000000 		.4byte	0
 6811 0218 00000000 		.4byte	0
 6812              	.LVUS21:
 6813 021c 01       		.uleb128 .LVU144
 6814 021d 00       		.uleb128 .LVU162
 6815 021e 00       		.uleb128 .LVU164
 6816 021f 00       		.uleb128 .LVU186
 6817 0220 00       		.uleb128 .LVU186
ARM GAS  C:\Users\jens-\AppData\Local\Temp\cc4C0Tnp.s 			page 156


 6818 0221 00       		.uleb128 0
 6819              	.LLST21:
 6820 0222 06000000 		.4byte	.LVL48
 6821 0226 3C000000 		.4byte	.LVL52
 6822 022a 0200     		.2byte	0x2
 6823 022c 30       		.byte	0x30
 6824 022d 9F       		.byte	0x9f
 6825 022e 40000000 		.4byte	.LVL54
 6826 0232 72000000 		.4byte	.LVL61
 6827 0236 0200     		.2byte	0x2
 6828 0238 30       		.byte	0x30
 6829 0239 9F       		.byte	0x9f
 6830 023a 72000000 		.4byte	.LVL61
 6831 023e 74000000 		.4byte	.LFE13
 6832 0242 0200     		.2byte	0x2
 6833 0244 31       		.byte	0x31
 6834 0245 9F       		.byte	0x9f
 6835 0246 00000000 		.4byte	0
 6836 024a 00000000 		.4byte	0
 6837              	.LVUS34:
 6838 024e 00       		.uleb128 0
 6839 024f 00       		.uleb128 .LVU269
 6840 0250 00       		.uleb128 .LVU269
 6841 0251 00       		.uleb128 .LVU276
 6842 0252 00       		.uleb128 .LVU276
 6843 0253 00       		.uleb128 .LVU278
 6844 0254 00       		.uleb128 .LVU278
 6845 0255 00       		.uleb128 .LVU282
 6846 0256 00       		.uleb128 .LVU282
 6847 0257 00       		.uleb128 .LVU283
 6848 0258 00       		.uleb128 .LVU283
 6849 0259 00       		.uleb128 .LVU289
 6850 025a 00       		.uleb128 .LVU289
 6851 025b 00       		.uleb128 0
 6852              	.LLST34:
 6853 025c 00000000 		.4byte	.LVL85
 6854 0260 26000000 		.4byte	.LVL89
 6855 0264 0100     		.2byte	0x1
 6856 0266 50       		.byte	0x50
 6857 0267 26000000 		.4byte	.LVL89
 6858 026b 40000000 		.4byte	.LVL92
 6859 026f 0100     		.2byte	0x1
 6860 0271 54       		.byte	0x54
 6861 0272 40000000 		.4byte	.LVL92
 6862 0276 48000000 		.4byte	.LVL93
 6863 027a 0400     		.2byte	0x4
 6864 027c F3       		.byte	0xf3
 6865 027d 01       		.uleb128 0x1
 6866 027e 50       		.byte	0x50
 6867 027f 9F       		.byte	0x9f
 6868 0280 48000000 		.4byte	.LVL93
 6869 0284 54000000 		.4byte	.LVL95
 6870 0288 0100     		.2byte	0x1
 6871 028a 54       		.byte	0x54
 6872 028b 54000000 		.4byte	.LVL95
 6873 028f 56000000 		.4byte	.LVL96
 6874 0293 0400     		.2byte	0x4
ARM GAS  C:\Users\jens-\AppData\Local\Temp\cc4C0Tnp.s 			page 157


 6875 0295 F3       		.byte	0xf3
 6876 0296 01       		.uleb128 0x1
 6877 0297 50       		.byte	0x50
 6878 0298 9F       		.byte	0x9f
 6879 0299 56000000 		.4byte	.LVL96
 6880 029d 6E000000 		.4byte	.LVL99
 6881 02a1 0100     		.2byte	0x1
 6882 02a3 54       		.byte	0x54
 6883 02a4 6E000000 		.4byte	.LVL99
 6884 02a8 80000000 		.4byte	.LFE12
 6885 02ac 0400     		.2byte	0x4
 6886 02ae F3       		.byte	0xf3
 6887 02af 01       		.uleb128 0x1
 6888 02b0 50       		.byte	0x50
 6889 02b1 9F       		.byte	0x9f
 6890 02b2 00000000 		.4byte	0
 6891 02b6 00000000 		.4byte	0
 6892              	.LVUS35:
 6893 02ba 00       		.uleb128 0
 6894 02bb 00       		.uleb128 .LVU268
 6895 02bc 00       		.uleb128 .LVU268
 6896 02bd 00       		.uleb128 0
 6897              	.LLST35:
 6898 02be 00000000 		.4byte	.LVL85
 6899 02c2 24000000 		.4byte	.LVL88
 6900 02c6 0100     		.2byte	0x1
 6901 02c8 51       		.byte	0x51
 6902 02c9 24000000 		.4byte	.LVL88
 6903 02cd 80000000 		.4byte	.LFE12
 6904 02d1 0100     		.2byte	0x1
 6905 02d3 56       		.byte	0x56
 6906 02d4 00000000 		.4byte	0
 6907 02d8 00000000 		.4byte	0
 6908              	.LVUS36:
 6909 02dc 00       		.uleb128 0
 6910 02dd 00       		.uleb128 .LVU270
 6911 02de 00       		.uleb128 .LVU270
 6912 02df 00       		.uleb128 0
 6913              	.LLST36:
 6914 02e0 00000000 		.4byte	.LVL85
 6915 02e4 29000000 		.4byte	.LVL90-1
 6916 02e8 0100     		.2byte	0x1
 6917 02ea 52       		.byte	0x52
 6918 02eb 29000000 		.4byte	.LVL90-1
 6919 02ef 80000000 		.4byte	.LFE12
 6920 02f3 0100     		.2byte	0x1
 6921 02f5 57       		.byte	0x57
 6922 02f6 00000000 		.4byte	0
 6923 02fa 00000000 		.4byte	0
 6924              	.LVUS37:
 6925 02fe 00       		.uleb128 0
 6926 02ff 00       		.uleb128 .LVU264
 6927 0300 00       		.uleb128 .LVU264
 6928 0301 00       		.uleb128 0
 6929              	.LLST37:
 6930 0302 00000000 		.4byte	.LVL85
 6931 0306 1C000000 		.4byte	.LVL86
ARM GAS  C:\Users\jens-\AppData\Local\Temp\cc4C0Tnp.s 			page 158


 6932 030a 0100     		.2byte	0x1
 6933 030c 53       		.byte	0x53
 6934 030d 1C000000 		.4byte	.LVL86
 6935 0311 80000000 		.4byte	.LFE12
 6936 0315 0100     		.2byte	0x1
 6937 0317 58       		.byte	0x58
 6938 0318 00000000 		.4byte	0
 6939 031c 00000000 		.4byte	0
 6940              	.LVUS38:
 6941 0320 00       		.uleb128 0
 6942 0321 00       		.uleb128 .LVU278
 6943 0322 00       		.uleb128 .LVU278
 6944 0323 00       		.uleb128 0
 6945              	.LLST38:
 6946 0324 00000000 		.4byte	.LVL85
 6947 0328 48000000 		.4byte	.LVL93
 6948 032c 0200     		.2byte	0x2
 6949 032e 91       		.byte	0x91
 6950 032f 00       		.sleb128 0
 6951 0330 48000000 		.4byte	.LVL93
 6952 0334 80000000 		.4byte	.LFE12
 6953 0338 0200     		.2byte	0x2
 6954 033a 91       		.byte	0x91
 6955 033b 00       		.sleb128 0
 6956 033c 00000000 		.4byte	0
 6957 0340 00000000 		.4byte	0
 6958              	.LVUS39:
 6959 0344 00       		.uleb128 .LVU276
 6960 0345 00       		.uleb128 .LVU278
 6961 0346 01       		.uleb128 .LVU281
 6962 0347 00       		.uleb128 .LVU283
 6963 0348 00       		.uleb128 .LVU287
 6964 0349 00       		.uleb128 .LVU292
 6965              	.LLST39:
 6966 034a 40000000 		.4byte	.LVL92
 6967 034e 48000000 		.4byte	.LVL93
 6968 0352 0100     		.2byte	0x1
 6969 0354 54       		.byte	0x54
 6970 0355 52000000 		.4byte	.LVL94
 6971 0359 56000000 		.4byte	.LVL96
 6972 035d 0200     		.2byte	0x2
 6973 035f 30       		.byte	0x30
 6974 0360 9F       		.byte	0x9f
 6975 0361 6C000000 		.4byte	.LVL98
 6976 0365 7A000000 		.4byte	.LVL100
 6977 0369 0100     		.2byte	0x1
 6978 036b 50       		.byte	0x50
 6979 036c 00000000 		.4byte	0
 6980 0370 00000000 		.4byte	0
 6981              	.LVUS40:
 6982 0374 00       		.uleb128 .LVU265
 6983 0375 00       		.uleb128 0
 6984              	.LLST40:
 6985 0376 1E000000 		.4byte	.LVL87
 6986 037a 80000000 		.4byte	.LFE12
 6987 037e 0100     		.2byte	0x1
 6988 0380 55       		.byte	0x55
ARM GAS  C:\Users\jens-\AppData\Local\Temp\cc4C0Tnp.s 			page 159


 6989 0381 00000000 		.4byte	0
 6990 0385 00000000 		.4byte	0
 6991              	.LVUS41:
 6992 0389 00       		.uleb128 0
 6993 038a 00       		.uleb128 .LVU299
 6994 038b 00       		.uleb128 .LVU299
 6995 038c 00       		.uleb128 0
 6996              	.LLST41:
 6997 038d 00000000 		.4byte	.LVL102
 6998 0391 0B000000 		.4byte	.LVL104-1
 6999 0395 0100     		.2byte	0x1
 7000 0397 50       		.byte	0x50
 7001 0398 0B000000 		.4byte	.LVL104-1
 7002 039c 30000000 		.4byte	.LFE11
 7003 03a0 0100     		.2byte	0x1
 7004 03a2 56       		.byte	0x56
 7005 03a3 00000000 		.4byte	0
 7006 03a7 00000000 		.4byte	0
 7007              	.LVUS42:
 7008 03ab 00       		.uleb128 0
 7009 03ac 00       		.uleb128 .LVU299
 7010 03ad 00       		.uleb128 .LVU299
 7011 03ae 00       		.uleb128 0
 7012              	.LLST42:
 7013 03af 00000000 		.4byte	.LVL102
 7014 03b3 0B000000 		.4byte	.LVL104-1
 7015 03b7 0100     		.2byte	0x1
 7016 03b9 51       		.byte	0x51
 7017 03ba 0B000000 		.4byte	.LVL104-1
 7018 03be 30000000 		.4byte	.LFE11
 7019 03c2 0100     		.2byte	0x1
 7020 03c4 55       		.byte	0x55
 7021 03c5 00000000 		.4byte	0
 7022 03c9 00000000 		.4byte	0
 7023              	.LVUS43:
 7024 03cd 00       		.uleb128 0
 7025 03ce 00       		.uleb128 .LVU299
 7026 03cf 00       		.uleb128 .LVU299
 7027 03d0 00       		.uleb128 0
 7028              	.LLST43:
 7029 03d1 00000000 		.4byte	.LVL102
 7030 03d5 0B000000 		.4byte	.LVL104-1
 7031 03d9 0100     		.2byte	0x1
 7032 03db 52       		.byte	0x52
 7033 03dc 0B000000 		.4byte	.LVL104-1
 7034 03e0 30000000 		.4byte	.LFE11
 7035 03e4 0100     		.2byte	0x1
 7036 03e6 54       		.byte	0x54
 7037 03e7 00000000 		.4byte	0
 7038 03eb 00000000 		.4byte	0
 7039              	.LVUS44:
 7040 03ef 01       		.uleb128 .LVU296
 7041 03f0 00       		.uleb128 .LVU299
 7042 03f1 00       		.uleb128 .LVU299
 7043 03f2 00       		.uleb128 .LVU303
 7044 03f3 00       		.uleb128 .LVU309
 7045 03f4 00       		.uleb128 .LVU313
ARM GAS  C:\Users\jens-\AppData\Local\Temp\cc4C0Tnp.s 			page 160


 7046 03f5 00       		.uleb128 .LVU313
 7047 03f6 00       		.uleb128 .LVU315
 7048 03f7 00       		.uleb128 .LVU315
 7049 03f8 00       		.uleb128 .LVU316
 7050              	.LLST44:
 7051 03f9 08000000 		.4byte	.LVL103
 7052 03fd 0B000000 		.4byte	.LVL104-1
 7053 0401 0100     		.2byte	0x1
 7054 0403 50       		.byte	0x50
 7055 0404 0B000000 		.4byte	.LVL104-1
 7056 0408 14000000 		.4byte	.LVL105
 7057 040c 0100     		.2byte	0x1
 7058 040e 56       		.byte	0x56
 7059 040f 1C000000 		.4byte	.LVL106
 7060 0413 22000000 		.4byte	.LVL108
 7061 0417 0100     		.2byte	0x1
 7062 0419 56       		.byte	0x56
 7063 041a 22000000 		.4byte	.LVL108
 7064 041e 28000000 		.4byte	.LVL109
 7065 0422 0600     		.2byte	0x6
 7066 0424 70       		.byte	0x70
 7067 0425 00       		.sleb128 0
 7068 0426 73       		.byte	0x73
 7069 0427 00       		.sleb128 0
 7070 0428 22       		.byte	0x22
 7071 0429 9F       		.byte	0x9f
 7072 042a 28000000 		.4byte	.LVL109
 7073 042e 2B000000 		.4byte	.LVL110-1
 7074 0432 0100     		.2byte	0x1
 7075 0434 50       		.byte	0x50
 7076 0435 00000000 		.4byte	0
 7077 0439 00000000 		.4byte	0
 7078              	.LVUS45:
 7079 043d 02       		.uleb128 .LVU297
 7080 043e 00       		.uleb128 .LVU299
 7081 043f 00       		.uleb128 .LVU299
 7082 0440 00       		.uleb128 .LVU303
 7083 0441 00       		.uleb128 .LVU303
 7084 0442 00       		.uleb128 .LVU309
 7085 0443 00       		.uleb128 .LVU309
 7086 0444 00       		.uleb128 .LVU311
 7087 0445 00       		.uleb128 .LVU317
 7088 0446 00       		.uleb128 0
 7089              	.LLST45:
 7090 0447 08000000 		.4byte	.LVL103
 7091 044b 0C000000 		.4byte	.LVL104
 7092 044f 0200     		.2byte	0x2
 7093 0451 34       		.byte	0x34
 7094 0452 9F       		.byte	0x9f
 7095 0453 0C000000 		.4byte	.LVL104
 7096 0457 14000000 		.4byte	.LVL105
 7097 045b 0100     		.2byte	0x1
 7098 045d 50       		.byte	0x50
 7099 045e 14000000 		.4byte	.LVL105
 7100 0462 1C000000 		.4byte	.LVL106
 7101 0466 0100     		.2byte	0x1
 7102 0468 53       		.byte	0x53
ARM GAS  C:\Users\jens-\AppData\Local\Temp\cc4C0Tnp.s 			page 161


 7103 0469 1C000000 		.4byte	.LVL106
 7104 046d 1E000000 		.4byte	.LVL107
 7105 0471 0100     		.2byte	0x1
 7106 0473 50       		.byte	0x50
 7107 0474 2E000000 		.4byte	.LVL111
 7108 0478 30000000 		.4byte	.LFE11
 7109 047c 0100     		.2byte	0x1
 7110 047e 53       		.byte	0x53
 7111 047f 00000000 		.4byte	0
 7112 0483 00000000 		.4byte	0
 7113              	.LVUS22:
 7114 0487 00       		.uleb128 0
 7115 0488 00       		.uleb128 .LVU199
 7116 0489 00       		.uleb128 .LVU199
 7117 048a 00       		.uleb128 .LVU202
 7118 048b 00       		.uleb128 .LVU202
 7119 048c 00       		.uleb128 0
 7120              	.LLST22:
 7121 048d 00000000 		.4byte	.LVL62
 7122 0491 0D000000 		.4byte	.LVL65-1
 7123 0495 0100     		.2byte	0x1
 7124 0497 50       		.byte	0x50
 7125 0498 0D000000 		.4byte	.LVL65-1
 7126 049c 1C000000 		.4byte	.LVL67
 7127 04a0 0100     		.2byte	0x1
 7128 04a2 54       		.byte	0x54
 7129 04a3 1C000000 		.4byte	.LVL67
 7130 04a7 2A000000 		.4byte	.LFE10
 7131 04ab 0400     		.2byte	0x4
 7132 04ad F3       		.byte	0xf3
 7133 04ae 01       		.uleb128 0x1
 7134 04af 50       		.byte	0x50
 7135 04b0 9F       		.byte	0x9f
 7136 04b1 00000000 		.4byte	0
 7137 04b5 00000000 		.4byte	0
 7138              	.LVUS23:
 7139 04b9 00       		.uleb128 0
 7140 04ba 00       		.uleb128 .LVU199
 7141 04bb 00       		.uleb128 .LVU199
 7142 04bc 00       		.uleb128 0
 7143              	.LLST23:
 7144 04bd 00000000 		.4byte	.LVL62
 7145 04c1 0D000000 		.4byte	.LVL65-1
 7146 04c5 0100     		.2byte	0x1
 7147 04c7 51       		.byte	0x51
 7148 04c8 0D000000 		.4byte	.LVL65-1
 7149 04cc 2A000000 		.4byte	.LFE10
 7150 04d0 0100     		.2byte	0x1
 7151 04d2 55       		.byte	0x55
 7152 04d3 00000000 		.4byte	0
 7153 04d7 00000000 		.4byte	0
 7154              	.LVUS24:
 7155 04db 00       		.uleb128 0
 7156 04dc 00       		.uleb128 .LVU199
 7157 04dd 00       		.uleb128 .LVU199
 7158 04de 00       		.uleb128 0
 7159              	.LLST24:
ARM GAS  C:\Users\jens-\AppData\Local\Temp\cc4C0Tnp.s 			page 162


 7160 04df 00000000 		.4byte	.LVL62
 7161 04e3 0D000000 		.4byte	.LVL65-1
 7162 04e7 0100     		.2byte	0x1
 7163 04e9 52       		.byte	0x52
 7164 04ea 0D000000 		.4byte	.LVL65-1
 7165 04ee 2A000000 		.4byte	.LFE10
 7166 04f2 0400     		.2byte	0x4
 7167 04f4 F3       		.byte	0xf3
 7168 04f5 01       		.uleb128 0x1
 7169 04f6 52       		.byte	0x52
 7170 04f7 9F       		.byte	0x9f
 7171 04f8 00000000 		.4byte	0
 7172 04fc 00000000 		.4byte	0
 7173              	.LVUS25:
 7174 0500 01       		.uleb128 .LVU191
 7175 0501 00       		.uleb128 .LVU206
 7176 0502 00       		.uleb128 .LVU206
 7177 0503 00       		.uleb128 .LVU208
 7178 0504 00       		.uleb128 .LVU208
 7179 0505 00       		.uleb128 0
 7180              	.LLST25:
 7181 0506 06000000 		.4byte	.LVL63
 7182 050a 24000000 		.4byte	.LVL69
 7183 050e 0200     		.2byte	0x2
 7184 0510 34       		.byte	0x34
 7185 0511 9F       		.byte	0x9f
 7186 0512 24000000 		.4byte	.LVL69
 7187 0516 26000000 		.4byte	.LVL70
 7188 051a 0100     		.2byte	0x1
 7189 051c 50       		.byte	0x50
 7190 051d 26000000 		.4byte	.LVL70
 7191 0521 2A000000 		.4byte	.LFE10
 7192 0525 0200     		.2byte	0x2
 7193 0527 34       		.byte	0x34
 7194 0528 9F       		.byte	0x9f
 7195 0529 00000000 		.4byte	0
 7196 052d 00000000 		.4byte	0
 7197              	.LVUS26:
 7198 0531 00       		.uleb128 .LVU202
 7199 0532 00       		.uleb128 .LVU203
 7200 0533 00       		.uleb128 .LVU203
 7201 0534 00       		.uleb128 0
 7202              	.LLST26:
 7203 0535 1C000000 		.4byte	.LVL67
 7204 0539 1F000000 		.4byte	.LVL68-1
 7205 053d 0100     		.2byte	0x1
 7206 053f 50       		.byte	0x50
 7207 0540 1F000000 		.4byte	.LVL68-1
 7208 0544 2A000000 		.4byte	.LFE10
 7209 0548 0100     		.2byte	0x1
 7210 054a 54       		.byte	0x54
 7211 054b 00000000 		.4byte	0
 7212 054f 00000000 		.4byte	0
 7213              	.LVUS27:
 7214 0553 00       		.uleb128 .LVU197
 7215 0554 00       		.uleb128 0
 7216              	.LLST27:
ARM GAS  C:\Users\jens-\AppData\Local\Temp\cc4C0Tnp.s 			page 163


 7217 0555 0A000000 		.4byte	.LVL64
 7218 0559 2A000000 		.4byte	.LFE10
 7219 055d 0100     		.2byte	0x1
 7220 055f 56       		.byte	0x56
 7221 0560 00000000 		.4byte	0
 7222 0564 00000000 		.4byte	0
 7223              	.LVUS28:
 7224 0568 01       		.uleb128 .LVU200
 7225 0569 00       		.uleb128 .LVU202
 7226 056a 00       		.uleb128 .LVU202
 7227 056b 00       		.uleb128 0
 7228              	.LLST28:
 7229 056c 0E000000 		.4byte	.LVL65
 7230 0570 1C000000 		.4byte	.LVL67
 7231 0574 0500     		.2byte	0x5
 7232 0576 74       		.byte	0x74
 7233 0577 00       		.sleb128 0
 7234 0578 40       		.byte	0x40
 7235 0579 25       		.byte	0x25
 7236 057a 9F       		.byte	0x9f
 7237 057b 1C000000 		.4byte	.LVL67
 7238 057f 2A000000 		.4byte	.LFE10
 7239 0583 0600     		.2byte	0x6
 7240 0585 F3       		.byte	0xf3
 7241 0586 01       		.uleb128 0x1
 7242 0587 50       		.byte	0x50
 7243 0588 40       		.byte	0x40
 7244 0589 25       		.byte	0x25
 7245 058a 9F       		.byte	0x9f
 7246 058b 00000000 		.4byte	0
 7247 058f 00000000 		.4byte	0
 7248              	.LVUS13:
 7249 0593 00       		.uleb128 0
 7250 0594 00       		.uleb128 .LVU135
 7251 0595 00       		.uleb128 .LVU135
 7252 0596 00       		.uleb128 .LVU137
 7253 0597 00       		.uleb128 .LVU137
 7254 0598 00       		.uleb128 .LVU138
 7255 0599 00       		.uleb128 .LVU138
 7256 059a 00       		.uleb128 .LVU139
 7257 059b 00       		.uleb128 .LVU139
 7258 059c 00       		.uleb128 .LVU140
 7259 059d 00       		.uleb128 .LVU140
 7260 059e 00       		.uleb128 0
 7261              	.LLST13:
 7262 059f 00000000 		.4byte	.LVL39
 7263 05a3 2A000000 		.4byte	.LVL42
 7264 05a7 0100     		.2byte	0x1
 7265 05a9 50       		.byte	0x50
 7266 05aa 2A000000 		.4byte	.LVL42
 7267 05ae 2C000000 		.4byte	.LVL43
 7268 05b2 0400     		.2byte	0x4
 7269 05b4 F3       		.byte	0xf3
 7270 05b5 01       		.uleb128 0x1
 7271 05b6 50       		.byte	0x50
 7272 05b7 9F       		.byte	0x9f
 7273 05b8 2C000000 		.4byte	.LVL43
ARM GAS  C:\Users\jens-\AppData\Local\Temp\cc4C0Tnp.s 			page 164


 7274 05bc 2E000000 		.4byte	.LVL44
 7275 05c0 0100     		.2byte	0x1
 7276 05c2 50       		.byte	0x50
 7277 05c3 2E000000 		.4byte	.LVL44
 7278 05c7 30000000 		.4byte	.LVL45
 7279 05cb 0400     		.2byte	0x4
 7280 05cd F3       		.byte	0xf3
 7281 05ce 01       		.uleb128 0x1
 7282 05cf 50       		.byte	0x50
 7283 05d0 9F       		.byte	0x9f
 7284 05d1 30000000 		.4byte	.LVL45
 7285 05d5 32000000 		.4byte	.LVL46
 7286 05d9 0100     		.2byte	0x1
 7287 05db 50       		.byte	0x50
 7288 05dc 32000000 		.4byte	.LVL46
 7289 05e0 34000000 		.4byte	.LFE9
 7290 05e4 0400     		.2byte	0x4
 7291 05e6 F3       		.byte	0xf3
 7292 05e7 01       		.uleb128 0x1
 7293 05e8 50       		.byte	0x50
 7294 05e9 9F       		.byte	0x9f
 7295 05ea 00000000 		.4byte	0
 7296 05ee 00000000 		.4byte	0
 7297              	.LVUS14:
 7298 05f2 02       		.uleb128 .LVU125
 7299 05f3 00       		.uleb128 .LVU135
 7300 05f4 00       		.uleb128 .LVU135
 7301 05f5 00       		.uleb128 .LVU137
 7302 05f6 00       		.uleb128 .LVU137
 7303 05f7 00       		.uleb128 0
 7304              	.LLST14:
 7305 05f8 00000000 		.4byte	.LVL39
 7306 05fc 2A000000 		.4byte	.LVL42
 7307 0600 0200     		.2byte	0x2
 7308 0602 33       		.byte	0x33
 7309 0603 9F       		.byte	0x9f
 7310 0604 2A000000 		.4byte	.LVL42
 7311 0608 2C000000 		.4byte	.LVL43
 7312 060c 0100     		.2byte	0x1
 7313 060e 50       		.byte	0x50
 7314 060f 2C000000 		.4byte	.LVL43
 7315 0613 34000000 		.4byte	.LFE9
 7316 0617 0200     		.2byte	0x2
 7317 0619 33       		.byte	0x33
 7318 061a 9F       		.byte	0x9f
 7319 061b 00000000 		.4byte	0
 7320 061f 00000000 		.4byte	0
 7321              	.LVUS15:
 7322 0623 00       		.uleb128 .LVU127
 7323 0624 00       		.uleb128 0
 7324              	.LLST15:
 7325 0625 02000000 		.4byte	.LVL40
 7326 0629 34000000 		.4byte	.LFE9
 7327 062d 0100     		.2byte	0x1
 7328 062f 51       		.byte	0x51
 7329 0630 00000000 		.4byte	0
 7330 0634 00000000 		.4byte	0
ARM GAS  C:\Users\jens-\AppData\Local\Temp\cc4C0Tnp.s 			page 165


 7331              	.LVUS16:
 7332 0638 00       		.uleb128 .LVU131
 7333 0639 00       		.uleb128 0
 7334              	.LLST16:
 7335 063a 20000000 		.4byte	.LVL41
 7336 063e 34000000 		.4byte	.LFE9
 7337 0642 0100     		.2byte	0x1
 7338 0644 53       		.byte	0x53
 7339 0645 00000000 		.4byte	0
 7340 0649 00000000 		.4byte	0
 7341              	.LVUS9:
 7342 064d 00       		.uleb128 0
 7343 064e 00       		.uleb128 .LVU98
 7344 064f 00       		.uleb128 .LVU98
 7345 0650 00       		.uleb128 .LVU122
 7346 0651 00       		.uleb128 .LVU122
 7347 0652 00       		.uleb128 0
 7348              	.LLST9:
 7349 0653 00000000 		.4byte	.LVL24
 7350 0657 08000000 		.4byte	.LVL26
 7351 065b 0100     		.2byte	0x1
 7352 065d 50       		.byte	0x50
 7353 065e 08000000 		.4byte	.LVL26
 7354 0662 38000000 		.4byte	.LVL38
 7355 0666 0100     		.2byte	0x1
 7356 0668 54       		.byte	0x54
 7357 0669 38000000 		.4byte	.LVL38
 7358 066d 3A000000 		.4byte	.LFE8
 7359 0671 0400     		.2byte	0x4
 7360 0673 F3       		.byte	0xf3
 7361 0674 01       		.uleb128 0x1
 7362 0675 50       		.byte	0x50
 7363 0676 9F       		.byte	0x9f
 7364 0677 00000000 		.4byte	0
 7365 067b 00000000 		.4byte	0
 7366              	.LVUS10:
 7367 067f 01       		.uleb128 .LVU93
 7368 0680 00       		.uleb128 .LVU99
 7369 0681 00       		.uleb128 .LVU99
 7370 0682 00       		.uleb128 .LVU100
 7371 0683 00       		.uleb128 .LVU102
 7372 0684 00       		.uleb128 .LVU110
 7373 0685 00       		.uleb128 .LVU111
 7374 0686 00       		.uleb128 0
 7375              	.LLST10:
 7376 0687 04000000 		.4byte	.LVL25
 7377 068b 0A000000 		.4byte	.LVL27
 7378 068f 0300     		.2byte	0x3
 7379 0691 09       		.byte	0x9
 7380 0692 FF       		.byte	0xff
 7381 0693 9F       		.byte	0x9f
 7382 0694 0A000000 		.4byte	.LVL27
 7383 0698 0C000000 		.4byte	.LVL28
 7384 069c 0100     		.2byte	0x1
 7385 069e 50       		.byte	0x50
 7386 069f 12000000 		.4byte	.LVL29
 7387 06a3 22000000 		.4byte	.LVL32
ARM GAS  C:\Users\jens-\AppData\Local\Temp\cc4C0Tnp.s 			page 166


 7388 06a7 0100     		.2byte	0x1
 7389 06a9 50       		.byte	0x50
 7390 06aa 26000000 		.4byte	.LVL33
 7391 06ae 3A000000 		.4byte	.LFE8
 7392 06b2 0100     		.2byte	0x1
 7393 06b4 50       		.byte	0x50
 7394 06b5 00000000 		.4byte	0
 7395 06b9 00000000 		.4byte	0
 7396              	.LVUS11:
 7397 06bd 00       		.uleb128 .LVU99
 7398 06be 00       		.uleb128 .LVU104
 7399 06bf 00       		.uleb128 .LVU105
 7400 06c0 00       		.uleb128 .LVU114
 7401 06c1 01       		.uleb128 .LVU119
 7402 06c2 00       		.uleb128 .LVU121
 7403              	.LLST11:
 7404 06c3 0A000000 		.4byte	.LVL27
 7405 06c7 14000000 		.4byte	.LVL30
 7406 06cb 0100     		.2byte	0x1
 7407 06cd 53       		.byte	0x53
 7408 06ce 16000000 		.4byte	.LVL31
 7409 06d2 2A000000 		.4byte	.LVL35
 7410 06d6 0100     		.2byte	0x1
 7411 06d8 53       		.byte	0x53
 7412 06d9 32000000 		.4byte	.LVL36
 7413 06dd 36000000 		.4byte	.LVL37
 7414 06e1 0200     		.2byte	0x2
 7415 06e3 30       		.byte	0x30
 7416 06e4 9F       		.byte	0x9f
 7417 06e5 00000000 		.4byte	0
 7418 06e9 00000000 		.4byte	0
 7419              	.LVUS12:
 7420 06ed 03       		.uleb128 .LVU95
 7421 06ee 00       		.uleb128 .LVU99
 7422 06ef 00       		.uleb128 .LVU99
 7423 06f0 00       		.uleb128 .LVU113
 7424 06f1 00       		.uleb128 .LVU114
 7425 06f2 00       		.uleb128 0
 7426              	.LLST12:
 7427 06f3 04000000 		.4byte	.LVL25
 7428 06f7 0A000000 		.4byte	.LVL27
 7429 06fb 0200     		.2byte	0x2
 7430 06fd 30       		.byte	0x30
 7431 06fe 9F       		.byte	0x9f
 7432 06ff 0A000000 		.4byte	.LVL27
 7433 0703 28000000 		.4byte	.LVL34
 7434 0707 0100     		.2byte	0x1
 7435 0709 52       		.byte	0x52
 7436 070a 2A000000 		.4byte	.LVL35
 7437 070e 3A000000 		.4byte	.LFE8
 7438 0712 0100     		.2byte	0x1
 7439 0714 52       		.byte	0x52
 7440 0715 00000000 		.4byte	0
 7441 0719 00000000 		.4byte	0
 7442              	.LVUS6:
 7443 071d 00       		.uleb128 0
 7444 071e 00       		.uleb128 .LVU56
ARM GAS  C:\Users\jens-\AppData\Local\Temp\cc4C0Tnp.s 			page 167


 7445 071f 00       		.uleb128 .LVU56
 7446 0720 00       		.uleb128 .LVU71
 7447 0721 00       		.uleb128 .LVU71
 7448 0722 00       		.uleb128 0
 7449              	.LLST6:
 7450 0723 00000000 		.4byte	.LVL16
 7451 0727 08000000 		.4byte	.LVL17
 7452 072b 0100     		.2byte	0x1
 7453 072d 50       		.byte	0x50
 7454 072e 08000000 		.4byte	.LVL17
 7455 0732 26000000 		.4byte	.LVL18
 7456 0736 0100     		.2byte	0x1
 7457 0738 54       		.byte	0x54
 7458 0739 26000000 		.4byte	.LVL18
 7459 073d 54000000 		.4byte	.LFE7
 7460 0741 0400     		.2byte	0x4
 7461 0743 F3       		.byte	0xf3
 7462 0744 01       		.uleb128 0x1
 7463 0745 50       		.byte	0x50
 7464 0746 9F       		.byte	0x9f
 7465 0747 00000000 		.4byte	0
 7466 074b 00000000 		.4byte	0
 7467              	.LVUS7:
 7468 074f 00       		.uleb128 0
 7469 0750 00       		.uleb128 .LVU74
 7470 0751 00       		.uleb128 .LVU74
 7471 0752 00       		.uleb128 .LVU86
 7472 0753 00       		.uleb128 .LVU86
 7473 0754 00       		.uleb128 .LVU89
 7474 0755 00       		.uleb128 .LVU89
 7475 0756 00       		.uleb128 0
 7476              	.LLST7:
 7477 0757 00000000 		.4byte	.LVL16
 7478 075b 2C000000 		.4byte	.LVL19
 7479 075f 0100     		.2byte	0x1
 7480 0761 51       		.byte	0x51
 7481 0762 2C000000 		.4byte	.LVL19
 7482 0766 4C000000 		.4byte	.LVL21
 7483 076a 0400     		.2byte	0x4
 7484 076c F3       		.byte	0xf3
 7485 076d 01       		.uleb128 0x1
 7486 076e 51       		.byte	0x51
 7487 076f 9F       		.byte	0x9f
 7488 0770 4C000000 		.4byte	.LVL21
 7489 0774 50000000 		.4byte	.LVL23
 7490 0778 0100     		.2byte	0x1
 7491 077a 51       		.byte	0x51
 7492 077b 50000000 		.4byte	.LVL23
 7493 077f 54000000 		.4byte	.LFE7
 7494 0783 0400     		.2byte	0x4
 7495 0785 F3       		.byte	0xf3
 7496 0786 01       		.uleb128 0x1
 7497 0787 51       		.byte	0x51
 7498 0788 9F       		.byte	0x9f
 7499 0789 00000000 		.4byte	0
 7500 078d 00000000 		.4byte	0
 7501              	.LVUS8:
ARM GAS  C:\Users\jens-\AppData\Local\Temp\cc4C0Tnp.s 			page 168


 7502 0791 00       		.uleb128 0
 7503 0792 00       		.uleb128 .LVU76
 7504 0793 00       		.uleb128 .LVU76
 7505 0794 00       		.uleb128 .LVU86
 7506 0795 00       		.uleb128 .LVU86
 7507 0796 00       		.uleb128 .LVU88
 7508 0797 00       		.uleb128 .LVU88
 7509 0798 00       		.uleb128 0
 7510              	.LLST8:
 7511 0799 00000000 		.4byte	.LVL16
 7512 079d 32000000 		.4byte	.LVL20
 7513 07a1 0100     		.2byte	0x1
 7514 07a3 53       		.byte	0x53
 7515 07a4 32000000 		.4byte	.LVL20
 7516 07a8 4C000000 		.4byte	.LVL21
 7517 07ac 0400     		.2byte	0x4
 7518 07ae F3       		.byte	0xf3
 7519 07af 01       		.uleb128 0x1
 7520 07b0 53       		.byte	0x53
 7521 07b1 9F       		.byte	0x9f
 7522 07b2 4C000000 		.4byte	.LVL21
 7523 07b6 4E000000 		.4byte	.LVL22
 7524 07ba 0100     		.2byte	0x1
 7525 07bc 53       		.byte	0x53
 7526 07bd 4E000000 		.4byte	.LVL22
 7527 07c1 54000000 		.4byte	.LFE7
 7528 07c5 0400     		.2byte	0x4
 7529 07c7 F3       		.byte	0xf3
 7530 07c8 01       		.uleb128 0x1
 7531 07c9 53       		.byte	0x53
 7532 07ca 9F       		.byte	0x9f
 7533 07cb 00000000 		.4byte	0
 7534 07cf 00000000 		.4byte	0
 7535              	.LVUS4:
 7536 07d3 00       		.uleb128 0
 7537 07d4 00       		.uleb128 .LVU37
 7538 07d5 00       		.uleb128 .LVU37
 7539 07d6 00       		.uleb128 0
 7540              	.LLST4:
 7541 07d7 00000000 		.4byte	.LVL11
 7542 07db 04000000 		.4byte	.LVL12
 7543 07df 0100     		.2byte	0x1
 7544 07e1 50       		.byte	0x50
 7545 07e2 04000000 		.4byte	.LVL12
 7546 07e6 1A000000 		.4byte	.LFE6
 7547 07ea 0100     		.2byte	0x1
 7548 07ec 52       		.byte	0x52
 7549 07ed 00000000 		.4byte	0
 7550 07f1 00000000 		.4byte	0
 7551              	.LVUS5:
 7552 07f5 00       		.uleb128 .LVU37
 7553 07f6 00       		.uleb128 .LVU47
 7554 07f7 00       		.uleb128 .LVU47
 7555 07f8 00       		.uleb128 .LVU49
 7556 07f9 00       		.uleb128 .LVU49
 7557 07fa 00       		.uleb128 0
 7558              	.LLST5:
ARM GAS  C:\Users\jens-\AppData\Local\Temp\cc4C0Tnp.s 			page 169


 7559 07fb 04000000 		.4byte	.LVL12
 7560 07ff 16000000 		.4byte	.LVL14
 7561 0803 0100     		.2byte	0x1
 7562 0805 50       		.byte	0x50
 7563 0806 16000000 		.4byte	.LVL14
 7564 080a 18000000 		.4byte	.LVL15
 7565 080e 0200     		.2byte	0x2
 7566 0810 30       		.byte	0x30
 7567 0811 9F       		.byte	0x9f
 7568 0812 18000000 		.4byte	.LVL15
 7569 0816 1A000000 		.4byte	.LFE6
 7570 081a 0100     		.2byte	0x1
 7571 081c 50       		.byte	0x50
 7572 081d 00000000 		.4byte	0
 7573 0821 00000000 		.4byte	0
 7574              	.LVUS0:
 7575 0825 01       		.uleb128 .LVU3
 7576 0826 00       		.uleb128 .LVU13
 7577 0827 00       		.uleb128 .LVU13
 7578 0828 00       		.uleb128 .LVU17
 7579 0829 00       		.uleb128 .LVU24
 7580 082a 00       		.uleb128 .LVU31
 7581              	.LLST0:
 7582 082b 02000000 		.4byte	.LVL1
 7583 082f 0C000000 		.4byte	.LVL4
 7584 0833 0200     		.2byte	0x2
 7585 0835 30       		.byte	0x30
 7586 0836 9F       		.byte	0x9f
 7587 0837 0C000000 		.4byte	.LVL4
 7588 083b 12000000 		.4byte	.LVL6
 7589 083f 0100     		.2byte	0x1
 7590 0841 53       		.byte	0x53
 7591 0842 20000000 		.4byte	.LVL7
 7592 0846 2E000000 		.4byte	.LVL9
 7593 084a 0100     		.2byte	0x1
 7594 084c 53       		.byte	0x53
 7595 084d 00000000 		.4byte	0
 7596 0851 00000000 		.4byte	0
 7597              	.LVUS1:
 7598 0855 02       		.uleb128 .LVU4
 7599 0856 00       		.uleb128 .LVU13
 7600 0857 00       		.uleb128 .LVU13
 7601 0858 01       		.uleb128 .LVU28
 7602 0859 01       		.uleb128 .LVU28
 7603 085a 00       		.uleb128 .LVU31
 7604 085b 00       		.uleb128 .LVU31
 7605 085c 00       		.uleb128 .LVU32
 7606              	.LLST1:
 7607 085d 02000000 		.4byte	.LVL1
 7608 0861 0C000000 		.4byte	.LVL4
 7609 0865 0200     		.2byte	0x2
 7610 0867 30       		.byte	0x30
 7611 0868 9F       		.byte	0x9f
 7612 0869 0C000000 		.4byte	.LVL4
 7613 086d 28000000 		.4byte	.LVL8
 7614 0871 0100     		.2byte	0x1
 7615 0873 56       		.byte	0x56
ARM GAS  C:\Users\jens-\AppData\Local\Temp\cc4C0Tnp.s 			page 170


 7616 0874 28000000 		.4byte	.LVL8
 7617 0878 2E000000 		.4byte	.LVL9
 7618 087c 0100     		.2byte	0x1
 7619 087e 53       		.byte	0x53
 7620 087f 2E000000 		.4byte	.LVL9
 7621 0883 30000000 		.4byte	.LVL10
 7622 0887 0100     		.2byte	0x1
 7623 0889 56       		.byte	0x56
 7624 088a 00000000 		.4byte	0
 7625 088e 00000000 		.4byte	0
 7626              	.LVUS2:
 7627 0892 01       		.uleb128 .LVU10
 7628 0893 00       		.uleb128 .LVU13
 7629 0894 00       		.uleb128 .LVU13
 7630 0895 00       		.uleb128 .LVU32
 7631              	.LLST2:
 7632 0896 06000000 		.4byte	.LVL3
 7633 089a 0C000000 		.4byte	.LVL4
 7634 089e 0200     		.2byte	0x2
 7635 08a0 30       		.byte	0x30
 7636 08a1 9F       		.byte	0x9f
 7637 08a2 0C000000 		.4byte	.LVL4
 7638 08a6 30000000 		.4byte	.LVL10
 7639 08aa 0100     		.2byte	0x1
 7640 08ac 54       		.byte	0x54
 7641 08ad 00000000 		.4byte	0
 7642 08b1 00000000 		.4byte	0
 7643              	.LVUS3:
 7644 08b5 00       		.uleb128 .LVU7
 7645 08b6 00       		.uleb128 0
 7646              	.LLST3:
 7647 08b7 04000000 		.4byte	.LVL2
 7648 08bb 32000000 		.4byte	.LFE5
 7649 08bf 0100     		.2byte	0x1
 7650 08c1 52       		.byte	0x52
 7651 08c2 00000000 		.4byte	0
 7652 08c6 00000000 		.4byte	0
 7653              	.LVUS93:
 7654 08ca 00       		.uleb128 0
 7655 08cb 00       		.uleb128 .LVU773
 7656 08cc 00       		.uleb128 .LVU773
 7657 08cd 00       		.uleb128 0
 7658              	.LLST93:
 7659 08ce 00000000 		.4byte	.LVL281
 7660 08d2 04000000 		.4byte	.LVL282
 7661 08d6 0100     		.2byte	0x1
 7662 08d8 50       		.byte	0x50
 7663 08d9 04000000 		.4byte	.LVL282
 7664 08dd 06000000 		.4byte	.LFE4
 7665 08e1 0400     		.2byte	0x4
 7666 08e3 F3       		.byte	0xf3
 7667 08e4 01       		.uleb128 0x1
 7668 08e5 50       		.byte	0x50
 7669 08e6 9F       		.byte	0x9f
 7670 08e7 00000000 		.4byte	0
 7671 08eb 00000000 		.4byte	0
 7672              	.LVUS88:
ARM GAS  C:\Users\jens-\AppData\Local\Temp\cc4C0Tnp.s 			page 171


 7673 08ef 00       		.uleb128 0
 7674 08f0 00       		.uleb128 .LVU733
 7675 08f1 00       		.uleb128 .LVU733
 7676 08f2 00       		.uleb128 0
 7677              	.LLST88:
 7678 08f3 00000000 		.4byte	.LVL262
 7679 08f7 12000000 		.4byte	.LVL264
 7680 08fb 0100     		.2byte	0x1
 7681 08fd 50       		.byte	0x50
 7682 08fe 12000000 		.4byte	.LVL264
 7683 0902 66000000 		.4byte	.LFE3
 7684 0906 0100     		.2byte	0x1
 7685 0908 56       		.byte	0x56
 7686 0909 00000000 		.4byte	0
 7687 090d 00000000 		.4byte	0
 7688              	.LVUS89:
 7689 0911 00       		.uleb128 .LVU750
 7690 0912 00       		.uleb128 .LVU765
 7691              	.LLST89:
 7692 0913 3A000000 		.4byte	.LVL272
 7693 0917 5E000000 		.4byte	.LVL279
 7694 091b 0100     		.2byte	0x1
 7695 091d 55       		.byte	0x55
 7696 091e 00000000 		.4byte	0
 7697 0922 00000000 		.4byte	0
 7698              	.LVUS90:
 7699 0926 00       		.uleb128 .LVU736
 7700 0927 00       		.uleb128 .LVU740
 7701 0928 00       		.uleb128 .LVU740
 7702 0929 00       		.uleb128 .LVU745
 7703 092a 00       		.uleb128 .LVU747
 7704 092b 00       		.uleb128 .LVU749
 7705 092c 00       		.uleb128 .LVU753
 7706 092d 00       		.uleb128 .LVU763
 7707 092e 00       		.uleb128 .LVU768
 7708 092f 00       		.uleb128 0
 7709              	.LLST90:
 7710 0930 18000000 		.4byte	.LVL266
 7711 0934 1C000000 		.4byte	.LVL267
 7712 0938 0100     		.2byte	0x1
 7713 093a 53       		.byte	0x53
 7714 093b 1C000000 		.4byte	.LVL267
 7715 093f 26000000 		.4byte	.LVL269
 7716 0943 0200     		.2byte	0x2
 7717 0945 74       		.byte	0x74
 7718 0946 00       		.sleb128 0
 7719 0947 2C000000 		.4byte	.LVL270
 7720 094b 35000000 		.4byte	.LVL271-1
 7721 094f 0200     		.2byte	0x2
 7722 0951 74       		.byte	0x74
 7723 0952 00       		.sleb128 0
 7724 0953 3E000000 		.4byte	.LVL273
 7725 0957 5A000000 		.4byte	.LVL278
 7726 095b 0100     		.2byte	0x1
 7727 095d 54       		.byte	0x54
 7728 095e 62000000 		.4byte	.LVL280
 7729 0962 66000000 		.4byte	.LFE3
ARM GAS  C:\Users\jens-\AppData\Local\Temp\cc4C0Tnp.s 			page 172


 7730 0966 0100     		.2byte	0x1
 7731 0968 53       		.byte	0x53
 7732 0969 00000000 		.4byte	0
 7733 096d 00000000 		.4byte	0
 7734              	.LVUS91:
 7735 0971 02       		.uleb128 .LVU731
 7736 0972 00       		.uleb128 .LVU750
 7737 0973 00       		.uleb128 .LVU750
 7738 0974 00       		.uleb128 .LVU754
 7739 0975 00       		.uleb128 .LVU761
 7740 0976 00       		.uleb128 .LVU768
 7741 0977 00       		.uleb128 .LVU768
 7742 0978 00       		.uleb128 0
 7743              	.LLST91:
 7744 0979 0A000000 		.4byte	.LVL263
 7745 097d 3A000000 		.4byte	.LVL272
 7746 0981 0200     		.2byte	0x2
 7747 0983 34       		.byte	0x34
 7748 0984 9F       		.byte	0x9f
 7749 0985 3A000000 		.4byte	.LVL272
 7750 0989 46000000 		.4byte	.LVL274
 7751 098d 0100     		.2byte	0x1
 7752 098f 50       		.byte	0x50
 7753 0990 58000000 		.4byte	.LVL277
 7754 0994 62000000 		.4byte	.LVL280
 7755 0998 0100     		.2byte	0x1
 7756 099a 50       		.byte	0x50
 7757 099b 62000000 		.4byte	.LVL280
 7758 099f 66000000 		.4byte	.LFE3
 7759 09a3 0200     		.2byte	0x2
 7760 09a5 34       		.byte	0x34
 7761 09a6 9F       		.byte	0x9f
 7762 09a7 00000000 		.4byte	0
 7763 09ab 00000000 		.4byte	0
 7764              	.LVUS92:
 7765 09af 00       		.uleb128 .LVU742
 7766 09b0 00       		.uleb128 .LVU765
 7767              	.LLST92:
 7768 09b1 22000000 		.4byte	.LVL268
 7769 09b5 5E000000 		.4byte	.LVL279
 7770 09b9 0100     		.2byte	0x1
 7771 09bb 57       		.byte	0x57
 7772 09bc 00000000 		.4byte	0
 7773 09c0 00000000 		.4byte	0
 7774              	.LVUS73:
 7775 09c4 00       		.uleb128 0
 7776 09c5 00       		.uleb128 .LVU608
 7777 09c6 00       		.uleb128 .LVU608
 7778 09c7 00       		.uleb128 .LVU714
 7779 09c8 00       		.uleb128 .LVU714
 7780 09c9 00       		.uleb128 .LVU716
 7781 09ca 00       		.uleb128 .LVU718
 7782 09cb 00       		.uleb128 .LVU719
 7783 09cc 00       		.uleb128 .LVU719
 7784 09cd 00       		.uleb128 .LVU720
 7785 09ce 00       		.uleb128 .LVU720
 7786 09cf 00       		.uleb128 .LVU721
ARM GAS  C:\Users\jens-\AppData\Local\Temp\cc4C0Tnp.s 			page 173


 7787 09d0 00       		.uleb128 .LVU721
 7788 09d1 00       		.uleb128 0
 7789              	.LLST73:
 7790 09d2 00000000 		.4byte	.LVL204
 7791 09d6 48000000 		.4byte	.LVL212
 7792 09da 0100     		.2byte	0x1
 7793 09dc 50       		.byte	0x50
 7794 09dd 48000000 		.4byte	.LVL212
 7795 09e1 60010000 		.4byte	.LVL256
 7796 09e5 0100     		.2byte	0x1
 7797 09e7 59       		.byte	0x59
 7798 09e8 60010000 		.4byte	.LVL256
 7799 09ec 62010000 		.4byte	.LVL257
 7800 09f0 0100     		.2byte	0x1
 7801 09f2 50       		.byte	0x50
 7802 09f3 68010000 		.4byte	.LVL258
 7803 09f7 6A010000 		.4byte	.LVL259
 7804 09fb 0100     		.2byte	0x1
 7805 09fd 50       		.byte	0x50
 7806 09fe 6A010000 		.4byte	.LVL259
 7807 0a02 6C010000 		.4byte	.LVL260
 7808 0a06 0100     		.2byte	0x1
 7809 0a08 59       		.byte	0x59
 7810 0a09 6C010000 		.4byte	.LVL260
 7811 0a0d 6E010000 		.4byte	.LVL261
 7812 0a11 0100     		.2byte	0x1
 7813 0a13 50       		.byte	0x50
 7814 0a14 6E010000 		.4byte	.LVL261
 7815 0a18 74010000 		.4byte	.LFE2
 7816 0a1c 0100     		.2byte	0x1
 7817 0a1e 59       		.byte	0x59
 7818 0a1f 00000000 		.4byte	0
 7819 0a23 00000000 		.4byte	0
 7820              	.LVUS74:
 7821 0a27 00       		.uleb128 0
 7822 0a28 00       		.uleb128 .LVU609
 7823 0a29 00       		.uleb128 .LVU609
 7824 0a2a 00       		.uleb128 .LVU714
 7825 0a2b 00       		.uleb128 .LVU714
 7826 0a2c 00       		.uleb128 .LVU716
 7827 0a2d 00       		.uleb128 .LVU716
 7828 0a2e 00       		.uleb128 .LVU718
 7829 0a2f 00       		.uleb128 .LVU718
 7830 0a30 00       		.uleb128 0
 7831              	.LLST74:
 7832 0a31 00000000 		.4byte	.LVL204
 7833 0a35 4A000000 		.4byte	.LVL213
 7834 0a39 0100     		.2byte	0x1
 7835 0a3b 51       		.byte	0x51
 7836 0a3c 4A000000 		.4byte	.LVL213
 7837 0a40 60010000 		.4byte	.LVL256
 7838 0a44 0400     		.2byte	0x4
 7839 0a46 F3       		.byte	0xf3
 7840 0a47 01       		.uleb128 0x1
 7841 0a48 51       		.byte	0x51
 7842 0a49 9F       		.byte	0x9f
 7843 0a4a 60010000 		.4byte	.LVL256
ARM GAS  C:\Users\jens-\AppData\Local\Temp\cc4C0Tnp.s 			page 174


 7844 0a4e 62010000 		.4byte	.LVL257
 7845 0a52 0100     		.2byte	0x1
 7846 0a54 51       		.byte	0x51
 7847 0a55 62010000 		.4byte	.LVL257
 7848 0a59 68010000 		.4byte	.LVL258
 7849 0a5d 0400     		.2byte	0x4
 7850 0a5f F3       		.byte	0xf3
 7851 0a60 01       		.uleb128 0x1
 7852 0a61 51       		.byte	0x51
 7853 0a62 9F       		.byte	0x9f
 7854 0a63 68010000 		.4byte	.LVL258
 7855 0a67 74010000 		.4byte	.LFE2
 7856 0a6b 0100     		.2byte	0x1
 7857 0a6d 51       		.byte	0x51
 7858 0a6e 00000000 		.4byte	0
 7859 0a72 00000000 		.4byte	0
 7860              	.LVUS75:
 7861 0a76 00       		.uleb128 0
 7862 0a77 00       		.uleb128 .LVU596
 7863 0a78 00       		.uleb128 .LVU596
 7864 0a79 00       		.uleb128 .LVU714
 7865 0a7a 00       		.uleb128 .LVU714
 7866 0a7b 00       		.uleb128 .LVU716
 7867 0a7c 00       		.uleb128 .LVU718
 7868 0a7d 00       		.uleb128 0
 7869              	.LLST75:
 7870 0a7e 00000000 		.4byte	.LVL204
 7871 0a82 22000000 		.4byte	.LVL208
 7872 0a86 0100     		.2byte	0x1
 7873 0a88 52       		.byte	0x52
 7874 0a89 22000000 		.4byte	.LVL208
 7875 0a8d 60010000 		.4byte	.LVL256
 7876 0a91 0100     		.2byte	0x1
 7877 0a93 5B       		.byte	0x5b
 7878 0a94 60010000 		.4byte	.LVL256
 7879 0a98 62010000 		.4byte	.LVL257
 7880 0a9c 0100     		.2byte	0x1
 7881 0a9e 52       		.byte	0x52
 7882 0a9f 68010000 		.4byte	.LVL258
 7883 0aa3 74010000 		.4byte	.LFE2
 7884 0aa7 0100     		.2byte	0x1
 7885 0aa9 5B       		.byte	0x5b
 7886 0aaa 00000000 		.4byte	0
 7887 0aae 00000000 		.4byte	0
 7888              	.LVUS76:
 7889 0ab2 00       		.uleb128 0
 7890 0ab3 00       		.uleb128 .LVU581
 7891 0ab4 00       		.uleb128 .LVU581
 7892 0ab5 00       		.uleb128 0
 7893              	.LLST76:
 7894 0ab6 00000000 		.4byte	.LVL204
 7895 0aba 0A000000 		.4byte	.LVL206
 7896 0abe 0100     		.2byte	0x1
 7897 0ac0 53       		.byte	0x53
 7898 0ac1 0A000000 		.4byte	.LVL206
 7899 0ac5 74010000 		.4byte	.LFE2
 7900 0ac9 0100     		.2byte	0x1
ARM GAS  C:\Users\jens-\AppData\Local\Temp\cc4C0Tnp.s 			page 175


 7901 0acb 56       		.byte	0x56
 7902 0acc 00000000 		.4byte	0
 7903 0ad0 00000000 		.4byte	0
 7904              	.LVUS77:
 7905 0ad4 01       		.uleb128 .LVU575
 7906 0ad5 00       		.uleb128 .LVU609
 7907 0ad6 00       		.uleb128 .LVU656
 7908 0ad7 00       		.uleb128 .LVU675
 7909 0ad8 00       		.uleb128 .LVU706
 7910 0ad9 00       		.uleb128 .LVU708
 7911 0ada 00       		.uleb128 .LVU713
 7912 0adb 00       		.uleb128 .LVU714
 7913 0adc 00       		.uleb128 .LVU714
 7914 0add 00       		.uleb128 .LVU716
 7915 0ade 00       		.uleb128 .LVU716
 7916 0adf 00       		.uleb128 .LVU718
 7917 0ae0 00       		.uleb128 .LVU718
 7918 0ae1 00       		.uleb128 0
 7919              	.LLST77:
 7920 0ae2 08000000 		.4byte	.LVL205
 7921 0ae6 4A000000 		.4byte	.LVL213
 7922 0aea 0200     		.2byte	0x2
 7923 0aec 31       		.byte	0x31
 7924 0aed 9F       		.byte	0x9f
 7925 0aee D6000000 		.4byte	.LVL236
 7926 0af2 FE000000 		.4byte	.LVL242
 7927 0af6 0100     		.2byte	0x1
 7928 0af8 50       		.byte	0x50
 7929 0af9 4E010000 		.4byte	.LVL251
 7930 0afd 50010000 		.4byte	.LVL252
 7931 0b01 0100     		.2byte	0x1
 7932 0b03 50       		.byte	0x50
 7933 0b04 5E010000 		.4byte	.LVL255
 7934 0b08 60010000 		.4byte	.LVL256
 7935 0b0c 0100     		.2byte	0x1
 7936 0b0e 50       		.byte	0x50
 7937 0b0f 60010000 		.4byte	.LVL256
 7938 0b13 62010000 		.4byte	.LVL257
 7939 0b17 0200     		.2byte	0x2
 7940 0b19 31       		.byte	0x31
 7941 0b1a 9F       		.byte	0x9f
 7942 0b1b 62010000 		.4byte	.LVL257
 7943 0b1f 68010000 		.4byte	.LVL258
 7944 0b23 0100     		.2byte	0x1
 7945 0b25 50       		.byte	0x50
 7946 0b26 68010000 		.4byte	.LVL258
 7947 0b2a 74010000 		.4byte	.LFE2
 7948 0b2e 0200     		.2byte	0x2
 7949 0b30 31       		.byte	0x31
 7950 0b31 9F       		.byte	0x9f
 7951 0b32 00000000 		.4byte	0
 7952 0b36 00000000 		.4byte	0
 7953              	.LVUS78:
 7954 0b3a 00       		.uleb128 .LVU613
 7955 0b3b 00       		.uleb128 .LVU653
 7956 0b3c 00       		.uleb128 .LVU654
 7957 0b3d 00       		.uleb128 .LVU668
ARM GAS  C:\Users\jens-\AppData\Local\Temp\cc4C0Tnp.s 			page 176


 7958 0b3e 00       		.uleb128 .LVU706
 7959 0b3f 00       		.uleb128 .LVU714
 7960              	.LLST78:
 7961 0b40 5C000000 		.4byte	.LVL216
 7962 0b44 C8000000 		.4byte	.LVL234
 7963 0b48 0100     		.2byte	0x1
 7964 0b4a 54       		.byte	0x54
 7965 0b4b CC000000 		.4byte	.LVL235
 7966 0b4f EC000000 		.4byte	.LVL239
 7967 0b53 0100     		.2byte	0x1
 7968 0b55 54       		.byte	0x54
 7969 0b56 4E010000 		.4byte	.LVL251
 7970 0b5a 60010000 		.4byte	.LVL256
 7971 0b5e 0100     		.2byte	0x1
 7972 0b60 54       		.byte	0x54
 7973 0b61 00000000 		.4byte	0
 7974 0b65 00000000 		.4byte	0
 7975              	.LVUS79:
 7976 0b69 01       		.uleb128 .LVU606
 7977 0b6a 00       		.uleb128 .LVU609
 7978 0b6b 00       		.uleb128 .LVU609
 7979 0b6c 00       		.uleb128 .LVU714
 7980              	.LLST79:
 7981 0b6d 44000000 		.4byte	.LVL211
 7982 0b71 4A000000 		.4byte	.LVL213
 7983 0b75 0200     		.2byte	0x2
 7984 0b77 30       		.byte	0x30
 7985 0b78 9F       		.byte	0x9f
 7986 0b79 4A000000 		.4byte	.LVL213
 7987 0b7d 60010000 		.4byte	.LVL256
 7988 0b81 0100     		.2byte	0x1
 7989 0b83 5A       		.byte	0x5a
 7990 0b84 00000000 		.4byte	0
 7991 0b88 00000000 		.4byte	0
 7992              	.LVUS80:
 7993 0b8c 00       		.uleb128 .LVU618
 7994 0b8d 00       		.uleb128 .LVU622
 7995 0b8e 00       		.uleb128 .LVU636
 7996 0b8f 00       		.uleb128 .LVU638
 7997              	.LLST80:
 7998 0b90 70000000 		.4byte	.LVL218
 7999 0b94 74000000 		.4byte	.LVL219
 8000 0b98 0100     		.2byte	0x1
 8001 0b9a 53       		.byte	0x53
 8002 0b9b 90000000 		.4byte	.LVL224
 8003 0b9f A1000000 		.4byte	.LVL225-1
 8004 0ba3 0100     		.2byte	0x1
 8005 0ba5 53       		.byte	0x53
 8006 0ba6 00000000 		.4byte	0
 8007 0baa 00000000 		.4byte	0
 8008              	.LVUS81:
 8009 0bae 00       		.uleb128 .LVU615
 8010 0baf 00       		.uleb128 .LVU624
 8011 0bb0 00       		.uleb128 .LVU635
 8012 0bb1 00       		.uleb128 .LVU636
 8013 0bb2 00       		.uleb128 .LVU636
 8014 0bb3 00       		.uleb128 .LVU644
ARM GAS  C:\Users\jens-\AppData\Local\Temp\cc4C0Tnp.s 			page 177


 8015 0bb4 00       		.uleb128 .LVU644
 8016 0bb5 00       		.uleb128 .LVU646
 8017 0bb6 00       		.uleb128 .LVU646
 8018 0bb7 00       		.uleb128 .LVU648
 8019 0bb8 00       		.uleb128 .LVU658
 8020 0bb9 00       		.uleb128 .LVU662
 8021 0bba 00       		.uleb128 .LVU706
 8022 0bbb 00       		.uleb128 .LVU710
 8023 0bbc 00       		.uleb128 .LVU710
 8024 0bbd 00       		.uleb128 .LVU712
 8025 0bbe 00       		.uleb128 .LVU712
 8026 0bbf 00       		.uleb128 .LVU713
 8027              	.LLST81:
 8028 0bc0 5E000000 		.4byte	.LVL217
 8029 0bc4 76000000 		.4byte	.LVL220
 8030 0bc8 0100     		.2byte	0x1
 8031 0bca 55       		.byte	0x55
 8032 0bcb 8E000000 		.4byte	.LVL223
 8033 0bcf 90000000 		.4byte	.LVL224
 8034 0bd3 0100     		.2byte	0x1
 8035 0bd5 50       		.byte	0x50
 8036 0bd6 90000000 		.4byte	.LVL224
 8037 0bda AC000000 		.4byte	.LVL229
 8038 0bde 0100     		.2byte	0x1
 8039 0be0 55       		.byte	0x55
 8040 0be1 AC000000 		.4byte	.LVL229
 8041 0be5 B2000000 		.4byte	.LVL230
 8042 0be9 0300     		.2byte	0x3
 8043 0beb 71       		.byte	0x71
 8044 0bec 0C       		.sleb128 12
 8045 0bed 9F       		.byte	0x9f
 8046 0bee B2000000 		.4byte	.LVL230
 8047 0bf2 B9000000 		.4byte	.LVL232-1
 8048 0bf6 0100     		.2byte	0x1
 8049 0bf8 51       		.byte	0x51
 8050 0bf9 D8000000 		.4byte	.LVL237
 8051 0bfd E0000000 		.4byte	.LVL238
 8052 0c01 0100     		.2byte	0x1
 8053 0c03 52       		.byte	0x52
 8054 0c04 4E010000 		.4byte	.LVL251
 8055 0c08 54010000 		.4byte	.LVL253
 8056 0c0c 0100     		.2byte	0x1
 8057 0c0e 52       		.byte	0x52
 8058 0c0f 54010000 		.4byte	.LVL253
 8059 0c13 5A010000 		.4byte	.LVL254
 8060 0c17 0600     		.2byte	0x6
 8061 0c19 70       		.byte	0x70
 8062 0c1a 00       		.sleb128 0
 8063 0c1b 73       		.byte	0x73
 8064 0c1c 00       		.sleb128 0
 8065 0c1d 22       		.byte	0x22
 8066 0c1e 9F       		.byte	0x9f
 8067 0c1f 5A010000 		.4byte	.LVL254
 8068 0c23 5D010000 		.4byte	.LVL255-1
 8069 0c27 0100     		.2byte	0x1
 8070 0c29 50       		.byte	0x50
 8071 0c2a 00000000 		.4byte	0
ARM GAS  C:\Users\jens-\AppData\Local\Temp\cc4C0Tnp.s 			page 178


 8072 0c2e 00000000 		.4byte	0
 8073              	.LVUS82:
 8074 0c32 00       		.uleb128 .LVU609
 8075 0c33 00       		.uleb128 .LVU611
 8076 0c34 00       		.uleb128 .LVU686
 8077 0c35 00       		.uleb128 .LVU698
 8078              	.LLST82:
 8079 0c36 4A000000 		.4byte	.LVL213
 8080 0c3a 50000000 		.4byte	.LVL214
 8081 0c3e 0100     		.2byte	0x1
 8082 0c40 51       		.byte	0x51
 8083 0c41 1A010000 		.4byte	.LVL246
 8084 0c45 37010000 		.4byte	.LVL250-1
 8085 0c49 0100     		.2byte	0x1
 8086 0c4b 51       		.byte	0x51
 8087 0c4c 00000000 		.4byte	0
 8088 0c50 00000000 		.4byte	0
 8089              	.LVUS83:
 8090 0c54 00       		.uleb128 .LVU592
 8091 0c55 00       		.uleb128 .LVU609
 8092 0c56 00       		.uleb128 .LVU609
 8093 0c57 00       		.uleb128 .LVU714
 8094 0c58 00       		.uleb128 .LVU714
 8095 0c59 00       		.uleb128 .LVU716
 8096 0c5a 00       		.uleb128 .LVU716
 8097 0c5b 00       		.uleb128 .LVU718
 8098 0c5c 00       		.uleb128 .LVU718
 8099 0c5d 00       		.uleb128 0
 8100              	.LLST83:
 8101 0c5e 14000000 		.4byte	.LVL207
 8102 0c62 4A000000 		.4byte	.LVL213
 8103 0c66 0100     		.2byte	0x1
 8104 0c68 51       		.byte	0x51
 8105 0c69 4A000000 		.4byte	.LVL213
 8106 0c6d 60010000 		.4byte	.LVL256
 8107 0c71 0300     		.2byte	0x3
 8108 0c73 91       		.byte	0x91
 8109 0c74 B47D     		.sleb128 -332
 8110 0c76 60010000 		.4byte	.LVL256
 8111 0c7a 62010000 		.4byte	.LVL257
 8112 0c7e 0100     		.2byte	0x1
 8113 0c80 51       		.byte	0x51
 8114 0c81 62010000 		.4byte	.LVL257
 8115 0c85 68010000 		.4byte	.LVL258
 8116 0c89 0300     		.2byte	0x3
 8117 0c8b 91       		.byte	0x91
 8118 0c8c B47D     		.sleb128 -332
 8119 0c8e 68010000 		.4byte	.LVL258
 8120 0c92 74010000 		.4byte	.LFE2
 8121 0c96 0100     		.2byte	0x1
 8122 0c98 51       		.byte	0x51
 8123 0c99 00000000 		.4byte	0
 8124 0c9d 00000000 		.4byte	0
 8125              	.LVUS84:
 8126 0ca1 00       		.uleb128 .LVU602
 8127 0ca2 00       		.uleb128 .LVU604
 8128 0ca3 00       		.uleb128 .LVU604
ARM GAS  C:\Users\jens-\AppData\Local\Temp\cc4C0Tnp.s 			page 179


 8129 0ca4 00       		.uleb128 .LVU714
 8130              	.LLST84:
 8131 0ca5 40000000 		.4byte	.LVL209
 8132 0ca9 42000000 		.4byte	.LVL210
 8133 0cad 0100     		.2byte	0x1
 8134 0caf 53       		.byte	0x53
 8135 0cb0 42000000 		.4byte	.LVL210
 8136 0cb4 60010000 		.4byte	.LVL256
 8137 0cb8 0300     		.2byte	0x3
 8138 0cba 91       		.byte	0x91
 8139 0cbb B87D     		.sleb128 -328
 8140 0cbd 00000000 		.4byte	0
 8141 0cc1 00000000 		.4byte	0
 8142              	.LVUS85:
 8143 0cc5 00       		.uleb128 .LVU609
 8144 0cc6 00       		.uleb128 .LVU613
 8145 0cc7 00       		.uleb128 .LVU613
 8146 0cc8 00       		.uleb128 .LVU639
 8147 0cc9 00       		.uleb128 .LVU639
 8148 0cca 00       		.uleb128 .LVU640
 8149 0ccb 00       		.uleb128 .LVU640
 8150 0ccc 00       		.uleb128 .LVU653
 8151 0ccd 00       		.uleb128 .LVU653
 8152 0cce 00       		.uleb128 .LVU654
 8153 0ccf 00       		.uleb128 .LVU654
 8154 0cd0 00       		.uleb128 .LVU668
 8155 0cd1 01       		.uleb128 .LVU671
 8156 0cd2 00       		.uleb128 .LVU706
 8157 0cd3 00       		.uleb128 .LVU706
 8158 0cd4 00       		.uleb128 .LVU714
 8159              	.LLST85:
 8160 0cd5 4A000000 		.4byte	.LVL213
 8161 0cd9 5C000000 		.4byte	.LVL216
 8162 0cdd 0200     		.2byte	0x2
 8163 0cdf 30       		.byte	0x30
 8164 0ce0 9F       		.byte	0x9f
 8165 0ce1 5C000000 		.4byte	.LVL216
 8166 0ce5 A4000000 		.4byte	.LVL226
 8167 0ce9 0100     		.2byte	0x1
 8168 0ceb 57       		.byte	0x57
 8169 0cec A4000000 		.4byte	.LVL226
 8170 0cf0 A6000000 		.4byte	.LVL227
 8171 0cf4 0100     		.2byte	0x1
 8172 0cf6 50       		.byte	0x50
 8173 0cf7 A6000000 		.4byte	.LVL227
 8174 0cfb C8000000 		.4byte	.LVL234
 8175 0cff 0100     		.2byte	0x1
 8176 0d01 57       		.byte	0x57
 8177 0d02 C8000000 		.4byte	.LVL234
 8178 0d06 CC000000 		.4byte	.LVL235
 8179 0d0a 0200     		.2byte	0x2
 8180 0d0c 30       		.byte	0x30
 8181 0d0d 9F       		.byte	0x9f
 8182 0d0e CC000000 		.4byte	.LVL235
 8183 0d12 EC000000 		.4byte	.LVL239
 8184 0d16 0100     		.2byte	0x1
 8185 0d18 57       		.byte	0x57
ARM GAS  C:\Users\jens-\AppData\Local\Temp\cc4C0Tnp.s 			page 180


 8186 0d19 F2000000 		.4byte	.LVL240
 8187 0d1d 4E010000 		.4byte	.LVL251
 8188 0d21 0200     		.2byte	0x2
 8189 0d23 30       		.byte	0x30
 8190 0d24 9F       		.byte	0x9f
 8191 0d25 4E010000 		.4byte	.LVL251
 8192 0d29 60010000 		.4byte	.LVL256
 8193 0d2d 0100     		.2byte	0x1
 8194 0d2f 57       		.byte	0x57
 8195 0d30 00000000 		.4byte	0
 8196 0d34 00000000 		.4byte	0
 8197              	.LVUS86:
 8198 0d38 00       		.uleb128 .LVU609
 8199 0d39 00       		.uleb128 .LVU668
 8200 0d3a 00       		.uleb128 .LVU674
 8201 0d3b 00       		.uleb128 .LVU680
 8202 0d3c 00       		.uleb128 .LVU680
 8203 0d3d 00       		.uleb128 .LVU714
 8204              	.LLST86:
 8205 0d3e 4A000000 		.4byte	.LVL213
 8206 0d42 EC000000 		.4byte	.LVL239
 8207 0d46 0100     		.2byte	0x1
 8208 0d48 58       		.byte	0x58
 8209 0d49 F6000000 		.4byte	.LVL241
 8210 0d4d 10010000 		.4byte	.LVL245
 8211 0d51 0100     		.2byte	0x1
 8212 0d53 54       		.byte	0x54
 8213 0d54 10010000 		.4byte	.LVL245
 8214 0d58 60010000 		.4byte	.LVL256
 8215 0d5c 0100     		.2byte	0x1
 8216 0d5e 58       		.byte	0x58
 8217 0d5f 00000000 		.4byte	0
 8218 0d63 00000000 		.4byte	0
 8219              	.LVUS87:
 8220 0d67 00       		.uleb128 .LVU642
 8221 0d68 00       		.uleb128 .LVU647
 8222 0d69 00       		.uleb128 .LVU647
 8223 0d6a 00       		.uleb128 .LVU648
 8224              	.LLST87:
 8225 0d6b A8000000 		.4byte	.LVL228
 8226 0d6f B6000000 		.4byte	.LVL231
 8227 0d73 0A00     		.2byte	0xa
 8228 0d75 91       		.byte	0x91
 8229 0d76 00       		.sleb128 0
 8230 0d77 70       		.byte	0x70
 8231 0d78 00       		.sleb128 0
 8232 0d79 22       		.byte	0x22
 8233 0d7a 0A       		.byte	0xa
 8234 0d7b 2801     		.2byte	0x128
 8235 0d7d 1C       		.byte	0x1c
 8236 0d7e 9F       		.byte	0x9f
 8237 0d7f B6000000 		.4byte	.LVL231
 8238 0d83 B9000000 		.4byte	.LVL232-1
 8239 0d87 0C00     		.2byte	0xc
 8240 0d89 91       		.byte	0x91
 8241 0d8a 00       		.sleb128 0
 8242 0d8b 91       		.byte	0x91
ARM GAS  C:\Users\jens-\AppData\Local\Temp\cc4C0Tnp.s 			page 181


 8243 0d8c D47D     		.sleb128 -300
 8244 0d8e 06       		.byte	0x6
 8245 0d8f 22       		.byte	0x22
 8246 0d90 0A       		.byte	0xa
 8247 0d91 2801     		.2byte	0x128
 8248 0d93 1C       		.byte	0x1c
 8249 0d94 9F       		.byte	0x9f
 8250 0d95 00000000 		.4byte	0
 8251 0d99 00000000 		.4byte	0
 8252              	.LVUS49:
 8253 0d9d 00       		.uleb128 0
 8254 0d9e 00       		.uleb128 .LVU397
 8255 0d9f 00       		.uleb128 .LVU397
 8256 0da0 00       		.uleb128 .LVU445
 8257 0da1 00       		.uleb128 .LVU445
 8258 0da2 00       		.uleb128 .LVU448
 8259 0da3 00       		.uleb128 .LVU448
 8260 0da4 00       		.uleb128 .LVU452
 8261 0da5 00       		.uleb128 .LVU452
 8262 0da6 00       		.uleb128 .LVU567
 8263 0da7 00       		.uleb128 .LVU567
 8264 0da8 00       		.uleb128 .LVU569
 8265 0da9 00       		.uleb128 .LVU569
 8266 0daa 00       		.uleb128 .LVU571
 8267 0dab 00       		.uleb128 .LVU571
 8268 0dac 00       		.uleb128 0
 8269              	.LLST49:
 8270 0dad 00000000 		.4byte	.LVL124
 8271 0db1 28000000 		.4byte	.LVL130
 8272 0db5 0100     		.2byte	0x1
 8273 0db7 50       		.byte	0x50
 8274 0db8 28000000 		.4byte	.LVL130
 8275 0dbc A6000000 		.4byte	.LVL145
 8276 0dc0 0100     		.2byte	0x1
 8277 0dc2 59       		.byte	0x59
 8278 0dc3 A6000000 		.4byte	.LVL145
 8279 0dc7 AC000000 		.4byte	.LVL147
 8280 0dcb 0100     		.2byte	0x1
 8281 0dcd 5B       		.byte	0x5b
 8282 0dce AC000000 		.4byte	.LVL147
 8283 0dd2 B8000000 		.4byte	.LVL151
 8284 0dd6 0100     		.2byte	0x1
 8285 0dd8 59       		.byte	0x59
 8286 0dd9 B8000000 		.4byte	.LVL151
 8287 0ddd E6010000 		.4byte	.LVL201
 8288 0de1 0200     		.2byte	0x2
 8289 0de3 91       		.byte	0x91
 8290 0de4 50       		.sleb128 -48
 8291 0de5 E6010000 		.4byte	.LVL201
 8292 0de9 EA010000 		.4byte	.LVL202
 8293 0ded 0100     		.2byte	0x1
 8294 0def 50       		.byte	0x50
 8295 0df0 EA010000 		.4byte	.LVL202
 8296 0df4 F2010000 		.4byte	.LVL203
 8297 0df8 0400     		.2byte	0x4
 8298 0dfa F3       		.byte	0xf3
 8299 0dfb 01       		.uleb128 0x1
ARM GAS  C:\Users\jens-\AppData\Local\Temp\cc4C0Tnp.s 			page 182


 8300 0dfc 50       		.byte	0x50
 8301 0dfd 9F       		.byte	0x9f
 8302 0dfe F2010000 		.4byte	.LVL203
 8303 0e02 FE010000 		.4byte	.LFE1
 8304 0e06 0100     		.2byte	0x1
 8305 0e08 50       		.byte	0x50
 8306 0e09 00000000 		.4byte	0
 8307 0e0d 00000000 		.4byte	0
 8308              	.LVUS50:
 8309 0e11 00       		.uleb128 0
 8310 0e12 00       		.uleb128 .LVU452
 8311 0e13 00       		.uleb128 .LVU452
 8312 0e14 00       		.uleb128 .LVU567
 8313 0e15 00       		.uleb128 .LVU567
 8314 0e16 00       		.uleb128 .LVU569
 8315 0e17 00       		.uleb128 .LVU569
 8316 0e18 00       		.uleb128 .LVU571
 8317 0e19 00       		.uleb128 .LVU571
 8318 0e1a 00       		.uleb128 0
 8319              	.LLST50:
 8320 0e1b 00000000 		.4byte	.LVL124
 8321 0e1f B8000000 		.4byte	.LVL151
 8322 0e23 0100     		.2byte	0x1
 8323 0e25 51       		.byte	0x51
 8324 0e26 B8000000 		.4byte	.LVL151
 8325 0e2a E6010000 		.4byte	.LVL201
 8326 0e2e 0200     		.2byte	0x2
 8327 0e30 91       		.byte	0x91
 8328 0e31 48       		.sleb128 -56
 8329 0e32 E6010000 		.4byte	.LVL201
 8330 0e36 EA010000 		.4byte	.LVL202
 8331 0e3a 0100     		.2byte	0x1
 8332 0e3c 51       		.byte	0x51
 8333 0e3d EA010000 		.4byte	.LVL202
 8334 0e41 F2010000 		.4byte	.LVL203
 8335 0e45 0200     		.2byte	0x2
 8336 0e47 91       		.byte	0x91
 8337 0e48 48       		.sleb128 -56
 8338 0e49 F2010000 		.4byte	.LVL203
 8339 0e4d FE010000 		.4byte	.LFE1
 8340 0e51 0100     		.2byte	0x1
 8341 0e53 51       		.byte	0x51
 8342 0e54 00000000 		.4byte	0
 8343 0e58 00000000 		.4byte	0
 8344              	.LVUS51:
 8345 0e5c 00       		.uleb128 0
 8346 0e5d 00       		.uleb128 .LVU389
 8347 0e5e 00       		.uleb128 .LVU389
 8348 0e5f 00       		.uleb128 .LVU452
 8349 0e60 00       		.uleb128 .LVU452
 8350 0e61 00       		.uleb128 .LVU567
 8351 0e62 00       		.uleb128 .LVU567
 8352 0e63 00       		.uleb128 .LVU569
 8353 0e64 00       		.uleb128 .LVU569
 8354 0e65 00       		.uleb128 .LVU571
 8355 0e66 00       		.uleb128 .LVU571
 8356 0e67 00       		.uleb128 0
ARM GAS  C:\Users\jens-\AppData\Local\Temp\cc4C0Tnp.s 			page 183


 8357              	.LLST51:
 8358 0e68 00000000 		.4byte	.LVL124
 8359 0e6c 16000000 		.4byte	.LVL127
 8360 0e70 0100     		.2byte	0x1
 8361 0e72 52       		.byte	0x52
 8362 0e73 16000000 		.4byte	.LVL127
 8363 0e77 B8000000 		.4byte	.LVL151
 8364 0e7b 0300     		.2byte	0x3
 8365 0e7d 91       		.byte	0x91
 8366 0e7e B87F     		.sleb128 -72
 8367 0e80 B8000000 		.4byte	.LVL151
 8368 0e84 E6010000 		.4byte	.LVL201
 8369 0e88 0400     		.2byte	0x4
 8370 0e8a F3       		.byte	0xf3
 8371 0e8b 01       		.uleb128 0x1
 8372 0e8c 52       		.byte	0x52
 8373 0e8d 9F       		.byte	0x9f
 8374 0e8e E6010000 		.4byte	.LVL201
 8375 0e92 EA010000 		.4byte	.LVL202
 8376 0e96 0100     		.2byte	0x1
 8377 0e98 52       		.byte	0x52
 8378 0e99 EA010000 		.4byte	.LVL202
 8379 0e9d F2010000 		.4byte	.LVL203
 8380 0ea1 0400     		.2byte	0x4
 8381 0ea3 F3       		.byte	0xf3
 8382 0ea4 01       		.uleb128 0x1
 8383 0ea5 52       		.byte	0x52
 8384 0ea6 9F       		.byte	0x9f
 8385 0ea7 F2010000 		.4byte	.LVL203
 8386 0eab FE010000 		.4byte	.LFE1
 8387 0eaf 0300     		.2byte	0x3
 8388 0eb1 91       		.byte	0x91
 8389 0eb2 B87F     		.sleb128 -72
 8390 0eb4 00000000 		.4byte	0
 8391 0eb8 00000000 		.4byte	0
 8392              	.LVUS52:
 8393 0ebc 00       		.uleb128 0
 8394 0ebd 00       		.uleb128 .LVU391
 8395 0ebe 00       		.uleb128 .LVU391
 8396 0ebf 00       		.uleb128 .LVU446
 8397 0ec0 00       		.uleb128 .LVU446
 8398 0ec1 00       		.uleb128 .LVU448
 8399 0ec2 00       		.uleb128 .LVU448
 8400 0ec3 00       		.uleb128 .LVU452
 8401 0ec4 00       		.uleb128 .LVU452
 8402 0ec5 00       		.uleb128 .LVU502
 8403 0ec6 00       		.uleb128 .LVU502
 8404 0ec7 00       		.uleb128 .LVU503
 8405 0ec8 00       		.uleb128 .LVU503
 8406 0ec9 00       		.uleb128 .LVU506
 8407 0eca 00       		.uleb128 .LVU506
 8408 0ecb 00       		.uleb128 .LVU567
 8409 0ecc 00       		.uleb128 .LVU567
 8410 0ecd 00       		.uleb128 .LVU569
 8411 0ece 00       		.uleb128 .LVU569
 8412 0ecf 00       		.uleb128 .LVU571
 8413 0ed0 00       		.uleb128 .LVU571
ARM GAS  C:\Users\jens-\AppData\Local\Temp\cc4C0Tnp.s 			page 184


 8414 0ed1 00       		.uleb128 0
 8415              	.LLST52:
 8416 0ed2 00000000 		.4byte	.LVL124
 8417 0ed6 1A000000 		.4byte	.LVL128
 8418 0eda 0100     		.2byte	0x1
 8419 0edc 53       		.byte	0x53
 8420 0edd 1A000000 		.4byte	.LVL128
 8421 0ee1 A8000000 		.4byte	.LVL146
 8422 0ee5 0100     		.2byte	0x1
 8423 0ee7 57       		.byte	0x57
 8424 0ee8 A8000000 		.4byte	.LVL146
 8425 0eec AC000000 		.4byte	.LVL147
 8426 0ef0 0100     		.2byte	0x1
 8427 0ef2 59       		.byte	0x59
 8428 0ef3 AC000000 		.4byte	.LVL147
 8429 0ef7 B8000000 		.4byte	.LVL151
 8430 0efb 0100     		.2byte	0x1
 8431 0efd 57       		.byte	0x57
 8432 0efe B8000000 		.4byte	.LVL151
 8433 0f02 38010000 		.4byte	.LVL172
 8434 0f06 0100     		.2byte	0x1
 8435 0f08 59       		.byte	0x59
 8436 0f09 38010000 		.4byte	.LVL172
 8437 0f0d 3A010000 		.4byte	.LVL173
 8438 0f11 0100     		.2byte	0x1
 8439 0f13 57       		.byte	0x57
 8440 0f14 3A010000 		.4byte	.LVL173
 8441 0f18 42010000 		.4byte	.LVL176
 8442 0f1c 0100     		.2byte	0x1
 8443 0f1e 59       		.byte	0x59
 8444 0f1f 42010000 		.4byte	.LVL176
 8445 0f23 E6010000 		.4byte	.LVL201
 8446 0f27 0100     		.2byte	0x1
 8447 0f29 57       		.byte	0x57
 8448 0f2a E6010000 		.4byte	.LVL201
 8449 0f2e EA010000 		.4byte	.LVL202
 8450 0f32 0100     		.2byte	0x1
 8451 0f34 53       		.byte	0x53
 8452 0f35 EA010000 		.4byte	.LVL202
 8453 0f39 F2010000 		.4byte	.LVL203
 8454 0f3d 0400     		.2byte	0x4
 8455 0f3f F3       		.byte	0xf3
 8456 0f40 01       		.uleb128 0x1
 8457 0f41 53       		.byte	0x53
 8458 0f42 9F       		.byte	0x9f
 8459 0f43 F2010000 		.4byte	.LVL203
 8460 0f47 FE010000 		.4byte	.LFE1
 8461 0f4b 0100     		.2byte	0x1
 8462 0f4d 57       		.byte	0x57
 8463 0f4e 00000000 		.4byte	0
 8464 0f52 00000000 		.4byte	0
 8465              	.LVUS53:
 8466 0f56 01       		.uleb128 .LVU376
 8467 0f57 00       		.uleb128 .LVU452
 8468 0f58 00       		.uleb128 .LVU452
 8469 0f59 00       		.uleb128 .LVU454
 8470 0f5a 01       		.uleb128 .LVU459
ARM GAS  C:\Users\jens-\AppData\Local\Temp\cc4C0Tnp.s 			page 185


 8471 0f5b 00       		.uleb128 .LVU495
 8472 0f5c 00       		.uleb128 .LVU499
 8473 0f5d 00       		.uleb128 .LVU503
 8474 0f5e 00       		.uleb128 .LVU503
 8475 0f5f 00       		.uleb128 .LVU505
 8476 0f60 00       		.uleb128 .LVU506
 8477 0f61 00       		.uleb128 .LVU542
 8478 0f62 00       		.uleb128 .LVU542
 8479 0f63 00       		.uleb128 .LVU544
 8480 0f64 00       		.uleb128 .LVU544
 8481 0f65 00       		.uleb128 .LVU567
 8482 0f66 00       		.uleb128 .LVU567
 8483 0f67 00       		.uleb128 .LVU569
 8484 0f68 00       		.uleb128 .LVU569
 8485 0f69 00       		.uleb128 .LVU571
 8486 0f6a 00       		.uleb128 .LVU571
 8487 0f6b 00       		.uleb128 0
 8488              	.LLST53:
 8489 0f6c 06000000 		.4byte	.LVL125
 8490 0f70 B8000000 		.4byte	.LVL151
 8491 0f74 0200     		.2byte	0x2
 8492 0f76 31       		.byte	0x31
 8493 0f77 9F       		.byte	0x9f
 8494 0f78 B8000000 		.4byte	.LVL151
 8495 0f7c BC000000 		.4byte	.LVL152
 8496 0f80 0100     		.2byte	0x1
 8497 0f82 57       		.byte	0x57
 8498 0f83 C6000000 		.4byte	.LVL155
 8499 0f87 18010000 		.4byte	.LVL168
 8500 0f8b 0100     		.2byte	0x1
 8501 0f8d 57       		.byte	0x57
 8502 0f8e 2A010000 		.4byte	.LVL170
 8503 0f92 3A010000 		.4byte	.LVL173
 8504 0f96 0100     		.2byte	0x1
 8505 0f98 50       		.byte	0x50
 8506 0f99 3A010000 		.4byte	.LVL173
 8507 0f9d 3E010000 		.4byte	.LVL175
 8508 0fa1 0100     		.2byte	0x1
 8509 0fa3 57       		.byte	0x57
 8510 0fa4 42010000 		.4byte	.LVL176
 8511 0fa8 A2010000 		.4byte	.LVL194
 8512 0fac 0100     		.2byte	0x1
 8513 0fae 5A       		.byte	0x5a
 8514 0faf A2010000 		.4byte	.LVL194
 8515 0fb3 A8010000 		.4byte	.LVL195
 8516 0fb7 0100     		.2byte	0x1
 8517 0fb9 50       		.byte	0x50
 8518 0fba A8010000 		.4byte	.LVL195
 8519 0fbe E6010000 		.4byte	.LVL201
 8520 0fc2 0100     		.2byte	0x1
 8521 0fc4 5A       		.byte	0x5a
 8522 0fc5 E6010000 		.4byte	.LVL201
 8523 0fc9 EA010000 		.4byte	.LVL202
 8524 0fcd 0200     		.2byte	0x2
 8525 0fcf 31       		.byte	0x31
 8526 0fd0 9F       		.byte	0x9f
 8527 0fd1 EA010000 		.4byte	.LVL202
ARM GAS  C:\Users\jens-\AppData\Local\Temp\cc4C0Tnp.s 			page 186


 8528 0fd5 F2010000 		.4byte	.LVL203
 8529 0fd9 0100     		.2byte	0x1
 8530 0fdb 5A       		.byte	0x5a
 8531 0fdc F2010000 		.4byte	.LVL203
 8532 0fe0 FE010000 		.4byte	.LFE1
 8533 0fe4 0200     		.2byte	0x2
 8534 0fe6 31       		.byte	0x31
 8535 0fe7 9F       		.byte	0x9f
 8536 0fe8 00000000 		.4byte	0
 8537 0fec 00000000 		.4byte	0
 8538              	.LVUS54:
 8539 0ff0 01       		.uleb128 .LVU413
 8540 0ff1 00       		.uleb128 .LVU415
 8541 0ff2 00       		.uleb128 .LVU415
 8542 0ff3 00       		.uleb128 .LVU424
 8543 0ff4 01       		.uleb128 .LVU441
 8544 0ff5 00       		.uleb128 .LVU448
 8545 0ff6 00       		.uleb128 .LVU452
 8546 0ff7 01       		.uleb128 .LVU468
 8547 0ff8 01       		.uleb128 .LVU468
 8548 0ff9 00       		.uleb128 .LVU477
 8549 0ffa 00       		.uleb128 .LVU477
 8550 0ffb 00       		.uleb128 .LVU503
 8551 0ffc 00       		.uleb128 .LVU503
 8552 0ffd 00       		.uleb128 .LVU506
 8553 0ffe 00       		.uleb128 .LVU516
 8554 0fff 00       		.uleb128 .LVU567
 8555              	.LLST54:
 8556 1000 50000000 		.4byte	.LVL135
 8557 1004 54000000 		.4byte	.LVL136
 8558 1008 0200     		.2byte	0x2
 8559 100a 30       		.byte	0x30
 8560 100b 9F       		.byte	0x9f
 8561 100c 54000000 		.4byte	.LVL136
 8562 1010 6E000000 		.4byte	.LVL138
 8563 1014 0100     		.2byte	0x1
 8564 1016 54       		.byte	0x54
 8565 1017 94000000 		.4byte	.LVL144
 8566 101b AC000000 		.4byte	.LVL147
 8567 101f 0200     		.2byte	0x2
 8568 1021 30       		.byte	0x30
 8569 1022 9F       		.byte	0x9f
 8570 1023 B8000000 		.4byte	.LVL151
 8571 1027 D2000000 		.4byte	.LVL159
 8572 102b 0300     		.2byte	0x3
 8573 102d 78       		.byte	0x78
 8574 102e 7F       		.sleb128 -1
 8575 102f 9F       		.byte	0x9f
 8576 1030 D2000000 		.4byte	.LVL159
 8577 1034 E8000000 		.4byte	.LVL162
 8578 1038 0100     		.2byte	0x1
 8579 103a 58       		.byte	0x58
 8580 103b E8000000 		.4byte	.LVL162
 8581 103f 3A010000 		.4byte	.LVL173
 8582 1043 0300     		.2byte	0x3
 8583 1045 78       		.byte	0x78
 8584 1046 7F       		.sleb128 -1
ARM GAS  C:\Users\jens-\AppData\Local\Temp\cc4C0Tnp.s 			page 187


 8585 1047 9F       		.byte	0x9f
 8586 1048 3A010000 		.4byte	.LVL173
 8587 104c 42010000 		.4byte	.LVL176
 8588 1050 0100     		.2byte	0x1
 8589 1052 58       		.byte	0x58
 8590 1053 5A010000 		.4byte	.LVL180
 8591 1057 E6010000 		.4byte	.LVL201
 8592 105b 0100     		.2byte	0x1
 8593 105d 54       		.byte	0x54
 8594 105e 00000000 		.4byte	0
 8595 1062 00000000 		.4byte	0
 8596              	.LVUS55:
 8597 1066 00       		.uleb128 .LVU454
 8598 1067 01       		.uleb128 .LVU468
 8599 1068 00       		.uleb128 .LVU480
 8600 1069 00       		.uleb128 .LVU503
 8601 106a 00       		.uleb128 .LVU533
 8602 106b 00       		.uleb128 .LVU542
 8603 106c 00       		.uleb128 .LVU544
 8604 106d 00       		.uleb128 .LVU546
 8605              	.LLST55:
 8606 106e BC000000 		.4byte	.LVL152
 8607 1072 D2000000 		.4byte	.LVL159
 8608 1076 0100     		.2byte	0x1
 8609 1078 55       		.byte	0x55
 8610 1079 F0000000 		.4byte	.LVL163
 8611 107d 3A010000 		.4byte	.LVL173
 8612 1081 0100     		.2byte	0x1
 8613 1083 55       		.byte	0x55
 8614 1084 90010000 		.4byte	.LVL190
 8615 1088 A1010000 		.4byte	.LVL194-1
 8616 108c 0100     		.2byte	0x1
 8617 108e 53       		.byte	0x53
 8618 108f A8010000 		.4byte	.LVL195
 8619 1093 B1010000 		.4byte	.LVL196-1
 8620 1097 0100     		.2byte	0x1
 8621 1099 53       		.byte	0x53
 8622 109a 00000000 		.4byte	0
 8623 109e 00000000 		.4byte	0
 8624              	.LVUS56:
 8625 10a2 00       		.uleb128 .LVU412
 8626 10a3 00       		.uleb128 .LVU415
 8627 10a4 00       		.uleb128 .LVU415
 8628 10a5 00       		.uleb128 .LVU567
 8629              	.LLST56:
 8630 10a6 50000000 		.4byte	.LVL135
 8631 10aa 54000000 		.4byte	.LVL136
 8632 10ae 0100     		.2byte	0x1
 8633 10b0 53       		.byte	0x53
 8634 10b1 54000000 		.4byte	.LVL136
 8635 10b5 E6010000 		.4byte	.LVL201
 8636 10b9 0300     		.2byte	0x3
 8637 10bb 91       		.byte	0x91
 8638 10bc BC7F     		.sleb128 -68
 8639 10be 00000000 		.4byte	0
 8640 10c2 00000000 		.4byte	0
 8641              	.LVUS57:
ARM GAS  C:\Users\jens-\AppData\Local\Temp\cc4C0Tnp.s 			page 188


 8642 10c6 00       		.uleb128 .LVU452
 8643 10c7 00       		.uleb128 .LVU456
 8644 10c8 00       		.uleb128 .LVU456
 8645 10c9 00       		.uleb128 .LVU461
 8646 10ca 00       		.uleb128 .LVU475
 8647 10cb 00       		.uleb128 .LVU498
 8648 10cc 00       		.uleb128 .LVU498
 8649 10cd 00       		.uleb128 .LVU499
 8650 10ce 00       		.uleb128 .LVU499
 8651 10cf 00       		.uleb128 .LVU503
 8652              	.LLST57:
 8653 10d0 B8000000 		.4byte	.LVL151
 8654 10d4 C0000000 		.4byte	.LVL153
 8655 10d8 0100     		.2byte	0x1
 8656 10da 51       		.byte	0x51
 8657 10db C0000000 		.4byte	.LVL153
 8658 10df C8000000 		.4byte	.LVL156
 8659 10e3 0900     		.2byte	0x9
 8660 10e5 7B       		.byte	0x7b
 8661 10e6 00       		.sleb128 0
 8662 10e7 08       		.byte	0x8
 8663 10e8 7F       		.byte	0x7f
 8664 10e9 1A       		.byte	0x1a
 8665 10ea 23       		.byte	0x23
 8666 10eb 8001     		.uleb128 0x80
 8667 10ed 9F       		.byte	0x9f
 8668 10ee E4000000 		.4byte	.LVL161
 8669 10f2 26010000 		.4byte	.LVL169
 8670 10f6 0100     		.2byte	0x1
 8671 10f8 51       		.byte	0x51
 8672 10f9 26010000 		.4byte	.LVL169
 8673 10fd 29010000 		.4byte	.LVL170-1
 8674 1101 0100     		.2byte	0x1
 8675 1103 52       		.byte	0x52
 8676 1104 29010000 		.4byte	.LVL170-1
 8677 1108 3A010000 		.4byte	.LVL173
 8678 110c 0900     		.2byte	0x9
 8679 110e 7B       		.byte	0x7b
 8680 110f 00       		.sleb128 0
 8681 1110 08       		.byte	0x8
 8682 1111 7F       		.byte	0x7f
 8683 1112 1A       		.byte	0x1a
 8684 1113 23       		.byte	0x23
 8685 1114 8001     		.uleb128 0x80
 8686 1116 9F       		.byte	0x9f
 8687 1117 00000000 		.4byte	0
 8688 111b 00000000 		.4byte	0
 8689              	.LVUS58:
 8690 111f 00       		.uleb128 .LVU452
 8691 1120 00       		.uleb128 .LVU457
 8692 1121 00       		.uleb128 .LVU472
 8693 1122 00       		.uleb128 .LVU491
 8694 1123 00       		.uleb128 .LVU491
 8695 1124 00       		.uleb128 .LVU492
 8696 1125 00       		.uleb128 .LVU492
 8697 1126 00       		.uleb128 .LVU493
 8698 1127 00       		.uleb128 .LVU493
ARM GAS  C:\Users\jens-\AppData\Local\Temp\cc4C0Tnp.s 			page 189


 8699 1128 00       		.uleb128 .LVU499
 8700 1129 00       		.uleb128 .LVU519
 8701 112a 00       		.uleb128 .LVU524
 8702 112b 00       		.uleb128 .LVU524
 8703 112c 00       		.uleb128 .LVU525
 8704 112d 00       		.uleb128 .LVU525
 8705 112e 00       		.uleb128 .LVU526
 8706 112f 00       		.uleb128 .LVU526
 8707 1130 00       		.uleb128 .LVU542
 8708 1131 00       		.uleb128 .LVU544
 8709 1132 00       		.uleb128 .LVU546
 8710 1133 00       		.uleb128 .LVU553
 8711 1134 00       		.uleb128 .LVU567
 8712              	.LLST58:
 8713 1135 B8000000 		.4byte	.LVL151
 8714 1139 C2000000 		.4byte	.LVL154
 8715 113d 0100     		.2byte	0x1
 8716 113f 50       		.byte	0x50
 8717 1140 DC000000 		.4byte	.LVL160
 8718 1144 0E010000 		.4byte	.LVL165
 8719 1148 0100     		.2byte	0x1
 8720 114a 50       		.byte	0x50
 8721 114b 0E010000 		.4byte	.LVL165
 8722 114f 10010000 		.4byte	.LVL166
 8723 1153 0F00     		.2byte	0xf
 8724 1155 74       		.byte	0x74
 8725 1156 00       		.sleb128 0
 8726 1157 38       		.byte	0x38
 8727 1158 24       		.byte	0x24
 8728 1159 73       		.byte	0x73
 8729 115a 00       		.sleb128 0
 8730 115b 38       		.byte	0x38
 8731 115c 24       		.byte	0x24
 8732 115d 1C       		.byte	0x1c
 8733 115e 91       		.byte	0x91
 8734 115f BC7F     		.sleb128 -68
 8735 1161 06       		.byte	0x6
 8736 1162 22       		.byte	0x22
 8737 1163 9F       		.byte	0x9f
 8738 1164 10010000 		.4byte	.LVL166
 8739 1168 14010000 		.4byte	.LVL167
 8740 116c 1000     		.2byte	0x10
 8741 116e 74       		.byte	0x74
 8742 116f 00       		.sleb128 0
 8743 1170 38       		.byte	0x38
 8744 1171 24       		.byte	0x24
 8745 1172 79       		.byte	0x79
 8746 1173 04       		.sleb128 4
 8747 1174 06       		.byte	0x6
 8748 1175 38       		.byte	0x38
 8749 1176 24       		.byte	0x24
 8750 1177 1C       		.byte	0x1c
 8751 1178 91       		.byte	0x91
 8752 1179 BC7F     		.sleb128 -68
 8753 117b 06       		.byte	0x6
 8754 117c 22       		.byte	0x22
 8755 117d 9F       		.byte	0x9f
ARM GAS  C:\Users\jens-\AppData\Local\Temp\cc4C0Tnp.s 			page 190


 8756 117e 14010000 		.4byte	.LVL167
 8757 1182 29010000 		.4byte	.LVL170-1
 8758 1186 0100     		.2byte	0x1
 8759 1188 50       		.byte	0x50
 8760 1189 62010000 		.4byte	.LVL182
 8761 118d 78010000 		.4byte	.LVL184
 8762 1191 0100     		.2byte	0x1
 8763 1193 50       		.byte	0x50
 8764 1194 78010000 		.4byte	.LVL184
 8765 1198 7A010000 		.4byte	.LVL185
 8766 119c 0100     		.2byte	0x1
 8767 119e 5C       		.byte	0x5c
 8768 119f 7A010000 		.4byte	.LVL185
 8769 11a3 7C010000 		.4byte	.LVL186
 8770 11a7 0100     		.2byte	0x1
 8771 11a9 50       		.byte	0x50
 8772 11aa 7C010000 		.4byte	.LVL186
 8773 11ae A1010000 		.4byte	.LVL194-1
 8774 11b2 0100     		.2byte	0x1
 8775 11b4 5C       		.byte	0x5c
 8776 11b5 A8010000 		.4byte	.LVL195
 8777 11b9 B1010000 		.4byte	.LVL196-1
 8778 11bd 0100     		.2byte	0x1
 8779 11bf 5C       		.byte	0x5c
 8780 11c0 C0010000 		.4byte	.LVL198
 8781 11c4 E6010000 		.4byte	.LVL201
 8782 11c8 0100     		.2byte	0x1
 8783 11ca 50       		.byte	0x50
 8784 11cb 00000000 		.4byte	0
 8785 11cf 00000000 		.4byte	0
 8786              	.LVUS59:
 8787 11d3 00       		.uleb128 .LVU427
 8788 11d4 00       		.uleb128 .LVU452
 8789 11d5 00       		.uleb128 .LVU452
 8790 11d6 00       		.uleb128 .LVU567
 8791              	.LLST59:
 8792 11d7 76000000 		.4byte	.LVL140
 8793 11db B8000000 		.4byte	.LVL151
 8794 11df 0100     		.2byte	0x1
 8795 11e1 52       		.byte	0x52
 8796 11e2 B8000000 		.4byte	.LVL151
 8797 11e6 E6010000 		.4byte	.LVL201
 8798 11ea 0200     		.2byte	0x2
 8799 11ec 91       		.byte	0x91
 8800 11ed 44       		.sleb128 -60
 8801 11ee 00000000 		.4byte	0
 8802 11f2 00000000 		.4byte	0
 8803              	.LVUS60:
 8804 11f6 08       		.uleb128 .LVU383
 8805 11f7 00       		.uleb128 .LVU424
 8806 11f8 00       		.uleb128 .LVU424
 8807 11f9 00       		.uleb128 .LVU511
 8808 11fa 00       		.uleb128 .LVU567
 8809 11fb 00       		.uleb128 .LVU569
 8810 11fc 00       		.uleb128 .LVU571
 8811 11fd 00       		.uleb128 0
 8812              	.LLST60:
ARM GAS  C:\Users\jens-\AppData\Local\Temp\cc4C0Tnp.s 			page 191


 8813 11fe 06000000 		.4byte	.LVL125
 8814 1202 6E000000 		.4byte	.LVL138
 8815 1206 0200     		.2byte	0x2
 8816 1208 30       		.byte	0x30
 8817 1209 9F       		.byte	0x9f
 8818 120a 6E000000 		.4byte	.LVL138
 8819 120e 50010000 		.4byte	.LVL177
 8820 1212 0100     		.2byte	0x1
 8821 1214 54       		.byte	0x54
 8822 1215 E6010000 		.4byte	.LVL201
 8823 1219 EA010000 		.4byte	.LVL202
 8824 121d 0200     		.2byte	0x2
 8825 121f 30       		.byte	0x30
 8826 1220 9F       		.byte	0x9f
 8827 1221 F2010000 		.4byte	.LVL203
 8828 1225 FE010000 		.4byte	.LFE1
 8829 1229 0200     		.2byte	0x2
 8830 122b 30       		.byte	0x30
 8831 122c 9F       		.byte	0x9f
 8832 122d 00000000 		.4byte	0
 8833 1231 00000000 		.4byte	0
 8834              	.LVUS61:
 8835 1235 09       		.uleb128 .LVU384
 8836 1236 00       		.uleb128 .LVU424
 8837 1237 00       		.uleb128 .LVU424
 8838 1238 00       		.uleb128 .LVU452
 8839 1239 00       		.uleb128 .LVU567
 8840 123a 00       		.uleb128 .LVU569
 8841 123b 00       		.uleb128 .LVU571
 8842 123c 00       		.uleb128 0
 8843              	.LLST61:
 8844 123d 06000000 		.4byte	.LVL125
 8845 1241 6E000000 		.4byte	.LVL138
 8846 1245 0200     		.2byte	0x2
 8847 1247 30       		.byte	0x30
 8848 1248 9F       		.byte	0x9f
 8849 1249 6E000000 		.4byte	.LVL138
 8850 124d B8000000 		.4byte	.LVL151
 8851 1251 0100     		.2byte	0x1
 8852 1253 54       		.byte	0x54
 8853 1254 E6010000 		.4byte	.LVL201
 8854 1258 EA010000 		.4byte	.LVL202
 8855 125c 0200     		.2byte	0x2
 8856 125e 30       		.byte	0x30
 8857 125f 9F       		.byte	0x9f
 8858 1260 F2010000 		.4byte	.LVL203
 8859 1264 FE010000 		.4byte	.LFE1
 8860 1268 0200     		.2byte	0x2
 8861 126a 30       		.byte	0x30
 8862 126b 9F       		.byte	0x9f
 8863 126c 00000000 		.4byte	0
 8864 1270 00000000 		.4byte	0
 8865              	.LVUS62:
 8866 1274 00       		.uleb128 .LVU386
 8867 1275 00       		.uleb128 .LVU452
 8868 1276 00       		.uleb128 .LVU452
 8869 1277 00       		.uleb128 .LVU517
ARM GAS  C:\Users\jens-\AppData\Local\Temp\cc4C0Tnp.s 			page 192


 8870 1278 00       		.uleb128 .LVU535
 8871 1279 00       		.uleb128 .LVU541
 8872 127a 00       		.uleb128 .LVU541
 8873 127b 00       		.uleb128 .LVU542
 8874 127c 00       		.uleb128 .LVU544
 8875 127d 00       		.uleb128 .LVU546
 8876 127e 00       		.uleb128 .LVU567
 8877 127f 00       		.uleb128 .LVU569
 8878 1280 00       		.uleb128 .LVU571
 8879 1281 00       		.uleb128 0
 8880              	.LLST62:
 8881 1282 08000000 		.4byte	.LVL126
 8882 1286 B8000000 		.4byte	.LVL151
 8883 128a 0100     		.2byte	0x1
 8884 128c 51       		.byte	0x51
 8885 128d B8000000 		.4byte	.LVL151
 8886 1291 5C010000 		.4byte	.LVL181
 8887 1295 0100     		.2byte	0x1
 8888 1297 56       		.byte	0x56
 8889 1298 92010000 		.4byte	.LVL191
 8890 129c 9E010000 		.4byte	.LVL193
 8891 12a0 0100     		.2byte	0x1
 8892 12a2 50       		.byte	0x50
 8893 12a3 9E010000 		.4byte	.LVL193
 8894 12a7 A1010000 		.4byte	.LVL194-1
 8895 12ab 0100     		.2byte	0x1
 8896 12ad 51       		.byte	0x51
 8897 12ae A8010000 		.4byte	.LVL195
 8898 12b2 B1010000 		.4byte	.LVL196-1
 8899 12b6 0100     		.2byte	0x1
 8900 12b8 50       		.byte	0x50
 8901 12b9 E6010000 		.4byte	.LVL201
 8902 12bd EA010000 		.4byte	.LVL202
 8903 12c1 0100     		.2byte	0x1
 8904 12c3 51       		.byte	0x51
 8905 12c4 F2010000 		.4byte	.LVL203
 8906 12c8 FE010000 		.4byte	.LFE1
 8907 12cc 0100     		.2byte	0x1
 8908 12ce 51       		.byte	0x51
 8909 12cf 00000000 		.4byte	0
 8910 12d3 00000000 		.4byte	0
 8911              	.LVUS63:
 8912 12d7 01       		.uleb128 .LVU394
 8913 12d8 00       		.uleb128 .LVU397
 8914 12d9 00       		.uleb128 .LVU397
 8915 12da 00       		.uleb128 .LVU445
 8916 12db 00       		.uleb128 .LVU445
 8917 12dc 00       		.uleb128 .LVU448
 8918 12dd 00       		.uleb128 .LVU448
 8919 12de 00       		.uleb128 .LVU452
 8920 12df 00       		.uleb128 .LVU452
 8921 12e0 00       		.uleb128 .LVU519
 8922 12e1 01       		.uleb128 .LVU527
 8923 12e2 00       		.uleb128 .LVU532
 8924 12e3 00       		.uleb128 .LVU532
 8925 12e4 00       		.uleb128 .LVU540
 8926 12e5 00       		.uleb128 .LVU544
ARM GAS  C:\Users\jens-\AppData\Local\Temp\cc4C0Tnp.s 			page 193


 8927 12e6 00       		.uleb128 .LVU546
 8928              	.LLST63:
 8929 12e7 26000000 		.4byte	.LVL129
 8930 12eb 28000000 		.4byte	.LVL130
 8931 12ef 0100     		.2byte	0x1
 8932 12f1 50       		.byte	0x50
 8933 12f2 28000000 		.4byte	.LVL130
 8934 12f6 A6000000 		.4byte	.LVL145
 8935 12fa 0100     		.2byte	0x1
 8936 12fc 59       		.byte	0x59
 8937 12fd A6000000 		.4byte	.LVL145
 8938 1301 AC000000 		.4byte	.LVL147
 8939 1305 0100     		.2byte	0x1
 8940 1307 5B       		.byte	0x5b
 8941 1308 AC000000 		.4byte	.LVL147
 8942 130c B8000000 		.4byte	.LVL151
 8943 1310 0100     		.2byte	0x1
 8944 1312 59       		.byte	0x59
 8945 1313 B8000000 		.4byte	.LVL151
 8946 1317 62010000 		.4byte	.LVL182
 8947 131b 0100     		.2byte	0x1
 8948 131d 5B       		.byte	0x5b
 8949 131e 7C010000 		.4byte	.LVL186
 8950 1322 8E010000 		.4byte	.LVL189
 8951 1326 1600     		.2byte	0x16
 8952 1328 79       		.byte	0x79
 8953 1329 00       		.sleb128 0
 8954 132a 12       		.byte	0x12
 8955 132b 40       		.byte	0x40
 8956 132c 4B       		.byte	0x4b
 8957 132d 24       		.byte	0x24
 8958 132e 22       		.byte	0x22
 8959 132f 73       		.byte	0x73
 8960 1330 00       		.sleb128 0
 8961 1331 16       		.byte	0x16
 8962 1332 14       		.byte	0x14
 8963 1333 40       		.byte	0x40
 8964 1334 4B       		.byte	0x4b
 8965 1335 24       		.byte	0x24
 8966 1336 22       		.byte	0x22
 8967 1337 2B       		.byte	0x2b
 8968 1338 28       		.byte	0x28
 8969 1339 0100     		.2byte	0x1
 8970 133b 16       		.byte	0x16
 8971 133c 13       		.byte	0x13
 8972 133d 9F       		.byte	0x9f
 8973 133e 8E010000 		.4byte	.LVL189
 8974 1342 98010000 		.4byte	.LVL192
 8975 1346 1700     		.2byte	0x17
 8976 1348 79       		.byte	0x79
 8977 1349 00       		.sleb128 0
 8978 134a 12       		.byte	0x12
 8979 134b 40       		.byte	0x40
 8980 134c 4B       		.byte	0x4b
 8981 134d 24       		.byte	0x24
 8982 134e 22       		.byte	0x22
 8983 134f 7C       		.byte	0x7c
ARM GAS  C:\Users\jens-\AppData\Local\Temp\cc4C0Tnp.s 			page 194


 8984 1350 04       		.sleb128 4
 8985 1351 06       		.byte	0x6
 8986 1352 16       		.byte	0x16
 8987 1353 14       		.byte	0x14
 8988 1354 40       		.byte	0x40
 8989 1355 4B       		.byte	0x4b
 8990 1356 24       		.byte	0x24
 8991 1357 22       		.byte	0x22
 8992 1358 2B       		.byte	0x2b
 8993 1359 28       		.byte	0x28
 8994 135a 0100     		.2byte	0x1
 8995 135c 16       		.byte	0x16
 8996 135d 13       		.byte	0x13
 8997 135e 9F       		.byte	0x9f
 8998 135f A8010000 		.4byte	.LVL195
 8999 1363 B1010000 		.4byte	.LVL196-1
 9000 1367 1700     		.2byte	0x17
 9001 1369 79       		.byte	0x79
 9002 136a 00       		.sleb128 0
 9003 136b 12       		.byte	0x12
 9004 136c 40       		.byte	0x40
 9005 136d 4B       		.byte	0x4b
 9006 136e 24       		.byte	0x24
 9007 136f 22       		.byte	0x22
 9008 1370 7C       		.byte	0x7c
 9009 1371 04       		.sleb128 4
 9010 1372 06       		.byte	0x6
 9011 1373 16       		.byte	0x16
 9012 1374 14       		.byte	0x14
 9013 1375 40       		.byte	0x40
 9014 1376 4B       		.byte	0x4b
 9015 1377 24       		.byte	0x24
 9016 1378 22       		.byte	0x22
 9017 1379 2B       		.byte	0x2b
 9018 137a 28       		.byte	0x28
 9019 137b 0100     		.2byte	0x1
 9020 137d 16       		.byte	0x16
 9021 137e 13       		.byte	0x13
 9022 137f 9F       		.byte	0x9f
 9023 1380 00000000 		.4byte	0
 9024 1384 00000000 		.4byte	0
 9025              	.LVUS64:
 9026 1388 02       		.uleb128 .LVU395
 9027 1389 00       		.uleb128 .LVU463
 9028 138a 00       		.uleb128 .LVU463
 9029 138b 01       		.uleb128 .LVU468
 9030 138c 01       		.uleb128 .LVU468
 9031 138d 00       		.uleb128 .LVU567
 9032              	.LLST64:
 9033 138e 26000000 		.4byte	.LVL129
 9034 1392 CE000000 		.4byte	.LVL157
 9035 1396 0300     		.2byte	0x3
 9036 1398 91       		.byte	0x91
 9037 1399 B87F     		.sleb128 -72
 9038 139b CE000000 		.4byte	.LVL157
 9039 139f D2000000 		.4byte	.LVL159
 9040 13a3 0100     		.2byte	0x1
ARM GAS  C:\Users\jens-\AppData\Local\Temp\cc4C0Tnp.s 			page 195


 9041 13a5 53       		.byte	0x53
 9042 13a6 D2000000 		.4byte	.LVL159
 9043 13aa E6010000 		.4byte	.LVL201
 9044 13ae 0300     		.2byte	0x3
 9045 13b0 91       		.byte	0x91
 9046 13b1 B87F     		.sleb128 -72
 9047 13b3 00000000 		.4byte	0
 9048 13b7 00000000 		.4byte	0
 9049              	.LVUS65:
 9050 13bb 00       		.uleb128 .LVU398
 9051 13bc 00       		.uleb128 .LVU401
 9052 13bd 00       		.uleb128 .LVU401
 9053 13be 00       		.uleb128 .LVU426
 9054 13bf 00       		.uleb128 .LVU426
 9055 13c0 00       		.uleb128 .LVU446
 9056 13c1 00       		.uleb128 .LVU446
 9057 13c2 00       		.uleb128 .LVU448
 9058 13c3 00       		.uleb128 .LVU448
 9059 13c4 00       		.uleb128 .LVU452
 9060 13c5 00       		.uleb128 .LVU452
 9061 13c6 00       		.uleb128 .LVU567
 9062              	.LLST65:
 9063 13c7 2C000000 		.4byte	.LVL131
 9064 13cb 2E000000 		.4byte	.LVL132
 9065 13cf 0100     		.2byte	0x1
 9066 13d1 53       		.byte	0x53
 9067 13d2 2E000000 		.4byte	.LVL132
 9068 13d6 72000000 		.4byte	.LVL139
 9069 13da 0200     		.2byte	0x2
 9070 13dc 70       		.byte	0x70
 9071 13dd 00       		.sleb128 0
 9072 13de 72000000 		.4byte	.LVL139
 9073 13e2 A8000000 		.4byte	.LVL146
 9074 13e6 0300     		.2byte	0x3
 9075 13e8 77       		.byte	0x77
 9076 13e9 08       		.sleb128 8
 9077 13ea 06       		.byte	0x6
 9078 13eb A8000000 		.4byte	.LVL146
 9079 13ef AC000000 		.4byte	.LVL147
 9080 13f3 0300     		.2byte	0x3
 9081 13f5 79       		.byte	0x79
 9082 13f6 08       		.sleb128 8
 9083 13f7 06       		.byte	0x6
 9084 13f8 AC000000 		.4byte	.LVL147
 9085 13fc B8000000 		.4byte	.LVL151
 9086 1400 0300     		.2byte	0x3
 9087 1402 77       		.byte	0x77
 9088 1403 08       		.sleb128 8
 9089 1404 06       		.byte	0x6
 9090 1405 B8000000 		.4byte	.LVL151
 9091 1409 E6010000 		.4byte	.LVL201
 9092 140d 0200     		.2byte	0x2
 9093 140f 91       		.byte	0x91
 9094 1410 54       		.sleb128 -44
 9095 1411 00000000 		.4byte	0
 9096 1415 00000000 		.4byte	0
 9097              	.LVUS66:
ARM GAS  C:\Users\jens-\AppData\Local\Temp\cc4C0Tnp.s 			page 196


 9098 1419 01       		.uleb128 .LVU399
 9099 141a 00       		.uleb128 .LVU440
 9100 141b 00       		.uleb128 .LVU440
 9101 141c 00       		.uleb128 .LVU448
 9102 141d 00       		.uleb128 .LVU448
 9103 141e 00       		.uleb128 .LVU452
 9104 141f 00       		.uleb128 .LVU452
 9105 1420 00       		.uleb128 .LVU567
 9106              	.LLST66:
 9107 1421 2C000000 		.4byte	.LVL131
 9108 1425 94000000 		.4byte	.LVL144
 9109 1429 0200     		.2byte	0x2
 9110 142b 30       		.byte	0x30
 9111 142c 9F       		.byte	0x9f
 9112 142d 94000000 		.4byte	.LVL144
 9113 1431 AC000000 		.4byte	.LVL147
 9114 1435 0200     		.2byte	0x2
 9115 1437 91       		.byte	0x91
 9116 1438 40       		.sleb128 -64
 9117 1439 AC000000 		.4byte	.LVL147
 9118 143d B8000000 		.4byte	.LVL151
 9119 1441 0200     		.2byte	0x2
 9120 1443 30       		.byte	0x30
 9121 1444 9F       		.byte	0x9f
 9122 1445 B8000000 		.4byte	.LVL151
 9123 1449 E6010000 		.4byte	.LVL201
 9124 144d 0200     		.2byte	0x2
 9125 144f 91       		.byte	0x91
 9126 1450 40       		.sleb128 -64
 9127 1451 00000000 		.4byte	0
 9128 1455 00000000 		.4byte	0
 9129              	.LVUS67:
 9130 1459 00       		.uleb128 .LVU404
 9131 145a 00       		.uleb128 .LVU408
 9132 145b 00       		.uleb128 .LVU408
 9133 145c 00       		.uleb128 .LVU452
 9134 145d 00       		.uleb128 .LVU452
 9135 145e 00       		.uleb128 .LVU501
 9136 145f 00       		.uleb128 .LVU501
 9137 1460 00       		.uleb128 .LVU503
 9138 1461 00       		.uleb128 .LVU503
 9139 1462 00       		.uleb128 .LVU504
 9140 1463 00       		.uleb128 .LVU504
 9141 1464 00       		.uleb128 .LVU512
 9142 1465 00       		.uleb128 .LVU512
 9143 1466 00       		.uleb128 .LVU516
 9144              	.LLST67:
 9145 1467 3A000000 		.4byte	.LVL133
 9146 146b 40000000 		.4byte	.LVL134
 9147 146f 0100     		.2byte	0x1
 9148 1471 53       		.byte	0x53
 9149 1472 40000000 		.4byte	.LVL134
 9150 1476 B8000000 		.4byte	.LVL151
 9151 147a 0100     		.2byte	0x1
 9152 147c 5C       		.byte	0x5c
 9153 147d B8000000 		.4byte	.LVL151
 9154 1481 32010000 		.4byte	.LVL171
ARM GAS  C:\Users\jens-\AppData\Local\Temp\cc4C0Tnp.s 			page 197


 9155 1485 0100     		.2byte	0x1
 9156 1487 5A       		.byte	0x5a
 9157 1488 32010000 		.4byte	.LVL171
 9158 148c 3A010000 		.4byte	.LVL173
 9159 1490 1000     		.2byte	0x10
 9160 1492 91       		.byte	0x91
 9161 1493 4C       		.sleb128 -52
 9162 1494 06       		.byte	0x6
 9163 1495 31       		.byte	0x31
 9164 1496 1C       		.byte	0x1c
 9165 1497 37       		.byte	0x37
 9166 1498 25       		.byte	0x25
 9167 1499 91       		.byte	0x91
 9168 149a 50       		.sleb128 -48
 9169 149b 06       		.byte	0x6
 9170 149c 37       		.byte	0x37
 9171 149d 25       		.byte	0x25
 9172 149e 1C       		.byte	0x1c
 9173 149f 23       		.byte	0x23
 9174 14a0 01       		.uleb128 0x1
 9175 14a1 9F       		.byte	0x9f
 9176 14a2 3A010000 		.4byte	.LVL173
 9177 14a6 3C010000 		.4byte	.LVL174
 9178 14aa 0100     		.2byte	0x1
 9179 14ac 5A       		.byte	0x5a
 9180 14ad 3C010000 		.4byte	.LVL174
 9181 14b1 56010000 		.4byte	.LVL178
 9182 14b5 1000     		.2byte	0x10
 9183 14b7 91       		.byte	0x91
 9184 14b8 4C       		.sleb128 -52
 9185 14b9 06       		.byte	0x6
 9186 14ba 31       		.byte	0x31
 9187 14bb 1C       		.byte	0x1c
 9188 14bc 37       		.byte	0x37
 9189 14bd 25       		.byte	0x25
 9190 14be 91       		.byte	0x91
 9191 14bf 50       		.sleb128 -48
 9192 14c0 06       		.byte	0x6
 9193 14c1 37       		.byte	0x37
 9194 14c2 25       		.byte	0x25
 9195 14c3 1C       		.byte	0x1c
 9196 14c4 23       		.byte	0x23
 9197 14c5 01       		.uleb128 0x1
 9198 14c6 9F       		.byte	0x9f
 9199 14c7 56010000 		.4byte	.LVL178
 9200 14cb 5A010000 		.4byte	.LVL180
 9201 14cf 0100     		.2byte	0x1
 9202 14d1 54       		.byte	0x54
 9203 14d2 00000000 		.4byte	0
 9204 14d6 00000000 		.4byte	0
 9205              	.LVUS68:
 9206 14da 00       		.uleb128 .LVU433
 9207 14db 00       		.uleb128 .LVU437
 9208 14dc 00       		.uleb128 .LVU437
 9209 14dd 00       		.uleb128 .LVU438
 9210 14de 00       		.uleb128 .LVU448
 9211 14df 00       		.uleb128 .LVU449
ARM GAS  C:\Users\jens-\AppData\Local\Temp\cc4C0Tnp.s 			page 198


 9212 14e0 00       		.uleb128 .LVU449
 9213 14e1 00       		.uleb128 .LVU450
 9214 14e2 00       		.uleb128 .LVU450
 9215 14e3 00       		.uleb128 .LVU451
 9216 14e4 00       		.uleb128 .LVU451
 9217 14e5 00       		.uleb128 .LVU452
 9218              	.LLST68:
 9219 14e6 82000000 		.4byte	.LVL141
 9220 14ea 8C000000 		.4byte	.LVL142
 9221 14ee 0100     		.2byte	0x1
 9222 14f0 53       		.byte	0x53
 9223 14f1 8C000000 		.4byte	.LVL142
 9224 14f5 90000000 		.4byte	.LVL143
 9225 14f9 0800     		.2byte	0x8
 9226 14fb 74       		.byte	0x74
 9227 14fc 00       		.sleb128 0
 9228 14fd 7C       		.byte	0x7c
 9229 14fe 00       		.sleb128 0
 9230 14ff 22       		.byte	0x22
 9231 1500 31       		.byte	0x31
 9232 1501 1C       		.byte	0x1c
 9233 1502 9F       		.byte	0x9f
 9234 1503 AC000000 		.4byte	.LVL147
 9235 1507 AE000000 		.4byte	.LVL148
 9236 150b 0100     		.2byte	0x1
 9237 150d 53       		.byte	0x53
 9238 150e AE000000 		.4byte	.LVL148
 9239 1512 B2000000 		.4byte	.LVL149
 9240 1516 0800     		.2byte	0x8
 9241 1518 74       		.byte	0x74
 9242 1519 00       		.sleb128 0
 9243 151a 7C       		.byte	0x7c
 9244 151b 00       		.sleb128 0
 9245 151c 22       		.byte	0x22
 9246 151d 31       		.byte	0x31
 9247 151e 1C       		.byte	0x1c
 9248 151f 9F       		.byte	0x9f
 9249 1520 B2000000 		.4byte	.LVL149
 9250 1524 B4000000 		.4byte	.LVL150
 9251 1528 0100     		.2byte	0x1
 9252 152a 53       		.byte	0x53
 9253 152b B4000000 		.4byte	.LVL150
 9254 152f B8000000 		.4byte	.LVL151
 9255 1533 0800     		.2byte	0x8
 9256 1535 74       		.byte	0x74
 9257 1536 00       		.sleb128 0
 9258 1537 7C       		.byte	0x7c
 9259 1538 00       		.sleb128 0
 9260 1539 22       		.byte	0x22
 9261 153a 31       		.byte	0x31
 9262 153b 1C       		.byte	0x1c
 9263 153c 9F       		.byte	0x9f
 9264 153d 00000000 		.4byte	0
 9265 1541 00000000 		.4byte	0
 9266              	.LVUS69:
 9267 1545 00       		.uleb128 .LVU519
 9268 1546 00       		.uleb128 .LVU532
ARM GAS  C:\Users\jens-\AppData\Local\Temp\cc4C0Tnp.s 			page 199


 9269 1547 00       		.uleb128 .LVU532
 9270 1548 00       		.uleb128 .LVU540
 9271 1549 00       		.uleb128 .LVU544
 9272 154a 00       		.uleb128 .LVU546
 9273 154b 00       		.uleb128 .LVU557
 9274 154c 00       		.uleb128 .LVU567
 9275              	.LLST69:
 9276 154d 62010000 		.4byte	.LVL182
 9277 1551 8E010000 		.4byte	.LVL189
 9278 1555 0100     		.2byte	0x1
 9279 1557 53       		.byte	0x53
 9280 1558 8E010000 		.4byte	.LVL189
 9281 155c 98010000 		.4byte	.LVL192
 9282 1560 0200     		.2byte	0x2
 9283 1562 7C       		.byte	0x7c
 9284 1563 04       		.sleb128 4
 9285 1564 A8010000 		.4byte	.LVL195
 9286 1568 B1010000 		.4byte	.LVL196-1
 9287 156c 0200     		.2byte	0x2
 9288 156e 7C       		.byte	0x7c
 9289 156f 04       		.sleb128 4
 9290 1570 C8010000 		.4byte	.LVL199
 9291 1574 E6010000 		.4byte	.LVL201
 9292 1578 0100     		.2byte	0x1
 9293 157a 53       		.byte	0x53
 9294 157b 00000000 		.4byte	0
 9295 157f 00000000 		.4byte	0
 9296              	.LVUS70:
 9297 1583 00       		.uleb128 .LVU519
 9298 1584 00       		.uleb128 .LVU531
 9299 1585 00       		.uleb128 .LVU531
 9300 1586 00       		.uleb128 .LVU532
 9301 1587 00       		.uleb128 .LVU532
 9302 1588 00       		.uleb128 .LVU540
 9303 1589 00       		.uleb128 .LVU544
 9304 158a 00       		.uleb128 .LVU546
 9305 158b 00       		.uleb128 .LVU560
 9306 158c 00       		.uleb128 .LVU567
 9307              	.LLST70:
 9308 158d 62010000 		.4byte	.LVL182
 9309 1591 86010000 		.4byte	.LVL188
 9310 1595 0100     		.2byte	0x1
 9311 1597 51       		.byte	0x51
 9312 1598 86010000 		.4byte	.LVL188
 9313 159c 8E010000 		.4byte	.LVL189
 9314 15a0 0700     		.2byte	0x7
 9315 15a2 7C       		.byte	0x7c
 9316 15a3 08       		.sleb128 8
 9317 15a4 06       		.byte	0x6
 9318 15a5 73       		.byte	0x73
 9319 15a6 00       		.sleb128 0
 9320 15a7 22       		.byte	0x22
 9321 15a8 9F       		.byte	0x9f
 9322 15a9 8E010000 		.4byte	.LVL189
 9323 15ad 98010000 		.4byte	.LVL192
 9324 15b1 0800     		.2byte	0x8
 9325 15b3 7C       		.byte	0x7c
ARM GAS  C:\Users\jens-\AppData\Local\Temp\cc4C0Tnp.s 			page 200


 9326 15b4 08       		.sleb128 8
 9327 15b5 06       		.byte	0x6
 9328 15b6 7C       		.byte	0x7c
 9329 15b7 04       		.sleb128 4
 9330 15b8 06       		.byte	0x6
 9331 15b9 22       		.byte	0x22
 9332 15ba 9F       		.byte	0x9f
 9333 15bb A8010000 		.4byte	.LVL195
 9334 15bf B1010000 		.4byte	.LVL196-1
 9335 15c3 0800     		.2byte	0x8
 9336 15c5 7C       		.byte	0x7c
 9337 15c6 08       		.sleb128 8
 9338 15c7 06       		.byte	0x6
 9339 15c8 7C       		.byte	0x7c
 9340 15c9 04       		.sleb128 4
 9341 15ca 06       		.byte	0x6
 9342 15cb 22       		.byte	0x22
 9343 15cc 9F       		.byte	0x9f
 9344 15cd CC010000 		.4byte	.LVL200
 9345 15d1 E6010000 		.4byte	.LVL201
 9346 15d5 0100     		.2byte	0x1
 9347 15d7 51       		.byte	0x51
 9348 15d8 00000000 		.4byte	0
 9349 15dc 00000000 		.4byte	0
 9350              	.LVUS71:
 9351 15e0 00       		.uleb128 .LVU521
 9352 15e1 00       		.uleb128 .LVU542
 9353 15e2 00       		.uleb128 .LVU544
 9354 15e3 00       		.uleb128 .LVU546
 9355              	.LLST71:
 9356 15e4 70010000 		.4byte	.LVL183
 9357 15e8 A1010000 		.4byte	.LVL194-1
 9358 15ec 0100     		.2byte	0x1
 9359 15ee 5E       		.byte	0x5e
 9360 15ef A8010000 		.4byte	.LVL195
 9361 15f3 B1010000 		.4byte	.LVL196-1
 9362 15f7 0100     		.2byte	0x1
 9363 15f9 5E       		.byte	0x5e
 9364 15fa 00000000 		.4byte	0
 9365 15fe 00000000 		.4byte	0
 9366              	.LVUS72:
 9367 1602 00       		.uleb128 .LVU526
 9368 1603 00       		.uleb128 .LVU535
 9369              	.LLST72:
 9370 1604 7C010000 		.4byte	.LVL186
 9371 1608 92010000 		.4byte	.LVL191
 9372 160c 0100     		.2byte	0x1
 9373 160e 50       		.byte	0x50
 9374 160f 00000000 		.4byte	0
 9375 1613 00000000 		.4byte	0
 9376              	.LVUS46:
 9377 1617 00       		.uleb128 0
 9378 1618 00       		.uleb128 .LVU332
 9379 1619 00       		.uleb128 .LVU332
 9380 161a 00       		.uleb128 .LVU358
 9381 161b 00       		.uleb128 .LVU358
 9382 161c 00       		.uleb128 .LVU369
ARM GAS  C:\Users\jens-\AppData\Local\Temp\cc4C0Tnp.s 			page 201


 9383 161d 00       		.uleb128 .LVU369
 9384 161e 00       		.uleb128 .LVU370
 9385 161f 00       		.uleb128 .LVU370
 9386 1620 00       		.uleb128 .LVU372
 9387 1621 00       		.uleb128 .LVU372
 9388 1622 00       		.uleb128 0
 9389              	.LLST46:
 9390 1623 00000000 		.4byte	.LVL112
 9391 1627 23000000 		.4byte	.LVL114-1
 9392 162b 0100     		.2byte	0x1
 9393 162d 50       		.byte	0x50
 9394 162e 23000000 		.4byte	.LVL114-1
 9395 1632 58000000 		.4byte	.LVL115
 9396 1636 0100     		.2byte	0x1
 9397 1638 54       		.byte	0x54
 9398 1639 58000000 		.4byte	.LVL115
 9399 163d 80000000 		.4byte	.LVL121
 9400 1641 0400     		.2byte	0x4
 9401 1643 F3       		.byte	0xf3
 9402 1644 01       		.uleb128 0x1
 9403 1645 50       		.byte	0x50
 9404 1646 9F       		.byte	0x9f
 9405 1647 80000000 		.4byte	.LVL121
 9406 164b 82000000 		.4byte	.LVL122
 9407 164f 0100     		.2byte	0x1
 9408 1651 50       		.byte	0x50
 9409 1652 82000000 		.4byte	.LVL122
 9410 1656 86000000 		.4byte	.LVL123
 9411 165a 0400     		.2byte	0x4
 9412 165c F3       		.byte	0xf3
 9413 165d 01       		.uleb128 0x1
 9414 165e 50       		.byte	0x50
 9415 165f 9F       		.byte	0x9f
 9416 1660 86000000 		.4byte	.LVL123
 9417 1664 96000000 		.4byte	.LFE0
 9418 1668 0100     		.2byte	0x1
 9419 166a 50       		.byte	0x50
 9420 166b 00000000 		.4byte	0
 9421 166f 00000000 		.4byte	0
 9422              	.LVUS47:
 9423 1673 00       		.uleb128 0
 9424 1674 00       		.uleb128 .LVU332
 9425 1675 00       		.uleb128 .LVU332
 9426 1676 00       		.uleb128 .LVU369
 9427 1677 00       		.uleb128 .LVU369
 9428 1678 00       		.uleb128 .LVU370
 9429 1679 00       		.uleb128 .LVU370
 9430 167a 00       		.uleb128 .LVU372
 9431 167b 00       		.uleb128 .LVU372
 9432 167c 00       		.uleb128 0
 9433              	.LLST47:
 9434 167d 00000000 		.4byte	.LVL112
 9435 1681 23000000 		.4byte	.LVL114-1
 9436 1685 0100     		.2byte	0x1
 9437 1687 51       		.byte	0x51
 9438 1688 23000000 		.4byte	.LVL114-1
 9439 168c 80000000 		.4byte	.LVL121
ARM GAS  C:\Users\jens-\AppData\Local\Temp\cc4C0Tnp.s 			page 202


 9440 1690 0100     		.2byte	0x1
 9441 1692 56       		.byte	0x56
 9442 1693 80000000 		.4byte	.LVL121
 9443 1697 82000000 		.4byte	.LVL122
 9444 169b 0100     		.2byte	0x1
 9445 169d 51       		.byte	0x51
 9446 169e 82000000 		.4byte	.LVL122
 9447 16a2 86000000 		.4byte	.LVL123
 9448 16a6 0400     		.2byte	0x4
 9449 16a8 F3       		.byte	0xf3
 9450 16a9 01       		.uleb128 0x1
 9451 16aa 51       		.byte	0x51
 9452 16ab 9F       		.byte	0x9f
 9453 16ac 86000000 		.4byte	.LVL123
 9454 16b0 96000000 		.4byte	.LFE0
 9455 16b4 0100     		.2byte	0x1
 9456 16b6 51       		.byte	0x51
 9457 16b7 00000000 		.4byte	0
 9458 16bb 00000000 		.4byte	0
 9459              	.LVUS48:
 9460 16bf 01       		.uleb128 .LVU321
 9461 16c0 00       		.uleb128 .LVU332
 9462 16c1 00       		.uleb128 .LVU332
 9463 16c2 00       		.uleb128 .LVU360
 9464 16c3 00       		.uleb128 .LVU368
 9465 16c4 00       		.uleb128 .LVU369
 9466 16c5 00       		.uleb128 .LVU369
 9467 16c6 00       		.uleb128 .LVU370
 9468 16c7 00       		.uleb128 .LVU370
 9469 16c8 00       		.uleb128 .LVU372
 9470 16c9 00       		.uleb128 .LVU372
 9471 16ca 00       		.uleb128 0
 9472              	.LLST48:
 9473 16cb 02000000 		.4byte	.LVL113
 9474 16cf 24000000 		.4byte	.LVL114
 9475 16d3 0200     		.2byte	0x2
 9476 16d5 31       		.byte	0x31
 9477 16d6 9F       		.byte	0x9f
 9478 16d7 24000000 		.4byte	.LVL114
 9479 16db 60000000 		.4byte	.LVL116
 9480 16df 0100     		.2byte	0x1
 9481 16e1 50       		.byte	0x50
 9482 16e2 76000000 		.4byte	.LVL119
 9483 16e6 80000000 		.4byte	.LVL121
 9484 16ea 0100     		.2byte	0x1
 9485 16ec 55       		.byte	0x55
 9486 16ed 80000000 		.4byte	.LVL121
 9487 16f1 82000000 		.4byte	.LVL122
 9488 16f5 0200     		.2byte	0x2
 9489 16f7 31       		.byte	0x31
 9490 16f8 9F       		.byte	0x9f
 9491 16f9 82000000 		.4byte	.LVL122
 9492 16fd 86000000 		.4byte	.LVL123
 9493 1701 0100     		.2byte	0x1
 9494 1703 55       		.byte	0x55
 9495 1704 86000000 		.4byte	.LVL123
 9496 1708 96000000 		.4byte	.LFE0
ARM GAS  C:\Users\jens-\AppData\Local\Temp\cc4C0Tnp.s 			page 203


 9497 170c 0200     		.2byte	0x2
 9498 170e 31       		.byte	0x31
 9499 170f 9F       		.byte	0x9f
 9500 1710 00000000 		.4byte	0
 9501 1714 00000000 		.4byte	0
 9502              		.section	.debug_aranges,"",%progbits
 9503 0000 8C000000 		.4byte	0x8c
 9504 0004 0200     		.2byte	0x2
 9505 0006 00000000 		.4byte	.Ldebug_info0
 9506 000a 04       		.byte	0x4
 9507 000b 00       		.byte	0
 9508 000c 0000     		.2byte	0
 9509 000e 0000     		.2byte	0
 9510 0010 00000000 		.4byte	.LFB5
 9511 0014 32000000 		.4byte	.LFE5-.LFB5
 9512 0018 00000000 		.4byte	.LFB6
 9513 001c 1A000000 		.4byte	.LFE6-.LFB6
 9514 0020 00000000 		.4byte	.LFB7
 9515 0024 54000000 		.4byte	.LFE7-.LFB7
 9516 0028 00000000 		.4byte	.LFB8
 9517 002c 3A000000 		.4byte	.LFE8-.LFB8
 9518 0030 00000000 		.4byte	.LFB9
 9519 0034 34000000 		.4byte	.LFE9-.LFB9
 9520 0038 00000000 		.4byte	.LFB13
 9521 003c 74000000 		.4byte	.LFE13-.LFB13
 9522 0040 00000000 		.4byte	.LFB10
 9523 0044 2A000000 		.4byte	.LFE10-.LFB10
 9524 0048 00000000 		.4byte	.LFB14
 9525 004c 6A000000 		.4byte	.LFE14-.LFB14
 9526 0050 00000000 		.4byte	.LFB12
 9527 0054 80000000 		.4byte	.LFE12-.LFB12
 9528 0058 00000000 		.4byte	.LFB11
 9529 005c 30000000 		.4byte	.LFE11-.LFB11
 9530 0060 00000000 		.4byte	.LFB0
 9531 0064 96000000 		.4byte	.LFE0-.LFB0
 9532 0068 00000000 		.4byte	.LFB1
 9533 006c FE010000 		.4byte	.LFE1-.LFB1
 9534 0070 00000000 		.4byte	.LFB2
 9535 0074 74010000 		.4byte	.LFE2-.LFB2
 9536 0078 00000000 		.4byte	.LFB3
 9537 007c 66000000 		.4byte	.LFE3-.LFB3
 9538 0080 00000000 		.4byte	.LFB4
 9539 0084 06000000 		.4byte	.LFE4-.LFB4
 9540 0088 00000000 		.4byte	0
 9541 008c 00000000 		.4byte	0
 9542              		.section	.debug_ranges,"",%progbits
 9543              	.Ldebug_ranges0:
 9544 0000 26000000 		.4byte	.LBB2
 9545 0004 6C000000 		.4byte	.LBE2
 9546 0008 6E000000 		.4byte	.LBB9
 9547 000c 96000000 		.4byte	.LBE9
 9548 0010 98000000 		.4byte	.LBB10
 9549 0014 9C000000 		.4byte	.LBE10
 9550 0018 AA000000 		.4byte	.LBB11
 9551 001c E6010000 		.4byte	.LBE11
 9552 0020 00000000 		.4byte	0
 9553 0024 00000000 		.4byte	0
ARM GAS  C:\Users\jens-\AppData\Local\Temp\cc4C0Tnp.s 			page 204


 9554 0028 7C000000 		.4byte	.LBB3
 9555 002c 90000000 		.4byte	.LBE3
 9556 0030 AC000000 		.4byte	.LBB4
 9557 0034 B8000000 		.4byte	.LBE4
 9558 0038 00000000 		.4byte	0
 9559 003c 00000000 		.4byte	0
 9560 0040 62010000 		.4byte	.LBB5
 9561 0044 B2010000 		.4byte	.LBE5
 9562 0048 C6010000 		.4byte	.LBB8
 9563 004c E6010000 		.4byte	.LBE8
 9564 0050 00000000 		.4byte	0
 9565 0054 00000000 		.4byte	0
 9566 0058 6C010000 		.4byte	.LBB6
 9567 005c B2010000 		.4byte	.LBE6
 9568 0060 DC010000 		.4byte	.LBB7
 9569 0064 E6010000 		.4byte	.LBE7
 9570 0068 00000000 		.4byte	0
 9571 006c 00000000 		.4byte	0
 9572 0070 2E000000 		.4byte	.LBB12
 9573 0074 46000000 		.4byte	.LBE12
 9574 0078 48000000 		.4byte	.LBB16
 9575 007c 60010000 		.4byte	.LBE16
 9576 0080 00000000 		.4byte	0
 9577 0084 00000000 		.4byte	0
 9578 0088 4A000000 		.4byte	.LBB13
 9579 008c E8000000 		.4byte	.LBE13
 9580 0090 F2000000 		.4byte	.LBB15
 9581 0094 60010000 		.4byte	.LBE15
 9582 0098 00000000 		.4byte	0
 9583 009c 00000000 		.4byte	0
 9584 00a0 1A000000 		.4byte	.LBB17
 9585 00a4 26000000 		.4byte	.LBE17
 9586 00a8 2C000000 		.4byte	.LBB18
 9587 00ac 5E000000 		.4byte	.LBE18
 9588 00b0 00000000 		.4byte	0
 9589 00b4 00000000 		.4byte	0
 9590 00b8 00000000 		.4byte	.LFB5
 9591 00bc 32000000 		.4byte	.LFE5
 9592 00c0 00000000 		.4byte	.LFB6
 9593 00c4 1A000000 		.4byte	.LFE6
 9594 00c8 00000000 		.4byte	.LFB7
 9595 00cc 54000000 		.4byte	.LFE7
 9596 00d0 00000000 		.4byte	.LFB8
 9597 00d4 3A000000 		.4byte	.LFE8
 9598 00d8 00000000 		.4byte	.LFB9
 9599 00dc 34000000 		.4byte	.LFE9
 9600 00e0 00000000 		.4byte	.LFB13
 9601 00e4 74000000 		.4byte	.LFE13
 9602 00e8 00000000 		.4byte	.LFB10
 9603 00ec 2A000000 		.4byte	.LFE10
 9604 00f0 00000000 		.4byte	.LFB14
 9605 00f4 6A000000 		.4byte	.LFE14
 9606 00f8 00000000 		.4byte	.LFB12
 9607 00fc 80000000 		.4byte	.LFE12
 9608 0100 00000000 		.4byte	.LFB11
 9609 0104 30000000 		.4byte	.LFE11
 9610 0108 00000000 		.4byte	.LFB0
ARM GAS  C:\Users\jens-\AppData\Local\Temp\cc4C0Tnp.s 			page 205


 9611 010c 96000000 		.4byte	.LFE0
 9612 0110 00000000 		.4byte	.LFB1
 9613 0114 FE010000 		.4byte	.LFE1
 9614 0118 00000000 		.4byte	.LFB2
 9615 011c 74010000 		.4byte	.LFE2
 9616 0120 00000000 		.4byte	.LFB3
 9617 0124 66000000 		.4byte	.LFE3
 9618 0128 00000000 		.4byte	.LFB4
 9619 012c 06000000 		.4byte	.LFE4
 9620 0130 00000000 		.4byte	0
 9621 0134 00000000 		.4byte	0
 9622              		.section	.debug_line,"",%progbits
 9623              	.Ldebug_line0:
 9624 0000 AA0F0000 		.section	.debug_str,"MS",%progbits,1
 9624      03000E02 
 9624      00000201 
 9624      FB0E0D00 
 9624      01010101 
 9625              	.LASF45:
 9626 0000 5F64736F 		.ascii	"_dso_handle\000"
 9626      5F68616E 
 9626      646C6500 
 9627              	.LASF10:
 9628 000c 75696E74 		.ascii	"uint16\000"
 9628      313600
 9629              	.LASF219:
 9630 0013 43795365 		.ascii	"CySetTemp\000"
 9630      7454656D 
 9630      7000
 9631              	.LASF228:
 9632 001d 433A5C55 		.ascii	"C:\\Users\\jens-\\3.Projekt\\Projekt3\\Projekt3_PSO"
 9632      73657273 
 9632      5C6A656E 
 9632      732D5C33 
 9632      2E50726F 
 9633 004b 435C5072 		.ascii	"C\\Projekt3_PSOC_I2C.cydsn\000"
 9633      6F6A656B 
 9633      74335F50 
 9633      534F435F 
 9633      4932432E 
 9634              	.LASF44:
 9635 0065 5F666E61 		.ascii	"_fnargs\000"
 9635      72677300 
 9636              	.LASF199:
 9637 006d 746D7044 		.ascii	"tmpData\000"
 9637      61746100 
 9638              	.LASF97:
 9639 0075 5F72616E 		.ascii	"_rand48\000"
 9639      64343800 
 9640              	.LASF220:
 9641 007d 43795772 		.ascii	"CyWriteRowData\000"
 9641      69746552 
 9641      6F774461 
 9641      746100
 9642              	.LASF77:
 9643 008c 5F656D65 		.ascii	"_emergency\000"
 9643      7267656E 
ARM GAS  C:\Users\jens-\AppData\Local\Temp\cc4C0Tnp.s 			page 206


 9643      637900
 9644              	.LASF150:
 9645 0097 63795F65 		.ascii	"cy_en_em_eeprom_status_t\000"
 9645      6E5F656D 
 9645      5F656570 
 9645      726F6D5F 
 9645      73746174 
 9646              	.LASF162:
 9647 00b0 726F774E 		.ascii	"rowNum\000"
 9647      756D00
 9648              	.LASF166:
 9649 00b7 64737441 		.ascii	"dstAddr\000"
 9649      64647200 
 9650              	.LASF67:
 9651 00bf 5F646174 		.ascii	"_data\000"
 9651      6100
 9652              	.LASF142:
 9653 00c5 6E756D62 		.ascii	"numberOfRows\000"
 9653      65724F66 
 9653      526F7773 
 9653      00
 9654              	.LASF117:
 9655 00d2 5F776372 		.ascii	"_wcrtomb_state\000"
 9655      746F6D62 
 9655      5F737461 
 9655      746500
 9656              	.LASF118:
 9657 00e1 5F776373 		.ascii	"_wcsrtombs_state\000"
 9657      72746F6D 
 9657      62735F73 
 9657      74617465 
 9657      00
 9658              	.LASF193:
 9659 00f2 6E756D57 		.ascii	"numWrites\000"
 9659      72697465 
 9659      7300
 9660              	.LASF7:
 9661 00fc 6C6F6E67 		.ascii	"long long unsigned int\000"
 9661      206C6F6E 
 9661      6720756E 
 9661      7369676E 
 9661      65642069 
 9662              	.LASF57:
 9663 0113 5F6C6266 		.ascii	"_lbfsize\000"
 9663      73697A65 
 9663      00
 9664              	.LASF163:
 9665 011c 61646472 		.ascii	"addr\000"
 9665      00
 9666              	.LASF124:
 9667 0121 5F5F6C6F 		.ascii	"__locale_t\000"
 9667      63616C65 
 9667      5F7400
 9668              	.LASF122:
 9669 012c 5F756E75 		.ascii	"_unused\000"
 9669      73656400 
 9670              	.LASF134:
ARM GAS  C:\Users\jens-\AppData\Local\Temp\cc4C0Tnp.s 			page 207


 9671 0134 64696554 		.ascii	"dieTemperature\000"
 9671      656D7065 
 9671      72617475 
 9671      726500
 9672              	.LASF115:
 9673 0143 5F6D6272 		.ascii	"_mbrtowc_state\000"
 9673      746F7763 
 9673      5F737461 
 9673      746500
 9674              	.LASF131:
 9675 0152 63796465 		.ascii	"cydelay_freq_mhz\000"
 9675      6C61795F 
 9675      66726571 
 9675      5F6D687A 
 9675      00
 9676              	.LASF135:
 9677 0163 65657072 		.ascii	"eepromSize\000"
 9677      6F6D5369 
 9677      7A6500
 9678              	.LASF34:
 9679 016e 5F5F746D 		.ascii	"__tm_sec\000"
 9679      5F736563 
 9679      00
 9680              	.LASF217:
 9681 0177 6473744F 		.ascii	"dstOffset\000"
 9681      66667365 
 9681      7400
 9682              	.LASF6:
 9683 0181 6C6F6E67 		.ascii	"long long int\000"
 9683      206C6F6E 
 9683      6720696E 
 9683      7400
 9684              	.LASF0:
 9685 018f 7369676E 		.ascii	"signed char\000"
 9685      65642063 
 9685      68617200 
 9686              	.LASF174:
 9687 019b 57726974 		.ascii	"WriteRow\000"
 9687      65526F77 
 9687      00
 9688              	.LASF218:
 9689 01a4 43795F45 		.ascii	"Cy_Em_EEPROM_Init\000"
 9689      6D5F4545 
 9689      50524F4D 
 9689      5F496E69 
 9689      7400
 9690              	.LASF183:
 9691 01b6 47657452 		.ascii	"GetRowAddrBySeqNum\000"
 9691      6F774164 
 9691      64724279 
 9691      5365714E 
 9691      756D00
 9692              	.LASF63:
 9693 01c9 5F756275 		.ascii	"_ubuf\000"
 9693      6600
 9694              	.LASF186:
 9695 01cf 46696E64 		.ascii	"FindLastWrittenRow\000"
ARM GAS  C:\Users\jens-\AppData\Local\Temp\cc4C0Tnp.s 			page 208


 9695      4C617374 
 9695      57726974 
 9695      74656E52 
 9695      6F7700
 9696              	.LASF52:
 9697 01e2 5F626173 		.ascii	"_base\000"
 9697      6500
 9698              	.LASF36:
 9699 01e8 5F5F746D 		.ascii	"__tm_hour\000"
 9699      5F686F75 
 9699      7200
 9700              	.LASF137:
 9701 01f2 72656475 		.ascii	"redundantCopy\000"
 9701      6E64616E 
 9701      74436F70 
 9701      7900
 9702              	.LASF92:
 9703 0200 5F5F7366 		.ascii	"__sf\000"
 9703      00
 9704              	.LASF43:
 9705 0205 5F6F6E5F 		.ascii	"_on_exit_args\000"
 9705      65786974 
 9705      5F617267 
 9705      7300
 9706              	.LASF190:
 9707 0213 43795F45 		.ascii	"Cy_Em_EEPROM_NumWrites\000"
 9707      6D5F4545 
 9707      50524F4D 
 9707      5F4E756D 
 9707      57726974 
 9708              	.LASF58:
 9709 022a 5F636F6F 		.ascii	"_cookie\000"
 9709      6B696500 
 9710              	.LASF91:
 9711 0232 5F5F7367 		.ascii	"__sglue\000"
 9711      6C756500 
 9712              	.LASF4:
 9713 023a 6C6F6E67 		.ascii	"long int\000"
 9713      20696E74 
 9713      00
 9714              	.LASF55:
 9715 0243 5F666C61 		.ascii	"_flags\000"
 9715      677300
 9716              	.LASF47:
 9717 024a 5F69735F 		.ascii	"_is_cxa\000"
 9717      63786100 
 9718              	.LASF73:
 9719 0252 5F737464 		.ascii	"_stdin\000"
 9719      696E00
 9720              	.LASF65:
 9721 0259 5F626C6B 		.ascii	"_blksize\000"
 9721      73697A65 
 9721      00
 9722              	.LASF9:
 9723 0262 75696E74 		.ascii	"uint8\000"
 9723      3800
 9724              	.LASF191:
ARM GAS  C:\Users\jens-\AppData\Local\Temp\cc4C0Tnp.s 			page 209


 9725 0268 43795F45 		.ascii	"Cy_Em_EEPROM_Erase\000"
 9725      6D5F4545 
 9725      50524F4D 
 9725      5F457261 
 9725      736500
 9726              	.LASF13:
 9727 027b 646F7562 		.ascii	"double\000"
 9727      6C6500
 9728              	.LASF87:
 9729 0282 5F637674 		.ascii	"_cvtbuf\000"
 9729      62756600 
 9730              	.LASF66:
 9731 028a 5F6F6666 		.ascii	"_offset\000"
 9731      73657400 
 9732              	.LASF116:
 9733 0292 5F6D6273 		.ascii	"_mbsrtowcs_state\000"
 9733      72746F77 
 9733      63735F73 
 9733      74617465 
 9733      00
 9734              	.LASF114:
 9735 02a3 5F6D6272 		.ascii	"_mbrlen_state\000"
 9735      6C656E5F 
 9735      73746174 
 9735      6500
 9736              	.LASF11:
 9737 02b1 75696E74 		.ascii	"uint32\000"
 9737      333200
 9738              	.LASF209:
 9739 02b8 61637445 		.ascii	"actEepromRowNum\000"
 9739      6570726F 
 9739      6D526F77 
 9739      4E756D00 
 9740              	.LASF53:
 9741 02c8 5F73697A 		.ascii	"_size\000"
 9741      6500
 9742              	.LASF50:
 9743 02ce 5F666E73 		.ascii	"_fns\000"
 9743      00
 9744              	.LASF30:
 9745 02d3 5F736967 		.ascii	"_sign\000"
 9745      6E00
 9746              	.LASF197:
 9747 02d9 7772436E 		.ascii	"wrCnt\000"
 9747      7400
 9748              	.LASF213:
 9749 02df 75706461 		.ascii	"updateAddrFlag\000"
 9749      74654164 
 9749      6472466C 
 9749      616700
 9750              	.LASF26:
 9751 02ee 5F666C6F 		.ascii	"_flock_t\000"
 9751      636B5F74 
 9751      00
 9752              	.LASF75:
 9753 02f7 5F737464 		.ascii	"_stderr\000"
 9753      65727200 
ARM GAS  C:\Users\jens-\AppData\Local\Temp\cc4C0Tnp.s 			page 210


 9754              	.LASF32:
 9755 02ff 5F426967 		.ascii	"_Bigint\000"
 9755      696E7400 
 9756              	.LASF105:
 9757 0307 5F67616D 		.ascii	"_gamma_signgam\000"
 9757      6D615F73 
 9757      69676E67 
 9757      616D00
 9758              	.LASF182:
 9759 0316 726F7754 		.ascii	"rowToRdPtr\000"
 9759      6F526450 
 9759      747200
 9760              	.LASF154:
 9761 0321 746D7052 		.ascii	"tmpRowAddr\000"
 9761      6F774164 
 9761      647200
 9762              	.LASF59:
 9763 032c 5F726561 		.ascii	"_read\000"
 9763      6400
 9764              	.LASF83:
 9765 0332 5F726573 		.ascii	"_result_k\000"
 9765      756C745F 
 9765      6B00
 9766              	.LASF172:
 9767 033c 72616D42 		.ascii	"ramBuffAddr\000"
 9767      75666641 
 9767      64647200 
 9768              	.LASF216:
 9769 0348 7372634F 		.ascii	"srcOffset\000"
 9769      66667365 
 9769      7400
 9770              	.LASF33:
 9771 0352 5F5F746D 		.ascii	"__tm\000"
 9771      00
 9772              	.LASF203:
 9773 0357 64617461 		.ascii	"dataAddr\000"
 9773      41646472 
 9773      00
 9774              	.LASF8:
 9775 0360 756E7369 		.ascii	"unsigned int\000"
 9775      676E6564 
 9775      20696E74 
 9775      00
 9776              	.LASF168:
 9777 036d 6E756D42 		.ascii	"numBytes\000"
 9777      79746573 
 9777      00
 9778              	.LASF22:
 9779 0376 5F5F7763 		.ascii	"__wchb\000"
 9779      686200
 9780              	.LASF188:
 9781 037d 70726576 		.ascii	"prevSeqNum\000"
 9781      5365714E 
 9781      756D00
 9782              	.LASF74:
 9783 0388 5F737464 		.ascii	"_stdout\000"
 9783      6F757400 
ARM GAS  C:\Users\jens-\AppData\Local\Temp\cc4C0Tnp.s 			page 211


 9784              	.LASF86:
 9785 0390 5F637674 		.ascii	"_cvtlen\000"
 9785      6C656E00 
 9786              	.LASF5:
 9787 0398 6C6F6E67 		.ascii	"long unsigned int\000"
 9787      20756E73 
 9787      69676E65 
 9787      6420696E 
 9787      7400
 9788              	.LASF157:
 9789 03aa 47657441 		.ascii	"GetAddresses\000"
 9789      64647265 
 9789      73736573 
 9789      00
 9790              	.LASF56:
 9791 03b7 5F66696C 		.ascii	"_file\000"
 9791      6500
 9792              	.LASF187:
 9793 03bd 6C617374 		.ascii	"lastWrRowPtr\000"
 9793      5772526F 
 9793      77507472 
 9793      00
 9794              	.LASF165:
 9795 03ca 43686563 		.ascii	"CheckCrcAndCopy\000"
 9795      6B437263 
 9795      416E6443 
 9795      6F707900 
 9796              	.LASF95:
 9797 03da 5F6E696F 		.ascii	"_niobs\000"
 9797      627300
 9798              	.LASF196:
 9799 03e1 73697A65 		.ascii	"size\000"
 9799      00
 9800              	.LASF3:
 9801 03e6 73686F72 		.ascii	"short unsigned int\000"
 9801      7420756E 
 9801      7369676E 
 9801      65642069 
 9801      6E7400
 9802              	.LASF89:
 9803 03f9 5F617465 		.ascii	"_atexit0\000"
 9803      78697430 
 9803      00
 9804              	.LASF112:
 9805 0402 5F736967 		.ascii	"_signal_buf\000"
 9805      6E616C5F 
 9805      62756600 
 9806              	.LASF103:
 9807 040e 5F617363 		.ascii	"_asctime_buf\000"
 9807      74696D65 
 9807      5F627566 
 9807      00
 9808              	.LASF170:
 9809 041b 45726173 		.ascii	"EraseRow\000"
 9809      65526F77 
 9809      00
 9810              	.LASF198:
ARM GAS  C:\Users\jens-\AppData\Local\Temp\cc4C0Tnp.s 			page 212


 9811 0424 61637445 		.ascii	"actEmEepromRowNum\000"
 9811      6D456570 
 9811      726F6D52 
 9811      6F774E75 
 9811      6D00
 9812              	.LASF82:
 9813 0436 5F726573 		.ascii	"_result\000"
 9813      756C7400 
 9814              	.LASF21:
 9815 043e 5F5F7763 		.ascii	"__wch\000"
 9815      6800
 9816              	.LASF192:
 9817 0444 656D4565 		.ascii	"emEepromRowRdAddr\000"
 9817      70726F6D 
 9817      526F7752 
 9817      64416464 
 9817      7200
 9818              	.LASF222:
 9819 0456 6D656D63 		.ascii	"memcpy\000"
 9819      707900
 9820              	.LASF17:
 9821 045d 5F4C4F43 		.ascii	"_LOCK_T\000"
 9821      4B5F5400 
 9822              	.LASF195:
 9823 0465 65657072 		.ascii	"eepromData\000"
 9823      6F6D4461 
 9823      746100
 9824              	.LASF20:
 9825 0470 77696E74 		.ascii	"wint_t\000"
 9825      5F7400
 9826              	.LASF224:
 9827 0477 5F5F6275 		.ascii	"__builtin_memcpy\000"
 9827      696C7469 
 9827      6E5F6D65 
 9827      6D637079 
 9827      00
 9828              	.LASF68:
 9829 0488 5F6C6F63 		.ascii	"_lock\000"
 9829      6B00
 9830              	.LASF208:
 9831 048e 73746172 		.ascii	"startRowAddr\000"
 9831      74526F77 
 9831      41646472 
 9831      00
 9832              	.LASF70:
 9833 049b 5F666C61 		.ascii	"_flags2\000"
 9833      67733200 
 9834              	.LASF214:
 9835 04a3 6E756D52 		.ascii	"numRowReads\000"
 9835      6F775265 
 9835      61647300 
 9836              	.LASF167:
 9837 04af 726F774F 		.ascii	"rowOffset\000"
 9837      66667365 
 9837      7400
 9838              	.LASF226:
 9839 04b9 474E5520 		.ascii	"GNU C17 9.2.1 20191025 (release) [ARM/arm-9-branch "
ARM GAS  C:\Users\jens-\AppData\Local\Temp\cc4C0Tnp.s 			page 213


 9839      43313720 
 9839      392E322E 
 9839      31203230 
 9839      31393130 
 9840 04ec 72657669 		.ascii	"revision 277599] -mcpu=cortex-m3 -mthumb -mfloat-ab"
 9840      73696F6E 
 9840      20323737 
 9840      3539395D 
 9840      202D6D63 
 9841 051f 693D736F 		.ascii	"i=soft -march=armv7-m -g -Og -ffunction-sections -f"
 9841      6674202D 
 9841      6D617263 
 9841      683D6172 
 9841      6D76372D 
 9842 0552 6661742D 		.ascii	"fat-lto-objects\000"
 9842      6C746F2D 
 9842      6F626A65 
 9842      63747300 
 9843              	.LASF206:
 9844 0562 63757245 		.ascii	"curEepromBaseAddr\000"
 9844      6570726F 
 9844      6D426173 
 9844      65416464 
 9844      7200
 9845              	.LASF60:
 9846 0574 5F777269 		.ascii	"_write\000"
 9846      746500
 9847              	.LASF39:
 9848 057b 5F5F746D 		.ascii	"__tm_year\000"
 9848      5F796561 
 9848      7200
 9849              	.LASF146:
 9850 0585 43595F45 		.ascii	"CY_EM_EEPROM_BAD_PARAM\000"
 9850      4D5F4545 
 9850      50524F4D 
 9850      5F424144 
 9850      5F504152 
 9851              	.LASF130:
 9852 059c 63796465 		.ascii	"cydelay_freq_khz\000"
 9852      6C61795F 
 9852      66726571 
 9852      5F6B687A 
 9852      00
 9853              	.LASF147:
 9854 05ad 43595F45 		.ascii	"CY_EM_EEPROM_BAD_CHECKSUM\000"
 9854      4D5F4545 
 9854      50524F4D 
 9854      5F424144 
 9854      5F434845 
 9855              	.LASF151:
 9856 05c7 72644164 		.ascii	"rdAddr\000"
 9856      647200
 9857              	.LASF16:
 9858 05ce 6C6F6E67 		.ascii	"long double\000"
 9858      20646F75 
 9858      626C6500 
 9859              	.LASF210:
ARM GAS  C:\Users\jens-\AppData\Local\Temp\cc4C0Tnp.s 			page 214


 9860 05da 63757252 		.ascii	"curRdEepromRowNum\000"
 9860      64456570 
 9860      726F6D52 
 9860      6F774E75 
 9860      6D00
 9861              	.LASF120:
 9862 05ec 5F6E6578 		.ascii	"_nextf\000"
 9862      746600
 9863              	.LASF194:
 9864 05f3 43795F45 		.ascii	"Cy_Em_EEPROM_Write\000"
 9864      6D5F4545 
 9864      50524F4D 
 9864      5F577269 
 9864      746500
 9865              	.LASF155:
 9866 0606 7365714E 		.ascii	"seqNum\000"
 9866      756D00
 9867              	.LASF144:
 9868 060d 63795F73 		.ascii	"cy_stc_eeprom_context_t\000"
 9868      74635F65 
 9868      6570726F 
 9868      6D5F636F 
 9868      6E746578 
 9869              	.LASF185:
 9870 0625 4765744E 		.ascii	"GetNextRowToWrite\000"
 9870      65787452 
 9870      6F77546F 
 9870      57726974 
 9870      6500
 9871              	.LASF38:
 9872 0637 5F5F746D 		.ascii	"__tm_mon\000"
 9872      5F6D6F6E 
 9872      00
 9873              	.LASF128:
 9874 0640 43795265 		.ascii	"CyResetStatus\000"
 9874      73657453 
 9874      74617475 
 9874      7300
 9875              	.LASF48:
 9876 064e 5F617465 		.ascii	"_atexit\000"
 9876      78697400 
 9877              	.LASF156:
 9878 0656 46696C6C 		.ascii	"FillChecksum\000"
 9878      43686563 
 9878      6B73756D 
 9878      00
 9879              	.LASF80:
 9880 0663 5F5F7364 		.ascii	"__sdidinit\000"
 9880      6964696E 
 9880      697400
 9881              	.LASF18:
 9882 066e 5F6F6666 		.ascii	"_off_t\000"
 9882      5F7400
 9883              	.LASF178:
 9884 0675 43686563 		.ascii	"CheckRanges\000"
 9884      6B52616E 
 9884      67657300 
ARM GAS  C:\Users\jens-\AppData\Local\Temp\cc4C0Tnp.s 			page 215


 9885              	.LASF153:
 9886 0681 77724164 		.ascii	"wrAddr\000"
 9886      647200
 9887              	.LASF177:
 9888 0688 61727261 		.ascii	"arrayId\000"
 9888      79496400 
 9889              	.LASF225:
 9890 0690 5F5F6275 		.ascii	"__builtin_memset\000"
 9890      696C7469 
 9890      6E5F6D65 
 9890      6D736574 
 9890      00
 9891              	.LASF12:
 9892 06a1 666C6F61 		.ascii	"float\000"
 9892      7400
 9893              	.LASF85:
 9894 06a7 5F667265 		.ascii	"_freelist\000"
 9894      656C6973 
 9894      7400
 9895              	.LASF160:
 9896 06b1 656E6441 		.ascii	"endAddr\000"
 9896      64647200 
 9897              	.LASF215:
 9898 06b9 64617461 		.ascii	"dataEndEepromRowNum\000"
 9898      456E6445 
 9898      6570726F 
 9898      6D526F77 
 9898      4E756D00 
 9899              	.LASF110:
 9900 06cd 5F776374 		.ascii	"_wctomb_state\000"
 9900      6F6D625F 
 9900      73746174 
 9900      6500
 9901              	.LASF184:
 9902 06db 656D4565 		.ascii	"emEepromAddr\000"
 9902      70726F6D 
 9902      41646472 
 9902      00
 9903              	.LASF129:
 9904 06e8 63796465 		.ascii	"cydelay_freq_hz\000"
 9904      6C61795F 
 9904      66726571 
 9904      5F687A00 
 9905              	.LASF148:
 9906 06f8 43595F45 		.ascii	"CY_EM_EEPROM_BAD_DATA\000"
 9906      4D5F4545 
 9906      50524F4D 
 9906      5F424144 
 9906      5F444154 
 9907              	.LASF141:
 9908 070e 776C456E 		.ascii	"wlEndAddr\000"
 9908      64416464 
 9908      7200
 9909              	.LASF152:
 9910 0718 77726974 		.ascii	"writeRamBuffer\000"
 9910      6552616D 
 9910      42756666 
ARM GAS  C:\Users\jens-\AppData\Local\Temp\cc4C0Tnp.s 			page 216


 9910      657200
 9911              	.LASF227:
 9912 0727 47656E65 		.ascii	"Generated_Source\\PSoC5\\cy_em_eeprom.c\000"
 9912      72617465 
 9912      645F536F 
 9912      75726365 
 9912      5C50536F 
 9913              	.LASF1:
 9914 074d 756E7369 		.ascii	"unsigned char\000"
 9914      676E6564 
 9914      20636861 
 9914      7200
 9915              	.LASF176:
 9916 075b 726F7749 		.ascii	"rowId\000"
 9916      6400
 9917              	.LASF88:
 9918 0761 5F6E6577 		.ascii	"_new\000"
 9918      00
 9919              	.LASF133:
 9920 0766 5370634C 		.ascii	"SpcLockState\000"
 9920      6F636B53 
 9920      74617465 
 9920      00
 9921              	.LASF171:
 9922 0773 726F7741 		.ascii	"rowAddr\000"
 9922      64647200 
 9923              	.LASF119:
 9924 077b 5F685F65 		.ascii	"_h_errno\000"
 9924      72726E6F 
 9924      00
 9925              	.LASF2:
 9926 0784 73686F72 		.ascii	"short int\000"
 9926      7420696E 
 9926      7400
 9927              	.LASF41:
 9928 078e 5F5F746D 		.ascii	"__tm_yday\000"
 9928      5F796461 
 9928      7900
 9929              	.LASF51:
 9930 0798 5F5F7362 		.ascii	"__sbuf\000"
 9930      756600
 9931              	.LASF96:
 9932 079f 5F696F62 		.ascii	"_iobs\000"
 9932      7300
 9933              	.LASF221:
 9934 07a5 4379466C 		.ascii	"CyFlushCache\000"
 9934      75736843 
 9934      61636865 
 9934      00
 9935              	.LASF93:
 9936 07b2 5F5F4649 		.ascii	"__FILE\000"
 9936      4C4500
 9937              	.LASF25:
 9938 07b9 5F6D6273 		.ascii	"_mbstate_t\000"
 9938      74617465 
 9938      5F7400
 9939              	.LASF54:
ARM GAS  C:\Users\jens-\AppData\Local\Temp\cc4C0Tnp.s 			page 217


 9940 07c4 5F5F7346 		.ascii	"__sFILE\000"
 9940      494C4500 
 9941              	.LASF69:
 9942 07cc 5F6D6273 		.ascii	"_mbstate\000"
 9942      74617465 
 9942      00
 9943              	.LASF106:
 9944 07d5 5F72616E 		.ascii	"_rand_next\000"
 9944      645F6E65 
 9944      787400
 9945              	.LASF108:
 9946 07e0 5F6D626C 		.ascii	"_mblen_state\000"
 9946      656E5F73 
 9946      74617465 
 9946      00
 9947              	.LASF76:
 9948 07ed 5F696E63 		.ascii	"_inc\000"
 9948      00
 9949              	.LASF49:
 9950 07f2 5F696E64 		.ascii	"_ind\000"
 9950      00
 9951              	.LASF79:
 9952 07f7 5F6C6F63 		.ascii	"_locale\000"
 9952      616C6500 
 9953              	.LASF81:
 9954 07ff 5F5F636C 		.ascii	"__cleanup\000"
 9954      65616E75 
 9954      7000
 9955              	.LASF78:
 9956 0809 5F756E73 		.ascii	"_unspecified_locale_info\000"
 9956      70656369 
 9956      66696564 
 9956      5F6C6F63 
 9956      616C655F 
 9957              	.LASF29:
 9958 0822 5F6D6178 		.ascii	"_maxwds\000"
 9958      77647300 
 9959              	.LASF71:
 9960 082a 5F726565 		.ascii	"_reent\000"
 9960      6E7400
 9961              	.LASF98:
 9962 0831 5F736565 		.ascii	"_seed\000"
 9962      6400
 9963              	.LASF132:
 9964 0837 63796465 		.ascii	"cydelay_32k_ms\000"
 9964      6C61795F 
 9964      33326B5F 
 9964      6D7300
 9965              	.LASF149:
 9966 0846 43595F45 		.ascii	"CY_EM_EEPROM_WRITE_FAIL\000"
 9966      4D5F4545 
 9966      50524F4D 
 9966      5F575249 
 9966      54455F46 
 9967              	.LASF23:
 9968 085e 5F5F636F 		.ascii	"__count\000"
 9968      756E7400 
ARM GAS  C:\Users\jens-\AppData\Local\Temp\cc4C0Tnp.s 			page 218


 9969              	.LASF123:
 9970 0866 5F5F6C6F 		.ascii	"__lock\000"
 9970      636B00
 9971              	.LASF24:
 9972 086d 5F5F7661 		.ascii	"__value\000"
 9972      6C756500 
 9973              	.LASF169:
 9974 0875 72635374 		.ascii	"rcStartRowAddr\000"
 9974      61727452 
 9974      6F774164 
 9974      647200
 9975              	.LASF61:
 9976 0884 5F736565 		.ascii	"_seek\000"
 9976      6B00
 9977              	.LASF125:
 9978 088a 5F696D70 		.ascii	"_impure_ptr\000"
 9978      7572655F 
 9978      70747200 
 9979              	.LASF19:
 9980 0896 5F66706F 		.ascii	"_fpos_t\000"
 9980      735F7400 
 9981              	.LASF138:
 9982 089e 626C6F63 		.ascii	"blockingWrite\000"
 9982      6B696E67 
 9982      57726974 
 9982      6500
 9983              	.LASF72:
 9984 08ac 5F657272 		.ascii	"_errno\000"
 9984      6E6F00
 9985              	.LASF14:
 9986 08b3 63686172 		.ascii	"char\000"
 9986      00
 9987              	.LASF35:
 9988 08b8 5F5F746D 		.ascii	"__tm_min\000"
 9988      5F6D696E 
 9988      00
 9989              	.LASF179:
 9990 08c1 636F6E66 		.ascii	"config\000"
 9990      696700
 9991              	.LASF205:
 9992 08c8 6E756D42 		.ascii	"numBytesToRead\000"
 9992      79746573 
 9992      546F5265 
 9992      616400
 9993              	.LASF159:
 9994 08d7 73746172 		.ascii	"startAddr\000"
 9994      74416464 
 9994      7200
 9995              	.LASF204:
 9996 08e1 43795F45 		.ascii	"Cy_Em_EEPROM_Read\000"
 9996      6D5F4545 
 9996      50524F4D 
 9996      5F526561 
 9996      6400
 9997              	.LASF127:
 9998 08f3 5F637479 		.ascii	"_ctype_\000"
 9998      70655F00 
ARM GAS  C:\Users\jens-\AppData\Local\Temp\cc4C0Tnp.s 			page 219


 9999              	.LASF211:
 10000 08fb 64617461 		.ascii	"dataStartEepromRowNum\000"
 10000      53746172 
 10000      74456570 
 10000      726F6D52 
 10000      6F774E75 
 10001              	.LASF99:
 10002 0911 5F6D756C 		.ascii	"_mult\000"
 10002      7400
 10003              	.LASF212:
 10004 0917 72645369 		.ascii	"rdSize\000"
 10004      7A6500
 10005              	.LASF28:
 10006 091e 5F6E6578 		.ascii	"_next\000"
 10006      7400
 10007              	.LASF164:
 10008 0924 736B6970 		.ascii	"skip\000"
 10008      00
 10009              	.LASF102:
 10010 0929 5F737472 		.ascii	"_strtok_last\000"
 10010      746F6B5F 
 10010      6C617374 
 10010      00
 10011              	.LASF161:
 10012 0936 6F666673 		.ascii	"offset\000"
 10012      657400
 10013              	.LASF46:
 10014 093d 5F666E74 		.ascii	"_fntypes\000"
 10014      79706573 
 10014      00
 10015              	.LASF158:
 10016 0946 636F6E74 		.ascii	"context\000"
 10016      65787400 
 10017              	.LASF143:
 10018 094e 6C617374 		.ascii	"lastWrRowAddr\000"
 10018      5772526F 
 10018      77416464 
 10018      7200
 10019              	.LASF100:
 10020 095c 5F616464 		.ascii	"_add\000"
 10020      00
 10021              	.LASF27:
 10022 0961 5F5F554C 		.ascii	"__ULong\000"
 10022      6F6E6700 
 10023              	.LASF113:
 10024 0969 5F676574 		.ascii	"_getdate_err\000"
 10024      64617465 
 10024      5F657272 
 10024      00
 10025              	.LASF207:
 10026 0976 63757252 		.ascii	"curRowOffset\000"
 10026      6F774F66 
 10026      66736574 
 10026      00
 10027              	.LASF139:
 10028 0983 75736572 		.ascii	"userFlashStartAddr\000"
 10028      466C6173 
ARM GAS  C:\Users\jens-\AppData\Local\Temp\cc4C0Tnp.s 			page 220


 10028      68537461 
 10028      72744164 
 10028      647200
 10029              	.LASF140:
 10030 0996 63795F73 		.ascii	"cy_stc_eeprom_config_t\000"
 10030      74635F65 
 10030      6570726F 
 10030      6D5F636F 
 10030      6E666967 
 10031              	.LASF126:
 10032 09ad 5F676C6F 		.ascii	"_global_impure_ptr\000"
 10032      62616C5F 
 10032      696D7075 
 10032      72655F70 
 10032      747200
 10033              	.LASF136:
 10034 09c0 77656172 		.ascii	"wearLevelingFactor\000"
 10034      4C657665 
 10034      6C696E67 
 10034      46616374 
 10034      6F7200
 10035              	.LASF223:
 10036 09d3 6D656D73 		.ascii	"memset\000"
 10036      657400
 10037              	.LASF101:
 10038 09da 5F756E75 		.ascii	"_unused_rand\000"
 10038      7365645F 
 10038      72616E64 
 10038      00
 10039              	.LASF189:
 10040 09e7 6E756D52 		.ascii	"numRows\000"
 10040      6F777300 
 10041              	.LASF31:
 10042 09ef 5F776473 		.ascii	"_wds\000"
 10042      00
 10043              	.LASF40:
 10044 09f4 5F5F746D 		.ascii	"__tm_wday\000"
 10044      5F776461 
 10044      7900
 10045              	.LASF94:
 10046 09fe 5F676C75 		.ascii	"_glue\000"
 10046      6500
 10047              	.LASF121:
 10048 0a04 5F6E6D61 		.ascii	"_nmalloc\000"
 10048      6C6C6F63 
 10048      00
 10049              	.LASF111:
 10050 0a0d 5F6C3634 		.ascii	"_l64a_buf\000"
 10050      615F6275 
 10050      6600
 10051              	.LASF145:
 10052 0a17 43595F45 		.ascii	"CY_EM_EEPROM_SUCCESS\000"
 10052      4D5F4545 
 10052      50524F4D 
 10052      5F535543 
 10052      43455353 
 10053              	.LASF90:
ARM GAS  C:\Users\jens-\AppData\Local\Temp\cc4C0Tnp.s 			page 221


 10054 0a2c 5F736967 		.ascii	"_sig_func\000"
 10054      5F66756E 
 10054      6300
 10055              	.LASF64:
 10056 0a36 5F6E6275 		.ascii	"_nbuf\000"
 10056      6600
 10057              	.LASF15:
 10058 0a3c 63797374 		.ascii	"cystatus\000"
 10058      61747573 
 10058      00
 10059              	.LASF202:
 10060 0a45 736B6970 		.ascii	"skipOperation\000"
 10060      4F706572 
 10060      6174696F 
 10060      6E00
 10061              	.LASF201:
 10062 0a53 65654865 		.ascii	"eeHeaderDataOffset\000"
 10062      61646572 
 10062      44617461 
 10062      4F666673 
 10062      657400
 10063              	.LASF180:
 10064 0a66 43616C63 		.ascii	"CalcChecksum\000"
 10064      43686563 
 10064      6B73756D 
 10064      00
 10065              	.LASF42:
 10066 0a73 5F5F746D 		.ascii	"__tm_isdst\000"
 10066      5F697364 
 10066      737400
 10067              	.LASF104:
 10068 0a7e 5F6C6F63 		.ascii	"_localtime_buf\000"
 10068      616C7469 
 10068      6D655F62 
 10068      756600
 10069              	.LASF62:
 10070 0a8d 5F636C6F 		.ascii	"_close\000"
 10070      736500
 10071              	.LASF175:
 10072 0a94 726F7744 		.ascii	"rowData\000"
 10072      61746100 
 10073              	.LASF107:
 10074 0a9c 5F723438 		.ascii	"_r48\000"
 10074      00
 10075              	.LASF109:
 10076 0aa1 5F6D6274 		.ascii	"_mbtowc_state\000"
 10076      6F77635F 
 10076      73746174 
 10076      6500
 10077              	.LASF84:
 10078 0aaf 5F703573 		.ascii	"_p5s\000"
 10078      00
 10079              	.LASF173:
 10080 0ab4 656D4565 		.ascii	"emEepromRowAddr\000"
 10080      70726F6D 
 10080      526F7741 
 10080      64647200 
ARM GAS  C:\Users\jens-\AppData\Local\Temp\cc4C0Tnp.s 			page 222


 10081              	.LASF181:
 10082 0ac4 726F7754 		.ascii	"rowToWrPtr\000"
 10082      6F577250 
 10082      747200
 10083              	.LASF37:
 10084 0acf 5F5F746D 		.ascii	"__tm_mday\000"
 10084      5F6D6461 
 10084      7900
 10085              	.LASF200:
 10086 0ad9 65654461 		.ascii	"eeData\000"
 10086      746100
 10087              		.ident	"GCC: (GNU Tools for Arm Embedded Processors 9-2019-q4-major) 9.2.1 20191025 (release) [ARM
