ARM GAS  C:\Users\jens-\AppData\Local\Temp\ccsaVfQd.s 			page 1


   1              		.cpu cortex-m3
   2              		.eabi_attribute 20, 1
   3              		.eabi_attribute 21, 1
   4              		.eabi_attribute 23, 3
   5              		.eabi_attribute 24, 1
   6              		.eabi_attribute 25, 1
   7              		.eabi_attribute 26, 1
   8              		.eabi_attribute 30, 1
   9              		.eabi_attribute 34, 1
  10              		.eabi_attribute 18, 4
  11              		.file	"CyFlash.c"
  12              		.text
  13              	.Ltext0:
  14              		.cfi_sections	.debug_frame
  15              		.section	.text.CySetTempInt,"ax",%progbits
  16              		.align	1
  17              		.arch armv7-m
  18              		.syntax unified
  19              		.thumb
  20              		.thumb_func
  21              		.fpu softvfp
  22              		.type	CySetTempInt, %function
  23              	CySetTempInt:
  24              	.LFB3:
  25              		.file 1 "Generated_Source\\PSoC5\\CyFlash.c"
   1:Generated_Source\PSoC5/CyFlash.c **** /***************************************************************************//**
   2:Generated_Source\PSoC5/CyFlash.c **** * \file CyFlash.c
   3:Generated_Source\PSoC5/CyFlash.c **** * \version 5.70
   4:Generated_Source\PSoC5/CyFlash.c **** *
   5:Generated_Source\PSoC5/CyFlash.c **** * \brief Provides an API for the FLASH/EEPROM.
   6:Generated_Source\PSoC5/CyFlash.c **** *
   7:Generated_Source\PSoC5/CyFlash.c **** * \note This code is endian agnostic.
   8:Generated_Source\PSoC5/CyFlash.c **** *
   9:Generated_Source\PSoC5/CyFlash.c **** * \note Documentation of the API's in this file is located in the System
  10:Generated_Source\PSoC5/CyFlash.c **** * Reference Guide provided with PSoC Creator.
  11:Generated_Source\PSoC5/CyFlash.c **** *
  12:Generated_Source\PSoC5/CyFlash.c **** ********************************************************************************
  13:Generated_Source\PSoC5/CyFlash.c **** * \copyright
  14:Generated_Source\PSoC5/CyFlash.c **** * Copyright 2008-2018, Cypress Semiconductor Corporation. All rights reserved.
  15:Generated_Source\PSoC5/CyFlash.c **** * You may use this file only in accordance with the license, terms, conditions,
  16:Generated_Source\PSoC5/CyFlash.c **** * disclaimers, and limitations in the end user license agreement accompanying
  17:Generated_Source\PSoC5/CyFlash.c **** * the software package with which this file was provided.
  18:Generated_Source\PSoC5/CyFlash.c **** *******************************************************************************/
  19:Generated_Source\PSoC5/CyFlash.c **** 
  20:Generated_Source\PSoC5/CyFlash.c **** #include "CyFlash.h"
  21:Generated_Source\PSoC5/CyFlash.c **** 
  22:Generated_Source\PSoC5/CyFlash.c **** /*  The number of EEPROM arrays */
  23:Generated_Source\PSoC5/CyFlash.c **** #define CY_FLASH_EEPROM_NUMBER_ARRAYS                 (1u)
  24:Generated_Source\PSoC5/CyFlash.c **** 
  25:Generated_Source\PSoC5/CyFlash.c **** 
  26:Generated_Source\PSoC5/CyFlash.c **** /*******************************************************************************
  27:Generated_Source\PSoC5/CyFlash.c **** * Holds the die temperature, updated by CySetTemp(). Used for flash writing.
  28:Generated_Source\PSoC5/CyFlash.c **** * The first byte is the sign of the temperature (0 = negative, 1 = positive).
  29:Generated_Source\PSoC5/CyFlash.c **** * The second byte is the magnitude.
  30:Generated_Source\PSoC5/CyFlash.c **** *******************************************************************************/
  31:Generated_Source\PSoC5/CyFlash.c **** uint8 dieTemperature[CY_FLASH_DIE_TEMP_DATA_SIZE];
  32:Generated_Source\PSoC5/CyFlash.c **** 
ARM GAS  C:\Users\jens-\AppData\Local\Temp\ccsaVfQd.s 			page 2


  33:Generated_Source\PSoC5/CyFlash.c **** #if(CYDEV_ECC_ENABLE == 0)
  34:Generated_Source\PSoC5/CyFlash.c ****     static uint8 * rowBuffer = 0;
  35:Generated_Source\PSoC5/CyFlash.c **** #endif  /* (CYDEV_ECC_ENABLE == 0) */
  36:Generated_Source\PSoC5/CyFlash.c **** 
  37:Generated_Source\PSoC5/CyFlash.c **** 
  38:Generated_Source\PSoC5/CyFlash.c **** static cystatus CySetTempInt(void);
  39:Generated_Source\PSoC5/CyFlash.c **** 
  40:Generated_Source\PSoC5/CyFlash.c **** 
  41:Generated_Source\PSoC5/CyFlash.c **** /*******************************************************************************
  42:Generated_Source\PSoC5/CyFlash.c **** * Function Name: CyFlash_Start
  43:Generated_Source\PSoC5/CyFlash.c **** ****************************************************************************//**
  44:Generated_Source\PSoC5/CyFlash.c **** *
  45:Generated_Source\PSoC5/CyFlash.c **** *  Enable the Flash.
  46:Generated_Source\PSoC5/CyFlash.c **** *
  47:Generated_Source\PSoC5/CyFlash.c **** *******************************************************************************/
  48:Generated_Source\PSoC5/CyFlash.c **** void CyFlash_Start(void) 
  49:Generated_Source\PSoC5/CyFlash.c **** {
  50:Generated_Source\PSoC5/CyFlash.c ****     uint8 interruptState;
  51:Generated_Source\PSoC5/CyFlash.c **** 
  52:Generated_Source\PSoC5/CyFlash.c ****     interruptState = CyEnterCriticalSection();
  53:Generated_Source\PSoC5/CyFlash.c **** 
  54:Generated_Source\PSoC5/CyFlash.c **** 
  55:Generated_Source\PSoC5/CyFlash.c ****     /***************************************************************************
  56:Generated_Source\PSoC5/CyFlash.c ****     * Enable SPC clock. This also internally enables the 36MHz IMO, since this
  57:Generated_Source\PSoC5/CyFlash.c ****     * is required for the SPC to function.
  58:Generated_Source\PSoC5/CyFlash.c ****     ***************************************************************************/
  59:Generated_Source\PSoC5/CyFlash.c ****     CY_FLASH_PM_ACT_CFG0_REG    |= CY_FLASH_PM_ACT_CFG0_EN_CLK_SPC;
  60:Generated_Source\PSoC5/CyFlash.c ****     CY_FLASH_PM_ALTACT_CFG0_REG |= CY_FLASH_PM_ALTACT_CFG0_EN_CLK_SPC;
  61:Generated_Source\PSoC5/CyFlash.c **** 
  62:Generated_Source\PSoC5/CyFlash.c **** 
  63:Generated_Source\PSoC5/CyFlash.c ****     /***************************************************************************
  64:Generated_Source\PSoC5/CyFlash.c ****     * The wake count defines the number of Bus Clock cycles it takes for the
  65:Generated_Source\PSoC5/CyFlash.c ****     * flash or eeprom to wake up from a low power mode independent of the chip
  66:Generated_Source\PSoC5/CyFlash.c ****     * power mode. Wake up time for these blocks is 5 us.
  67:Generated_Source\PSoC5/CyFlash.c ****     * The granularity of this register is 2 Bus Clock cycles, so a value of 0x1E
  68:Generated_Source\PSoC5/CyFlash.c ****     * (30d) defines the wake up time as 60 cycles of the Bus Clock.
  69:Generated_Source\PSoC5/CyFlash.c ****     * This register needs to be written with a value dependent on the Bus Clock
  70:Generated_Source\PSoC5/CyFlash.c ****     * frequency so that the duration of the cycles is equal to or greater than
  71:Generated_Source\PSoC5/CyFlash.c ****     * the 5 us delay required.
  72:Generated_Source\PSoC5/CyFlash.c ****     ***************************************************************************/
  73:Generated_Source\PSoC5/CyFlash.c ****     CY_FLASH_SPC_FM_EE_WAKE_CNT_REG = CY_FLASH_SPC_FM_EE_WAKE_CNT_80MHZ;
  74:Generated_Source\PSoC5/CyFlash.c **** 
  75:Generated_Source\PSoC5/CyFlash.c **** 
  76:Generated_Source\PSoC5/CyFlash.c ****     /***************************************************************************
  77:Generated_Source\PSoC5/CyFlash.c ****     * Enable flash. Active flash macros consume current, but re-enabling a
  78:Generated_Source\PSoC5/CyFlash.c ****     * disabled flash macro takes 5us. If the CPU attempts to fetch out of the
  79:Generated_Source\PSoC5/CyFlash.c ****     * macro during that time, it will be stalled. This bit allows the flash to
  80:Generated_Source\PSoC5/CyFlash.c ****     * be enabled even if the CPU is disabled, which allows a quicker return to
  81:Generated_Source\PSoC5/CyFlash.c ****     * code execution.
  82:Generated_Source\PSoC5/CyFlash.c ****     ***************************************************************************/
  83:Generated_Source\PSoC5/CyFlash.c ****     CY_FLASH_PM_ACT_CFG12_REG    |= CY_FLASH_PM_ACT_CFG12_EN_FM;
  84:Generated_Source\PSoC5/CyFlash.c ****     CY_FLASH_PM_ALTACT_CFG12_REG |= CY_FLASH_PM_ALTACT_CFG12_EN_FM;
  85:Generated_Source\PSoC5/CyFlash.c **** 
  86:Generated_Source\PSoC5/CyFlash.c ****     while(0u == (CY_FLASH_SPC_FM_EE_CR_REG & CY_FLASH_EE_EE_AWAKE))
  87:Generated_Source\PSoC5/CyFlash.c ****     {
  88:Generated_Source\PSoC5/CyFlash.c ****         /* Non-zero status denotes that the EEPROM/Flash is awake & powered. */
  89:Generated_Source\PSoC5/CyFlash.c ****     }
ARM GAS  C:\Users\jens-\AppData\Local\Temp\ccsaVfQd.s 			page 3


  90:Generated_Source\PSoC5/CyFlash.c **** 
  91:Generated_Source\PSoC5/CyFlash.c ****     CyExitCriticalSection(interruptState);
  92:Generated_Source\PSoC5/CyFlash.c **** }
  93:Generated_Source\PSoC5/CyFlash.c **** 
  94:Generated_Source\PSoC5/CyFlash.c **** 
  95:Generated_Source\PSoC5/CyFlash.c **** /*******************************************************************************
  96:Generated_Source\PSoC5/CyFlash.c **** * Function Name: CyFlash_Stop
  97:Generated_Source\PSoC5/CyFlash.c **** ****************************************************************************//**
  98:Generated_Source\PSoC5/CyFlash.c **** *
  99:Generated_Source\PSoC5/CyFlash.c **** *  Disable the Flash.
 100:Generated_Source\PSoC5/CyFlash.c **** *
 101:Generated_Source\PSoC5/CyFlash.c **** * \sideeffect
 102:Generated_Source\PSoC5/CyFlash.c **** *  This setting is ignored as long as the CPU is currently running.  This will
 103:Generated_Source\PSoC5/CyFlash.c **** *  only take effect when the CPU is later disabled.
 104:Generated_Source\PSoC5/CyFlash.c **** *
 105:Generated_Source\PSoC5/CyFlash.c **** *******************************************************************************/
 106:Generated_Source\PSoC5/CyFlash.c **** void CyFlash_Stop(void) 
 107:Generated_Source\PSoC5/CyFlash.c **** {
 108:Generated_Source\PSoC5/CyFlash.c ****     uint8 interruptState;
 109:Generated_Source\PSoC5/CyFlash.c **** 
 110:Generated_Source\PSoC5/CyFlash.c ****     interruptState = CyEnterCriticalSection();
 111:Generated_Source\PSoC5/CyFlash.c **** 
 112:Generated_Source\PSoC5/CyFlash.c ****     CY_FLASH_PM_ACT_CFG12_REG    &= ((uint8)(~CY_FLASH_PM_ACT_CFG12_EN_FM));
 113:Generated_Source\PSoC5/CyFlash.c ****     CY_FLASH_PM_ALTACT_CFG12_REG &= ((uint8)(~CY_FLASH_PM_ALTACT_CFG12_EN_FM));
 114:Generated_Source\PSoC5/CyFlash.c **** 
 115:Generated_Source\PSoC5/CyFlash.c ****     CyExitCriticalSection(interruptState);
 116:Generated_Source\PSoC5/CyFlash.c **** }
 117:Generated_Source\PSoC5/CyFlash.c **** 
 118:Generated_Source\PSoC5/CyFlash.c **** 
 119:Generated_Source\PSoC5/CyFlash.c **** /*******************************************************************************
 120:Generated_Source\PSoC5/CyFlash.c **** * Function Name: CyFlash_EraseRow
 121:Generated_Source\PSoC5/CyFlash.c **** ****************************************************************************//**
 122:Generated_Source\PSoC5/CyFlash.c **** *
 123:Generated_Source\PSoC5/CyFlash.c **** *  Erases a single row of flash. Reports success or reason for failure. 
 124:Generated_Source\PSoC5/CyFlash.c **** *  The API does not return until the erase operation is complete.
 125:Generated_Source\PSoC5/CyFlash.c **** *
 126:Generated_Source\PSoC5/CyFlash.c **** *  \param arrayID:    ID of the array to erase.
 127:Generated_Source\PSoC5/CyFlash.c **** *   The arrays in the part are sequential starting at the first ID for the
 128:Generated_Source\PSoC5/CyFlash.c **** *   Flash memory type. 
 129:Generated_Source\PSoC5/CyFlash.c **** *  \param rowAddress: Row address within the specified arrayId.
 130:Generated_Source\PSoC5/CyFlash.c **** *
 131:Generated_Source\PSoC5/CyFlash.c **** *  \return
 132:Generated_Source\PSoC5/CyFlash.c **** *  status:
 133:Generated_Source\PSoC5/CyFlash.c **** *   CYRET_SUCCESS if successful.
 134:Generated_Source\PSoC5/CyFlash.c **** *   CYRET_LOCKED if the SPC is already in use.
 135:Generated_Source\PSoC5/CyFlash.c **** *   CYRET_CANCELED if command not accepted
 136:Generated_Source\PSoC5/CyFlash.c **** *   CYRET_UNKNOWN if there was an SPC error.
 137:Generated_Source\PSoC5/CyFlash.c **** *   CYRET_BAD_PARAM if one or more invalid parameters
 138:Generated_Source\PSoC5/CyFlash.c **** *
 139:Generated_Source\PSoC5/CyFlash.c **** *******************************************************************************/
 140:Generated_Source\PSoC5/CyFlash.c **** cystatus CyFlash_EraseRow(uint8 arrayId, uint16 rowAddress)
 141:Generated_Source\PSoC5/CyFlash.c **** {
 142:Generated_Source\PSoC5/CyFlash.c ****     cystatus status = CYRET_SUCCESS;
 143:Generated_Source\PSoC5/CyFlash.c **** 
 144:Generated_Source\PSoC5/CyFlash.c ****     if (arrayId > CY_SPC_LAST_FLASH_ARRAYID)
 145:Generated_Source\PSoC5/CyFlash.c ****     {
 146:Generated_Source\PSoC5/CyFlash.c ****         status = CYRET_BAD_PARAM;
ARM GAS  C:\Users\jens-\AppData\Local\Temp\ccsaVfQd.s 			page 4


 147:Generated_Source\PSoC5/CyFlash.c ****     }
 148:Generated_Source\PSoC5/CyFlash.c ****     else if(rowAddress > (CY_FLASH_NUMBER_ROWS/CY_FLASH_NUMBER_ARRAYS))
 149:Generated_Source\PSoC5/CyFlash.c ****     {
 150:Generated_Source\PSoC5/CyFlash.c ****         status = CYRET_BAD_PARAM;
 151:Generated_Source\PSoC5/CyFlash.c ****     }        
 152:Generated_Source\PSoC5/CyFlash.c ****     else
 153:Generated_Source\PSoC5/CyFlash.c ****     {
 154:Generated_Source\PSoC5/CyFlash.c ****         if(CySpcLock() == CYRET_SUCCESS)
 155:Generated_Source\PSoC5/CyFlash.c ****         {
 156:Generated_Source\PSoC5/CyFlash.c ****             /* Erase flash row */
 157:Generated_Source\PSoC5/CyFlash.c ****             status = CySpcEraseRow(arrayId, rowAddress, dieTemperature[0u], dieTemperature[1u]);
 158:Generated_Source\PSoC5/CyFlash.c ****             
 159:Generated_Source\PSoC5/CyFlash.c ****             if(CYRET_STARTED == status)
 160:Generated_Source\PSoC5/CyFlash.c ****             {
 161:Generated_Source\PSoC5/CyFlash.c ****                 while(CY_SPC_BUSY)
 162:Generated_Source\PSoC5/CyFlash.c ****                 {
 163:Generated_Source\PSoC5/CyFlash.c ****                     /* Wait for SPC to finish and get SPC status */
 164:Generated_Source\PSoC5/CyFlash.c ****                     CyDelayUs(1u);
 165:Generated_Source\PSoC5/CyFlash.c ****                 }
 166:Generated_Source\PSoC5/CyFlash.c ****                 
 167:Generated_Source\PSoC5/CyFlash.c ****                 /* Hide SPC status */
 168:Generated_Source\PSoC5/CyFlash.c ****                 if(CY_SPC_STATUS_SUCCESS == CY_SPC_READ_STATUS)
 169:Generated_Source\PSoC5/CyFlash.c ****                 {
 170:Generated_Source\PSoC5/CyFlash.c ****                     status = CYRET_SUCCESS;
 171:Generated_Source\PSoC5/CyFlash.c ****                 }
 172:Generated_Source\PSoC5/CyFlash.c ****                 else
 173:Generated_Source\PSoC5/CyFlash.c ****                 {
 174:Generated_Source\PSoC5/CyFlash.c ****                     status = CYRET_UNKNOWN;
 175:Generated_Source\PSoC5/CyFlash.c ****                 }
 176:Generated_Source\PSoC5/CyFlash.c ****             }
 177:Generated_Source\PSoC5/CyFlash.c **** 	        else
 178:Generated_Source\PSoC5/CyFlash.c ****             {
 179:Generated_Source\PSoC5/CyFlash.c ****                 status = CYRET_CANCELED;
 180:Generated_Source\PSoC5/CyFlash.c ****             }
 181:Generated_Source\PSoC5/CyFlash.c ****             CySpcUnlock();
 182:Generated_Source\PSoC5/CyFlash.c ****         }
 183:Generated_Source\PSoC5/CyFlash.c ****         else 
 184:Generated_Source\PSoC5/CyFlash.c ****         {
 185:Generated_Source\PSoC5/CyFlash.c ****             status = CYRET_LOCKED;
 186:Generated_Source\PSoC5/CyFlash.c ****         }
 187:Generated_Source\PSoC5/CyFlash.c ****     }
 188:Generated_Source\PSoC5/CyFlash.c ****     
 189:Generated_Source\PSoC5/CyFlash.c ****     return(status);
 190:Generated_Source\PSoC5/CyFlash.c **** }
 191:Generated_Source\PSoC5/CyFlash.c **** 
 192:Generated_Source\PSoC5/CyFlash.c **** 
 193:Generated_Source\PSoC5/CyFlash.c **** /*******************************************************************************
 194:Generated_Source\PSoC5/CyFlash.c **** * Function Name: CySetTempInt
 195:Generated_Source\PSoC5/CyFlash.c **** ****************************************************************************//**
 196:Generated_Source\PSoC5/CyFlash.c **** *
 197:Generated_Source\PSoC5/CyFlash.c **** *  Sends a command to the SPC to read the die temperature. Sets a global value
 198:Generated_Source\PSoC5/CyFlash.c **** *  used by the Write function. This function must be called once before
 199:Generated_Source\PSoC5/CyFlash.c **** *  executing a series of Flash writing functions.
 200:Generated_Source\PSoC5/CyFlash.c **** *
 201:Generated_Source\PSoC5/CyFlash.c **** * \return
 202:Generated_Source\PSoC5/CyFlash.c **** *  status:
 203:Generated_Source\PSoC5/CyFlash.c **** *   CYRET_SUCCESS - if successful
ARM GAS  C:\Users\jens-\AppData\Local\Temp\ccsaVfQd.s 			page 5


 204:Generated_Source\PSoC5/CyFlash.c **** *   CYRET_LOCKED  - if Flash writing already in use
 205:Generated_Source\PSoC5/CyFlash.c **** *   CYRET_UNKNOWN - if there was an SPC error
 206:Generated_Source\PSoC5/CyFlash.c **** *
 207:Generated_Source\PSoC5/CyFlash.c **** *******************************************************************************/
 208:Generated_Source\PSoC5/CyFlash.c **** static cystatus CySetTempInt(void) 
 209:Generated_Source\PSoC5/CyFlash.c **** {
  26              		.loc 1 209 1 view -0
  27              		.cfi_startproc
  28              		@ args = 0, pretend = 0, frame = 0
  29              		@ frame_needed = 0, uses_anonymous_args = 0
  30 0000 10B5     		push	{r4, lr}
  31              		.cfi_def_cfa_offset 8
  32              		.cfi_offset 4, -8
  33              		.cfi_offset 14, -4
 210:Generated_Source\PSoC5/CyFlash.c ****     cystatus status;
  34              		.loc 1 210 5 view .LVU1
 211:Generated_Source\PSoC5/CyFlash.c **** 
 212:Generated_Source\PSoC5/CyFlash.c ****     /* Make sure SPC is powered */
 213:Generated_Source\PSoC5/CyFlash.c ****     CySpcStart();
  35              		.loc 1 213 5 view .LVU2
  36 0002 FFF7FEFF 		bl	CySpcStart
  37              	.LVL0:
 214:Generated_Source\PSoC5/CyFlash.c **** 
 215:Generated_Source\PSoC5/CyFlash.c ****     /* Plan for failure. */
 216:Generated_Source\PSoC5/CyFlash.c ****     status = CYRET_UNKNOWN;
  38              		.loc 1 216 5 view .LVU3
 217:Generated_Source\PSoC5/CyFlash.c **** 
 218:Generated_Source\PSoC5/CyFlash.c ****     if(CySpcLock() == CYRET_SUCCESS)
  39              		.loc 1 218 5 view .LVU4
  40              		.loc 1 218 8 is_stmt 0 view .LVU5
  41 0006 FFF7FEFF 		bl	CySpcLock
  42              	.LVL1:
  43              		.loc 1 218 7 view .LVU6
  44 000a 10B1     		cbz	r0, .L12
 219:Generated_Source\PSoC5/CyFlash.c ****     {
 220:Generated_Source\PSoC5/CyFlash.c ****         /* Write the command. */
 221:Generated_Source\PSoC5/CyFlash.c ****         if(CYRET_STARTED == CySpcGetTemp(CY_TEMP_NUMBER_OF_SAMPLES))
 222:Generated_Source\PSoC5/CyFlash.c ****         {
 223:Generated_Source\PSoC5/CyFlash.c ****             do
 224:Generated_Source\PSoC5/CyFlash.c ****             {
 225:Generated_Source\PSoC5/CyFlash.c ****                 if(CySpcReadData(dieTemperature, CY_FLASH_DIE_TEMP_DATA_SIZE) == CY_FLASH_DIE_TEMP_
 226:Generated_Source\PSoC5/CyFlash.c ****                 {
 227:Generated_Source\PSoC5/CyFlash.c ****                     status = CYRET_SUCCESS;
 228:Generated_Source\PSoC5/CyFlash.c **** 
 229:Generated_Source\PSoC5/CyFlash.c ****                     while(CY_SPC_BUSY)
 230:Generated_Source\PSoC5/CyFlash.c ****                     {
 231:Generated_Source\PSoC5/CyFlash.c ****                         /* Spin until idle. */
 232:Generated_Source\PSoC5/CyFlash.c ****                         CyDelayUs(1u);
 233:Generated_Source\PSoC5/CyFlash.c ****                     }
 234:Generated_Source\PSoC5/CyFlash.c ****                     break;
 235:Generated_Source\PSoC5/CyFlash.c ****                 }
 236:Generated_Source\PSoC5/CyFlash.c **** 
 237:Generated_Source\PSoC5/CyFlash.c ****             } while(CY_SPC_BUSY);
 238:Generated_Source\PSoC5/CyFlash.c ****         }
 239:Generated_Source\PSoC5/CyFlash.c **** 
 240:Generated_Source\PSoC5/CyFlash.c ****         CySpcUnlock();
 241:Generated_Source\PSoC5/CyFlash.c ****     }
ARM GAS  C:\Users\jens-\AppData\Local\Temp\ccsaVfQd.s 			page 6


 242:Generated_Source\PSoC5/CyFlash.c ****     else
 243:Generated_Source\PSoC5/CyFlash.c ****     {
 244:Generated_Source\PSoC5/CyFlash.c ****         status = CYRET_LOCKED;
  45              		.loc 1 244 16 view .LVU7
  46 000c 0424     		movs	r4, #4
  47              	.LVL2:
 245:Generated_Source\PSoC5/CyFlash.c ****     }
 246:Generated_Source\PSoC5/CyFlash.c **** 
 247:Generated_Source\PSoC5/CyFlash.c ****     return (status);
  48              		.loc 1 247 5 is_stmt 1 view .LVU8
  49              	.L1:
 248:Generated_Source\PSoC5/CyFlash.c **** }
  50              		.loc 1 248 1 is_stmt 0 view .LVU9
  51 000e 2046     		mov	r0, r4
  52 0010 10BD     		pop	{r4, pc}
  53              	.LVL3:
  54              	.L12:
  55              		.loc 1 248 1 view .LVU10
  56 0012 0446     		mov	r4, r0
 221:Generated_Source\PSoC5/CyFlash.c ****         {
  57              		.loc 1 221 9 is_stmt 1 view .LVU11
 221:Generated_Source\PSoC5/CyFlash.c ****         {
  58              		.loc 1 221 29 is_stmt 0 view .LVU12
  59 0014 0120     		movs	r0, #1
  60 0016 FFF7FEFF 		bl	CySpcGetTemp
  61              	.LVL4:
 221:Generated_Source\PSoC5/CyFlash.c ****         {
  62              		.loc 1 221 11 view .LVU13
  63 001a 0728     		cmp	r0, #7
  64 001c 04D0     		beq	.L7
 216:Generated_Source\PSoC5/CyFlash.c **** 
  65              		.loc 1 216 12 view .LVU14
  66 001e 4FF0FF34 		mov	r4, #-1
  67              	.LVL5:
  68              	.L3:
 240:Generated_Source\PSoC5/CyFlash.c ****     }
  69              		.loc 1 240 9 is_stmt 1 view .LVU15
  70 0022 FFF7FEFF 		bl	CySpcUnlock
  71              	.LVL6:
  72 0026 F2E7     		b	.L1
  73              	.LVL7:
  74              	.L7:
 223:Generated_Source\PSoC5/CyFlash.c ****             {
  75              		.loc 1 223 13 view .LVU16
 225:Generated_Source\PSoC5/CyFlash.c ****                 {
  76              		.loc 1 225 17 view .LVU17
 225:Generated_Source\PSoC5/CyFlash.c ****                 {
  77              		.loc 1 225 20 is_stmt 0 view .LVU18
  78 0028 0221     		movs	r1, #2
  79 002a 0B48     		ldr	r0, .L13
  80 002c FFF7FEFF 		bl	CySpcReadData
  81              	.LVL8:
 225:Generated_Source\PSoC5/CyFlash.c ****                 {
  82              		.loc 1 225 19 view .LVU19
  83 0030 0228     		cmp	r0, #2
  84 0032 07D0     		beq	.L4
 237:Generated_Source\PSoC5/CyFlash.c ****         }
ARM GAS  C:\Users\jens-\AppData\Local\Temp\ccsaVfQd.s 			page 7


  85              		.loc 1 237 20 is_stmt 1 view .LVU20
 237:Generated_Source\PSoC5/CyFlash.c ****         }
  86              		.loc 1 237 21 is_stmt 0 view .LVU21
  87 0034 094B     		ldr	r3, .L13+4
  88 0036 1B78     		ldrb	r3, [r3]	@ zero_extendqisi2
 237:Generated_Source\PSoC5/CyFlash.c ****         }
  89              		.loc 1 237 13 view .LVU22
  90 0038 13F0020F 		tst	r3, #2
  91 003c F4D0     		beq	.L7
 216:Generated_Source\PSoC5/CyFlash.c **** 
  92              		.loc 1 216 12 view .LVU23
  93 003e 4FF0FF34 		mov	r4, #-1
  94 0042 EEE7     		b	.L3
  95              	.LVL9:
  96              	.L4:
 229:Generated_Source\PSoC5/CyFlash.c ****                     {
  97              		.loc 1 229 26 is_stmt 1 view .LVU24
 229:Generated_Source\PSoC5/CyFlash.c ****                     {
  98              		.loc 1 229 27 is_stmt 0 view .LVU25
  99 0044 054B     		ldr	r3, .L13+4
 100 0046 1B78     		ldrb	r3, [r3]	@ zero_extendqisi2
 229:Generated_Source\PSoC5/CyFlash.c ****                     {
 101              		.loc 1 229 26 view .LVU26
 102 0048 13F0020F 		tst	r3, #2
 103 004c E9D1     		bne	.L3
 232:Generated_Source\PSoC5/CyFlash.c ****                     }
 104              		.loc 1 232 25 is_stmt 1 view .LVU27
 105 004e 0120     		movs	r0, #1
 106 0050 FFF7FEFF 		bl	CyDelayUs
 107              	.LVL10:
 108 0054 F6E7     		b	.L4
 109              	.L14:
 110 0056 00BF     		.align	2
 111              	.L13:
 112 0058 00000000 		.word	dieTemperature
 113 005c 22470040 		.word	1073760034
 114              		.cfi_endproc
 115              	.LFE3:
 116              		.size	CySetTempInt, .-CySetTempInt
 117              		.section	.text.CyFlash_Start,"ax",%progbits
 118              		.align	1
 119              		.global	CyFlash_Start
 120              		.syntax unified
 121              		.thumb
 122              		.thumb_func
 123              		.fpu softvfp
 124              		.type	CyFlash_Start, %function
 125              	CyFlash_Start:
 126              	.LFB0:
  49:Generated_Source\PSoC5/CyFlash.c ****     uint8 interruptState;
 127              		.loc 1 49 1 view -0
 128              		.cfi_startproc
 129              		@ args = 0, pretend = 0, frame = 0
 130              		@ frame_needed = 0, uses_anonymous_args = 0
 131 0000 08B5     		push	{r3, lr}
 132              		.cfi_def_cfa_offset 8
 133              		.cfi_offset 3, -8
ARM GAS  C:\Users\jens-\AppData\Local\Temp\ccsaVfQd.s 			page 8


 134              		.cfi_offset 14, -4
  50:Generated_Source\PSoC5/CyFlash.c **** 
 135              		.loc 1 50 5 view .LVU29
  52:Generated_Source\PSoC5/CyFlash.c **** 
 136              		.loc 1 52 5 view .LVU30
  52:Generated_Source\PSoC5/CyFlash.c **** 
 137              		.loc 1 52 22 is_stmt 0 view .LVU31
 138 0002 FFF7FEFF 		bl	CyEnterCriticalSection
 139              	.LVL11:
  59:Generated_Source\PSoC5/CyFlash.c ****     CY_FLASH_PM_ALTACT_CFG0_REG |= CY_FLASH_PM_ALTACT_CFG0_EN_CLK_SPC;
 140              		.loc 1 59 5 is_stmt 1 view .LVU32
  59:Generated_Source\PSoC5/CyFlash.c ****     CY_FLASH_PM_ALTACT_CFG0_REG |= CY_FLASH_PM_ALTACT_CFG0_EN_CLK_SPC;
 141              		.loc 1 59 33 is_stmt 0 view .LVU33
 142 0006 0F4A     		ldr	r2, .L18
 143 0008 1378     		ldrb	r3, [r2]	@ zero_extendqisi2
 144 000a 43F00803 		orr	r3, r3, #8
 145 000e 1370     		strb	r3, [r2]
  60:Generated_Source\PSoC5/CyFlash.c **** 
 146              		.loc 1 60 5 is_stmt 1 view .LVU34
  60:Generated_Source\PSoC5/CyFlash.c **** 
 147              		.loc 1 60 33 is_stmt 0 view .LVU35
 148 0010 1032     		adds	r2, r2, #16
 149 0012 1378     		ldrb	r3, [r2]	@ zero_extendqisi2
 150 0014 43F00803 		orr	r3, r3, #8
 151 0018 1370     		strb	r3, [r2]
  73:Generated_Source\PSoC5/CyFlash.c **** 
 152              		.loc 1 73 5 is_stmt 1 view .LVU36
  73:Generated_Source\PSoC5/CyFlash.c **** 
 153              		.loc 1 73 37 is_stmt 0 view .LVU37
 154 001a 0B4B     		ldr	r3, .L18+4
 155 001c C822     		movs	r2, #200
 156 001e 1A70     		strb	r2, [r3]
  83:Generated_Source\PSoC5/CyFlash.c ****     CY_FLASH_PM_ALTACT_CFG12_REG |= CY_FLASH_PM_ALTACT_CFG12_EN_FM;
 157              		.loc 1 83 5 is_stmt 1 view .LVU38
  83:Generated_Source\PSoC5/CyFlash.c ****     CY_FLASH_PM_ALTACT_CFG12_REG |= CY_FLASH_PM_ALTACT_CFG12_EN_FM;
 158              		.loc 1 83 34 is_stmt 0 view .LVU39
 159 0020 0A4A     		ldr	r2, .L18+8
 160 0022 1378     		ldrb	r3, [r2]	@ zero_extendqisi2
 161 0024 43F00F03 		orr	r3, r3, #15
 162 0028 1370     		strb	r3, [r2]
  84:Generated_Source\PSoC5/CyFlash.c **** 
 163              		.loc 1 84 5 is_stmt 1 view .LVU40
  84:Generated_Source\PSoC5/CyFlash.c **** 
 164              		.loc 1 84 34 is_stmt 0 view .LVU41
 165 002a 1032     		adds	r2, r2, #16
 166 002c 1378     		ldrb	r3, [r2]	@ zero_extendqisi2
 167 002e 43F00F03 		orr	r3, r3, #15
 168 0032 1370     		strb	r3, [r2]
  86:Generated_Source\PSoC5/CyFlash.c ****     {
 169              		.loc 1 86 5 is_stmt 1 view .LVU42
 170              	.L16:
  89:Generated_Source\PSoC5/CyFlash.c **** 
 171              		.loc 1 89 5 discriminator 1 view .LVU43
  86:Generated_Source\PSoC5/CyFlash.c ****     {
 172              		.loc 1 86 10 discriminator 1 view .LVU44
  86:Generated_Source\PSoC5/CyFlash.c ****     {
 173              		.loc 1 86 18 is_stmt 0 discriminator 1 view .LVU45
ARM GAS  C:\Users\jens-\AppData\Local\Temp\ccsaVfQd.s 			page 9


 174 0034 064B     		ldr	r3, .L18+12
 175 0036 1B78     		ldrb	r3, [r3]	@ zero_extendqisi2
  86:Generated_Source\PSoC5/CyFlash.c ****     {
 176              		.loc 1 86 10 discriminator 1 view .LVU46
 177 0038 13F0200F 		tst	r3, #32
 178 003c FAD0     		beq	.L16
  91:Generated_Source\PSoC5/CyFlash.c **** }
 179              		.loc 1 91 5 is_stmt 1 view .LVU47
 180 003e FFF7FEFF 		bl	CyExitCriticalSection
 181              	.LVL12:
  92:Generated_Source\PSoC5/CyFlash.c **** 
 182              		.loc 1 92 1 is_stmt 0 view .LVU48
 183 0042 08BD     		pop	{r3, pc}
 184              	.L19:
 185              		.align	2
 186              	.L18:
 187 0044 A0430040 		.word	1073759136
 188 0048 01470040 		.word	1073760001
 189 004c AC430040 		.word	1073759148
 190 0050 00470040 		.word	1073760000
 191              		.cfi_endproc
 192              	.LFE0:
 193              		.size	CyFlash_Start, .-CyFlash_Start
 194              		.section	.text.CyFlash_Stop,"ax",%progbits
 195              		.align	1
 196              		.global	CyFlash_Stop
 197              		.syntax unified
 198              		.thumb
 199              		.thumb_func
 200              		.fpu softvfp
 201              		.type	CyFlash_Stop, %function
 202              	CyFlash_Stop:
 203              	.LFB1:
 107:Generated_Source\PSoC5/CyFlash.c ****     uint8 interruptState;
 204              		.loc 1 107 1 is_stmt 1 view -0
 205              		.cfi_startproc
 206              		@ args = 0, pretend = 0, frame = 0
 207              		@ frame_needed = 0, uses_anonymous_args = 0
 208 0000 08B5     		push	{r3, lr}
 209              		.cfi_def_cfa_offset 8
 210              		.cfi_offset 3, -8
 211              		.cfi_offset 14, -4
 108:Generated_Source\PSoC5/CyFlash.c **** 
 212              		.loc 1 108 5 view .LVU50
 110:Generated_Source\PSoC5/CyFlash.c **** 
 213              		.loc 1 110 5 view .LVU51
 110:Generated_Source\PSoC5/CyFlash.c **** 
 214              		.loc 1 110 22 is_stmt 0 view .LVU52
 215 0002 FFF7FEFF 		bl	CyEnterCriticalSection
 216              	.LVL13:
 112:Generated_Source\PSoC5/CyFlash.c ****     CY_FLASH_PM_ALTACT_CFG12_REG &= ((uint8)(~CY_FLASH_PM_ALTACT_CFG12_EN_FM));
 217              		.loc 1 112 5 is_stmt 1 view .LVU53
 112:Generated_Source\PSoC5/CyFlash.c ****     CY_FLASH_PM_ALTACT_CFG12_REG &= ((uint8)(~CY_FLASH_PM_ALTACT_CFG12_EN_FM));
 218              		.loc 1 112 34 is_stmt 0 view .LVU54
 219 0006 064A     		ldr	r2, .L22
 220 0008 1378     		ldrb	r3, [r2]	@ zero_extendqisi2
 221 000a 03F0F003 		and	r3, r3, #240
ARM GAS  C:\Users\jens-\AppData\Local\Temp\ccsaVfQd.s 			page 10


 222 000e 1370     		strb	r3, [r2]
 113:Generated_Source\PSoC5/CyFlash.c **** 
 223              		.loc 1 113 5 is_stmt 1 view .LVU55
 113:Generated_Source\PSoC5/CyFlash.c **** 
 224              		.loc 1 113 34 is_stmt 0 view .LVU56
 225 0010 1032     		adds	r2, r2, #16
 226 0012 1378     		ldrb	r3, [r2]	@ zero_extendqisi2
 227 0014 03F0F003 		and	r3, r3, #240
 228 0018 1370     		strb	r3, [r2]
 115:Generated_Source\PSoC5/CyFlash.c **** }
 229              		.loc 1 115 5 is_stmt 1 view .LVU57
 230 001a FFF7FEFF 		bl	CyExitCriticalSection
 231              	.LVL14:
 116:Generated_Source\PSoC5/CyFlash.c **** 
 232              		.loc 1 116 1 is_stmt 0 view .LVU58
 233 001e 08BD     		pop	{r3, pc}
 234              	.L23:
 235              		.align	2
 236              	.L22:
 237 0020 AC430040 		.word	1073759148
 238              		.cfi_endproc
 239              	.LFE1:
 240              		.size	CyFlash_Stop, .-CyFlash_Stop
 241              		.section	.text.CyFlash_EraseRow,"ax",%progbits
 242              		.align	1
 243              		.global	CyFlash_EraseRow
 244              		.syntax unified
 245              		.thumb
 246              		.thumb_func
 247              		.fpu softvfp
 248              		.type	CyFlash_EraseRow, %function
 249              	CyFlash_EraseRow:
 250              	.LVL15:
 251              	.LFB2:
 141:Generated_Source\PSoC5/CyFlash.c ****     cystatus status = CYRET_SUCCESS;
 252              		.loc 1 141 1 is_stmt 1 view -0
 253              		.cfi_startproc
 254              		@ args = 0, pretend = 0, frame = 0
 255              		@ frame_needed = 0, uses_anonymous_args = 0
 141:Generated_Source\PSoC5/CyFlash.c ****     cystatus status = CYRET_SUCCESS;
 256              		.loc 1 141 1 is_stmt 0 view .LVU60
 257 0000 70B5     		push	{r4, r5, r6, lr}
 258              		.cfi_def_cfa_offset 16
 259              		.cfi_offset 4, -16
 260              		.cfi_offset 5, -12
 261              		.cfi_offset 6, -8
 262              		.cfi_offset 14, -4
 142:Generated_Source\PSoC5/CyFlash.c **** 
 263              		.loc 1 142 5 is_stmt 1 view .LVU61
 264              	.LVL16:
 144:Generated_Source\PSoC5/CyFlash.c ****     {
 265              		.loc 1 144 5 view .LVU62
 144:Generated_Source\PSoC5/CyFlash.c ****     {
 266              		.loc 1 144 8 is_stmt 0 view .LVU63
 267 0002 3F28     		cmp	r0, #63
 268 0004 30D8     		bhi	.L29
 269 0006 0446     		mov	r4, r0
ARM GAS  C:\Users\jens-\AppData\Local\Temp\ccsaVfQd.s 			page 11


 270 0008 0D46     		mov	r5, r1
 148:Generated_Source\PSoC5/CyFlash.c ****     {
 271              		.loc 1 148 10 is_stmt 1 view .LVU64
 148:Generated_Source\PSoC5/CyFlash.c ****     {
 272              		.loc 1 148 12 is_stmt 0 view .LVU65
 273 000a B1F5807F 		cmp	r1, #256
 274 000e 01D9     		bls	.L34
 150:Generated_Source\PSoC5/CyFlash.c ****     }        
 275              		.loc 1 150 16 view .LVU66
 276 0010 0126     		movs	r6, #1
 277 0012 2AE0     		b	.L24
 278              	.L34:
 154:Generated_Source\PSoC5/CyFlash.c ****         {
 279              		.loc 1 154 9 is_stmt 1 view .LVU67
 154:Generated_Source\PSoC5/CyFlash.c ****         {
 280              		.loc 1 154 12 is_stmt 0 view .LVU68
 281 0014 FFF7FEFF 		bl	CySpcLock
 282              	.LVL17:
 154:Generated_Source\PSoC5/CyFlash.c ****         {
 283              		.loc 1 154 11 view .LVU69
 284 0018 0646     		mov	r6, r0
 285 001a 08B1     		cbz	r0, .L35
 185:Generated_Source\PSoC5/CyFlash.c ****         }
 286              		.loc 1 185 20 view .LVU70
 287 001c 0426     		movs	r6, #4
 288              	.LVL18:
 189:Generated_Source\PSoC5/CyFlash.c **** }
 289              		.loc 1 189 5 is_stmt 1 view .LVU71
 189:Generated_Source\PSoC5/CyFlash.c **** }
 290              		.loc 1 189 11 is_stmt 0 view .LVU72
 291 001e 24E0     		b	.L24
 292              	.LVL19:
 293              	.L35:
 157:Generated_Source\PSoC5/CyFlash.c ****             
 294              		.loc 1 157 13 is_stmt 1 view .LVU73
 157:Generated_Source\PSoC5/CyFlash.c ****             
 295              		.loc 1 157 22 is_stmt 0 view .LVU74
 296 0020 134A     		ldr	r2, .L36
 297 0022 5378     		ldrb	r3, [r2, #1]	@ zero_extendqisi2
 298 0024 1278     		ldrb	r2, [r2]	@ zero_extendqisi2
 299 0026 2946     		mov	r1, r5
 300 0028 2046     		mov	r0, r4
 301 002a FFF7FEFF 		bl	CySpcEraseRow
 302              	.LVL20:
 159:Generated_Source\PSoC5/CyFlash.c ****             {
 303              		.loc 1 159 13 is_stmt 1 view .LVU75
 159:Generated_Source\PSoC5/CyFlash.c ****             {
 304              		.loc 1 159 15 is_stmt 0 view .LVU76
 305 002e 0728     		cmp	r0, #7
 306 0030 06D0     		beq	.L26
 179:Generated_Source\PSoC5/CyFlash.c ****             }
 307              		.loc 1 179 24 view .LVU77
 308 0032 0926     		movs	r6, #9
 309              	.LVL21:
 310              	.L27:
 181:Generated_Source\PSoC5/CyFlash.c ****         }
 311              		.loc 1 181 13 is_stmt 1 view .LVU78
ARM GAS  C:\Users\jens-\AppData\Local\Temp\ccsaVfQd.s 			page 12


 312 0034 FFF7FEFF 		bl	CySpcUnlock
 313              	.LVL22:
 314 0038 17E0     		b	.L24
 315              	.LVL23:
 316              	.L28:
 164:Generated_Source\PSoC5/CyFlash.c ****                 }
 317              		.loc 1 164 21 view .LVU79
 318 003a 0120     		movs	r0, #1
 319 003c FFF7FEFF 		bl	CyDelayUs
 320              	.LVL24:
 321              	.L26:
 161:Generated_Source\PSoC5/CyFlash.c ****                 {
 322              		.loc 1 161 22 view .LVU80
 161:Generated_Source\PSoC5/CyFlash.c ****                 {
 323              		.loc 1 161 23 is_stmt 0 view .LVU81
 324 0040 0C4B     		ldr	r3, .L36+4
 325 0042 1B78     		ldrb	r3, [r3]	@ zero_extendqisi2
 161:Generated_Source\PSoC5/CyFlash.c ****                 {
 326              		.loc 1 161 22 view .LVU82
 327 0044 13F0020F 		tst	r3, #2
 328 0048 F7D0     		beq	.L28
 168:Generated_Source\PSoC5/CyFlash.c ****                 {
 329              		.loc 1 168 17 is_stmt 1 view .LVU83
 168:Generated_Source\PSoC5/CyFlash.c ****                 {
 330              		.loc 1 168 45 is_stmt 0 view .LVU84
 331 004a 0A4B     		ldr	r3, .L36+4
 332 004c 1B78     		ldrb	r3, [r3]	@ zero_extendqisi2
 168:Generated_Source\PSoC5/CyFlash.c ****                 {
 333              		.loc 1 168 19 view .LVU85
 334 004e 13F0020F 		tst	r3, #2
 335 0052 06D0     		beq	.L32
 168:Generated_Source\PSoC5/CyFlash.c ****                 {
 336              		.loc 1 168 45 discriminator 1 view .LVU86
 337 0054 074B     		ldr	r3, .L36+4
 338 0056 1B78     		ldrb	r3, [r3]	@ zero_extendqisi2
 168:Generated_Source\PSoC5/CyFlash.c ****                 {
 339              		.loc 1 168 42 discriminator 1 view .LVU87
 340 0058 9B08     		lsrs	r3, r3, #2
 341 005a EBD0     		beq	.L27
 174:Generated_Source\PSoC5/CyFlash.c ****                 }
 342              		.loc 1 174 28 view .LVU88
 343 005c 4FF0FF36 		mov	r6, #-1
 344 0060 E8E7     		b	.L27
 345              	.L32:
 346 0062 4FF0FF36 		mov	r6, #-1
 347 0066 E5E7     		b	.L27
 348              	.LVL25:
 349              	.L29:
 146:Generated_Source\PSoC5/CyFlash.c ****     }
 350              		.loc 1 146 16 view .LVU89
 351 0068 0126     		movs	r6, #1
 352              	.LVL26:
 353              	.L24:
 190:Generated_Source\PSoC5/CyFlash.c **** 
 354              		.loc 1 190 1 view .LVU90
 355 006a 3046     		mov	r0, r6
 356 006c 70BD     		pop	{r4, r5, r6, pc}
ARM GAS  C:\Users\jens-\AppData\Local\Temp\ccsaVfQd.s 			page 13


 357              	.L37:
 358 006e 00BF     		.align	2
 359              	.L36:
 360 0070 00000000 		.word	dieTemperature
 361 0074 22470040 		.word	1073760034
 362              		.cfi_endproc
 363              	.LFE2:
 364              		.size	CyFlash_EraseRow, .-CyFlash_EraseRow
 365              		.section	.text.CyFlashGetSpcAlgorithm,"ax",%progbits
 366              		.align	1
 367              		.global	CyFlashGetSpcAlgorithm
 368              		.syntax unified
 369              		.thumb
 370              		.thumb_func
 371              		.fpu softvfp
 372              		.type	CyFlashGetSpcAlgorithm, %function
 373              	CyFlashGetSpcAlgorithm:
 374              	.LFB4:
 249:Generated_Source\PSoC5/CyFlash.c **** 
 250:Generated_Source\PSoC5/CyFlash.c **** 
 251:Generated_Source\PSoC5/CyFlash.c **** /*******************************************************************************
 252:Generated_Source\PSoC5/CyFlash.c **** * Function Name: CyFlashGetSpcAlgorithm
 253:Generated_Source\PSoC5/CyFlash.c **** ****************************************************************************//**
 254:Generated_Source\PSoC5/CyFlash.c **** *
 255:Generated_Source\PSoC5/CyFlash.c **** *  Sends a command to the SPC to download code into RAM.
 256:Generated_Source\PSoC5/CyFlash.c **** *
 257:Generated_Source\PSoC5/CyFlash.c **** * \return
 258:Generated_Source\PSoC5/CyFlash.c **** *  status:
 259:Generated_Source\PSoC5/CyFlash.c **** *   CYRET_SUCCESS - if successful
 260:Generated_Source\PSoC5/CyFlash.c **** *   CYRET_LOCKED  - if Flash writing already in use
 261:Generated_Source\PSoC5/CyFlash.c **** *   CYRET_UNKNOWN - if there was an SPC error
 262:Generated_Source\PSoC5/CyFlash.c **** *
 263:Generated_Source\PSoC5/CyFlash.c **** *******************************************************************************/
 264:Generated_Source\PSoC5/CyFlash.c **** cystatus CyFlashGetSpcAlgorithm(void) 
 265:Generated_Source\PSoC5/CyFlash.c **** {
 375              		.loc 1 265 1 is_stmt 1 view -0
 376              		.cfi_startproc
 377              		@ args = 0, pretend = 0, frame = 0
 378              		@ frame_needed = 0, uses_anonymous_args = 0
 379 0000 38B5     		push	{r3, r4, r5, lr}
 380              		.cfi_def_cfa_offset 16
 381              		.cfi_offset 3, -16
 382              		.cfi_offset 4, -12
 383              		.cfi_offset 5, -8
 384              		.cfi_offset 14, -4
 266:Generated_Source\PSoC5/CyFlash.c ****     cystatus status;
 385              		.loc 1 266 5 view .LVU92
 267:Generated_Source\PSoC5/CyFlash.c **** 
 268:Generated_Source\PSoC5/CyFlash.c ****     /* Make sure SPC is powered */
 269:Generated_Source\PSoC5/CyFlash.c ****     CySpcStart();
 386              		.loc 1 269 5 view .LVU93
 387 0002 FFF7FEFF 		bl	CySpcStart
 388              	.LVL27:
 270:Generated_Source\PSoC5/CyFlash.c **** 
 271:Generated_Source\PSoC5/CyFlash.c ****     if(CySpcLock() == CYRET_SUCCESS)
 389              		.loc 1 271 5 view .LVU94
 390              		.loc 1 271 8 is_stmt 0 view .LVU95
ARM GAS  C:\Users\jens-\AppData\Local\Temp\ccsaVfQd.s 			page 14


 391 0006 FFF7FEFF 		bl	CySpcLock
 392              	.LVL28:
 393              		.loc 1 271 7 view .LVU96
 394 000a 10B1     		cbz	r0, .L46
 272:Generated_Source\PSoC5/CyFlash.c ****     {
 273:Generated_Source\PSoC5/CyFlash.c ****         status = CySpcGetAlgorithm();
 274:Generated_Source\PSoC5/CyFlash.c **** 
 275:Generated_Source\PSoC5/CyFlash.c ****         if(CYRET_STARTED == status)
 276:Generated_Source\PSoC5/CyFlash.c ****         {
 277:Generated_Source\PSoC5/CyFlash.c ****             while(CY_SPC_BUSY)
 278:Generated_Source\PSoC5/CyFlash.c ****             {
 279:Generated_Source\PSoC5/CyFlash.c ****                 /* Spin until idle. */
 280:Generated_Source\PSoC5/CyFlash.c ****                 CyDelayUs(1u);
 281:Generated_Source\PSoC5/CyFlash.c ****             }
 282:Generated_Source\PSoC5/CyFlash.c **** 
 283:Generated_Source\PSoC5/CyFlash.c ****             if(CY_SPC_STATUS_SUCCESS == CY_SPC_READ_STATUS)
 284:Generated_Source\PSoC5/CyFlash.c ****             {
 285:Generated_Source\PSoC5/CyFlash.c ****                 status = CYRET_SUCCESS;
 286:Generated_Source\PSoC5/CyFlash.c ****             }
 287:Generated_Source\PSoC5/CyFlash.c ****         }
 288:Generated_Source\PSoC5/CyFlash.c ****         CySpcUnlock();
 289:Generated_Source\PSoC5/CyFlash.c ****     }
 290:Generated_Source\PSoC5/CyFlash.c ****     else
 291:Generated_Source\PSoC5/CyFlash.c ****     {
 292:Generated_Source\PSoC5/CyFlash.c ****         status = CYRET_LOCKED;
 395              		.loc 1 292 16 view .LVU97
 396 000c 0424     		movs	r4, #4
 397              	.LVL29:
 293:Generated_Source\PSoC5/CyFlash.c ****     }
 294:Generated_Source\PSoC5/CyFlash.c **** 
 295:Generated_Source\PSoC5/CyFlash.c ****     return (status);
 398              		.loc 1 295 5 is_stmt 1 view .LVU98
 399              	.L38:
 296:Generated_Source\PSoC5/CyFlash.c **** }
 400              		.loc 1 296 1 is_stmt 0 view .LVU99
 401 000e 2046     		mov	r0, r4
 402 0010 38BD     		pop	{r3, r4, r5, pc}
 403              	.L46:
 404 0012 0546     		mov	r5, r0
 273:Generated_Source\PSoC5/CyFlash.c **** 
 405              		.loc 1 273 9 is_stmt 1 view .LVU100
 273:Generated_Source\PSoC5/CyFlash.c **** 
 406              		.loc 1 273 18 is_stmt 0 view .LVU101
 407 0014 FFF7FEFF 		bl	CySpcGetAlgorithm
 408              	.LVL30:
 409 0018 0446     		mov	r4, r0
 410              	.LVL31:
 275:Generated_Source\PSoC5/CyFlash.c ****         {
 411              		.loc 1 275 9 is_stmt 1 view .LVU102
 275:Generated_Source\PSoC5/CyFlash.c ****         {
 412              		.loc 1 275 11 is_stmt 0 view .LVU103
 413 001a 0728     		cmp	r0, #7
 414 001c 05D0     		beq	.L40
 415              	.LVL32:
 416              	.L41:
 288:Generated_Source\PSoC5/CyFlash.c ****     }
 417              		.loc 1 288 9 is_stmt 1 view .LVU104
ARM GAS  C:\Users\jens-\AppData\Local\Temp\ccsaVfQd.s 			page 15


 418 001e FFF7FEFF 		bl	CySpcUnlock
 419              	.LVL33:
 420 0022 F4E7     		b	.L38
 421              	.L42:
 280:Generated_Source\PSoC5/CyFlash.c ****             }
 422              		.loc 1 280 17 view .LVU105
 423 0024 0120     		movs	r0, #1
 424 0026 FFF7FEFF 		bl	CyDelayUs
 425              	.LVL34:
 426              	.L40:
 277:Generated_Source\PSoC5/CyFlash.c ****             {
 427              		.loc 1 277 18 view .LVU106
 277:Generated_Source\PSoC5/CyFlash.c ****             {
 428              		.loc 1 277 19 is_stmt 0 view .LVU107
 429 002a 084B     		ldr	r3, .L47
 430 002c 1B78     		ldrb	r3, [r3]	@ zero_extendqisi2
 277:Generated_Source\PSoC5/CyFlash.c ****             {
 431              		.loc 1 277 18 view .LVU108
 432 002e 13F0020F 		tst	r3, #2
 433 0032 F7D0     		beq	.L42
 283:Generated_Source\PSoC5/CyFlash.c ****             {
 434              		.loc 1 283 13 is_stmt 1 view .LVU109
 283:Generated_Source\PSoC5/CyFlash.c ****             {
 435              		.loc 1 283 41 is_stmt 0 view .LVU110
 436 0034 054B     		ldr	r3, .L47
 437 0036 1B78     		ldrb	r3, [r3]	@ zero_extendqisi2
 283:Generated_Source\PSoC5/CyFlash.c ****             {
 438              		.loc 1 283 15 view .LVU111
 439 0038 13F0020F 		tst	r3, #2
 440 003c EFD0     		beq	.L41
 283:Generated_Source\PSoC5/CyFlash.c ****             {
 441              		.loc 1 283 41 discriminator 1 view .LVU112
 442 003e 034B     		ldr	r3, .L47
 443 0040 1B78     		ldrb	r3, [r3]	@ zero_extendqisi2
 283:Generated_Source\PSoC5/CyFlash.c ****             {
 444              		.loc 1 283 38 discriminator 1 view .LVU113
 445 0042 9B08     		lsrs	r3, r3, #2
 446 0044 EBD1     		bne	.L41
 285:Generated_Source\PSoC5/CyFlash.c ****             }
 447              		.loc 1 285 24 view .LVU114
 448 0046 2C46     		mov	r4, r5
 449              	.LVL35:
 285:Generated_Source\PSoC5/CyFlash.c ****             }
 450              		.loc 1 285 24 view .LVU115
 451 0048 E9E7     		b	.L41
 452              	.L48:
 453 004a 00BF     		.align	2
 454              	.L47:
 455 004c 22470040 		.word	1073760034
 456              		.cfi_endproc
 457              	.LFE4:
 458              		.size	CyFlashGetSpcAlgorithm, .-CyFlashGetSpcAlgorithm
 459              		.section	.text.CySetTemp,"ax",%progbits
 460              		.align	1
 461              		.global	CySetTemp
 462              		.syntax unified
 463              		.thumb
ARM GAS  C:\Users\jens-\AppData\Local\Temp\ccsaVfQd.s 			page 16


 464              		.thumb_func
 465              		.fpu softvfp
 466              		.type	CySetTemp, %function
 467              	CySetTemp:
 468              	.LFB5:
 297:Generated_Source\PSoC5/CyFlash.c **** 
 298:Generated_Source\PSoC5/CyFlash.c **** 
 299:Generated_Source\PSoC5/CyFlash.c **** /*******************************************************************************
 300:Generated_Source\PSoC5/CyFlash.c **** * Function Name: CySetTemp
 301:Generated_Source\PSoC5/CyFlash.c **** ****************************************************************************//**
 302:Generated_Source\PSoC5/CyFlash.c **** *
 303:Generated_Source\PSoC5/CyFlash.c **** *  This is a wraparound for CySetTempInt(). It is used to return the second
 304:Generated_Source\PSoC5/CyFlash.c **** *  successful read of the temperature value.
 305:Generated_Source\PSoC5/CyFlash.c **** *
 306:Generated_Source\PSoC5/CyFlash.c **** * \return
 307:Generated_Source\PSoC5/CyFlash.c **** *  status:
 308:Generated_Source\PSoC5/CyFlash.c **** *   CYRET_SUCCESS if successful.
 309:Generated_Source\PSoC5/CyFlash.c **** *   CYRET_LOCKED  if Flash writing already in use
 310:Generated_Source\PSoC5/CyFlash.c **** *   CYRET_UNKNOWN if there was an SPC error.
 311:Generated_Source\PSoC5/CyFlash.c **** *
 312:Generated_Source\PSoC5/CyFlash.c **** *  uint8 dieTemperature[2]:
 313:Generated_Source\PSoC5/CyFlash.c **** *   Holds the die temperature for the flash writing algorithm. The first byte is
 314:Generated_Source\PSoC5/CyFlash.c **** *   the sign of the temperature (0 = negative, 1 = positive). The second byte is
 315:Generated_Source\PSoC5/CyFlash.c **** *   the magnitude.
 316:Generated_Source\PSoC5/CyFlash.c **** *
 317:Generated_Source\PSoC5/CyFlash.c **** *******************************************************************************/
 318:Generated_Source\PSoC5/CyFlash.c **** cystatus CySetTemp(void) 
 319:Generated_Source\PSoC5/CyFlash.c **** {
 469              		.loc 1 319 1 is_stmt 1 view -0
 470              		.cfi_startproc
 471              		@ args = 0, pretend = 0, frame = 0
 472              		@ frame_needed = 0, uses_anonymous_args = 0
 473 0000 08B5     		push	{r3, lr}
 474              		.cfi_def_cfa_offset 8
 475              		.cfi_offset 3, -8
 476              		.cfi_offset 14, -4
 320:Generated_Source\PSoC5/CyFlash.c ****     cystatus status = CyFlashGetSpcAlgorithm();
 477              		.loc 1 320 5 view .LVU117
 478              		.loc 1 320 23 is_stmt 0 view .LVU118
 479 0002 FFF7FEFF 		bl	CyFlashGetSpcAlgorithm
 480              	.LVL36:
 321:Generated_Source\PSoC5/CyFlash.c **** 
 322:Generated_Source\PSoC5/CyFlash.c ****     if(status == CYRET_SUCCESS)
 481              		.loc 1 322 5 is_stmt 1 view .LVU119
 482              		.loc 1 322 7 is_stmt 0 view .LVU120
 483 0006 00B1     		cbz	r0, .L52
 484              	.L49:
 323:Generated_Source\PSoC5/CyFlash.c ****     {
 324:Generated_Source\PSoC5/CyFlash.c ****         status = CySetTempInt();
 325:Generated_Source\PSoC5/CyFlash.c ****     }
 326:Generated_Source\PSoC5/CyFlash.c **** 
 327:Generated_Source\PSoC5/CyFlash.c ****     return (status);
 328:Generated_Source\PSoC5/CyFlash.c **** }
 485              		.loc 1 328 1 view .LVU121
 486 0008 08BD     		pop	{r3, pc}
 487              	.L52:
 324:Generated_Source\PSoC5/CyFlash.c ****     }
ARM GAS  C:\Users\jens-\AppData\Local\Temp\ccsaVfQd.s 			page 17


 488              		.loc 1 324 9 is_stmt 1 view .LVU122
 324:Generated_Source\PSoC5/CyFlash.c ****     }
 489              		.loc 1 324 18 is_stmt 0 view .LVU123
 490 000a FFF7FEFF 		bl	CySetTempInt
 491              	.LVL37:
 327:Generated_Source\PSoC5/CyFlash.c **** }
 492              		.loc 1 327 5 is_stmt 1 view .LVU124
 327:Generated_Source\PSoC5/CyFlash.c **** }
 493              		.loc 1 327 12 is_stmt 0 view .LVU125
 494 000e FBE7     		b	.L49
 495              		.cfi_endproc
 496              	.LFE5:
 497              		.size	CySetTemp, .-CySetTemp
 498              		.section	.text.CySetFlashEEBuffer,"ax",%progbits
 499              		.align	1
 500              		.global	CySetFlashEEBuffer
 501              		.syntax unified
 502              		.thumb
 503              		.thumb_func
 504              		.fpu softvfp
 505              		.type	CySetFlashEEBuffer, %function
 506              	CySetFlashEEBuffer:
 507              	.LVL38:
 508              	.LFB6:
 329:Generated_Source\PSoC5/CyFlash.c **** 
 330:Generated_Source\PSoC5/CyFlash.c **** 
 331:Generated_Source\PSoC5/CyFlash.c **** /*******************************************************************************
 332:Generated_Source\PSoC5/CyFlash.c **** * Function Name: CySetFlashEEBuffer
 333:Generated_Source\PSoC5/CyFlash.c **** ****************************************************************************//**
 334:Generated_Source\PSoC5/CyFlash.c **** *
 335:Generated_Source\PSoC5/CyFlash.c **** *  Sets the user supplied temporary buffer to store SPC data while performing
 336:Generated_Source\PSoC5/CyFlash.c **** *  Flash and EEPROM commands. This buffer is only necessary when the Flash ECC
 337:Generated_Source\PSoC5/CyFlash.c **** *  is disabled.
 338:Generated_Source\PSoC5/CyFlash.c **** *
 339:Generated_Source\PSoC5/CyFlash.c **** *  \param buffer:
 340:Generated_Source\PSoC5/CyFlash.c **** *   The address of a block of memory to store temporary memory. The size of the
 341:Generated_Source\PSoC5/CyFlash.c **** *   block of memory is CYDEV_FLS_ROW_SIZE + CYDEV_ECC_ROW_SIZE.
 342:Generated_Source\PSoC5/CyFlash.c **** *
 343:Generated_Source\PSoC5/CyFlash.c **** * \return
 344:Generated_Source\PSoC5/CyFlash.c **** *  status:
 345:Generated_Source\PSoC5/CyFlash.c **** *   CYRET_SUCCESS if successful.
 346:Generated_Source\PSoC5/CyFlash.c **** *   CYRET_BAD_PARAM if the buffer is NULL
 347:Generated_Source\PSoC5/CyFlash.c **** *
 348:Generated_Source\PSoC5/CyFlash.c **** *******************************************************************************/
 349:Generated_Source\PSoC5/CyFlash.c **** cystatus CySetFlashEEBuffer(uint8 * buffer) 
 350:Generated_Source\PSoC5/CyFlash.c **** {
 509              		.loc 1 350 1 is_stmt 1 view -0
 510              		.cfi_startproc
 511              		@ args = 0, pretend = 0, frame = 0
 512              		@ frame_needed = 0, uses_anonymous_args = 0
 513              		.loc 1 350 1 is_stmt 0 view .LVU127
 514 0000 10B5     		push	{r4, lr}
 515              		.cfi_def_cfa_offset 8
 516              		.cfi_offset 4, -8
 517              		.cfi_offset 14, -4
 518 0002 0446     		mov	r4, r0
 351:Generated_Source\PSoC5/CyFlash.c ****     cystatus status = CYRET_SUCCESS;
ARM GAS  C:\Users\jens-\AppData\Local\Temp\ccsaVfQd.s 			page 18


 519              		.loc 1 351 5 is_stmt 1 view .LVU128
 520              	.LVL39:
 352:Generated_Source\PSoC5/CyFlash.c **** 
 353:Generated_Source\PSoC5/CyFlash.c ****     CySpcStart();
 521              		.loc 1 353 5 view .LVU129
 522 0004 FFF7FEFF 		bl	CySpcStart
 523              	.LVL40:
 354:Generated_Source\PSoC5/CyFlash.c **** 
 355:Generated_Source\PSoC5/CyFlash.c ****     #if(CYDEV_ECC_ENABLE == 0)
 356:Generated_Source\PSoC5/CyFlash.c **** 
 357:Generated_Source\PSoC5/CyFlash.c ****         if(NULL == buffer)
 524              		.loc 1 357 9 view .LVU130
 525              		.loc 1 357 11 is_stmt 0 view .LVU131
 526 0008 44B1     		cbz	r4, .L55
 358:Generated_Source\PSoC5/CyFlash.c ****         {
 359:Generated_Source\PSoC5/CyFlash.c ****             rowBuffer = rowBuffer;
 360:Generated_Source\PSoC5/CyFlash.c ****             status = CYRET_BAD_PARAM;
 361:Generated_Source\PSoC5/CyFlash.c ****         }
 362:Generated_Source\PSoC5/CyFlash.c ****         else if(CySpcLock() != CYRET_SUCCESS)
 527              		.loc 1 362 14 is_stmt 1 view .LVU132
 528              		.loc 1 362 17 is_stmt 0 view .LVU133
 529 000a FFF7FEFF 		bl	CySpcLock
 530              	.LVL41:
 531              		.loc 1 362 16 view .LVU134
 532 000e 0446     		mov	r4, r0
 533              	.LVL42:
 534              		.loc 1 362 16 view .LVU135
 535 0010 08B1     		cbz	r0, .L58
 363:Generated_Source\PSoC5/CyFlash.c ****         {
 364:Generated_Source\PSoC5/CyFlash.c ****             rowBuffer = rowBuffer;
 365:Generated_Source\PSoC5/CyFlash.c ****             status = CYRET_LOCKED;
 536              		.loc 1 365 20 view .LVU136
 537 0012 0424     		movs	r4, #4
 538              	.LVL43:
 366:Generated_Source\PSoC5/CyFlash.c ****         }
 367:Generated_Source\PSoC5/CyFlash.c ****         else
 368:Generated_Source\PSoC5/CyFlash.c ****         {
 369:Generated_Source\PSoC5/CyFlash.c ****             rowBuffer = buffer;
 370:Generated_Source\PSoC5/CyFlash.c ****             CySpcUnlock();
 371:Generated_Source\PSoC5/CyFlash.c ****         }
 372:Generated_Source\PSoC5/CyFlash.c **** 
 373:Generated_Source\PSoC5/CyFlash.c ****     #else
 374:Generated_Source\PSoC5/CyFlash.c **** 
 375:Generated_Source\PSoC5/CyFlash.c ****         /* To suppress warning */
 376:Generated_Source\PSoC5/CyFlash.c ****         buffer = buffer;
 377:Generated_Source\PSoC5/CyFlash.c **** 
 378:Generated_Source\PSoC5/CyFlash.c ****     #endif  /* (CYDEV_ECC_ENABLE == 0u) */
 379:Generated_Source\PSoC5/CyFlash.c **** 
 380:Generated_Source\PSoC5/CyFlash.c ****     return(status);
 539              		.loc 1 380 5 is_stmt 1 view .LVU137
 540              		.loc 1 380 11 is_stmt 0 view .LVU138
 541 0014 03E0     		b	.L53
 542              	.LVL44:
 543              	.L58:
 369:Generated_Source\PSoC5/CyFlash.c ****             CySpcUnlock();
 544              		.loc 1 369 13 is_stmt 1 view .LVU139
 370:Generated_Source\PSoC5/CyFlash.c ****         }
ARM GAS  C:\Users\jens-\AppData\Local\Temp\ccsaVfQd.s 			page 19


 545              		.loc 1 370 13 view .LVU140
 546 0016 FFF7FEFF 		bl	CySpcUnlock
 547              	.LVL45:
 548 001a 00E0     		b	.L53
 549              	.LVL46:
 550              	.L55:
 360:Generated_Source\PSoC5/CyFlash.c ****         }
 551              		.loc 1 360 20 is_stmt 0 view .LVU141
 552 001c 0124     		movs	r4, #1
 553              	.LVL47:
 554              	.L53:
 381:Generated_Source\PSoC5/CyFlash.c **** }
 555              		.loc 1 381 1 view .LVU142
 556 001e 2046     		mov	r0, r4
 557 0020 10BD     		pop	{r4, pc}
 558              		.cfi_endproc
 559              	.LFE6:
 560              		.size	CySetFlashEEBuffer, .-CySetFlashEEBuffer
 561              		.section	.text.CyWriteRowFull,"ax",%progbits
 562              		.align	1
 563              		.global	CyWriteRowFull
 564              		.syntax unified
 565              		.thumb
 566              		.thumb_func
 567              		.fpu softvfp
 568              		.type	CyWriteRowFull, %function
 569              	CyWriteRowFull:
 570              	.LVL48:
 571              	.LFB8:
 382:Generated_Source\PSoC5/CyFlash.c **** 
 383:Generated_Source\PSoC5/CyFlash.c **** 
 384:Generated_Source\PSoC5/CyFlash.c **** /*******************************************************************************
 385:Generated_Source\PSoC5/CyFlash.c **** * Function Name: CyWriteRowData
 386:Generated_Source\PSoC5/CyFlash.c **** ****************************************************************************//**
 387:Generated_Source\PSoC5/CyFlash.c **** *
 388:Generated_Source\PSoC5/CyFlash.c **** *  Sends a command to the SPC to load and program a row of data in
 389:Generated_Source\PSoC5/CyFlash.c **** *  Flash or EEPROM.
 390:Generated_Source\PSoC5/CyFlash.c **** *
 391:Generated_Source\PSoC5/CyFlash.c **** *  \param arrayID:    ID of the array to write.
 392:Generated_Source\PSoC5/CyFlash.c **** *   The type of write, Flash or EEPROM, is determined from the array ID.
 393:Generated_Source\PSoC5/CyFlash.c **** *   The arrays in the part are sequential starting at the first ID for the
 394:Generated_Source\PSoC5/CyFlash.c **** *   specific memory type. The array ID for the Flash memory lasts from 0x00 to
 395:Generated_Source\PSoC5/CyFlash.c **** *   0x3F and for the EEPROM memory it lasts from 0x40 to 0x7F.
 396:Generated_Source\PSoC5/CyFlash.c **** *  \param rowAddress: rowAddress of flash row to program.
 397:Generated_Source\PSoC5/CyFlash.c **** *  \param rowData:    Array of bytes to write.
 398:Generated_Source\PSoC5/CyFlash.c **** *
 399:Generated_Source\PSoC5/CyFlash.c **** * \return
 400:Generated_Source\PSoC5/CyFlash.c **** *  status:
 401:Generated_Source\PSoC5/CyFlash.c **** *   CYRET_SUCCESS if successful.
 402:Generated_Source\PSoC5/CyFlash.c **** *   CYRET_LOCKED if the SPC is already in use.
 403:Generated_Source\PSoC5/CyFlash.c **** *   CYRET_CANCELED if command not accepted
 404:Generated_Source\PSoC5/CyFlash.c **** *   CYRET_UNKNOWN if there was an SPC error.
 405:Generated_Source\PSoC5/CyFlash.c **** *
 406:Generated_Source\PSoC5/CyFlash.c **** *******************************************************************************/
 407:Generated_Source\PSoC5/CyFlash.c **** cystatus CyWriteRowData(uint8 arrayId, uint16 rowAddress, const uint8 * rowData) 
 408:Generated_Source\PSoC5/CyFlash.c **** {
 409:Generated_Source\PSoC5/CyFlash.c ****     uint16 rowSize;
ARM GAS  C:\Users\jens-\AppData\Local\Temp\ccsaVfQd.s 			page 20


 410:Generated_Source\PSoC5/CyFlash.c ****     cystatus status;
 411:Generated_Source\PSoC5/CyFlash.c **** 
 412:Generated_Source\PSoC5/CyFlash.c ****     rowSize = (arrayId > CY_SPC_LAST_FLASH_ARRAYID) ? CYDEV_EEPROM_ROW_SIZE : CYDEV_FLS_ROW_SIZE;
 413:Generated_Source\PSoC5/CyFlash.c ****     status = CyWriteRowFull(arrayId, rowAddress, rowData, rowSize);
 414:Generated_Source\PSoC5/CyFlash.c **** 
 415:Generated_Source\PSoC5/CyFlash.c ****     return(status);
 416:Generated_Source\PSoC5/CyFlash.c **** }
 417:Generated_Source\PSoC5/CyFlash.c **** 
 418:Generated_Source\PSoC5/CyFlash.c **** 
 419:Generated_Source\PSoC5/CyFlash.c **** /*******************************************************************
 420:Generated_Source\PSoC5/CyFlash.c **** * If "Enable Error Correcting Code (ECC)" and "Store Configuration
 421:Generated_Source\PSoC5/CyFlash.c **** * Data in ECC" DWR options are disabled, ECC section is available
 422:Generated_Source\PSoC5/CyFlash.c **** * for user data.
 423:Generated_Source\PSoC5/CyFlash.c **** *******************************************************************/
 424:Generated_Source\PSoC5/CyFlash.c **** #if ((CYDEV_ECC_ENABLE == 0u) && (CYDEV_CONFIGURATION_ECC == 0u))
 425:Generated_Source\PSoC5/CyFlash.c **** 
 426:Generated_Source\PSoC5/CyFlash.c ****     /*******************************************************************************
 427:Generated_Source\PSoC5/CyFlash.c ****     * Function Name: CyWriteRowConfig
 428:Generated_Source\PSoC5/CyFlash.c ****     ****************************************************************************//**
 429:Generated_Source\PSoC5/CyFlash.c ****     *
 430:Generated_Source\PSoC5/CyFlash.c ****     *  Sends a command to the SPC to load and program a row of config data in the
 431:Generated_Source\PSoC5/CyFlash.c ****     *  Flash. This function is only valid for Flash array IDs (not for EEPROM).
 432:Generated_Source\PSoC5/CyFlash.c ****     *
 433:Generated_Source\PSoC5/CyFlash.c ****     *  \param arrayId:      ID of the array to write
 434:Generated_Source\PSoC5/CyFlash.c ****     *   The arrays in the part are sequential starting at the first ID for the
 435:Generated_Source\PSoC5/CyFlash.c ****     *   specific memory type. The array ID for the Flash memory lasts
 436:Generated_Source\PSoC5/CyFlash.c ****     *   from 0x00 to 0x3F.
 437:Generated_Source\PSoC5/CyFlash.c ****     *  \param rowAddress:   The address of the sector to erase.
 438:Generated_Source\PSoC5/CyFlash.c ****     *  \param rowECC:       The array of bytes to write.
 439:Generated_Source\PSoC5/CyFlash.c ****     *
 440:Generated_Source\PSoC5/CyFlash.c ****     * \return
 441:Generated_Source\PSoC5/CyFlash.c ****     *  status:
 442:Generated_Source\PSoC5/CyFlash.c ****     *   CYRET_SUCCESS if successful.
 443:Generated_Source\PSoC5/CyFlash.c ****     *   CYRET_LOCKED if the SPC is already in use.
 444:Generated_Source\PSoC5/CyFlash.c ****     *   CYRET_CANCELED if command not accepted
 445:Generated_Source\PSoC5/CyFlash.c ****     *   CYRET_UNKNOWN if there was an SPC error.
 446:Generated_Source\PSoC5/CyFlash.c ****     *
 447:Generated_Source\PSoC5/CyFlash.c ****     *******************************************************************************/
 448:Generated_Source\PSoC5/CyFlash.c ****     cystatus CyWriteRowConfig(uint8 arrayId, uint16 rowAddress, const uint8 * rowECC)\
 449:Generated_Source\PSoC5/CyFlash.c ****     
 450:Generated_Source\PSoC5/CyFlash.c ****     {
 451:Generated_Source\PSoC5/CyFlash.c ****         cystatus status;
 452:Generated_Source\PSoC5/CyFlash.c **** 
 453:Generated_Source\PSoC5/CyFlash.c ****         status = CyWriteRowFull(arrayId, rowAddress, rowECC, CYDEV_ECC_ROW_SIZE);
 454:Generated_Source\PSoC5/CyFlash.c **** 
 455:Generated_Source\PSoC5/CyFlash.c ****         return (status);
 456:Generated_Source\PSoC5/CyFlash.c ****     }
 457:Generated_Source\PSoC5/CyFlash.c **** 
 458:Generated_Source\PSoC5/CyFlash.c **** #endif  /* ((CYDEV_ECC_ENABLE == 0u) && (CYDEV_CONFIGURATION_ECC == 0u)) */
 459:Generated_Source\PSoC5/CyFlash.c **** 
 460:Generated_Source\PSoC5/CyFlash.c **** 
 461:Generated_Source\PSoC5/CyFlash.c **** 
 462:Generated_Source\PSoC5/CyFlash.c **** /*******************************************************************************
 463:Generated_Source\PSoC5/CyFlash.c **** * Function Name: CyWriteRowFull
 464:Generated_Source\PSoC5/CyFlash.c **** ****************************************************************************//**
 465:Generated_Source\PSoC5/CyFlash.c **** *  Sends a command to the SPC to load and program a row of data in the Flash.
 466:Generated_Source\PSoC5/CyFlash.c **** *  rowData array is expected to contain Flash and ECC data if needed.
ARM GAS  C:\Users\jens-\AppData\Local\Temp\ccsaVfQd.s 			page 21


 467:Generated_Source\PSoC5/CyFlash.c **** *
 468:Generated_Source\PSoC5/CyFlash.c **** *  \param arrayId:    FLASH or EEPROM array id.
 469:Generated_Source\PSoC5/CyFlash.c **** *  \param rowData:    Pointer to a row of data to write.
 470:Generated_Source\PSoC5/CyFlash.c **** *  \param rowNumber:  Zero based number of the row.
 471:Generated_Source\PSoC5/CyFlash.c **** *  \param rowSize:    Size of the row.
 472:Generated_Source\PSoC5/CyFlash.c **** *
 473:Generated_Source\PSoC5/CyFlash.c **** * \return
 474:Generated_Source\PSoC5/CyFlash.c **** *  CYRET_SUCCESS if successful.
 475:Generated_Source\PSoC5/CyFlash.c **** *  CYRET_LOCKED if the SPC is already in use.
 476:Generated_Source\PSoC5/CyFlash.c **** *  CYRET_CANCELED if command not accepted
 477:Generated_Source\PSoC5/CyFlash.c **** *  CYRET_UNKNOWN if there was an SPC error.
 478:Generated_Source\PSoC5/CyFlash.c **** *
 479:Generated_Source\PSoC5/CyFlash.c **** *******************************************************************************/
 480:Generated_Source\PSoC5/CyFlash.c **** cystatus CyWriteRowFull(uint8 arrayId, uint16 rowNumber, const uint8* rowData, uint16 rowSize) \
 481:Generated_Source\PSoC5/CyFlash.c ****         
 482:Generated_Source\PSoC5/CyFlash.c **** {
 572              		.loc 1 482 1 is_stmt 1 view -0
 573              		.cfi_startproc
 574              		@ args = 0, pretend = 0, frame = 0
 575              		@ frame_needed = 0, uses_anonymous_args = 0
 576              		.loc 1 482 1 is_stmt 0 view .LVU144
 577 0000 2DE9F843 		push	{r3, r4, r5, r6, r7, r8, r9, lr}
 578              		.cfi_def_cfa_offset 32
 579              		.cfi_offset 3, -32
 580              		.cfi_offset 4, -28
 581              		.cfi_offset 5, -24
 582              		.cfi_offset 6, -20
 583              		.cfi_offset 7, -16
 584              		.cfi_offset 8, -12
 585              		.cfi_offset 9, -8
 586              		.cfi_offset 14, -4
 587 0004 0446     		mov	r4, r0
 588 0006 0E46     		mov	r6, r1
 589 0008 1746     		mov	r7, r2
 590 000a 9846     		mov	r8, r3
 483:Generated_Source\PSoC5/CyFlash.c ****     cystatus status = CYRET_SUCCESS;
 591              		.loc 1 483 5 is_stmt 1 view .LVU145
 592              	.LVL49:
 484:Generated_Source\PSoC5/CyFlash.c **** 
 485:Generated_Source\PSoC5/CyFlash.c ****     if((arrayId <=  CY_SPC_LAST_FLASH_ARRAYID) && (arrayId > (CY_FLASH_NUMBER_ARRAYS  + CY_SPC_FIRS
 593              		.loc 1 485 5 view .LVU146
 594              		.loc 1 485 48 is_stmt 0 view .LVU147
 595 000c 421F     		subs	r2, r0, #5
 596              	.LVL50:
 597              		.loc 1 485 48 view .LVU148
 598 000e D2B2     		uxtb	r2, r2
 599              		.loc 1 485 7 view .LVU149
 600 0010 3A2A     		cmp	r2, #58
 601 0012 0DD9     		bls	.L72
 483:Generated_Source\PSoC5/CyFlash.c ****     cystatus status = CYRET_SUCCESS;
 602              		.loc 1 483 14 view .LVU150
 603 0014 0025     		movs	r5, #0
 604              	.L60:
 605              	.LVL51:
 486:Generated_Source\PSoC5/CyFlash.c ****     {
 487:Generated_Source\PSoC5/CyFlash.c ****         status = CYRET_BAD_PARAM;
 488:Generated_Source\PSoC5/CyFlash.c ****     }
ARM GAS  C:\Users\jens-\AppData\Local\Temp\ccsaVfQd.s 			page 22


 489:Generated_Source\PSoC5/CyFlash.c **** 
 490:Generated_Source\PSoC5/CyFlash.c ****     if(arrayId > CY_SPC_LAST_EE_ARRAYID)
 606              		.loc 1 490 5 is_stmt 1 view .LVU151
 607              		.loc 1 490 7 is_stmt 0 view .LVU152
 608 0016 14F0800F 		tst	r4, #128
 609 001a 0BD1     		bne	.L85
 610              	.LVL52:
 611              	.L61:
 491:Generated_Source\PSoC5/CyFlash.c ****     {
 492:Generated_Source\PSoC5/CyFlash.c ****         status = CYRET_BAD_PARAM;
 493:Generated_Source\PSoC5/CyFlash.c ****     }
 494:Generated_Source\PSoC5/CyFlash.c **** 
 495:Generated_Source\PSoC5/CyFlash.c ****     if((arrayId >= CY_SPC_FIRST_EE_ARRAYID) && (arrayId > (CY_FLASH_EEPROM_NUMBER_ARRAYS + CY_SPC_F
 612              		.loc 1 495 5 is_stmt 1 view .LVU153
 613              		.loc 1 495 7 is_stmt 0 view .LVU154
 614 001c 412C     		cmp	r4, #65
 615 001e 00D9     		bls	.L62
 496:Generated_Source\PSoC5/CyFlash.c ****     {
 497:Generated_Source\PSoC5/CyFlash.c ****         status = CYRET_BAD_PARAM;
 616              		.loc 1 497 16 view .LVU155
 617 0020 0125     		movs	r5, #1
 618              	.LVL53:
 619              	.L62:
 498:Generated_Source\PSoC5/CyFlash.c ****     }
 499:Generated_Source\PSoC5/CyFlash.c **** 
 500:Generated_Source\PSoC5/CyFlash.c ****     if(arrayId <=  CY_SPC_LAST_FLASH_ARRAYID)
 620              		.loc 1 500 5 is_stmt 1 view .LVU156
 621              		.loc 1 500 7 is_stmt 0 view .LVU157
 622 0022 3F2C     		cmp	r4, #63
 623 0024 08D8     		bhi	.L63
 501:Generated_Source\PSoC5/CyFlash.c ****     {
 502:Generated_Source\PSoC5/CyFlash.c ****         /* Flash */
 503:Generated_Source\PSoC5/CyFlash.c ****         if(rowNumber > (CY_FLASH_NUMBER_ROWS/CY_FLASH_NUMBER_ARRAYS))
 624              		.loc 1 503 9 is_stmt 1 view .LVU158
 625              		.loc 1 503 11 is_stmt 0 view .LVU159
 626 0026 B6F5807F 		cmp	r6, #256
 627 002a 0CD9     		bls	.L64
 504:Generated_Source\PSoC5/CyFlash.c ****         {
 505:Generated_Source\PSoC5/CyFlash.c ****             status = CYRET_BAD_PARAM;
 628              		.loc 1 505 20 view .LVU160
 629 002c 0125     		movs	r5, #1
 630              	.LVL54:
 631              		.loc 1 505 20 view .LVU161
 632 002e 0AE0     		b	.L64
 633              	.LVL55:
 634              	.L72:
 487:Generated_Source\PSoC5/CyFlash.c ****     }
 635              		.loc 1 487 16 view .LVU162
 636 0030 0125     		movs	r5, #1
 637 0032 F0E7     		b	.L60
 638              	.LVL56:
 639              	.L85:
 492:Generated_Source\PSoC5/CyFlash.c ****     }
 640              		.loc 1 492 16 view .LVU163
 641 0034 0125     		movs	r5, #1
 642              	.LVL57:
 492:Generated_Source\PSoC5/CyFlash.c ****     }
ARM GAS  C:\Users\jens-\AppData\Local\Temp\ccsaVfQd.s 			page 23


 643              		.loc 1 492 16 view .LVU164
 644 0036 F1E7     		b	.L61
 645              	.LVL58:
 646              	.L63:
 506:Generated_Source\PSoC5/CyFlash.c ****         }
 507:Generated_Source\PSoC5/CyFlash.c ****     }
 508:Generated_Source\PSoC5/CyFlash.c ****     else
 509:Generated_Source\PSoC5/CyFlash.c ****     {
 510:Generated_Source\PSoC5/CyFlash.c ****         /* EEPROM */
 511:Generated_Source\PSoC5/CyFlash.c ****         if(rowNumber > (CY_EEPROM_NUMBER_ROWS/CY_FLASH_EEPROM_NUMBER_ARRAYS))
 647              		.loc 1 511 9 is_stmt 1 view .LVU165
 648              		.loc 1 511 11 is_stmt 0 view .LVU166
 649 0038 802E     		cmp	r6, #128
 650 003a 00D9     		bls	.L65
 512:Generated_Source\PSoC5/CyFlash.c ****         {
 513:Generated_Source\PSoC5/CyFlash.c ****             status = CYRET_BAD_PARAM;
 651              		.loc 1 513 20 view .LVU167
 652 003c 0125     		movs	r5, #1
 653              	.LVL59:
 654              	.L65:
 514:Generated_Source\PSoC5/CyFlash.c ****         }
 515:Generated_Source\PSoC5/CyFlash.c **** 
 516:Generated_Source\PSoC5/CyFlash.c ****         if(CY_EEPROM_SIZEOF_ROW != rowSize)
 655              		.loc 1 516 9 is_stmt 1 view .LVU168
 656              		.loc 1 516 11 is_stmt 0 view .LVU169
 657 003e B8F1100F 		cmp	r8, #16
 658 0042 00D0     		beq	.L64
 517:Generated_Source\PSoC5/CyFlash.c ****         {
 518:Generated_Source\PSoC5/CyFlash.c ****             status = CYRET_BAD_PARAM;
 659              		.loc 1 518 20 view .LVU170
 660 0044 0125     		movs	r5, #1
 661              	.LVL60:
 662              	.L64:
 519:Generated_Source\PSoC5/CyFlash.c ****         }
 520:Generated_Source\PSoC5/CyFlash.c ****     }
 521:Generated_Source\PSoC5/CyFlash.c **** 
 522:Generated_Source\PSoC5/CyFlash.c ****     if(rowData == NULL)
 663              		.loc 1 522 5 is_stmt 1 view .LVU171
 664              		.loc 1 522 7 is_stmt 0 view .LVU172
 665 0046 002F     		cmp	r7, #0
 666 0048 51D0     		beq	.L78
 523:Generated_Source\PSoC5/CyFlash.c ****     {
 524:Generated_Source\PSoC5/CyFlash.c ****         status = CYRET_BAD_PARAM;
 525:Generated_Source\PSoC5/CyFlash.c ****     }
 526:Generated_Source\PSoC5/CyFlash.c **** 
 527:Generated_Source\PSoC5/CyFlash.c **** 
 528:Generated_Source\PSoC5/CyFlash.c ****     if(status == CYRET_SUCCESS)
 667              		.loc 1 528 5 is_stmt 1 view .LVU173
 668              		.loc 1 528 7 is_stmt 0 view .LVU174
 669 004a 15B1     		cbz	r5, .L86
 670              	.LVL61:
 671              	.L59:
 529:Generated_Source\PSoC5/CyFlash.c ****     {
 530:Generated_Source\PSoC5/CyFlash.c ****         if(CySpcLock() == CYRET_SUCCESS)
 531:Generated_Source\PSoC5/CyFlash.c ****         {
 532:Generated_Source\PSoC5/CyFlash.c ****             /* Load row data into SPC internal latch */
 533:Generated_Source\PSoC5/CyFlash.c ****             status = CySpcLoadRowFull(arrayId, rowNumber, rowData, rowSize);
ARM GAS  C:\Users\jens-\AppData\Local\Temp\ccsaVfQd.s 			page 24


 534:Generated_Source\PSoC5/CyFlash.c **** 
 535:Generated_Source\PSoC5/CyFlash.c ****             if(CYRET_STARTED == status)
 536:Generated_Source\PSoC5/CyFlash.c ****             {
 537:Generated_Source\PSoC5/CyFlash.c ****                 while(CY_SPC_BUSY)
 538:Generated_Source\PSoC5/CyFlash.c ****                 {
 539:Generated_Source\PSoC5/CyFlash.c ****                     /* Wait for SPC to finish and get SPC status */
 540:Generated_Source\PSoC5/CyFlash.c ****                     CyDelayUs(1u);
 541:Generated_Source\PSoC5/CyFlash.c ****                 }
 542:Generated_Source\PSoC5/CyFlash.c **** 
 543:Generated_Source\PSoC5/CyFlash.c ****                 /* Hide SPC status */
 544:Generated_Source\PSoC5/CyFlash.c ****                 if(CY_SPC_STATUS_SUCCESS == CY_SPC_READ_STATUS)
 545:Generated_Source\PSoC5/CyFlash.c ****                 {
 546:Generated_Source\PSoC5/CyFlash.c ****                     status = CYRET_SUCCESS;
 547:Generated_Source\PSoC5/CyFlash.c ****                 }
 548:Generated_Source\PSoC5/CyFlash.c ****                 else
 549:Generated_Source\PSoC5/CyFlash.c ****                 {
 550:Generated_Source\PSoC5/CyFlash.c ****                     status = CYRET_UNKNOWN;
 551:Generated_Source\PSoC5/CyFlash.c ****                 }
 552:Generated_Source\PSoC5/CyFlash.c **** 
 553:Generated_Source\PSoC5/CyFlash.c ****                 if(CYRET_SUCCESS == status)
 554:Generated_Source\PSoC5/CyFlash.c ****                 {
 555:Generated_Source\PSoC5/CyFlash.c ****                     /* Erase and program flash with data from SPC interval latch */
 556:Generated_Source\PSoC5/CyFlash.c ****                     status = CySpcWriteRow(arrayId, rowNumber, dieTemperature[0u], dieTemperature[1
 557:Generated_Source\PSoC5/CyFlash.c **** 
 558:Generated_Source\PSoC5/CyFlash.c ****                     if(CYRET_STARTED == status)
 559:Generated_Source\PSoC5/CyFlash.c ****                     {
 560:Generated_Source\PSoC5/CyFlash.c ****                         while(CY_SPC_BUSY)
 561:Generated_Source\PSoC5/CyFlash.c ****                         {
 562:Generated_Source\PSoC5/CyFlash.c ****                             /* Wait for SPC to finish and get SPC status */
 563:Generated_Source\PSoC5/CyFlash.c ****                             CyDelayUs(1u);
 564:Generated_Source\PSoC5/CyFlash.c ****                         }
 565:Generated_Source\PSoC5/CyFlash.c **** 
 566:Generated_Source\PSoC5/CyFlash.c ****                         /* Hide SPC status */
 567:Generated_Source\PSoC5/CyFlash.c ****                         if(CY_SPC_STATUS_SUCCESS == CY_SPC_READ_STATUS)
 568:Generated_Source\PSoC5/CyFlash.c ****                         {
 569:Generated_Source\PSoC5/CyFlash.c ****                             status = CYRET_SUCCESS;
 570:Generated_Source\PSoC5/CyFlash.c ****                         }
 571:Generated_Source\PSoC5/CyFlash.c ****                         else
 572:Generated_Source\PSoC5/CyFlash.c ****                         {
 573:Generated_Source\PSoC5/CyFlash.c ****                             status = CYRET_UNKNOWN;
 574:Generated_Source\PSoC5/CyFlash.c ****                         }
 575:Generated_Source\PSoC5/CyFlash.c ****                     }
 576:Generated_Source\PSoC5/CyFlash.c ****                 }
 577:Generated_Source\PSoC5/CyFlash.c ****             }
 578:Generated_Source\PSoC5/CyFlash.c ****             CySpcUnlock();
 579:Generated_Source\PSoC5/CyFlash.c ****         }   /* if(CySpcLock() == CYRET_SUCCESS) */
 580:Generated_Source\PSoC5/CyFlash.c ****         else
 581:Generated_Source\PSoC5/CyFlash.c ****         {
 582:Generated_Source\PSoC5/CyFlash.c ****             status = CYRET_LOCKED;
 583:Generated_Source\PSoC5/CyFlash.c ****         }
 584:Generated_Source\PSoC5/CyFlash.c ****     }
 585:Generated_Source\PSoC5/CyFlash.c **** 
 586:Generated_Source\PSoC5/CyFlash.c ****     return(status);
 587:Generated_Source\PSoC5/CyFlash.c **** }
 672              		.loc 1 587 1 view .LVU175
 673 004c 2846     		mov	r0, r5
 674 004e BDE8F883 		pop	{r3, r4, r5, r6, r7, r8, r9, pc}
ARM GAS  C:\Users\jens-\AppData\Local\Temp\ccsaVfQd.s 			page 25


 675              	.LVL62:
 676              	.L86:
 530:Generated_Source\PSoC5/CyFlash.c ****         {
 677              		.loc 1 530 9 is_stmt 1 view .LVU176
 530:Generated_Source\PSoC5/CyFlash.c ****         {
 678              		.loc 1 530 12 is_stmt 0 view .LVU177
 679 0052 FFF7FEFF 		bl	CySpcLock
 680              	.LVL63:
 530:Generated_Source\PSoC5/CyFlash.c ****         {
 681              		.loc 1 530 11 view .LVU178
 682 0056 8146     		mov	r9, r0
 683 0058 08B1     		cbz	r0, .L87
 582:Generated_Source\PSoC5/CyFlash.c ****         }
 684              		.loc 1 582 20 view .LVU179
 685 005a 0425     		movs	r5, #4
 686              	.LVL64:
 586:Generated_Source\PSoC5/CyFlash.c **** }
 687              		.loc 1 586 5 is_stmt 1 view .LVU180
 586:Generated_Source\PSoC5/CyFlash.c **** }
 688              		.loc 1 586 11 is_stmt 0 view .LVU181
 689 005c F6E7     		b	.L59
 690              	.LVL65:
 691              	.L87:
 533:Generated_Source\PSoC5/CyFlash.c **** 
 692              		.loc 1 533 13 is_stmt 1 view .LVU182
 533:Generated_Source\PSoC5/CyFlash.c **** 
 693              		.loc 1 533 22 is_stmt 0 view .LVU183
 694 005e 4346     		mov	r3, r8
 695 0060 3A46     		mov	r2, r7
 696 0062 3146     		mov	r1, r6
 697 0064 2046     		mov	r0, r4
 698 0066 FFF7FEFF 		bl	CySpcLoadRowFull
 699              	.LVL66:
 700 006a 0546     		mov	r5, r0
 701              	.LVL67:
 535:Generated_Source\PSoC5/CyFlash.c ****             {
 702              		.loc 1 535 13 is_stmt 1 view .LVU184
 535:Generated_Source\PSoC5/CyFlash.c ****             {
 703              		.loc 1 535 15 is_stmt 0 view .LVU185
 704 006c 0728     		cmp	r0, #7
 705 006e 02D0     		beq	.L67
 706              	.LVL68:
 707              	.L68:
 578:Generated_Source\PSoC5/CyFlash.c ****         }   /* if(CySpcLock() == CYRET_SUCCESS) */
 708              		.loc 1 578 13 is_stmt 1 view .LVU186
 709 0070 FFF7FEFF 		bl	CySpcUnlock
 710              	.LVL69:
 711 0074 EAE7     		b	.L59
 712              	.L67:
 537:Generated_Source\PSoC5/CyFlash.c ****                 {
 713              		.loc 1 537 22 view .LVU187
 537:Generated_Source\PSoC5/CyFlash.c ****                 {
 714              		.loc 1 537 23 is_stmt 0 view .LVU188
 715 0076 1F4B     		ldr	r3, .L90
 716 0078 1B78     		ldrb	r3, [r3]	@ zero_extendqisi2
 537:Generated_Source\PSoC5/CyFlash.c ****                 {
 717              		.loc 1 537 22 view .LVU189
ARM GAS  C:\Users\jens-\AppData\Local\Temp\ccsaVfQd.s 			page 26


 718 007a 13F0020F 		tst	r3, #2
 719 007e 03D1     		bne	.L88
 540:Generated_Source\PSoC5/CyFlash.c ****                 }
 720              		.loc 1 540 21 is_stmt 1 view .LVU190
 721 0080 0120     		movs	r0, #1
 722 0082 FFF7FEFF 		bl	CyDelayUs
 723              	.LVL70:
 724 0086 F6E7     		b	.L67
 725              	.L88:
 544:Generated_Source\PSoC5/CyFlash.c ****                 {
 726              		.loc 1 544 17 view .LVU191
 544:Generated_Source\PSoC5/CyFlash.c ****                 {
 727              		.loc 1 544 45 is_stmt 0 view .LVU192
 728 0088 1A4B     		ldr	r3, .L90
 729 008a 1B78     		ldrb	r3, [r3]	@ zero_extendqisi2
 544:Generated_Source\PSoC5/CyFlash.c ****                 {
 730              		.loc 1 544 19 view .LVU193
 731 008c 13F0020F 		tst	r3, #2
 732 0090 25D0     		beq	.L80
 544:Generated_Source\PSoC5/CyFlash.c ****                 {
 733              		.loc 1 544 45 discriminator 1 view .LVU194
 734 0092 184B     		ldr	r3, .L90
 735 0094 1B78     		ldrb	r3, [r3]	@ zero_extendqisi2
 544:Generated_Source\PSoC5/CyFlash.c ****                 {
 736              		.loc 1 544 42 discriminator 1 view .LVU195
 737 0096 9B08     		lsrs	r3, r3, #2
 738 0098 02D0     		beq	.L89
 550:Generated_Source\PSoC5/CyFlash.c ****                 }
 739              		.loc 1 550 28 view .LVU196
 740 009a 4FF0FF35 		mov	r5, #-1
 741              	.LVL71:
 550:Generated_Source\PSoC5/CyFlash.c ****                 }
 742              		.loc 1 550 28 view .LVU197
 743 009e E7E7     		b	.L68
 744              	.LVL72:
 745              	.L89:
 553:Generated_Source\PSoC5/CyFlash.c ****                 {
 746              		.loc 1 553 17 is_stmt 1 view .LVU198
 556:Generated_Source\PSoC5/CyFlash.c **** 
 747              		.loc 1 556 21 view .LVU199
 556:Generated_Source\PSoC5/CyFlash.c **** 
 748              		.loc 1 556 30 is_stmt 0 view .LVU200
 749 00a0 154A     		ldr	r2, .L90+4
 750 00a2 5378     		ldrb	r3, [r2, #1]	@ zero_extendqisi2
 751 00a4 1278     		ldrb	r2, [r2]	@ zero_extendqisi2
 752 00a6 3146     		mov	r1, r6
 753 00a8 2046     		mov	r0, r4
 754 00aa FFF7FEFF 		bl	CySpcWriteRow
 755              	.LVL73:
 756 00ae 0546     		mov	r5, r0
 757              	.LVL74:
 558:Generated_Source\PSoC5/CyFlash.c ****                     {
 758              		.loc 1 558 21 is_stmt 1 view .LVU201
 558:Generated_Source\PSoC5/CyFlash.c ****                     {
 759              		.loc 1 558 23 is_stmt 0 view .LVU202
 760 00b0 0728     		cmp	r0, #7
 761 00b2 DDD1     		bne	.L68
ARM GAS  C:\Users\jens-\AppData\Local\Temp\ccsaVfQd.s 			page 27


 762 00b4 02E0     		b	.L70
 763              	.LVL75:
 764              	.L71:
 563:Generated_Source\PSoC5/CyFlash.c ****                         }
 765              		.loc 1 563 29 is_stmt 1 view .LVU203
 766 00b6 0120     		movs	r0, #1
 767 00b8 FFF7FEFF 		bl	CyDelayUs
 768              	.LVL76:
 769              	.L70:
 560:Generated_Source\PSoC5/CyFlash.c ****                         {
 770              		.loc 1 560 30 view .LVU204
 560:Generated_Source\PSoC5/CyFlash.c ****                         {
 771              		.loc 1 560 31 is_stmt 0 view .LVU205
 772 00bc 0D4B     		ldr	r3, .L90
 773 00be 1B78     		ldrb	r3, [r3]	@ zero_extendqisi2
 560:Generated_Source\PSoC5/CyFlash.c ****                         {
 774              		.loc 1 560 30 view .LVU206
 775 00c0 13F0020F 		tst	r3, #2
 776 00c4 F7D0     		beq	.L71
 567:Generated_Source\PSoC5/CyFlash.c ****                         {
 777              		.loc 1 567 25 is_stmt 1 view .LVU207
 567:Generated_Source\PSoC5/CyFlash.c ****                         {
 778              		.loc 1 567 53 is_stmt 0 view .LVU208
 779 00c6 0B4B     		ldr	r3, .L90
 780 00c8 1B78     		ldrb	r3, [r3]	@ zero_extendqisi2
 567:Generated_Source\PSoC5/CyFlash.c ****                         {
 781              		.loc 1 567 27 view .LVU209
 782 00ca 13F0020F 		tst	r3, #2
 783 00ce 09D0     		beq	.L82
 567:Generated_Source\PSoC5/CyFlash.c ****                         {
 784              		.loc 1 567 53 discriminator 1 view .LVU210
 785 00d0 084B     		ldr	r3, .L90
 786 00d2 1B78     		ldrb	r3, [r3]	@ zero_extendqisi2
 567:Generated_Source\PSoC5/CyFlash.c ****                         {
 787              		.loc 1 567 50 discriminator 1 view .LVU211
 788 00d4 9B08     		lsrs	r3, r3, #2
 789 00d6 08D0     		beq	.L83
 573:Generated_Source\PSoC5/CyFlash.c ****                         }
 790              		.loc 1 573 36 view .LVU212
 791 00d8 4FF0FF35 		mov	r5, #-1
 792              	.LVL77:
 573:Generated_Source\PSoC5/CyFlash.c ****                         }
 793              		.loc 1 573 36 view .LVU213
 794 00dc C8E7     		b	.L68
 795              	.LVL78:
 796              	.L80:
 550:Generated_Source\PSoC5/CyFlash.c ****                 }
 797              		.loc 1 550 28 view .LVU214
 798 00de 4FF0FF35 		mov	r5, #-1
 799              	.LVL79:
 550:Generated_Source\PSoC5/CyFlash.c ****                 }
 800              		.loc 1 550 28 view .LVU215
 801 00e2 C5E7     		b	.L68
 802              	.LVL80:
 803              	.L82:
 573:Generated_Source\PSoC5/CyFlash.c ****                         }
 804              		.loc 1 573 36 view .LVU216
ARM GAS  C:\Users\jens-\AppData\Local\Temp\ccsaVfQd.s 			page 28


 805 00e4 4FF0FF35 		mov	r5, #-1
 806              	.LVL81:
 573:Generated_Source\PSoC5/CyFlash.c ****                         }
 807              		.loc 1 573 36 view .LVU217
 808 00e8 C2E7     		b	.L68
 809              	.LVL82:
 810              	.L83:
 569:Generated_Source\PSoC5/CyFlash.c ****                         }
 811              		.loc 1 569 36 view .LVU218
 812 00ea 4D46     		mov	r5, r9
 813              	.LVL83:
 569:Generated_Source\PSoC5/CyFlash.c ****                         }
 814              		.loc 1 569 36 view .LVU219
 815 00ec C0E7     		b	.L68
 816              	.LVL84:
 817              	.L78:
 524:Generated_Source\PSoC5/CyFlash.c ****     }
 818              		.loc 1 524 16 view .LVU220
 819 00ee 0125     		movs	r5, #1
 820              	.LVL85:
 524:Generated_Source\PSoC5/CyFlash.c ****     }
 821              		.loc 1 524 16 view .LVU221
 822 00f0 ACE7     		b	.L59
 823              	.L91:
 824 00f2 00BF     		.align	2
 825              	.L90:
 826 00f4 22470040 		.word	1073760034
 827 00f8 00000000 		.word	dieTemperature
 828              		.cfi_endproc
 829              	.LFE8:
 830              		.size	CyWriteRowFull, .-CyWriteRowFull
 831              		.section	.text.CyWriteRowData,"ax",%progbits
 832              		.align	1
 833              		.global	CyWriteRowData
 834              		.syntax unified
 835              		.thumb
 836              		.thumb_func
 837              		.fpu softvfp
 838              		.type	CyWriteRowData, %function
 839              	CyWriteRowData:
 840              	.LVL86:
 841              	.LFB7:
 408:Generated_Source\PSoC5/CyFlash.c ****     uint16 rowSize;
 842              		.loc 1 408 1 is_stmt 1 view -0
 843              		.cfi_startproc
 844              		@ args = 0, pretend = 0, frame = 0
 845              		@ frame_needed = 0, uses_anonymous_args = 0
 408:Generated_Source\PSoC5/CyFlash.c ****     uint16 rowSize;
 846              		.loc 1 408 1 is_stmt 0 view .LVU223
 847 0000 08B5     		push	{r3, lr}
 848              		.cfi_def_cfa_offset 8
 849              		.cfi_offset 3, -8
 850              		.cfi_offset 14, -4
 409:Generated_Source\PSoC5/CyFlash.c ****     cystatus status;
 851              		.loc 1 409 5 is_stmt 1 view .LVU224
 410:Generated_Source\PSoC5/CyFlash.c **** 
 852              		.loc 1 410 5 view .LVU225
ARM GAS  C:\Users\jens-\AppData\Local\Temp\ccsaVfQd.s 			page 29


 412:Generated_Source\PSoC5/CyFlash.c ****     status = CyWriteRowFull(arrayId, rowAddress, rowData, rowSize);
 853              		.loc 1 412 5 view .LVU226
 412:Generated_Source\PSoC5/CyFlash.c ****     status = CyWriteRowFull(arrayId, rowAddress, rowData, rowSize);
 854              		.loc 1 412 13 is_stmt 0 view .LVU227
 855 0002 3F28     		cmp	r0, #63
 856 0004 03D9     		bls	.L94
 857 0006 1023     		movs	r3, #16
 858              	.L93:
 859              	.LVL87:
 413:Generated_Source\PSoC5/CyFlash.c **** 
 860              		.loc 1 413 5 is_stmt 1 discriminator 4 view .LVU228
 413:Generated_Source\PSoC5/CyFlash.c **** 
 861              		.loc 1 413 14 is_stmt 0 discriminator 4 view .LVU229
 862 0008 FFF7FEFF 		bl	CyWriteRowFull
 863              	.LVL88:
 415:Generated_Source\PSoC5/CyFlash.c **** }
 864              		.loc 1 415 5 is_stmt 1 discriminator 4 view .LVU230
 416:Generated_Source\PSoC5/CyFlash.c **** 
 865              		.loc 1 416 1 is_stmt 0 discriminator 4 view .LVU231
 866 000c 08BD     		pop	{r3, pc}
 867              	.LVL89:
 868              	.L94:
 412:Generated_Source\PSoC5/CyFlash.c ****     status = CyWriteRowFull(arrayId, rowAddress, rowData, rowSize);
 869              		.loc 1 412 13 view .LVU232
 870 000e 4FF48073 		mov	r3, #256
 871 0012 F9E7     		b	.L93
 872              		.cfi_endproc
 873              	.LFE7:
 874              		.size	CyWriteRowData, .-CyWriteRowData
 875              		.section	.text.CyFlash_SetWaitCycles,"ax",%progbits
 876              		.align	1
 877              		.global	CyFlash_SetWaitCycles
 878              		.syntax unified
 879              		.thumb
 880              		.thumb_func
 881              		.fpu softvfp
 882              		.type	CyFlash_SetWaitCycles, %function
 883              	CyFlash_SetWaitCycles:
 884              	.LVL90:
 885              	.LFB9:
 588:Generated_Source\PSoC5/CyFlash.c **** 
 589:Generated_Source\PSoC5/CyFlash.c **** 
 590:Generated_Source\PSoC5/CyFlash.c **** /*******************************************************************************
 591:Generated_Source\PSoC5/CyFlash.c **** * Function Name: CyFlash_SetWaitCycles
 592:Generated_Source\PSoC5/CyFlash.c **** ****************************************************************************//**
 593:Generated_Source\PSoC5/CyFlash.c **** *
 594:Generated_Source\PSoC5/CyFlash.c **** *  Sets the number of clock cycles the cache will wait before it samples data
 595:Generated_Source\PSoC5/CyFlash.c **** *  coming back from the Flash. This function must be called before increasing
 596:Generated_Source\PSoC5/CyFlash.c **** *  the CPU clock frequency. It can optionally be called after lowering the CPU
 597:Generated_Source\PSoC5/CyFlash.c **** *  clock frequency in order to improve the CPU performance.
 598:Generated_Source\PSoC5/CyFlash.c **** *
 599:Generated_Source\PSoC5/CyFlash.c **** *  \param uint8 freq:
 600:Generated_Source\PSoC5/CyFlash.c **** *   Frequency of operation in Megahertz.
 601:Generated_Source\PSoC5/CyFlash.c **** *
 602:Generated_Source\PSoC5/CyFlash.c **** *******************************************************************************/
 603:Generated_Source\PSoC5/CyFlash.c **** void CyFlash_SetWaitCycles(uint8 freq) 
 604:Generated_Source\PSoC5/CyFlash.c **** {
ARM GAS  C:\Users\jens-\AppData\Local\Temp\ccsaVfQd.s 			page 30


 886              		.loc 1 604 1 is_stmt 1 view -0
 887              		.cfi_startproc
 888              		@ args = 0, pretend = 0, frame = 0
 889              		@ frame_needed = 0, uses_anonymous_args = 0
 890              		.loc 1 604 1 is_stmt 0 view .LVU234
 891 0000 38B5     		push	{r3, r4, r5, lr}
 892              		.cfi_def_cfa_offset 16
 893              		.cfi_offset 3, -16
 894              		.cfi_offset 4, -12
 895              		.cfi_offset 5, -8
 896              		.cfi_offset 14, -4
 897 0002 0446     		mov	r4, r0
 605:Generated_Source\PSoC5/CyFlash.c ****     uint8 interruptState;
 898              		.loc 1 605 5 is_stmt 1 view .LVU235
 606:Generated_Source\PSoC5/CyFlash.c **** 
 607:Generated_Source\PSoC5/CyFlash.c ****     /* Save current global interrupt enable and disable it */
 608:Generated_Source\PSoC5/CyFlash.c ****     interruptState = CyEnterCriticalSection();
 899              		.loc 1 608 5 view .LVU236
 900              		.loc 1 608 22 is_stmt 0 view .LVU237
 901 0004 FFF7FEFF 		bl	CyEnterCriticalSection
 902              	.LVL91:
 903              		.loc 1 608 22 view .LVU238
 904 0008 0546     		mov	r5, r0
 905              	.LVL92:
 609:Generated_Source\PSoC5/CyFlash.c **** 
 610:Generated_Source\PSoC5/CyFlash.c ****     /***************************************************************************
 611:Generated_Source\PSoC5/CyFlash.c ****     * The number of clock cycles the cache will wait before it samples data
 612:Generated_Source\PSoC5/CyFlash.c ****     * coming back from the Flash must be equal or greater to to the CPU frequency
 613:Generated_Source\PSoC5/CyFlash.c ****     * outlined in clock cycles.
 614:Generated_Source\PSoC5/CyFlash.c ****     ***************************************************************************/
 615:Generated_Source\PSoC5/CyFlash.c **** 
 616:Generated_Source\PSoC5/CyFlash.c ****     if (freq < CY_FLASH_CACHE_WS_1_FREQ_MAX)
 906              		.loc 1 616 5 is_stmt 1 view .LVU239
 907              		.loc 1 616 8 is_stmt 0 view .LVU240
 908 000a 0F2C     		cmp	r4, #15
 909 000c 0AD8     		bhi	.L97
 617:Generated_Source\PSoC5/CyFlash.c ****     {
 618:Generated_Source\PSoC5/CyFlash.c ****         CY_FLASH_CONTROL_REG = (CY_FLASH_CONTROL_REG & (uint8)(~CY_FLASH_CACHE_WS_VALUE_MASK)) |
 910              		.loc 1 618 9 is_stmt 1 view .LVU241
 911              		.loc 1 618 33 is_stmt 0 view .LVU242
 912 000e 1A4A     		ldr	r2, .L104
 913 0010 1378     		ldrb	r3, [r2]	@ zero_extendqisi2
 914              		.loc 1 618 54 view .LVU243
 915 0012 03F01F03 		and	r3, r3, #31
 916              		.loc 1 618 96 view .LVU244
 917 0016 43F04003 		orr	r3, r3, #64
 918              		.loc 1 618 30 view .LVU245
 919 001a 1370     		strb	r3, [r2]
 920              	.L98:
 619:Generated_Source\PSoC5/CyFlash.c ****                                     CY_FLASH_CACHE_WS_1_VALUE_MASK;
 620:Generated_Source\PSoC5/CyFlash.c ****     }
 621:Generated_Source\PSoC5/CyFlash.c ****     else if (freq < CY_FLASH_CACHE_WS_2_FREQ_MAX)
 622:Generated_Source\PSoC5/CyFlash.c ****     {
 623:Generated_Source\PSoC5/CyFlash.c ****         CY_FLASH_CONTROL_REG = (CY_FLASH_CONTROL_REG & (uint8)(~CY_FLASH_CACHE_WS_VALUE_MASK)) |
 624:Generated_Source\PSoC5/CyFlash.c ****                                     CY_FLASH_CACHE_WS_2_VALUE_MASK;
 625:Generated_Source\PSoC5/CyFlash.c ****     }
 626:Generated_Source\PSoC5/CyFlash.c ****     else if (freq < CY_FLASH_CACHE_WS_3_FREQ_MAX)
ARM GAS  C:\Users\jens-\AppData\Local\Temp\ccsaVfQd.s 			page 31


 627:Generated_Source\PSoC5/CyFlash.c ****     {
 628:Generated_Source\PSoC5/CyFlash.c ****         CY_FLASH_CONTROL_REG = (CY_FLASH_CONTROL_REG & (uint8)(~CY_FLASH_CACHE_WS_VALUE_MASK)) |
 629:Generated_Source\PSoC5/CyFlash.c ****                                     CY_FLASH_CACHE_WS_3_VALUE_MASK;
 630:Generated_Source\PSoC5/CyFlash.c ****     }
 631:Generated_Source\PSoC5/CyFlash.c **** #if (CY_PSOC5)
 632:Generated_Source\PSoC5/CyFlash.c ****     else if (freq < CY_FLASH_CACHE_WS_4_FREQ_MAX)
 633:Generated_Source\PSoC5/CyFlash.c ****     {
 634:Generated_Source\PSoC5/CyFlash.c ****         CY_FLASH_CONTROL_REG = (CY_FLASH_CONTROL_REG & (uint8)(~CY_FLASH_CACHE_WS_VALUE_MASK)) |
 635:Generated_Source\PSoC5/CyFlash.c ****                                     CY_FLASH_CACHE_WS_4_VALUE_MASK;
 636:Generated_Source\PSoC5/CyFlash.c ****     }
 637:Generated_Source\PSoC5/CyFlash.c ****     else if (freq <= CY_FLASH_CACHE_WS_5_FREQ_MAX)
 638:Generated_Source\PSoC5/CyFlash.c ****     {
 639:Generated_Source\PSoC5/CyFlash.c ****         CY_FLASH_CONTROL_REG = (CY_FLASH_CONTROL_REG & (uint8)(~CY_FLASH_CACHE_WS_VALUE_MASK)) |
 640:Generated_Source\PSoC5/CyFlash.c ****                                     CY_FLASH_CACHE_WS_5_VALUE_MASK;
 641:Generated_Source\PSoC5/CyFlash.c ****     }
 642:Generated_Source\PSoC5/CyFlash.c **** #endif  /* (CY_PSOC5) */
 643:Generated_Source\PSoC5/CyFlash.c ****     else
 644:Generated_Source\PSoC5/CyFlash.c ****     {
 645:Generated_Source\PSoC5/CyFlash.c ****         /* Halt CPU in debug mode if frequency is invalid */
 646:Generated_Source\PSoC5/CyFlash.c ****         CYASSERT(0u != 0u);
 921              		.loc 1 646 27 is_stmt 1 discriminator 3 view .LVU246
 647:Generated_Source\PSoC5/CyFlash.c ****     }
 648:Generated_Source\PSoC5/CyFlash.c **** 
 649:Generated_Source\PSoC5/CyFlash.c ****     /* Restore global interrupt enable state */
 650:Generated_Source\PSoC5/CyFlash.c ****     CyExitCriticalSection(interruptState);
 922              		.loc 1 650 5 discriminator 3 view .LVU247
 923 001c 2846     		mov	r0, r5
 924 001e FFF7FEFF 		bl	CyExitCriticalSection
 925              	.LVL93:
 651:Generated_Source\PSoC5/CyFlash.c **** }
 926              		.loc 1 651 1 is_stmt 0 discriminator 3 view .LVU248
 927 0022 38BD     		pop	{r3, r4, r5, pc}
 928              	.LVL94:
 929              	.L97:
 621:Generated_Source\PSoC5/CyFlash.c ****     {
 930              		.loc 1 621 10 is_stmt 1 view .LVU249
 621:Generated_Source\PSoC5/CyFlash.c ****     {
 931              		.loc 1 621 13 is_stmt 0 view .LVU250
 932 0024 202C     		cmp	r4, #32
 933 0026 07D8     		bhi	.L99
 623:Generated_Source\PSoC5/CyFlash.c ****                                     CY_FLASH_CACHE_WS_2_VALUE_MASK;
 934              		.loc 1 623 9 is_stmt 1 view .LVU251
 623:Generated_Source\PSoC5/CyFlash.c ****                                     CY_FLASH_CACHE_WS_2_VALUE_MASK;
 935              		.loc 1 623 33 is_stmt 0 view .LVU252
 936 0028 134A     		ldr	r2, .L104
 937 002a 1378     		ldrb	r3, [r2]	@ zero_extendqisi2
 623:Generated_Source\PSoC5/CyFlash.c ****                                     CY_FLASH_CACHE_WS_2_VALUE_MASK;
 938              		.loc 1 623 54 view .LVU253
 939 002c 03F01F03 		and	r3, r3, #31
 623:Generated_Source\PSoC5/CyFlash.c ****                                     CY_FLASH_CACHE_WS_2_VALUE_MASK;
 940              		.loc 1 623 96 view .LVU254
 941 0030 43F08003 		orr	r3, r3, #128
 623:Generated_Source\PSoC5/CyFlash.c ****                                     CY_FLASH_CACHE_WS_2_VALUE_MASK;
 942              		.loc 1 623 30 view .LVU255
 943 0034 1370     		strb	r3, [r2]
 944 0036 F1E7     		b	.L98
 945              	.L99:
ARM GAS  C:\Users\jens-\AppData\Local\Temp\ccsaVfQd.s 			page 32


 626:Generated_Source\PSoC5/CyFlash.c ****     {
 946              		.loc 1 626 10 is_stmt 1 view .LVU256
 626:Generated_Source\PSoC5/CyFlash.c ****     {
 947              		.loc 1 626 13 is_stmt 0 view .LVU257
 948 0038 312C     		cmp	r4, #49
 949 003a 07D8     		bhi	.L100
 628:Generated_Source\PSoC5/CyFlash.c ****                                     CY_FLASH_CACHE_WS_3_VALUE_MASK;
 950              		.loc 1 628 9 is_stmt 1 view .LVU258
 628:Generated_Source\PSoC5/CyFlash.c ****                                     CY_FLASH_CACHE_WS_3_VALUE_MASK;
 951              		.loc 1 628 33 is_stmt 0 view .LVU259
 952 003c 0E4A     		ldr	r2, .L104
 953 003e 1378     		ldrb	r3, [r2]	@ zero_extendqisi2
 628:Generated_Source\PSoC5/CyFlash.c ****                                     CY_FLASH_CACHE_WS_3_VALUE_MASK;
 954              		.loc 1 628 54 view .LVU260
 955 0040 03F01F03 		and	r3, r3, #31
 628:Generated_Source\PSoC5/CyFlash.c ****                                     CY_FLASH_CACHE_WS_3_VALUE_MASK;
 956              		.loc 1 628 96 view .LVU261
 957 0044 43F0C003 		orr	r3, r3, #192
 628:Generated_Source\PSoC5/CyFlash.c ****                                     CY_FLASH_CACHE_WS_3_VALUE_MASK;
 958              		.loc 1 628 30 view .LVU262
 959 0048 1370     		strb	r3, [r2]
 960 004a E7E7     		b	.L98
 961              	.L100:
 632:Generated_Source\PSoC5/CyFlash.c ****     {
 962              		.loc 1 632 10 is_stmt 1 view .LVU263
 632:Generated_Source\PSoC5/CyFlash.c ****     {
 963              		.loc 1 632 13 is_stmt 0 view .LVU264
 964 004c 422C     		cmp	r4, #66
 965 004e 05D8     		bhi	.L101
 634:Generated_Source\PSoC5/CyFlash.c ****                                     CY_FLASH_CACHE_WS_4_VALUE_MASK;
 966              		.loc 1 634 9 is_stmt 1 view .LVU265
 634:Generated_Source\PSoC5/CyFlash.c ****                                     CY_FLASH_CACHE_WS_4_VALUE_MASK;
 967              		.loc 1 634 33 is_stmt 0 view .LVU266
 968 0050 094A     		ldr	r2, .L104
 969 0052 1378     		ldrb	r3, [r2]	@ zero_extendqisi2
 634:Generated_Source\PSoC5/CyFlash.c ****                                     CY_FLASH_CACHE_WS_4_VALUE_MASK;
 970              		.loc 1 634 96 view .LVU267
 971 0054 03F01F03 		and	r3, r3, #31
 634:Generated_Source\PSoC5/CyFlash.c ****                                     CY_FLASH_CACHE_WS_4_VALUE_MASK;
 972              		.loc 1 634 30 view .LVU268
 973 0058 1370     		strb	r3, [r2]
 974 005a DFE7     		b	.L98
 975              	.L101:
 637:Generated_Source\PSoC5/CyFlash.c ****     {
 976              		.loc 1 637 10 is_stmt 1 view .LVU269
 637:Generated_Source\PSoC5/CyFlash.c ****     {
 977              		.loc 1 637 13 is_stmt 0 view .LVU270
 978 005c 532C     		cmp	r4, #83
 979 005e 07D8     		bhi	.L102
 639:Generated_Source\PSoC5/CyFlash.c ****                                     CY_FLASH_CACHE_WS_5_VALUE_MASK;
 980              		.loc 1 639 9 is_stmt 1 view .LVU271
 639:Generated_Source\PSoC5/CyFlash.c ****                                     CY_FLASH_CACHE_WS_5_VALUE_MASK;
 981              		.loc 1 639 33 is_stmt 0 view .LVU272
 982 0060 054A     		ldr	r2, .L104
 983 0062 1378     		ldrb	r3, [r2]	@ zero_extendqisi2
 639:Generated_Source\PSoC5/CyFlash.c ****                                     CY_FLASH_CACHE_WS_5_VALUE_MASK;
 984              		.loc 1 639 54 view .LVU273
ARM GAS  C:\Users\jens-\AppData\Local\Temp\ccsaVfQd.s 			page 33


 985 0064 03F01F03 		and	r3, r3, #31
 639:Generated_Source\PSoC5/CyFlash.c ****                                     CY_FLASH_CACHE_WS_5_VALUE_MASK;
 986              		.loc 1 639 96 view .LVU274
 987 0068 43F02003 		orr	r3, r3, #32
 639:Generated_Source\PSoC5/CyFlash.c ****                                     CY_FLASH_CACHE_WS_5_VALUE_MASK;
 988              		.loc 1 639 30 view .LVU275
 989 006c 1370     		strb	r3, [r2]
 990 006e D5E7     		b	.L98
 991              	.L102:
 646:Generated_Source\PSoC5/CyFlash.c ****     }
 992              		.loc 1 646 9 is_stmt 1 discriminator 1 view .LVU276
 646:Generated_Source\PSoC5/CyFlash.c ****     }
 993              		.loc 1 646 9 discriminator 1 view .LVU277
 994 0070 0020     		movs	r0, #0
 995 0072 FFF7FEFF 		bl	CyHalt
 996              	.LVL95:
 997 0076 D1E7     		b	.L98
 998              	.L105:
 999              		.align	2
 1000              	.L104:
 1001 0078 00480040 		.word	1073760256
 1002              		.cfi_endproc
 1003              	.LFE9:
 1004              		.size	CyFlash_SetWaitCycles, .-CyFlash_SetWaitCycles
 1005              		.section	.text.CyEEPROM_Start,"ax",%progbits
 1006              		.align	1
 1007              		.global	CyEEPROM_Start
 1008              		.syntax unified
 1009              		.thumb
 1010              		.thumb_func
 1011              		.fpu softvfp
 1012              		.type	CyEEPROM_Start, %function
 1013              	CyEEPROM_Start:
 1014              	.LFB10:
 652:Generated_Source\PSoC5/CyFlash.c **** 
 653:Generated_Source\PSoC5/CyFlash.c **** 
 654:Generated_Source\PSoC5/CyFlash.c **** /*******************************************************************************
 655:Generated_Source\PSoC5/CyFlash.c **** * Function Name: CyEEPROM_Start
 656:Generated_Source\PSoC5/CyFlash.c **** ****************************************************************************//**
 657:Generated_Source\PSoC5/CyFlash.c **** *
 658:Generated_Source\PSoC5/CyFlash.c **** *  Enable the EEPROM.
 659:Generated_Source\PSoC5/CyFlash.c **** *
 660:Generated_Source\PSoC5/CyFlash.c **** *******************************************************************************/
 661:Generated_Source\PSoC5/CyFlash.c **** void CyEEPROM_Start(void) 
 662:Generated_Source\PSoC5/CyFlash.c **** {
 1015              		.loc 1 662 1 view -0
 1016              		.cfi_startproc
 1017              		@ args = 0, pretend = 0, frame = 0
 1018              		@ frame_needed = 0, uses_anonymous_args = 0
 1019 0000 08B5     		push	{r3, lr}
 1020              		.cfi_def_cfa_offset 8
 1021              		.cfi_offset 3, -8
 1022              		.cfi_offset 14, -4
 663:Generated_Source\PSoC5/CyFlash.c ****     uint8 interruptState;
 1023              		.loc 1 663 5 view .LVU279
 664:Generated_Source\PSoC5/CyFlash.c **** 
 665:Generated_Source\PSoC5/CyFlash.c ****     interruptState = CyEnterCriticalSection();
ARM GAS  C:\Users\jens-\AppData\Local\Temp\ccsaVfQd.s 			page 34


 1024              		.loc 1 665 5 view .LVU280
 1025              		.loc 1 665 22 is_stmt 0 view .LVU281
 1026 0002 FFF7FEFF 		bl	CyEnterCriticalSection
 1027              	.LVL96:
 666:Generated_Source\PSoC5/CyFlash.c **** 
 667:Generated_Source\PSoC5/CyFlash.c **** 
 668:Generated_Source\PSoC5/CyFlash.c ****     /***************************************************************************
 669:Generated_Source\PSoC5/CyFlash.c ****     * Enable SPC clock. This also internally enables the 36MHz IMO, since this
 670:Generated_Source\PSoC5/CyFlash.c ****     * is required for the SPC to function.
 671:Generated_Source\PSoC5/CyFlash.c ****     ***************************************************************************/
 672:Generated_Source\PSoC5/CyFlash.c ****     CY_FLASH_PM_ACT_CFG0_REG    |= CY_FLASH_PM_ACT_CFG0_EN_CLK_SPC;
 1028              		.loc 1 672 5 is_stmt 1 view .LVU282
 1029              		.loc 1 672 33 is_stmt 0 view .LVU283
 1030 0006 0F4A     		ldr	r2, .L109
 1031 0008 1378     		ldrb	r3, [r2]	@ zero_extendqisi2
 1032 000a 43F00803 		orr	r3, r3, #8
 1033 000e 1370     		strb	r3, [r2]
 673:Generated_Source\PSoC5/CyFlash.c ****     CY_FLASH_PM_ALTACT_CFG0_REG |= CY_FLASH_PM_ALTACT_CFG0_EN_CLK_SPC;
 1034              		.loc 1 673 5 is_stmt 1 view .LVU284
 1035              		.loc 1 673 33 is_stmt 0 view .LVU285
 1036 0010 1032     		adds	r2, r2, #16
 1037 0012 1378     		ldrb	r3, [r2]	@ zero_extendqisi2
 1038 0014 43F00803 		orr	r3, r3, #8
 1039 0018 1370     		strb	r3, [r2]
 674:Generated_Source\PSoC5/CyFlash.c **** 
 675:Generated_Source\PSoC5/CyFlash.c **** 
 676:Generated_Source\PSoC5/CyFlash.c ****     /***************************************************************************
 677:Generated_Source\PSoC5/CyFlash.c ****     * The wake count defines the number of Bus Clock cycles it takes for the
 678:Generated_Source\PSoC5/CyFlash.c ****     * flash or EEPROM to wake up from a low power mode independent of the chip
 679:Generated_Source\PSoC5/CyFlash.c ****     * power mode. Wake up time for these blocks is 5 us.
 680:Generated_Source\PSoC5/CyFlash.c ****     * The granularity of this register is 2 Bus Clock cycles, so a value of 0x1E
 681:Generated_Source\PSoC5/CyFlash.c ****     * (30d) defines the wake up time as 60 cycles of the Bus Clock.
 682:Generated_Source\PSoC5/CyFlash.c ****     * This register needs to be written with a value dependent on the Bus Clock
 683:Generated_Source\PSoC5/CyFlash.c ****     * frequency so that the duration of the cycles is equal to or greater than
 684:Generated_Source\PSoC5/CyFlash.c ****     * the 5 us delay required.
 685:Generated_Source\PSoC5/CyFlash.c ****     ***************************************************************************/
 686:Generated_Source\PSoC5/CyFlash.c ****     CY_FLASH_SPC_FM_EE_WAKE_CNT_REG = CY_FLASH_SPC_FM_EE_WAKE_CNT_80MHZ;
 1040              		.loc 1 686 5 is_stmt 1 view .LVU286
 1041              		.loc 1 686 37 is_stmt 0 view .LVU287
 1042 001a 0B4B     		ldr	r3, .L109+4
 1043 001c C822     		movs	r2, #200
 1044 001e 1A70     		strb	r2, [r3]
 687:Generated_Source\PSoC5/CyFlash.c **** 
 688:Generated_Source\PSoC5/CyFlash.c **** 
 689:Generated_Source\PSoC5/CyFlash.c ****     /***************************************************************************
 690:Generated_Source\PSoC5/CyFlash.c ****     * Enable EEPROM. Re-enabling an EEPROM macro takes 5us. During this time,
 691:Generated_Source\PSoC5/CyFlash.c ****     * the EE will not acknowledge a PHUB request.
 692:Generated_Source\PSoC5/CyFlash.c ****     ***************************************************************************/
 693:Generated_Source\PSoC5/CyFlash.c ****     CY_FLASH_PM_ACT_CFG12_REG    |= CY_FLASH_PM_ACT_CFG12_EN_EE;
 1045              		.loc 1 693 5 is_stmt 1 view .LVU288
 1046              		.loc 1 693 34 is_stmt 0 view .LVU289
 1047 0020 0A4A     		ldr	r2, .L109+8
 1048 0022 1378     		ldrb	r3, [r2]	@ zero_extendqisi2
 1049 0024 43F01003 		orr	r3, r3, #16
 1050 0028 1370     		strb	r3, [r2]
 694:Generated_Source\PSoC5/CyFlash.c ****     CY_FLASH_PM_ALTACT_CFG12_REG |= CY_FLASH_PM_ALTACT_CFG12_EN_EE;
 1051              		.loc 1 694 5 is_stmt 1 view .LVU290
ARM GAS  C:\Users\jens-\AppData\Local\Temp\ccsaVfQd.s 			page 35


 1052              		.loc 1 694 34 is_stmt 0 view .LVU291
 1053 002a 1032     		adds	r2, r2, #16
 1054 002c 1378     		ldrb	r3, [r2]	@ zero_extendqisi2
 1055 002e 43F01003 		orr	r3, r3, #16
 1056 0032 1370     		strb	r3, [r2]
 695:Generated_Source\PSoC5/CyFlash.c **** 
 696:Generated_Source\PSoC5/CyFlash.c ****     while(0u == (CY_FLASH_SPC_FM_EE_CR_REG & CY_FLASH_EE_EE_AWAKE))
 1057              		.loc 1 696 5 is_stmt 1 view .LVU292
 1058              	.L107:
 697:Generated_Source\PSoC5/CyFlash.c ****     {
 698:Generated_Source\PSoC5/CyFlash.c ****         /* Non-zero status denotes that the EEPROM/Flash is awake & powered. */
 699:Generated_Source\PSoC5/CyFlash.c ****     }
 1059              		.loc 1 699 5 discriminator 1 view .LVU293
 696:Generated_Source\PSoC5/CyFlash.c ****     {
 1060              		.loc 1 696 10 discriminator 1 view .LVU294
 696:Generated_Source\PSoC5/CyFlash.c ****     {
 1061              		.loc 1 696 18 is_stmt 0 discriminator 1 view .LVU295
 1062 0034 064B     		ldr	r3, .L109+12
 1063 0036 1B78     		ldrb	r3, [r3]	@ zero_extendqisi2
 696:Generated_Source\PSoC5/CyFlash.c ****     {
 1064              		.loc 1 696 10 discriminator 1 view .LVU296
 1065 0038 13F0200F 		tst	r3, #32
 1066 003c FAD0     		beq	.L107
 700:Generated_Source\PSoC5/CyFlash.c **** 
 701:Generated_Source\PSoC5/CyFlash.c ****     CyExitCriticalSection(interruptState);
 1067              		.loc 1 701 5 is_stmt 1 view .LVU297
 1068 003e FFF7FEFF 		bl	CyExitCriticalSection
 1069              	.LVL97:
 702:Generated_Source\PSoC5/CyFlash.c **** }
 1070              		.loc 1 702 1 is_stmt 0 view .LVU298
 1071 0042 08BD     		pop	{r3, pc}
 1072              	.L110:
 1073              		.align	2
 1074              	.L109:
 1075 0044 A0430040 		.word	1073759136
 1076 0048 01470040 		.word	1073760001
 1077 004c AC430040 		.word	1073759148
 1078 0050 00470040 		.word	1073760000
 1079              		.cfi_endproc
 1080              	.LFE10:
 1081              		.size	CyEEPROM_Start, .-CyEEPROM_Start
 1082              		.section	.text.CyEEPROM_Stop,"ax",%progbits
 1083              		.align	1
 1084              		.global	CyEEPROM_Stop
 1085              		.syntax unified
 1086              		.thumb
 1087              		.thumb_func
 1088              		.fpu softvfp
 1089              		.type	CyEEPROM_Stop, %function
 1090              	CyEEPROM_Stop:
 1091              	.LFB11:
 703:Generated_Source\PSoC5/CyFlash.c **** 
 704:Generated_Source\PSoC5/CyFlash.c **** 
 705:Generated_Source\PSoC5/CyFlash.c **** /*******************************************************************************
 706:Generated_Source\PSoC5/CyFlash.c **** * Function Name: CyEEPROM_Stop
 707:Generated_Source\PSoC5/CyFlash.c **** ****************************************************************************//**
 708:Generated_Source\PSoC5/CyFlash.c **** *
ARM GAS  C:\Users\jens-\AppData\Local\Temp\ccsaVfQd.s 			page 36


 709:Generated_Source\PSoC5/CyFlash.c **** *  Disable the EEPROM.
 710:Generated_Source\PSoC5/CyFlash.c **** *
 711:Generated_Source\PSoC5/CyFlash.c **** *******************************************************************************/
 712:Generated_Source\PSoC5/CyFlash.c **** void CyEEPROM_Stop (void) 
 713:Generated_Source\PSoC5/CyFlash.c **** {
 1092              		.loc 1 713 1 is_stmt 1 view -0
 1093              		.cfi_startproc
 1094              		@ args = 0, pretend = 0, frame = 0
 1095              		@ frame_needed = 0, uses_anonymous_args = 0
 1096 0000 08B5     		push	{r3, lr}
 1097              		.cfi_def_cfa_offset 8
 1098              		.cfi_offset 3, -8
 1099              		.cfi_offset 14, -4
 714:Generated_Source\PSoC5/CyFlash.c ****     uint8 interruptState;
 1100              		.loc 1 714 5 view .LVU300
 715:Generated_Source\PSoC5/CyFlash.c **** 
 716:Generated_Source\PSoC5/CyFlash.c ****     interruptState = CyEnterCriticalSection();
 1101              		.loc 1 716 5 view .LVU301
 1102              		.loc 1 716 22 is_stmt 0 view .LVU302
 1103 0002 FFF7FEFF 		bl	CyEnterCriticalSection
 1104              	.LVL98:
 717:Generated_Source\PSoC5/CyFlash.c **** 
 718:Generated_Source\PSoC5/CyFlash.c ****     CY_FLASH_PM_ACT_CFG12_REG    &= ((uint8)(~CY_FLASH_PM_ACT_CFG12_EN_EE));
 1105              		.loc 1 718 5 is_stmt 1 view .LVU303
 1106              		.loc 1 718 34 is_stmt 0 view .LVU304
 1107 0006 064A     		ldr	r2, .L113
 1108 0008 1378     		ldrb	r3, [r2]	@ zero_extendqisi2
 1109 000a 03F0EF03 		and	r3, r3, #239
 1110 000e 1370     		strb	r3, [r2]
 719:Generated_Source\PSoC5/CyFlash.c ****     CY_FLASH_PM_ALTACT_CFG12_REG &= ((uint8)(~CY_FLASH_PM_ALTACT_CFG12_EN_EE));
 1111              		.loc 1 719 5 is_stmt 1 view .LVU305
 1112              		.loc 1 719 34 is_stmt 0 view .LVU306
 1113 0010 1032     		adds	r2, r2, #16
 1114 0012 1378     		ldrb	r3, [r2]	@ zero_extendqisi2
 1115 0014 03F0EF03 		and	r3, r3, #239
 1116 0018 1370     		strb	r3, [r2]
 720:Generated_Source\PSoC5/CyFlash.c **** 
 721:Generated_Source\PSoC5/CyFlash.c ****     CyExitCriticalSection(interruptState);
 1117              		.loc 1 721 5 is_stmt 1 view .LVU307
 1118 001a FFF7FEFF 		bl	CyExitCriticalSection
 1119              	.LVL99:
 722:Generated_Source\PSoC5/CyFlash.c **** }
 1120              		.loc 1 722 1 is_stmt 0 view .LVU308
 1121 001e 08BD     		pop	{r3, pc}
 1122              	.L114:
 1123              		.align	2
 1124              	.L113:
 1125 0020 AC430040 		.word	1073759148
 1126              		.cfi_endproc
 1127              	.LFE11:
 1128              		.size	CyEEPROM_Stop, .-CyEEPROM_Stop
 1129              		.section	.text.CyEEPROM_ReadReserve,"ax",%progbits
 1130              		.align	1
 1131              		.global	CyEEPROM_ReadReserve
 1132              		.syntax unified
 1133              		.thumb
 1134              		.thumb_func
ARM GAS  C:\Users\jens-\AppData\Local\Temp\ccsaVfQd.s 			page 37


 1135              		.fpu softvfp
 1136              		.type	CyEEPROM_ReadReserve, %function
 1137              	CyEEPROM_ReadReserve:
 1138              	.LFB12:
 723:Generated_Source\PSoC5/CyFlash.c **** 
 724:Generated_Source\PSoC5/CyFlash.c **** 
 725:Generated_Source\PSoC5/CyFlash.c **** /*******************************************************************************
 726:Generated_Source\PSoC5/CyFlash.c **** * Function Name: CyEEPROM_ReadReserve
 727:Generated_Source\PSoC5/CyFlash.c **** ****************************************************************************//**
 728:Generated_Source\PSoC5/CyFlash.c **** *
 729:Generated_Source\PSoC5/CyFlash.c **** *  Request access to the EEPROM for reading and wait until access is available.
 730:Generated_Source\PSoC5/CyFlash.c **** *
 731:Generated_Source\PSoC5/CyFlash.c **** *******************************************************************************/
 732:Generated_Source\PSoC5/CyFlash.c **** void CyEEPROM_ReadReserve(void) 
 733:Generated_Source\PSoC5/CyFlash.c **** {
 1139              		.loc 1 733 1 is_stmt 1 view -0
 1140              		.cfi_startproc
 1141              		@ args = 0, pretend = 0, frame = 0
 1142              		@ frame_needed = 0, uses_anonymous_args = 0
 1143              		@ link register save eliminated.
 734:Generated_Source\PSoC5/CyFlash.c ****     /* Make request for PHUB to have access */
 735:Generated_Source\PSoC5/CyFlash.c ****     CY_FLASH_EE_SCR_REG |= CY_FLASH_EE_SCR_AHB_EE_REQ;
 1144              		.loc 1 735 5 view .LVU310
 1145              		.loc 1 735 25 is_stmt 0 view .LVU311
 1146 0000 054A     		ldr	r2, .L117
 1147 0002 1378     		ldrb	r3, [r2]	@ zero_extendqisi2
 1148 0004 43F00103 		orr	r3, r3, #1
 1149 0008 1370     		strb	r3, [r2]
 736:Generated_Source\PSoC5/CyFlash.c **** 
 737:Generated_Source\PSoC5/CyFlash.c ****     while (0u == (CY_FLASH_EE_SCR_REG & CY_FLASH_EE_SCR_AHB_EE_ACK))
 1150              		.loc 1 737 5 is_stmt 1 view .LVU312
 1151              	.L116:
 738:Generated_Source\PSoC5/CyFlash.c ****     {
 739:Generated_Source\PSoC5/CyFlash.c ****         /* Wait for acknowledgment from PHUB */
 740:Generated_Source\PSoC5/CyFlash.c ****     }
 1152              		.loc 1 740 5 discriminator 1 view .LVU313
 737:Generated_Source\PSoC5/CyFlash.c ****     {
 1153              		.loc 1 737 11 discriminator 1 view .LVU314
 737:Generated_Source\PSoC5/CyFlash.c ****     {
 1154              		.loc 1 737 19 is_stmt 0 discriminator 1 view .LVU315
 1155 000a 034B     		ldr	r3, .L117
 1156 000c 1B78     		ldrb	r3, [r3]	@ zero_extendqisi2
 737:Generated_Source\PSoC5/CyFlash.c ****     {
 1157              		.loc 1 737 11 discriminator 1 view .LVU316
 1158 000e 13F0020F 		tst	r3, #2
 1159 0012 FAD0     		beq	.L116
 741:Generated_Source\PSoC5/CyFlash.c **** }
 1160              		.loc 1 741 1 view .LVU317
 1161 0014 7047     		bx	lr
 1162              	.L118:
 1163 0016 00BF     		.align	2
 1164              	.L117:
 1165 0018 02470040 		.word	1073760002
 1166              		.cfi_endproc
 1167              	.LFE12:
 1168              		.size	CyEEPROM_ReadReserve, .-CyEEPROM_ReadReserve
 1169              		.section	.text.CyEEPROM_ReadRelease,"ax",%progbits
ARM GAS  C:\Users\jens-\AppData\Local\Temp\ccsaVfQd.s 			page 38


 1170              		.align	1
 1171              		.global	CyEEPROM_ReadRelease
 1172              		.syntax unified
 1173              		.thumb
 1174              		.thumb_func
 1175              		.fpu softvfp
 1176              		.type	CyEEPROM_ReadRelease, %function
 1177              	CyEEPROM_ReadRelease:
 1178              	.LFB13:
 742:Generated_Source\PSoC5/CyFlash.c **** 
 743:Generated_Source\PSoC5/CyFlash.c **** 
 744:Generated_Source\PSoC5/CyFlash.c **** /*******************************************************************************
 745:Generated_Source\PSoC5/CyFlash.c **** * Function Name: CyEEPROM_ReadRelease
 746:Generated_Source\PSoC5/CyFlash.c **** ****************************************************************************//**
 747:Generated_Source\PSoC5/CyFlash.c **** *
 748:Generated_Source\PSoC5/CyFlash.c **** *  Release the read reservation of the EEPROM.
 749:Generated_Source\PSoC5/CyFlash.c **** *
 750:Generated_Source\PSoC5/CyFlash.c **** *******************************************************************************/
 751:Generated_Source\PSoC5/CyFlash.c **** void CyEEPROM_ReadRelease(void) 
 752:Generated_Source\PSoC5/CyFlash.c **** {
 1179              		.loc 1 752 1 is_stmt 1 view -0
 1180              		.cfi_startproc
 1181              		@ args = 0, pretend = 0, frame = 0
 1182              		@ frame_needed = 0, uses_anonymous_args = 0
 1183              		@ link register save eliminated.
 753:Generated_Source\PSoC5/CyFlash.c ****     CY_FLASH_EE_SCR_REG &= (uint8)(~CY_FLASH_EE_SCR_AHB_EE_REQ);
 1184              		.loc 1 753 5 view .LVU319
 1185              		.loc 1 753 25 is_stmt 0 view .LVU320
 1186 0000 024A     		ldr	r2, .L120
 1187 0002 1378     		ldrb	r3, [r2]	@ zero_extendqisi2
 1188 0004 03F0FE03 		and	r3, r3, #254
 1189 0008 1370     		strb	r3, [r2]
 754:Generated_Source\PSoC5/CyFlash.c **** }
 1190              		.loc 1 754 1 view .LVU321
 1191 000a 7047     		bx	lr
 1192              	.L121:
 1193              		.align	2
 1194              	.L120:
 1195 000c 02470040 		.word	1073760002
 1196              		.cfi_endproc
 1197              	.LFE13:
 1198              		.size	CyEEPROM_ReadRelease, .-CyEEPROM_ReadRelease
 1199              		.comm	dieTemperature,2,4
 1200              		.text
 1201              	.Letext0:
 1202              		.file 2 "Generated_Source\\PSoC5\\cytypes.h"
 1203              		.file 3 "c:\\program files (x86)\\cypress\\psoc creator\\4.2\\psoc creator\\import\\gnu\\arm\\5.4.
 1204              		.file 4 "c:\\program files (x86)\\cypress\\psoc creator\\4.2\\psoc creator\\import\\gnu\\arm\\5.4.
 1205              		.file 5 "c:\\program files (x86)\\cypress\\psoc creator\\4.2\\psoc creator\\import\\gnu\\arm\\5.4.
 1206              		.file 6 "c:\\program files (x86)\\cypress\\psoc creator\\4.2\\psoc creator\\import\\gnu\\arm\\5.4.
 1207              		.file 7 "c:\\program files (x86)\\cypress\\psoc creator\\4.2\\psoc creator\\import\\gnu\\arm\\5.4.
 1208              		.file 8 "Generated_Source\\PSoC5\\CyLib.h"
 1209              		.file 9 "Generated_Source\\PSoC5\\CySpc.h"
 1210              		.file 10 "Generated_Source\\PSoC5\\CyFlash.h"