ARM GAS  C:\Users\jens-\AppData\Local\Temp\ccXEMS4d.s 			page 1


   1              		.cpu cortex-m3
   2              		.eabi_attribute 20, 1
   3              		.eabi_attribute 21, 1
   4              		.eabi_attribute 23, 3
   5              		.eabi_attribute 24, 1
   6              		.eabi_attribute 25, 1
   7              		.eabi_attribute 26, 1
   8              		.eabi_attribute 30, 1
   9              		.eabi_attribute 34, 1
  10              		.eabi_attribute 18, 4
  11              		.file	"I2C_1_PM.c"
  12              		.text
  13              	.Ltext0:
  14              		.cfi_sections	.debug_frame
  15              		.section	.text.I2C_1_SaveConfig,"ax",%progbits
  16              		.align	1
  17              		.global	I2C_1_SaveConfig
  18              		.arch armv7-m
  19              		.syntax unified
  20              		.thumb
  21              		.thumb_func
  22              		.fpu softvfp
  23              		.type	I2C_1_SaveConfig, %function
  24              	I2C_1_SaveConfig:
  25              	.LFB0:
  26              		.file 1 "Generated_Source\\PSoC5\\I2C_1_PM.c"
   1:Generated_Source\PSoC5/I2C_1_PM.c **** /*******************************************************************************
   2:Generated_Source\PSoC5/I2C_1_PM.c **** * File Name: I2C_1_PM.c
   3:Generated_Source\PSoC5/I2C_1_PM.c **** * Version 3.50
   4:Generated_Source\PSoC5/I2C_1_PM.c **** *
   5:Generated_Source\PSoC5/I2C_1_PM.c **** * Description:
   6:Generated_Source\PSoC5/I2C_1_PM.c **** *  This file provides low power mode APIs for the I2C component.
   7:Generated_Source\PSoC5/I2C_1_PM.c **** *
   8:Generated_Source\PSoC5/I2C_1_PM.c **** ********************************************************************************
   9:Generated_Source\PSoC5/I2C_1_PM.c **** * Copyright 2008-2015, Cypress Semiconductor Corporation. All rights reserved.
  10:Generated_Source\PSoC5/I2C_1_PM.c **** * You may use this file only in accordance with the license, terms, conditions,
  11:Generated_Source\PSoC5/I2C_1_PM.c **** * disclaimers, and limitations in the end user license agreement accompanying
  12:Generated_Source\PSoC5/I2C_1_PM.c **** * the software package with which this file was provided.
  13:Generated_Source\PSoC5/I2C_1_PM.c **** *******************************************************************************/
  14:Generated_Source\PSoC5/I2C_1_PM.c **** 
  15:Generated_Source\PSoC5/I2C_1_PM.c **** #include "I2C_1_PVT.h"
  16:Generated_Source\PSoC5/I2C_1_PM.c **** 
  17:Generated_Source\PSoC5/I2C_1_PM.c **** I2C_1_BACKUP_STRUCT I2C_1_backup =
  18:Generated_Source\PSoC5/I2C_1_PM.c **** {
  19:Generated_Source\PSoC5/I2C_1_PM.c ****     I2C_1_DISABLE,
  20:Generated_Source\PSoC5/I2C_1_PM.c **** 
  21:Generated_Source\PSoC5/I2C_1_PM.c **** #if (I2C_1_FF_IMPLEMENTED)
  22:Generated_Source\PSoC5/I2C_1_PM.c ****     I2C_1_DEFAULT_XCFG,
  23:Generated_Source\PSoC5/I2C_1_PM.c ****     I2C_1_DEFAULT_CFG,
  24:Generated_Source\PSoC5/I2C_1_PM.c ****     I2C_1_DEFAULT_ADDR,
  25:Generated_Source\PSoC5/I2C_1_PM.c ****     LO8(I2C_1_DEFAULT_DIVIDE_FACTOR),
  26:Generated_Source\PSoC5/I2C_1_PM.c ****     HI8(I2C_1_DEFAULT_DIVIDE_FACTOR),
  27:Generated_Source\PSoC5/I2C_1_PM.c **** #else  /* (I2C_1_UDB_IMPLEMENTED) */
  28:Generated_Source\PSoC5/I2C_1_PM.c ****     I2C_1_DEFAULT_CFG,
  29:Generated_Source\PSoC5/I2C_1_PM.c **** #endif /* (I2C_1_FF_IMPLEMENTED) */
  30:Generated_Source\PSoC5/I2C_1_PM.c **** 
  31:Generated_Source\PSoC5/I2C_1_PM.c **** #if (I2C_1_TIMEOUT_ENABLED)
ARM GAS  C:\Users\jens-\AppData\Local\Temp\ccXEMS4d.s 			page 2


  32:Generated_Source\PSoC5/I2C_1_PM.c ****     I2C_1_DEFAULT_TMOUT_PERIOD,
  33:Generated_Source\PSoC5/I2C_1_PM.c ****     I2C_1_DEFAULT_TMOUT_INTR_MASK,
  34:Generated_Source\PSoC5/I2C_1_PM.c **** #endif /* (I2C_1_TIMEOUT_ENABLED) */
  35:Generated_Source\PSoC5/I2C_1_PM.c **** };
  36:Generated_Source\PSoC5/I2C_1_PM.c **** 
  37:Generated_Source\PSoC5/I2C_1_PM.c **** #if ((I2C_1_FF_IMPLEMENTED) && (I2C_1_WAKEUP_ENABLED))
  38:Generated_Source\PSoC5/I2C_1_PM.c ****     volatile uint8 I2C_1_wakeupSource;
  39:Generated_Source\PSoC5/I2C_1_PM.c **** #endif /* ((I2C_1_FF_IMPLEMENTED) && (I2C_1_WAKEUP_ENABLED)) */
  40:Generated_Source\PSoC5/I2C_1_PM.c **** 
  41:Generated_Source\PSoC5/I2C_1_PM.c **** 
  42:Generated_Source\PSoC5/I2C_1_PM.c **** /*******************************************************************************
  43:Generated_Source\PSoC5/I2C_1_PM.c **** * Function Name: I2C_1_SaveConfig
  44:Generated_Source\PSoC5/I2C_1_PM.c **** ********************************************************************************
  45:Generated_Source\PSoC5/I2C_1_PM.c **** *
  46:Generated_Source\PSoC5/I2C_1_PM.c **** * Summary:
  47:Generated_Source\PSoC5/I2C_1_PM.c **** *  The Enable wakeup from Sleep Mode selection influences this function
  48:Generated_Source\PSoC5/I2C_1_PM.c **** *  implementation:
  49:Generated_Source\PSoC5/I2C_1_PM.c **** *   Unchecked: Stores the component non-retention configuration registers.
  50:Generated_Source\PSoC5/I2C_1_PM.c **** *   Checked:   Disables the master, if it was enabled before, and enables
  51:Generated_Source\PSoC5/I2C_1_PM.c **** *              backup regulator of the I2C hardware. If a transaction intended
  52:Generated_Source\PSoC5/I2C_1_PM.c **** *              for component executes during this function call, it waits until
  53:Generated_Source\PSoC5/I2C_1_PM.c **** *              the current transaction is completed and I2C hardware is ready
  54:Generated_Source\PSoC5/I2C_1_PM.c **** *              to enter sleep mode. All subsequent I2C traffic is NAKed until
  55:Generated_Source\PSoC5/I2C_1_PM.c **** *              the device is put into sleep mode.
  56:Generated_Source\PSoC5/I2C_1_PM.c **** *
  57:Generated_Source\PSoC5/I2C_1_PM.c **** * Parameters:
  58:Generated_Source\PSoC5/I2C_1_PM.c **** *  None.
  59:Generated_Source\PSoC5/I2C_1_PM.c **** *
  60:Generated_Source\PSoC5/I2C_1_PM.c **** * Return:
  61:Generated_Source\PSoC5/I2C_1_PM.c **** *  None.
  62:Generated_Source\PSoC5/I2C_1_PM.c **** *
  63:Generated_Source\PSoC5/I2C_1_PM.c **** * Global Variables:
  64:Generated_Source\PSoC5/I2C_1_PM.c **** *  I2C_1_backup - The global variable used to save the component
  65:Generated_Source\PSoC5/I2C_1_PM.c **** *                            configuration and non-retention registers before
  66:Generated_Source\PSoC5/I2C_1_PM.c **** *                            entering the sleep mode.
  67:Generated_Source\PSoC5/I2C_1_PM.c **** *
  68:Generated_Source\PSoC5/I2C_1_PM.c **** * Reentrant:
  69:Generated_Source\PSoC5/I2C_1_PM.c **** *  No.
  70:Generated_Source\PSoC5/I2C_1_PM.c **** *
  71:Generated_Source\PSoC5/I2C_1_PM.c **** *******************************************************************************/
  72:Generated_Source\PSoC5/I2C_1_PM.c **** void I2C_1_SaveConfig(void) 
  73:Generated_Source\PSoC5/I2C_1_PM.c **** {
  27              		.loc 1 73 1 view -0
  28              		.cfi_startproc
  29              		@ args = 0, pretend = 0, frame = 0
  30              		@ frame_needed = 0, uses_anonymous_args = 0
  31              		@ link register save eliminated.
  74:Generated_Source\PSoC5/I2C_1_PM.c **** #if (I2C_1_FF_IMPLEMENTED)
  75:Generated_Source\PSoC5/I2C_1_PM.c ****     #if (I2C_1_WAKEUP_ENABLED)
  76:Generated_Source\PSoC5/I2C_1_PM.c ****         uint8 intState;
  77:Generated_Source\PSoC5/I2C_1_PM.c ****     #endif /* (I2C_1_WAKEUP_ENABLED) */
  78:Generated_Source\PSoC5/I2C_1_PM.c **** 
  79:Generated_Source\PSoC5/I2C_1_PM.c ****     /* Store registers before enter low power mode */
  80:Generated_Source\PSoC5/I2C_1_PM.c ****     I2C_1_backup.cfg     = I2C_1_CFG_REG;
  32              		.loc 1 80 5 view .LVU1
  33              		.loc 1 80 28 is_stmt 0 view .LVU2
  34 0000 084B     		ldr	r3, .L2
ARM GAS  C:\Users\jens-\AppData\Local\Temp\ccXEMS4d.s 			page 3


  35 0002 1A78     		ldrb	r2, [r3]	@ zero_extendqisi2
  36              		.loc 1 80 26 view .LVU3
  37 0004 084B     		ldr	r3, .L2+4
  38 0006 9A70     		strb	r2, [r3, #2]
  81:Generated_Source\PSoC5/I2C_1_PM.c ****     I2C_1_backup.xcfg    = I2C_1_XCFG_REG;
  39              		.loc 1 81 5 is_stmt 1 view .LVU4
  40              		.loc 1 81 28 is_stmt 0 view .LVU5
  41 0008 084A     		ldr	r2, .L2+8
  42 000a 1278     		ldrb	r2, [r2]	@ zero_extendqisi2
  43              		.loc 1 81 26 view .LVU6
  44 000c 5A70     		strb	r2, [r3, #1]
  82:Generated_Source\PSoC5/I2C_1_PM.c ****     I2C_1_backup.addr    = I2C_1_ADDR_REG;
  45              		.loc 1 82 5 is_stmt 1 view .LVU7
  46              		.loc 1 82 28 is_stmt 0 view .LVU8
  47 000e 084A     		ldr	r2, .L2+12
  48 0010 1278     		ldrb	r2, [r2]	@ zero_extendqisi2
  49              		.loc 1 82 26 view .LVU9
  50 0012 DA70     		strb	r2, [r3, #3]
  83:Generated_Source\PSoC5/I2C_1_PM.c ****     I2C_1_backup.clkDiv1 = I2C_1_CLKDIV1_REG;
  51              		.loc 1 83 5 is_stmt 1 view .LVU10
  52              		.loc 1 83 28 is_stmt 0 view .LVU11
  53 0014 074A     		ldr	r2, .L2+16
  54 0016 1278     		ldrb	r2, [r2]	@ zero_extendqisi2
  55              		.loc 1 83 26 view .LVU12
  56 0018 1A71     		strb	r2, [r3, #4]
  84:Generated_Source\PSoC5/I2C_1_PM.c ****     I2C_1_backup.clkDiv2 = I2C_1_CLKDIV2_REG;
  57              		.loc 1 84 5 is_stmt 1 view .LVU13
  58              		.loc 1 84 28 is_stmt 0 view .LVU14
  59 001a 074A     		ldr	r2, .L2+20
  60 001c 1278     		ldrb	r2, [r2]	@ zero_extendqisi2
  61              		.loc 1 84 26 view .LVU15
  62 001e 5A71     		strb	r2, [r3, #5]
  85:Generated_Source\PSoC5/I2C_1_PM.c **** 
  86:Generated_Source\PSoC5/I2C_1_PM.c **** #if (I2C_1_WAKEUP_ENABLED)
  87:Generated_Source\PSoC5/I2C_1_PM.c ****     /* Disable master */
  88:Generated_Source\PSoC5/I2C_1_PM.c ****     I2C_1_CFG_REG &= (uint8) ~I2C_1_ENABLE_MASTER;
  89:Generated_Source\PSoC5/I2C_1_PM.c **** 
  90:Generated_Source\PSoC5/I2C_1_PM.c ****     /* Enable backup regulator to keep block powered in low power mode */
  91:Generated_Source\PSoC5/I2C_1_PM.c ****     intState = CyEnterCriticalSection();
  92:Generated_Source\PSoC5/I2C_1_PM.c ****     I2C_1_PWRSYS_CR1_REG |= I2C_1_PWRSYS_CR1_I2C_REG_BACKUP;
  93:Generated_Source\PSoC5/I2C_1_PM.c ****     CyExitCriticalSection(intState);
  94:Generated_Source\PSoC5/I2C_1_PM.c **** 
  95:Generated_Source\PSoC5/I2C_1_PM.c ****     /* 1) Set force NACK to ignore I2C transactions;
  96:Generated_Source\PSoC5/I2C_1_PM.c ****     *  2) Wait unti I2C is ready go to Sleep; !!
  97:Generated_Source\PSoC5/I2C_1_PM.c ****     *  3) These bits are cleared on wake up.
  98:Generated_Source\PSoC5/I2C_1_PM.c ****     */
  99:Generated_Source\PSoC5/I2C_1_PM.c ****     /* Wait when block is ready for sleep */
 100:Generated_Source\PSoC5/I2C_1_PM.c ****     I2C_1_XCFG_REG |= I2C_1_XCFG_FORCE_NACK;
 101:Generated_Source\PSoC5/I2C_1_PM.c ****     while (0u == (I2C_1_XCFG_REG & I2C_1_XCFG_RDY_TO_SLEEP))
 102:Generated_Source\PSoC5/I2C_1_PM.c ****     {
 103:Generated_Source\PSoC5/I2C_1_PM.c ****     }
 104:Generated_Source\PSoC5/I2C_1_PM.c **** 
 105:Generated_Source\PSoC5/I2C_1_PM.c ****     /* Setup wakeup interrupt */
 106:Generated_Source\PSoC5/I2C_1_PM.c ****     I2C_1_DisableInt();
 107:Generated_Source\PSoC5/I2C_1_PM.c ****     (void) CyIntSetVector(I2C_1_ISR_NUMBER, &I2C_1_WAKEUP_ISR);
 108:Generated_Source\PSoC5/I2C_1_PM.c ****     I2C_1_wakeupSource = 0u;
 109:Generated_Source\PSoC5/I2C_1_PM.c ****     I2C_1_EnableInt();
ARM GAS  C:\Users\jens-\AppData\Local\Temp\ccXEMS4d.s 			page 4


 110:Generated_Source\PSoC5/I2C_1_PM.c **** #endif /* (I2C_1_WAKEUP_ENABLED) */
 111:Generated_Source\PSoC5/I2C_1_PM.c **** 
 112:Generated_Source\PSoC5/I2C_1_PM.c **** #else
 113:Generated_Source\PSoC5/I2C_1_PM.c ****     /* Store only address match bit */
 114:Generated_Source\PSoC5/I2C_1_PM.c ****     I2C_1_backup.control = (I2C_1_CFG_REG & I2C_1_CTRL_ANY_ADDRESS_MASK);
 115:Generated_Source\PSoC5/I2C_1_PM.c **** #endif /* (I2C_1_FF_IMPLEMENTED) */
 116:Generated_Source\PSoC5/I2C_1_PM.c **** 
 117:Generated_Source\PSoC5/I2C_1_PM.c **** #if (I2C_1_TIMEOUT_ENABLED)
 118:Generated_Source\PSoC5/I2C_1_PM.c ****     I2C_1_TimeoutSaveConfig();
 119:Generated_Source\PSoC5/I2C_1_PM.c **** #endif /* (I2C_1_TIMEOUT_ENABLED) */
 120:Generated_Source\PSoC5/I2C_1_PM.c **** }
  63              		.loc 1 120 1 view .LVU16
  64 0020 7047     		bx	lr
  65              	.L3:
  66 0022 00BF     		.align	2
  67              	.L2:
  68 0024 D6490040 		.word	1073760726
  69 0028 00000000 		.word	.LANCHOR0
  70 002c C8490040 		.word	1073760712
  71 0030 CA490040 		.word	1073760714
  72 0034 DB490040 		.word	1073760731
  73 0038 DC490040 		.word	1073760732
  74              		.cfi_endproc
  75              	.LFE0:
  76              		.size	I2C_1_SaveConfig, .-I2C_1_SaveConfig
  77              		.section	.text.I2C_1_Sleep,"ax",%progbits
  78              		.align	1
  79              		.global	I2C_1_Sleep
  80              		.syntax unified
  81              		.thumb
  82              		.thumb_func
  83              		.fpu softvfp
  84              		.type	I2C_1_Sleep, %function
  85              	I2C_1_Sleep:
  86              	.LFB1:
 121:Generated_Source\PSoC5/I2C_1_PM.c **** 
 122:Generated_Source\PSoC5/I2C_1_PM.c **** 
 123:Generated_Source\PSoC5/I2C_1_PM.c **** /*******************************************************************************
 124:Generated_Source\PSoC5/I2C_1_PM.c **** * Function Name: I2C_1_Sleep
 125:Generated_Source\PSoC5/I2C_1_PM.c **** ********************************************************************************
 126:Generated_Source\PSoC5/I2C_1_PM.c **** *
 127:Generated_Source\PSoC5/I2C_1_PM.c **** * Summary:
 128:Generated_Source\PSoC5/I2C_1_PM.c **** *  This is the preferred method to prepare the component before device enters
 129:Generated_Source\PSoC5/I2C_1_PM.c **** *  sleep mode. The Enable wakeup from Sleep Mode selection influences this
 130:Generated_Source\PSoC5/I2C_1_PM.c **** *  function implementation:
 131:Generated_Source\PSoC5/I2C_1_PM.c **** *   Unchecked: Checks current I2C component state, saves it, and disables the
 132:Generated_Source\PSoC5/I2C_1_PM.c **** *              component by calling I2C_Stop() if it is currently enabled.
 133:Generated_Source\PSoC5/I2C_1_PM.c **** *              I2C_SaveConfig() is then called to save the component
 134:Generated_Source\PSoC5/I2C_1_PM.c **** *              non-retention configuration registers.
 135:Generated_Source\PSoC5/I2C_1_PM.c **** *   Checked:   If a transaction intended for component executes during this
 136:Generated_Source\PSoC5/I2C_1_PM.c **** *              function call, it waits until the current transaction is
 137:Generated_Source\PSoC5/I2C_1_PM.c **** *              completed. All subsequent I2C traffic intended for component
 138:Generated_Source\PSoC5/I2C_1_PM.c **** *              is NAKed until the device is put to sleep mode. The address
 139:Generated_Source\PSoC5/I2C_1_PM.c **** *              match event wakes up the device.
 140:Generated_Source\PSoC5/I2C_1_PM.c **** *
 141:Generated_Source\PSoC5/I2C_1_PM.c **** * Parameters:
 142:Generated_Source\PSoC5/I2C_1_PM.c **** *  None.
ARM GAS  C:\Users\jens-\AppData\Local\Temp\ccXEMS4d.s 			page 5


 143:Generated_Source\PSoC5/I2C_1_PM.c **** *
 144:Generated_Source\PSoC5/I2C_1_PM.c **** * Return:
 145:Generated_Source\PSoC5/I2C_1_PM.c **** *  None.
 146:Generated_Source\PSoC5/I2C_1_PM.c **** *
 147:Generated_Source\PSoC5/I2C_1_PM.c **** * Reentrant:
 148:Generated_Source\PSoC5/I2C_1_PM.c **** *  No.
 149:Generated_Source\PSoC5/I2C_1_PM.c **** *
 150:Generated_Source\PSoC5/I2C_1_PM.c **** *******************************************************************************/
 151:Generated_Source\PSoC5/I2C_1_PM.c **** void I2C_1_Sleep(void) 
 152:Generated_Source\PSoC5/I2C_1_PM.c **** {
  87              		.loc 1 152 1 is_stmt 1 view -0
  88              		.cfi_startproc
  89              		@ args = 0, pretend = 0, frame = 0
  90              		@ frame_needed = 0, uses_anonymous_args = 0
  91 0000 08B5     		push	{r3, lr}
  92              		.cfi_def_cfa_offset 8
  93              		.cfi_offset 3, -8
  94              		.cfi_offset 14, -4
 153:Generated_Source\PSoC5/I2C_1_PM.c **** #if (I2C_1_WAKEUP_ENABLED)
 154:Generated_Source\PSoC5/I2C_1_PM.c ****     /* Do not enable block after exit low power mode if it is wakeup source */
 155:Generated_Source\PSoC5/I2C_1_PM.c ****     I2C_1_backup.enableState = I2C_1_DISABLE;
 156:Generated_Source\PSoC5/I2C_1_PM.c **** 
 157:Generated_Source\PSoC5/I2C_1_PM.c ****     #if (I2C_1_TIMEOUT_ENABLED)
 158:Generated_Source\PSoC5/I2C_1_PM.c ****         I2C_1_TimeoutStop();
 159:Generated_Source\PSoC5/I2C_1_PM.c ****     #endif /* (I2C_1_TIMEOUT_ENABLED) */
 160:Generated_Source\PSoC5/I2C_1_PM.c **** 
 161:Generated_Source\PSoC5/I2C_1_PM.c **** #else
 162:Generated_Source\PSoC5/I2C_1_PM.c ****     /* Store enable state */
 163:Generated_Source\PSoC5/I2C_1_PM.c ****     I2C_1_backup.enableState = (uint8) I2C_1_IS_ENABLED;
  95              		.loc 1 163 5 view .LVU18
  96              		.loc 1 163 40 is_stmt 0 view .LVU19
  97 0002 064B     		ldr	r3, .L8
  98 0004 1B78     		ldrb	r3, [r3]	@ zero_extendqisi2
  99              		.loc 1 163 32 view .LVU20
 100 0006 C3F38003 		ubfx	r3, r3, #2, #1
 101              		.loc 1 163 30 view .LVU21
 102 000a 054A     		ldr	r2, .L8+4
 103 000c 1370     		strb	r3, [r2]
 164:Generated_Source\PSoC5/I2C_1_PM.c **** 
 165:Generated_Source\PSoC5/I2C_1_PM.c ****     if (0u != I2C_1_backup.enableState)
 104              		.loc 1 165 5 is_stmt 1 view .LVU22
 105              		.loc 1 165 8 is_stmt 0 view .LVU23
 106 000e 13B9     		cbnz	r3, .L7
 107              	.L5:
 166:Generated_Source\PSoC5/I2C_1_PM.c ****     {
 167:Generated_Source\PSoC5/I2C_1_PM.c ****         I2C_1_Stop();
 168:Generated_Source\PSoC5/I2C_1_PM.c ****     }
 169:Generated_Source\PSoC5/I2C_1_PM.c **** #endif /* (I2C_1_WAKEUP_ENABLED) */
 170:Generated_Source\PSoC5/I2C_1_PM.c **** 
 171:Generated_Source\PSoC5/I2C_1_PM.c ****     I2C_1_SaveConfig();
 108              		.loc 1 171 5 is_stmt 1 view .LVU24
 109 0010 FFF7FEFF 		bl	I2C_1_SaveConfig
 110              	.LVL0:
 172:Generated_Source\PSoC5/I2C_1_PM.c **** }
 111              		.loc 1 172 1 is_stmt 0 view .LVU25
 112 0014 08BD     		pop	{r3, pc}
 113              	.L7:
ARM GAS  C:\Users\jens-\AppData\Local\Temp\ccXEMS4d.s 			page 6


 167:Generated_Source\PSoC5/I2C_1_PM.c ****     }
 114              		.loc 1 167 9 is_stmt 1 view .LVU26
 115 0016 FFF7FEFF 		bl	I2C_1_Stop
 116              	.LVL1:
 117 001a F9E7     		b	.L5
 118              	.L9:
 119              		.align	2
 120              	.L8:
 121 001c A5430040 		.word	1073759141
 122 0020 00000000 		.word	.LANCHOR0
 123              		.cfi_endproc
 124              	.LFE1:
 125              		.size	I2C_1_Sleep, .-I2C_1_Sleep
 126              		.section	.text.I2C_1_RestoreConfig,"ax",%progbits
 127              		.align	1
 128              		.global	I2C_1_RestoreConfig
 129              		.syntax unified
 130              		.thumb
 131              		.thumb_func
 132              		.fpu softvfp
 133              		.type	I2C_1_RestoreConfig, %function
 134              	I2C_1_RestoreConfig:
 135              	.LFB2:
 173:Generated_Source\PSoC5/I2C_1_PM.c **** 
 174:Generated_Source\PSoC5/I2C_1_PM.c **** 
 175:Generated_Source\PSoC5/I2C_1_PM.c **** /*******************************************************************************
 176:Generated_Source\PSoC5/I2C_1_PM.c **** * Function Name: I2C_1_RestoreConfig
 177:Generated_Source\PSoC5/I2C_1_PM.c **** ********************************************************************************
 178:Generated_Source\PSoC5/I2C_1_PM.c **** *
 179:Generated_Source\PSoC5/I2C_1_PM.c **** * Summary:
 180:Generated_Source\PSoC5/I2C_1_PM.c **** *  The Enable wakeup from Sleep Mode selection influences this function
 181:Generated_Source\PSoC5/I2C_1_PM.c **** *  implementation:
 182:Generated_Source\PSoC5/I2C_1_PM.c **** *   Unchecked: Restores the component non-retention configuration registers
 183:Generated_Source\PSoC5/I2C_1_PM.c **** *              to the state they were in before I2C_Sleep() or I2C_SaveConfig()
 184:Generated_Source\PSoC5/I2C_1_PM.c **** *              was called.
 185:Generated_Source\PSoC5/I2C_1_PM.c **** *   Checked:   Disables the backup regulator of the I2C hardware. Sets up the
 186:Generated_Source\PSoC5/I2C_1_PM.c **** *              regular component interrupt handler and generates the component
 187:Generated_Source\PSoC5/I2C_1_PM.c **** *              interrupt if it was wake up source to release the bus and
 188:Generated_Source\PSoC5/I2C_1_PM.c **** *              continue in-coming I2C transaction.
 189:Generated_Source\PSoC5/I2C_1_PM.c **** *
 190:Generated_Source\PSoC5/I2C_1_PM.c **** * Parameters:
 191:Generated_Source\PSoC5/I2C_1_PM.c **** *  None.
 192:Generated_Source\PSoC5/I2C_1_PM.c **** *
 193:Generated_Source\PSoC5/I2C_1_PM.c **** * Return:
 194:Generated_Source\PSoC5/I2C_1_PM.c **** *  None.
 195:Generated_Source\PSoC5/I2C_1_PM.c **** *
 196:Generated_Source\PSoC5/I2C_1_PM.c **** * Global Variables:
 197:Generated_Source\PSoC5/I2C_1_PM.c **** *  I2C_1_backup - The global variable used to save the component
 198:Generated_Source\PSoC5/I2C_1_PM.c **** *                            configuration and non-retention registers before
 199:Generated_Source\PSoC5/I2C_1_PM.c **** *                            exiting the sleep mode.
 200:Generated_Source\PSoC5/I2C_1_PM.c **** *
 201:Generated_Source\PSoC5/I2C_1_PM.c **** * Reentrant:
 202:Generated_Source\PSoC5/I2C_1_PM.c **** *  No.
 203:Generated_Source\PSoC5/I2C_1_PM.c **** *
 204:Generated_Source\PSoC5/I2C_1_PM.c **** * Side Effects:
 205:Generated_Source\PSoC5/I2C_1_PM.c **** *  Calling this function before I2C_1_SaveConfig() or
 206:Generated_Source\PSoC5/I2C_1_PM.c **** *  I2C_1_Sleep() will lead to unpredictable results.
ARM GAS  C:\Users\jens-\AppData\Local\Temp\ccXEMS4d.s 			page 7


 207:Generated_Source\PSoC5/I2C_1_PM.c **** *
 208:Generated_Source\PSoC5/I2C_1_PM.c **** *******************************************************************************/
 209:Generated_Source\PSoC5/I2C_1_PM.c **** void I2C_1_RestoreConfig(void) 
 210:Generated_Source\PSoC5/I2C_1_PM.c **** {
 136              		.loc 1 210 1 view -0
 137              		.cfi_startproc
 138              		@ args = 0, pretend = 0, frame = 0
 139              		@ frame_needed = 0, uses_anonymous_args = 0
 140 0000 08B5     		push	{r3, lr}
 141              		.cfi_def_cfa_offset 8
 142              		.cfi_offset 3, -8
 143              		.cfi_offset 14, -4
 211:Generated_Source\PSoC5/I2C_1_PM.c **** #if (I2C_1_FF_IMPLEMENTED)
 212:Generated_Source\PSoC5/I2C_1_PM.c ****     uint8 intState;
 144              		.loc 1 212 5 view .LVU28
 213:Generated_Source\PSoC5/I2C_1_PM.c **** 
 214:Generated_Source\PSoC5/I2C_1_PM.c ****     if (I2C_1_CHECK_PWRSYS_I2C_BACKUP)
 145              		.loc 1 214 5 view .LVU29
 146              		.loc 1 214 9 is_stmt 0 view .LVU30
 147 0002 124B     		ldr	r3, .L15
 148 0004 1B78     		ldrb	r3, [r3]	@ zero_extendqisi2
 149              		.loc 1 214 8 view .LVU31
 150 0006 13F0040F 		tst	r3, #4
 151 000a 10D1     		bne	.L14
 215:Generated_Source\PSoC5/I2C_1_PM.c ****     /* Low power mode was Sleep - backup regulator is enabled */
 216:Generated_Source\PSoC5/I2C_1_PM.c ****     {
 217:Generated_Source\PSoC5/I2C_1_PM.c ****         /* Enable backup regulator in active mode */
 218:Generated_Source\PSoC5/I2C_1_PM.c ****         intState = CyEnterCriticalSection();
 219:Generated_Source\PSoC5/I2C_1_PM.c ****         I2C_1_PWRSYS_CR1_REG &= (uint8) ~I2C_1_PWRSYS_CR1_I2C_REG_BACKUP;
 220:Generated_Source\PSoC5/I2C_1_PM.c ****         CyExitCriticalSection(intState);
 221:Generated_Source\PSoC5/I2C_1_PM.c **** 
 222:Generated_Source\PSoC5/I2C_1_PM.c ****         /* Restore master */
 223:Generated_Source\PSoC5/I2C_1_PM.c ****         I2C_1_CFG_REG = I2C_1_backup.cfg;
 224:Generated_Source\PSoC5/I2C_1_PM.c ****     }
 225:Generated_Source\PSoC5/I2C_1_PM.c ****     else
 226:Generated_Source\PSoC5/I2C_1_PM.c ****     /* Low power mode was Hibernate - backup regulator is disabled. All registers are cleared */
 227:Generated_Source\PSoC5/I2C_1_PM.c ****     {
 228:Generated_Source\PSoC5/I2C_1_PM.c ****     #if (I2C_1_WAKEUP_ENABLED)
 229:Generated_Source\PSoC5/I2C_1_PM.c ****         /* Disable power to block before register restore */
 230:Generated_Source\PSoC5/I2C_1_PM.c ****         intState = CyEnterCriticalSection();
 231:Generated_Source\PSoC5/I2C_1_PM.c ****         I2C_1_ACT_PWRMGR_REG  &= (uint8) ~I2C_1_ACT_PWR_EN;
 232:Generated_Source\PSoC5/I2C_1_PM.c ****         I2C_1_STBY_PWRMGR_REG &= (uint8) ~I2C_1_STBY_PWR_EN;
 233:Generated_Source\PSoC5/I2C_1_PM.c ****         CyExitCriticalSection(intState);
 234:Generated_Source\PSoC5/I2C_1_PM.c **** 
 235:Generated_Source\PSoC5/I2C_1_PM.c ****         /* Enable component in I2C_Wakeup() after register restore */
 236:Generated_Source\PSoC5/I2C_1_PM.c ****         I2C_1_backup.enableState = I2C_1_ENABLE;
 237:Generated_Source\PSoC5/I2C_1_PM.c ****     #endif /* (I2C_1_WAKEUP_ENABLED) */
 238:Generated_Source\PSoC5/I2C_1_PM.c **** 
 239:Generated_Source\PSoC5/I2C_1_PM.c ****         /* Restore component registers after Hibernate */
 240:Generated_Source\PSoC5/I2C_1_PM.c ****         I2C_1_XCFG_REG    = I2C_1_backup.xcfg;
 152              		.loc 1 240 9 is_stmt 1 view .LVU32
 153              		.loc 1 240 41 is_stmt 0 view .LVU33
 154 000c 104B     		ldr	r3, .L15+4
 155 000e 5978     		ldrb	r1, [r3, #1]	@ zero_extendqisi2
 156              		.loc 1 240 27 view .LVU34
 157 0010 104A     		ldr	r2, .L15+8
 158 0012 1170     		strb	r1, [r2]
ARM GAS  C:\Users\jens-\AppData\Local\Temp\ccXEMS4d.s 			page 8


 241:Generated_Source\PSoC5/I2C_1_PM.c ****         I2C_1_CFG_REG     = I2C_1_backup.cfg;
 159              		.loc 1 241 9 is_stmt 1 view .LVU35
 160              		.loc 1 241 41 is_stmt 0 view .LVU36
 161 0014 9978     		ldrb	r1, [r3, #2]	@ zero_extendqisi2
 162              		.loc 1 241 27 view .LVU37
 163 0016 0E32     		adds	r2, r2, #14
 164 0018 1170     		strb	r1, [r2]
 242:Generated_Source\PSoC5/I2C_1_PM.c ****         I2C_1_ADDR_REG    = I2C_1_backup.addr;
 165              		.loc 1 242 9 is_stmt 1 view .LVU38
 166              		.loc 1 242 41 is_stmt 0 view .LVU39
 167 001a D978     		ldrb	r1, [r3, #3]	@ zero_extendqisi2
 168              		.loc 1 242 27 view .LVU40
 169 001c 0C3A     		subs	r2, r2, #12
 170 001e 1170     		strb	r1, [r2]
 243:Generated_Source\PSoC5/I2C_1_PM.c ****         I2C_1_CLKDIV1_REG = I2C_1_backup.clkDiv1;
 171              		.loc 1 243 9 is_stmt 1 view .LVU41
 172              		.loc 1 243 41 is_stmt 0 view .LVU42
 173 0020 1979     		ldrb	r1, [r3, #4]	@ zero_extendqisi2
 174              		.loc 1 243 27 view .LVU43
 175 0022 1132     		adds	r2, r2, #17
 176 0024 1170     		strb	r1, [r2]
 244:Generated_Source\PSoC5/I2C_1_PM.c ****         I2C_1_CLKDIV2_REG = I2C_1_backup.clkDiv2;
 177              		.loc 1 244 9 is_stmt 1 view .LVU44
 178              		.loc 1 244 41 is_stmt 0 view .LVU45
 179 0026 5A79     		ldrb	r2, [r3, #5]	@ zero_extendqisi2
 180              		.loc 1 244 27 view .LVU46
 181 0028 0B4B     		ldr	r3, .L15+12
 182 002a 1A70     		strb	r2, [r3]
 183              	.L10:
 245:Generated_Source\PSoC5/I2C_1_PM.c ****     }
 246:Generated_Source\PSoC5/I2C_1_PM.c **** 
 247:Generated_Source\PSoC5/I2C_1_PM.c **** #if (I2C_1_WAKEUP_ENABLED)
 248:Generated_Source\PSoC5/I2C_1_PM.c ****     I2C_1_DisableInt();
 249:Generated_Source\PSoC5/I2C_1_PM.c ****     (void) CyIntSetVector(I2C_1_ISR_NUMBER, &I2C_1_ISR);
 250:Generated_Source\PSoC5/I2C_1_PM.c ****     if (0u != I2C_1_wakeupSource)
 251:Generated_Source\PSoC5/I2C_1_PM.c ****     {
 252:Generated_Source\PSoC5/I2C_1_PM.c ****         /* Generate interrupt to process incoming transaction */
 253:Generated_Source\PSoC5/I2C_1_PM.c ****         I2C_1_SetPendingInt();
 254:Generated_Source\PSoC5/I2C_1_PM.c ****     }
 255:Generated_Source\PSoC5/I2C_1_PM.c ****     I2C_1_EnableInt();
 256:Generated_Source\PSoC5/I2C_1_PM.c **** #endif /* (I2C_1_WAKEUP_ENABLED) */
 257:Generated_Source\PSoC5/I2C_1_PM.c **** 
 258:Generated_Source\PSoC5/I2C_1_PM.c **** #else
 259:Generated_Source\PSoC5/I2C_1_PM.c ****     I2C_1_CFG_REG = I2C_1_backup.control;
 260:Generated_Source\PSoC5/I2C_1_PM.c **** #endif /* (I2C_1_FF_IMPLEMENTED) */
 261:Generated_Source\PSoC5/I2C_1_PM.c **** 
 262:Generated_Source\PSoC5/I2C_1_PM.c **** #if (I2C_1_TIMEOUT_ENABLED)
 263:Generated_Source\PSoC5/I2C_1_PM.c ****     I2C_1_TimeoutRestoreConfig();
 264:Generated_Source\PSoC5/I2C_1_PM.c **** #endif /* (I2C_1_TIMEOUT_ENABLED) */
 265:Generated_Source\PSoC5/I2C_1_PM.c **** }
 184              		.loc 1 265 1 view .LVU47
 185 002c 08BD     		pop	{r3, pc}
 186              	.L14:
 218:Generated_Source\PSoC5/I2C_1_PM.c ****         I2C_1_PWRSYS_CR1_REG &= (uint8) ~I2C_1_PWRSYS_CR1_I2C_REG_BACKUP;
 187              		.loc 1 218 9 is_stmt 1 view .LVU48
 218:Generated_Source\PSoC5/I2C_1_PM.c ****         I2C_1_PWRSYS_CR1_REG &= (uint8) ~I2C_1_PWRSYS_CR1_I2C_REG_BACKUP;
 188              		.loc 1 218 20 is_stmt 0 view .LVU49
ARM GAS  C:\Users\jens-\AppData\Local\Temp\ccXEMS4d.s 			page 9


 189 002e FFF7FEFF 		bl	CyEnterCriticalSection
 190              	.LVL2:
 219:Generated_Source\PSoC5/I2C_1_PM.c ****         CyExitCriticalSection(intState);
 191              		.loc 1 219 9 is_stmt 1 view .LVU50
 219:Generated_Source\PSoC5/I2C_1_PM.c ****         CyExitCriticalSection(intState);
 192              		.loc 1 219 30 is_stmt 0 view .LVU51
 193 0032 064A     		ldr	r2, .L15
 194 0034 1378     		ldrb	r3, [r2]	@ zero_extendqisi2
 195 0036 03F0FB03 		and	r3, r3, #251
 196 003a 1370     		strb	r3, [r2]
 220:Generated_Source\PSoC5/I2C_1_PM.c **** 
 197              		.loc 1 220 9 is_stmt 1 view .LVU52
 198 003c FFF7FEFF 		bl	CyExitCriticalSection
 199              	.LVL3:
 223:Generated_Source\PSoC5/I2C_1_PM.c ****     }
 200              		.loc 1 223 9 view .LVU53
 223:Generated_Source\PSoC5/I2C_1_PM.c ****     }
 201              		.loc 1 223 37 is_stmt 0 view .LVU54
 202 0040 034B     		ldr	r3, .L15+4
 203 0042 9A78     		ldrb	r2, [r3, #2]	@ zero_extendqisi2
 223:Generated_Source\PSoC5/I2C_1_PM.c ****     }
 204              		.loc 1 223 23 view .LVU55
 205 0044 054B     		ldr	r3, .L15+16
 206 0046 1A70     		strb	r2, [r3]
 207 0048 F0E7     		b	.L10
 208              	.L16:
 209 004a 00BF     		.align	2
 210              	.L15:
 211 004c 31430040 		.word	1073759025
 212 0050 00000000 		.word	.LANCHOR0
 213 0054 C8490040 		.word	1073760712
 214 0058 DC490040 		.word	1073760732
 215 005c D6490040 		.word	1073760726
 216              		.cfi_endproc
 217              	.LFE2:
 218              		.size	I2C_1_RestoreConfig, .-I2C_1_RestoreConfig
 219              		.section	.text.I2C_1_Wakeup,"ax",%progbits
 220              		.align	1
 221              		.global	I2C_1_Wakeup
 222              		.syntax unified
 223              		.thumb
 224              		.thumb_func
 225              		.fpu softvfp
 226              		.type	I2C_1_Wakeup, %function
 227              	I2C_1_Wakeup:
 228              	.LFB3:
 266:Generated_Source\PSoC5/I2C_1_PM.c **** 
 267:Generated_Source\PSoC5/I2C_1_PM.c **** 
 268:Generated_Source\PSoC5/I2C_1_PM.c **** /*******************************************************************************
 269:Generated_Source\PSoC5/I2C_1_PM.c **** * Function Name: I2C_1_Wakeup
 270:Generated_Source\PSoC5/I2C_1_PM.c **** ********************************************************************************
 271:Generated_Source\PSoC5/I2C_1_PM.c **** *
 272:Generated_Source\PSoC5/I2C_1_PM.c **** * Summary:
 273:Generated_Source\PSoC5/I2C_1_PM.c **** *  This is the preferred method to prepare the component for active mode
 274:Generated_Source\PSoC5/I2C_1_PM.c **** *  operation (when device exits sleep mode). The Enable wakeup from Sleep Mode
 275:Generated_Source\PSoC5/I2C_1_PM.c **** *  selection influences this function implementation:
 276:Generated_Source\PSoC5/I2C_1_PM.c **** *   Unchecked: Restores the component non-retention configuration registers
ARM GAS  C:\Users\jens-\AppData\Local\Temp\ccXEMS4d.s 			page 10


 277:Generated_Source\PSoC5/I2C_1_PM.c **** *              by calling I2C_RestoreConfig(). If the component was enabled
 278:Generated_Source\PSoC5/I2C_1_PM.c **** *              before the I2C_Sleep() function was called, I2C_Wakeup()
 279:Generated_Source\PSoC5/I2C_1_PM.c **** *              re-enables it.
 280:Generated_Source\PSoC5/I2C_1_PM.c **** *   Checked:   Enables  master functionality if it was enabled before sleep,
 281:Generated_Source\PSoC5/I2C_1_PM.c **** *              and disables the backup regulator of the I2C hardware.
 282:Generated_Source\PSoC5/I2C_1_PM.c **** *              The incoming transaction continues as soon as the regular
 283:Generated_Source\PSoC5/I2C_1_PM.c **** *              I2C interrupt handler is set up (global interrupts has to be
 284:Generated_Source\PSoC5/I2C_1_PM.c **** *              enabled to service I2C component interrupt).
 285:Generated_Source\PSoC5/I2C_1_PM.c **** *
 286:Generated_Source\PSoC5/I2C_1_PM.c **** * Parameters:
 287:Generated_Source\PSoC5/I2C_1_PM.c **** *  None.
 288:Generated_Source\PSoC5/I2C_1_PM.c **** *
 289:Generated_Source\PSoC5/I2C_1_PM.c **** * Return:
 290:Generated_Source\PSoC5/I2C_1_PM.c **** *  None.
 291:Generated_Source\PSoC5/I2C_1_PM.c **** *
 292:Generated_Source\PSoC5/I2C_1_PM.c **** * Reentrant:
 293:Generated_Source\PSoC5/I2C_1_PM.c **** *  No.
 294:Generated_Source\PSoC5/I2C_1_PM.c **** *
 295:Generated_Source\PSoC5/I2C_1_PM.c **** * Side Effects:
 296:Generated_Source\PSoC5/I2C_1_PM.c **** *  Calling this function before I2C_1_SaveConfig() or
 297:Generated_Source\PSoC5/I2C_1_PM.c **** *  I2C_1_Sleep() will lead to unpredictable results.
 298:Generated_Source\PSoC5/I2C_1_PM.c **** *
 299:Generated_Source\PSoC5/I2C_1_PM.c **** *******************************************************************************/
 300:Generated_Source\PSoC5/I2C_1_PM.c **** void I2C_1_Wakeup(void) 
 301:Generated_Source\PSoC5/I2C_1_PM.c **** {
 229              		.loc 1 301 1 is_stmt 1 view -0
 230              		.cfi_startproc
 231              		@ args = 0, pretend = 0, frame = 0
 232              		@ frame_needed = 0, uses_anonymous_args = 0
 233 0000 08B5     		push	{r3, lr}
 234              		.cfi_def_cfa_offset 8
 235              		.cfi_offset 3, -8
 236              		.cfi_offset 14, -4
 302:Generated_Source\PSoC5/I2C_1_PM.c ****     I2C_1_RestoreConfig();
 237              		.loc 1 302 5 view .LVU57
 238 0002 FFF7FEFF 		bl	I2C_1_RestoreConfig
 239              	.LVL4:
 303:Generated_Source\PSoC5/I2C_1_PM.c **** 
 304:Generated_Source\PSoC5/I2C_1_PM.c ****     /* Restore component enable state */
 305:Generated_Source\PSoC5/I2C_1_PM.c ****     if (0u != I2C_1_backup.enableState)
 240              		.loc 1 305 5 view .LVU58
 241              		.loc 1 305 27 is_stmt 0 view .LVU59
 242 0006 054B     		ldr	r3, .L21
 243 0008 1B78     		ldrb	r3, [r3]	@ zero_extendqisi2
 244              		.loc 1 305 8 view .LVU60
 245 000a 03B9     		cbnz	r3, .L20
 246              	.L17:
 306:Generated_Source\PSoC5/I2C_1_PM.c ****     {
 307:Generated_Source\PSoC5/I2C_1_PM.c ****         I2C_1_Enable();
 308:Generated_Source\PSoC5/I2C_1_PM.c ****         I2C_1_EnableInt();
 309:Generated_Source\PSoC5/I2C_1_PM.c ****     }
 310:Generated_Source\PSoC5/I2C_1_PM.c ****     else
 311:Generated_Source\PSoC5/I2C_1_PM.c ****     {
 312:Generated_Source\PSoC5/I2C_1_PM.c ****     #if (I2C_1_TIMEOUT_ENABLED)
 313:Generated_Source\PSoC5/I2C_1_PM.c ****         I2C_1_TimeoutEnable();
 314:Generated_Source\PSoC5/I2C_1_PM.c ****     #endif /* (I2C_1_TIMEOUT_ENABLED) */
 315:Generated_Source\PSoC5/I2C_1_PM.c ****     }
ARM GAS  C:\Users\jens-\AppData\Local\Temp\ccXEMS4d.s 			page 11


 316:Generated_Source\PSoC5/I2C_1_PM.c **** }
 247              		.loc 1 316 1 view .LVU61
 248 000c 08BD     		pop	{r3, pc}
 249              	.L20:
 307:Generated_Source\PSoC5/I2C_1_PM.c ****         I2C_1_EnableInt();
 250              		.loc 1 307 9 is_stmt 1 view .LVU62
 251 000e FFF7FEFF 		bl	I2C_1_Enable
 252              	.LVL5:
 308:Generated_Source\PSoC5/I2C_1_PM.c ****     }
 253              		.loc 1 308 9 view .LVU63
 254 0012 034B     		ldr	r3, .L21+4
 255 0014 4FF40042 		mov	r2, #32768
 256 0018 1A60     		str	r2, [r3]
 315:Generated_Source\PSoC5/I2C_1_PM.c **** }
 257              		.loc 1 315 5 view .LVU64
 258              		.loc 1 316 1 is_stmt 0 view .LVU65
 259 001a F7E7     		b	.L17
 260              	.L22:
 261              		.align	2
 262              	.L21:
 263 001c 00000000 		.word	.LANCHOR0
 264 0020 00E100E0 		.word	-536813312
 265              		.cfi_endproc
 266              	.LFE3:
 267              		.size	I2C_1_Wakeup, .-I2C_1_Wakeup
 268              		.global	I2C_1_backup
 269              		.data
 270              		.align	2
 271              		.set	.LANCHOR0,. + 0
 272              		.type	I2C_1_backup, %object
 273              		.size	I2C_1_backup, 6
 274              	I2C_1_backup:
 275 0000 00       		.byte	0
 276 0001 81       		.byte	-127
 277 0002 01       		.byte	1
 278 0003 42       		.byte	66
 279 0004 0F       		.byte	15
 280 0005 00       		.byte	0
 281              		.text
 282              	.Letext0:
 283              		.file 2 "Generated_Source\\PSoC5\\cytypes.h"
 284              		.file 3 "c:\\program files (x86)\\cypress\\psoc creator\\4.2\\psoc creator\\import\\gnu\\arm\\5.4.
 285              		.file 4 "c:\\program files (x86)\\cypress\\psoc creator\\4.2\\psoc creator\\import\\gnu\\arm\\5.4.
 286              		.file 5 "c:\\program files (x86)\\cypress\\psoc creator\\4.2\\psoc creator\\import\\gnu\\arm\\5.4.
 287              		.file 6 "c:\\program files (x86)\\cypress\\psoc creator\\4.2\\psoc creator\\import\\gnu\\arm\\5.4.
 288              		.file 7 "c:\\program files (x86)\\cypress\\psoc creator\\4.2\\psoc creator\\import\\gnu\\arm\\5.4.
 289              		.file 8 "Generated_Source\\PSoC5\\CySpc.h"
 290              		.file 9 "Generated_Source\\PSoC5\\CyFlash.h"
 291              		.file 10 "Generated_Source\\PSoC5\\CyLib.h"
 292              		.file 11 "Generated_Source\\PSoC5\\I2C_1.h"
 293              		.file 12 "Generated_Source\\PSoC5\\I2C_1_PVT.h"