ARM GAS  C:\Users\jens-\AppData\Local\Temp\ccih1T9a.s 			page 1


   1              		.cpu cortex-m3
   2              		.eabi_attribute 20, 1
   3              		.eabi_attribute 21, 1
   4              		.eabi_attribute 23, 3
   5              		.eabi_attribute 24, 1
   6              		.eabi_attribute 25, 1
   7              		.eabi_attribute 26, 1
   8              		.eabi_attribute 30, 1
   9              		.eabi_attribute 34, 1
  10              		.eabi_attribute 18, 4
  11              		.file	"cyPm.c"
  12              		.text
  13              	.Ltext0:
  14              		.cfi_sections	.debug_frame
  15              		.section	.text.CyPmHibSlpSaveSet,"ax",%progbits
  16              		.align	1
  17              		.arch armv7-m
  18              		.syntax unified
  19              		.thumb
  20              		.thumb_func
  21              		.fpu softvfp
  22              		.type	CyPmHibSlpSaveSet, %function
  23              	CyPmHibSlpSaveSet:
  24              	.LFB12:
  25              		.file 1 "Generated_Source\\PSoC5\\cyPm.c"
   1:Generated_Source\PSoC5/cyPm.c **** /***************************************************************************//**
   2:Generated_Source\PSoC5/cyPm.c **** * \file cyPm.c
   3:Generated_Source\PSoC5/cyPm.c **** * \version 5.70
   4:Generated_Source\PSoC5/cyPm.c **** *
   5:Generated_Source\PSoC5/cyPm.c **** * \brief Provides an API for the power management.
   6:Generated_Source\PSoC5/cyPm.c **** *
   7:Generated_Source\PSoC5/cyPm.c **** * \note Documentation of the API's in this file is located in the
   8:Generated_Source\PSoC5/cyPm.c **** *  System Reference Guide provided with PSoC Creator.
   9:Generated_Source\PSoC5/cyPm.c **** *
  10:Generated_Source\PSoC5/cyPm.c **** ********************************************************************************
  11:Generated_Source\PSoC5/cyPm.c **** * \copyright
  12:Generated_Source\PSoC5/cyPm.c **** * Copyright 2008-2018, Cypress Semiconductor Corporation.  All rights reserved.
  13:Generated_Source\PSoC5/cyPm.c **** * You may use this file only in accordance with the license, terms, conditions,
  14:Generated_Source\PSoC5/cyPm.c **** * disclaimers, and limitations in the end user license agreement accompanying
  15:Generated_Source\PSoC5/cyPm.c **** * the software package with which this file was provided.
  16:Generated_Source\PSoC5/cyPm.c **** *******************************************************************************/
  17:Generated_Source\PSoC5/cyPm.c **** 
  18:Generated_Source\PSoC5/cyPm.c **** #include "cyPm.h"
  19:Generated_Source\PSoC5/cyPm.c **** #include "cyapicallbacks.h"
  20:Generated_Source\PSoC5/cyPm.c **** 
  21:Generated_Source\PSoC5/cyPm.c **** 
  22:Generated_Source\PSoC5/cyPm.c **** /*******************************************************************
  23:Generated_Source\PSoC5/cyPm.c **** * Place your includes, defines, and code here. Do not use the merge
  24:Generated_Source\PSoC5/cyPm.c **** * region below unless any component datasheet suggests doing so.
  25:Generated_Source\PSoC5/cyPm.c **** *******************************************************************/
  26:Generated_Source\PSoC5/cyPm.c **** /* `#START CY_PM_HEADER_INCLUDE` */
  27:Generated_Source\PSoC5/cyPm.c **** 
  28:Generated_Source\PSoC5/cyPm.c **** /* `#END` */
  29:Generated_Source\PSoC5/cyPm.c **** 
  30:Generated_Source\PSoC5/cyPm.c **** 
  31:Generated_Source\PSoC5/cyPm.c **** static CY_PM_BACKUP_STRUCT          cyPmBackup;
  32:Generated_Source\PSoC5/cyPm.c **** static CY_PM_CLOCK_BACKUP_STRUCT    cyPmClockBackup;
ARM GAS  C:\Users\jens-\AppData\Local\Temp\ccih1T9a.s 			page 2


  33:Generated_Source\PSoC5/cyPm.c **** 
  34:Generated_Source\PSoC5/cyPm.c **** /* Convertion table between register's values and frequency in MHz  */
  35:Generated_Source\PSoC5/cyPm.c **** static const uint8 CYCODE cyPmImoFreqReg2Mhz[7u] = {12u, 6u, 24u, 3u, 48u, 62u, 74u};
  36:Generated_Source\PSoC5/cyPm.c **** 
  37:Generated_Source\PSoC5/cyPm.c **** /* Function Prototypes */
  38:Generated_Source\PSoC5/cyPm.c **** static void CyPmHibSaveSet(void);
  39:Generated_Source\PSoC5/cyPm.c **** static void CyPmHibRestore(void) ;
  40:Generated_Source\PSoC5/cyPm.c **** 
  41:Generated_Source\PSoC5/cyPm.c **** static void CyPmHibSlpSaveSet(void) ;
  42:Generated_Source\PSoC5/cyPm.c **** static void CyPmHibSlpRestore(void) ;
  43:Generated_Source\PSoC5/cyPm.c **** 
  44:Generated_Source\PSoC5/cyPm.c **** static void CyPmHviLviSaveDisable(void) ;
  45:Generated_Source\PSoC5/cyPm.c **** static void CyPmHviLviRestore(void) ;
  46:Generated_Source\PSoC5/cyPm.c **** 
  47:Generated_Source\PSoC5/cyPm.c **** 
  48:Generated_Source\PSoC5/cyPm.c **** /*******************************************************************************
  49:Generated_Source\PSoC5/cyPm.c **** * Function Name: CyPmSaveClocks
  50:Generated_Source\PSoC5/cyPm.c **** ****************************************************************************//**
  51:Generated_Source\PSoC5/cyPm.c **** *
  52:Generated_Source\PSoC5/cyPm.c **** *  This function is called in preparation for entering sleep or hibernate low
  53:Generated_Source\PSoC5/cyPm.c **** *  power modes. Saves all the states of the clocking system that do not persist
  54:Generated_Source\PSoC5/cyPm.c **** *  during sleep/hibernate or that need to be altered in preparation for
  55:Generated_Source\PSoC5/cyPm.c **** *  sleep/hibernate. Shutdowns all the digital and analog clock dividers for the
  56:Generated_Source\PSoC5/cyPm.c **** *  active power mode configuration.
  57:Generated_Source\PSoC5/cyPm.c **** *
  58:Generated_Source\PSoC5/cyPm.c **** *  Switches the master clock over to the IMO and shuts down the PLL and MHz
  59:Generated_Source\PSoC5/cyPm.c **** *  Crystal. The IMO frequency is set to either 12 MHz or 48 MHz to match the
  60:Generated_Source\PSoC5/cyPm.c **** *  Design-Wide Resources System Editor "Enable Fast IMO During Startup" setting.
  61:Generated_Source\PSoC5/cyPm.c **** *  The ILO and 32 KHz oscillators are not impacted. The current Flash wait state
  62:Generated_Source\PSoC5/cyPm.c **** *  setting is saved and the Flash wait state setting is set for the current IMO
  63:Generated_Source\PSoC5/cyPm.c **** *  speed.
  64:Generated_Source\PSoC5/cyPm.c **** *
  65:Generated_Source\PSoC5/cyPm.c **** *  Note If the Master Clock source is routed through the DSI inputs, then it
  66:Generated_Source\PSoC5/cyPm.c **** *  must be set manually to another source before using the
  67:Generated_Source\PSoC5/cyPm.c **** *  CyPmSaveClocks()/CyPmRestoreClocks() functions.
  68:Generated_Source\PSoC5/cyPm.c **** *
  69:Generated_Source\PSoC5/cyPm.c **** * \sideeffect
  70:Generated_Source\PSoC5/cyPm.c **** *  All peripheral clocks are going to be off after this API method call.
  71:Generated_Source\PSoC5/cyPm.c **** *
  72:Generated_Source\PSoC5/cyPm.c **** *******************************************************************************/
  73:Generated_Source\PSoC5/cyPm.c **** void CyPmSaveClocks(void) 
  74:Generated_Source\PSoC5/cyPm.c **** {
  75:Generated_Source\PSoC5/cyPm.c ****     /* Digital and analog clocks - save enable state and disable them all */
  76:Generated_Source\PSoC5/cyPm.c ****     cyPmClockBackup.enClkA = CY_PM_ACT_CFG1_REG & CY_PM_ACT_EN_CLK_A_MASK;
  77:Generated_Source\PSoC5/cyPm.c ****     cyPmClockBackup.enClkD = CY_PM_ACT_CFG2_REG;
  78:Generated_Source\PSoC5/cyPm.c ****     CY_PM_ACT_CFG1_REG &= ((uint8)(~CY_PM_ACT_EN_CLK_A_MASK));
  79:Generated_Source\PSoC5/cyPm.c ****     CY_PM_ACT_CFG2_REG &= ((uint8)(~CY_PM_ACT_EN_CLK_D_MASK));
  80:Generated_Source\PSoC5/cyPm.c **** 
  81:Generated_Source\PSoC5/cyPm.c ****     /* Save current flash wait cycles and set the maximum value */
  82:Generated_Source\PSoC5/cyPm.c ****     cyPmClockBackup.flashWaitCycles = CY_PM_CACHE_CR_CYCLES_MASK & CY_PM_CACHE_CR_REG;
  83:Generated_Source\PSoC5/cyPm.c ****     CyFlash_SetWaitCycles(CY_PM_MAX_FLASH_WAIT_CYCLES);
  84:Generated_Source\PSoC5/cyPm.c **** 
  85:Generated_Source\PSoC5/cyPm.c ****     /* IMO - save current IMO MHz OSC frequency and USB mode is on bit */
  86:Generated_Source\PSoC5/cyPm.c ****     cyPmClockBackup.imoFreq = CY_PM_FASTCLK_IMO_CR_REG & CY_PM_FASTCLK_IMO_CR_FREQ_MASK;
  87:Generated_Source\PSoC5/cyPm.c ****     cyPmClockBackup.imoUsbClk = CY_PM_FASTCLK_IMO_CR_REG & CY_PM_FASTCLK_IMO_CR_USB;
  88:Generated_Source\PSoC5/cyPm.c **** 
  89:Generated_Source\PSoC5/cyPm.c ****     /* IMO doubler - save enable state */
ARM GAS  C:\Users\jens-\AppData\Local\Temp\ccih1T9a.s 			page 3


  90:Generated_Source\PSoC5/cyPm.c ****     if(0u != (CY_PM_FASTCLK_IMO_CR_REG & CY_PM_FASTCLK_IMO_CR_F2XON))
  91:Generated_Source\PSoC5/cyPm.c ****     {
  92:Generated_Source\PSoC5/cyPm.c ****         /* IMO doubler enabled - save and disable */
  93:Generated_Source\PSoC5/cyPm.c ****         cyPmClockBackup.imo2x = CY_PM_ENABLED;
  94:Generated_Source\PSoC5/cyPm.c ****     }
  95:Generated_Source\PSoC5/cyPm.c ****     else
  96:Generated_Source\PSoC5/cyPm.c ****     {
  97:Generated_Source\PSoC5/cyPm.c ****         /* IMO doubler disabled */
  98:Generated_Source\PSoC5/cyPm.c ****         cyPmClockBackup.imo2x = CY_PM_DISABLED;
  99:Generated_Source\PSoC5/cyPm.c ****     }
 100:Generated_Source\PSoC5/cyPm.c **** 
 101:Generated_Source\PSoC5/cyPm.c ****     /* Master clock - save source */
 102:Generated_Source\PSoC5/cyPm.c ****     cyPmClockBackup.masterClkSrc = CY_PM_CLKDIST_MSTR1_REG & CY_PM_MASTER_CLK_SRC_MASK;
 103:Generated_Source\PSoC5/cyPm.c **** 
 104:Generated_Source\PSoC5/cyPm.c ****     /* Switch Master clock's source from PLL's output to PLL's source */
 105:Generated_Source\PSoC5/cyPm.c ****     if(CY_MASTER_SOURCE_PLL == cyPmClockBackup.masterClkSrc)
 106:Generated_Source\PSoC5/cyPm.c ****     {
 107:Generated_Source\PSoC5/cyPm.c ****         switch (CY_PM_CLKDIST_CR_REG & CY_PM_CLKDIST_PLL_SRC_MASK)
 108:Generated_Source\PSoC5/cyPm.c ****         {
 109:Generated_Source\PSoC5/cyPm.c ****         case CY_PM_CLKDIST_PLL_SRC_IMO:
 110:Generated_Source\PSoC5/cyPm.c ****             CyMasterClk_SetSource(CY_MASTER_SOURCE_IMO);
 111:Generated_Source\PSoC5/cyPm.c ****             break;
 112:Generated_Source\PSoC5/cyPm.c **** 
 113:Generated_Source\PSoC5/cyPm.c ****         case CY_PM_CLKDIST_PLL_SRC_XTAL:
 114:Generated_Source\PSoC5/cyPm.c ****             CyMasterClk_SetSource(CY_MASTER_SOURCE_XTAL);
 115:Generated_Source\PSoC5/cyPm.c ****             break;
 116:Generated_Source\PSoC5/cyPm.c **** 
 117:Generated_Source\PSoC5/cyPm.c ****         case CY_PM_CLKDIST_PLL_SRC_DSI:
 118:Generated_Source\PSoC5/cyPm.c ****             CyMasterClk_SetSource(CY_MASTER_SOURCE_DSI);
 119:Generated_Source\PSoC5/cyPm.c ****             break;
 120:Generated_Source\PSoC5/cyPm.c **** 
 121:Generated_Source\PSoC5/cyPm.c ****         default:
 122:Generated_Source\PSoC5/cyPm.c ****             CYASSERT(0u != 0u);
 123:Generated_Source\PSoC5/cyPm.c ****             break;
 124:Generated_Source\PSoC5/cyPm.c ****         }
 125:Generated_Source\PSoC5/cyPm.c ****     }
 126:Generated_Source\PSoC5/cyPm.c **** 
 127:Generated_Source\PSoC5/cyPm.c ****     /* PLL - check enable state, disable if needed */
 128:Generated_Source\PSoC5/cyPm.c ****     if(0u != (CY_PM_FASTCLK_PLL_CFG0_REG & CY_PM_PLL_CFG0_ENABLE))
 129:Generated_Source\PSoC5/cyPm.c ****     {
 130:Generated_Source\PSoC5/cyPm.c ****         /* PLL is enabled - save state and disable */
 131:Generated_Source\PSoC5/cyPm.c ****         cyPmClockBackup.pllEnableState = CY_PM_ENABLED;
 132:Generated_Source\PSoC5/cyPm.c ****         CyPLL_OUT_Stop();
 133:Generated_Source\PSoC5/cyPm.c ****     }
 134:Generated_Source\PSoC5/cyPm.c ****     else
 135:Generated_Source\PSoC5/cyPm.c ****     {
 136:Generated_Source\PSoC5/cyPm.c ****         /* PLL is disabled - save state */
 137:Generated_Source\PSoC5/cyPm.c ****         cyPmClockBackup.pllEnableState = CY_PM_DISABLED;
 138:Generated_Source\PSoC5/cyPm.c ****     }
 139:Generated_Source\PSoC5/cyPm.c **** 
 140:Generated_Source\PSoC5/cyPm.c ****     /* IMO - set appropriate frequency for LPM */
 141:Generated_Source\PSoC5/cyPm.c ****     CyIMO_SetFreq(CY_PM_IMO_FREQ_LPM);
 142:Generated_Source\PSoC5/cyPm.c **** 
 143:Generated_Source\PSoC5/cyPm.c ****     /* IMO - save enable state and enable without wait to settle */
 144:Generated_Source\PSoC5/cyPm.c ****     if(0u != (CY_PM_ACT_CFG0_IMO & CY_PM_ACT_CFG0_REG))
 145:Generated_Source\PSoC5/cyPm.c ****     {
 146:Generated_Source\PSoC5/cyPm.c ****         /* IMO - save enabled state */
ARM GAS  C:\Users\jens-\AppData\Local\Temp\ccih1T9a.s 			page 4


 147:Generated_Source\PSoC5/cyPm.c ****         cyPmClockBackup.imoEnable = CY_PM_ENABLED;
 148:Generated_Source\PSoC5/cyPm.c ****     }
 149:Generated_Source\PSoC5/cyPm.c ****     else
 150:Generated_Source\PSoC5/cyPm.c ****     {
 151:Generated_Source\PSoC5/cyPm.c ****         /* IMO - save disabled state */
 152:Generated_Source\PSoC5/cyPm.c ****         cyPmClockBackup.imoEnable = CY_PM_DISABLED;
 153:Generated_Source\PSoC5/cyPm.c **** 
 154:Generated_Source\PSoC5/cyPm.c ****         /* Enable the IMO. Use software delay instead of the FTW-based inside */
 155:Generated_Source\PSoC5/cyPm.c ****         CyIMO_Start(CY_PM_IMO_NO_WAIT_TO_SETTLE);
 156:Generated_Source\PSoC5/cyPm.c **** 
 157:Generated_Source\PSoC5/cyPm.c ****         /* Settling time of the IMO is of the order of less than 6us */
 158:Generated_Source\PSoC5/cyPm.c ****         CyDelayUs(6u);
 159:Generated_Source\PSoC5/cyPm.c ****     }
 160:Generated_Source\PSoC5/cyPm.c **** 
 161:Generated_Source\PSoC5/cyPm.c ****     /* IMO - save the current IMOCLK source and set to IMO if not yet */
 162:Generated_Source\PSoC5/cyPm.c ****     if(0u != (CY_PM_FASTCLK_IMO_CR_REG & CY_PM_FASTCLK_IMO_CR_XCLKEN))
 163:Generated_Source\PSoC5/cyPm.c ****     {
 164:Generated_Source\PSoC5/cyPm.c ****         /* DSI or XTAL CLK */
 165:Generated_Source\PSoC5/cyPm.c ****         cyPmClockBackup.imoClkSrc =
 166:Generated_Source\PSoC5/cyPm.c ****             (0u == (CY_PM_CLKDIST_CR_REG & CY_PM_CLKDIST_IMO2X_SRC)) ? CY_IMO_SOURCE_DSI : CY_IMO_S
 167:Generated_Source\PSoC5/cyPm.c **** 
 168:Generated_Source\PSoC5/cyPm.c ****         /* IMO -  set IMOCLK source to IMO */
 169:Generated_Source\PSoC5/cyPm.c ****         CyIMO_SetSource(CY_IMO_SOURCE_IMO);
 170:Generated_Source\PSoC5/cyPm.c ****     }
 171:Generated_Source\PSoC5/cyPm.c ****     else
 172:Generated_Source\PSoC5/cyPm.c ****     {
 173:Generated_Source\PSoC5/cyPm.c ****         /* IMO */
 174:Generated_Source\PSoC5/cyPm.c ****         cyPmClockBackup.imoClkSrc = CY_IMO_SOURCE_IMO;
 175:Generated_Source\PSoC5/cyPm.c ****     }
 176:Generated_Source\PSoC5/cyPm.c **** 
 177:Generated_Source\PSoC5/cyPm.c ****     /* Save clk_imo source */
 178:Generated_Source\PSoC5/cyPm.c ****     cyPmClockBackup.clkImoSrc = CY_PM_CLKDIST_CR_REG & CY_PM_CLKDIST_IMO_OUT_MASK;
 179:Generated_Source\PSoC5/cyPm.c **** 
 180:Generated_Source\PSoC5/cyPm.c ****     /* If IMOCLK2X or SPC OSC is source for clk_imo, set it to IMOCLK */
 181:Generated_Source\PSoC5/cyPm.c ****     if(CY_PM_CLKDIST_IMO_OUT_IMO != cyPmClockBackup.clkImoSrc)
 182:Generated_Source\PSoC5/cyPm.c ****     {
 183:Generated_Source\PSoC5/cyPm.c ****         /* Set IMOCLK to source for clk_imo */
 184:Generated_Source\PSoC5/cyPm.c ****         CY_PM_CLKDIST_CR_REG = (CY_PM_CLKDIST_CR_REG & ((uint8)(~CY_PM_CLKDIST_IMO_OUT_MASK))) |
 185:Generated_Source\PSoC5/cyPm.c ****                                 CY_PM_CLKDIST_IMO_OUT_IMO;
 186:Generated_Source\PSoC5/cyPm.c ****     }    /* Need to change nothing if IMOCLK is source clk_imo */
 187:Generated_Source\PSoC5/cyPm.c **** 
 188:Generated_Source\PSoC5/cyPm.c ****     /* IMO doubler - disable it (saved above) */
 189:Generated_Source\PSoC5/cyPm.c ****     if(0u != (CY_PM_FASTCLK_IMO_CR_REG & CY_PM_FASTCLK_IMO_CR_F2XON))
 190:Generated_Source\PSoC5/cyPm.c ****     {
 191:Generated_Source\PSoC5/cyPm.c ****         CyIMO_DisableDoubler();
 192:Generated_Source\PSoC5/cyPm.c ****     }
 193:Generated_Source\PSoC5/cyPm.c **** 
 194:Generated_Source\PSoC5/cyPm.c ****     /* Master clock - save divider and set it to divide-by-one (if no yet) */
 195:Generated_Source\PSoC5/cyPm.c ****     cyPmClockBackup.clkSyncDiv = CY_PM_CLKDIST_MSTR0_REG;
 196:Generated_Source\PSoC5/cyPm.c ****     if(CY_PM_DIV_BY_ONE != cyPmClockBackup.clkSyncDiv)
 197:Generated_Source\PSoC5/cyPm.c ****     {
 198:Generated_Source\PSoC5/cyPm.c ****         CyMasterClk_SetDivider(CY_PM_DIV_BY_ONE);
 199:Generated_Source\PSoC5/cyPm.c ****     }    /* No change if master clock divider is 1 */
 200:Generated_Source\PSoC5/cyPm.c **** 
 201:Generated_Source\PSoC5/cyPm.c ****     /* Master clock source - set it to IMO if not yet. */
 202:Generated_Source\PSoC5/cyPm.c ****     if(CY_MASTER_SOURCE_IMO != cyPmClockBackup.masterClkSrc)
 203:Generated_Source\PSoC5/cyPm.c ****     {
ARM GAS  C:\Users\jens-\AppData\Local\Temp\ccih1T9a.s 			page 5


 204:Generated_Source\PSoC5/cyPm.c ****         CyMasterClk_SetSource(CY_MASTER_SOURCE_IMO);
 205:Generated_Source\PSoC5/cyPm.c ****     }    /* No change if master clock source is IMO */
 206:Generated_Source\PSoC5/cyPm.c **** 
 207:Generated_Source\PSoC5/cyPm.c ****     /* Bus clock - save divider and set it, if needed, to divide-by-one */
 208:Generated_Source\PSoC5/cyPm.c ****     cyPmClockBackup.clkBusDiv = (uint16) ((uint16) CY_PM_CLK_BUS_MSB_DIV_REG << 8u);
 209:Generated_Source\PSoC5/cyPm.c ****     cyPmClockBackup.clkBusDiv |= CY_PM_CLK_BUS_LSB_DIV_REG;
 210:Generated_Source\PSoC5/cyPm.c ****     if(CY_PM_BUS_CLK_DIV_BY_ONE != cyPmClockBackup.clkBusDiv)
 211:Generated_Source\PSoC5/cyPm.c ****     {
 212:Generated_Source\PSoC5/cyPm.c ****         CyBusClk_SetDivider(CY_PM_BUS_CLK_DIV_BY_ONE);
 213:Generated_Source\PSoC5/cyPm.c ****     }    /* Do nothing if saved and actual values are equal */
 214:Generated_Source\PSoC5/cyPm.c **** 
 215:Generated_Source\PSoC5/cyPm.c ****     /* Set number of wait cycles for flash according to CPU frequency in MHz */
 216:Generated_Source\PSoC5/cyPm.c ****     CyFlash_SetWaitCycles((uint8)CY_PM_GET_CPU_FREQ_MHZ);
 217:Generated_Source\PSoC5/cyPm.c **** 
 218:Generated_Source\PSoC5/cyPm.c ****     /* MHz ECO - check enable state and disable if needed */
 219:Generated_Source\PSoC5/cyPm.c ****     if(0u != (CY_PM_FASTCLK_XMHZ_CSR_REG & CY_PM_XMHZ_CSR_ENABLE))
 220:Generated_Source\PSoC5/cyPm.c ****     {
 221:Generated_Source\PSoC5/cyPm.c ****         /* MHz ECO is enabled - save state and disable */
 222:Generated_Source\PSoC5/cyPm.c ****         cyPmClockBackup.xmhzEnableState = CY_PM_ENABLED;
 223:Generated_Source\PSoC5/cyPm.c ****         CyXTAL_Stop();
 224:Generated_Source\PSoC5/cyPm.c ****     }
 225:Generated_Source\PSoC5/cyPm.c ****     else
 226:Generated_Source\PSoC5/cyPm.c ****     {
 227:Generated_Source\PSoC5/cyPm.c ****         /* MHz ECO is disabled - save state */
 228:Generated_Source\PSoC5/cyPm.c ****         cyPmClockBackup.xmhzEnableState = CY_PM_DISABLED;
 229:Generated_Source\PSoC5/cyPm.c ****     }
 230:Generated_Source\PSoC5/cyPm.c **** 
 231:Generated_Source\PSoC5/cyPm.c **** 
 232:Generated_Source\PSoC5/cyPm.c ****     /***************************************************************************
 233:Generated_Source\PSoC5/cyPm.c ****     * Save the enable state of delay between the system bus clock and each of the
 234:Generated_Source\PSoC5/cyPm.c ****     * 4 individual analog clocks. This bit non-retention and its value should
 235:Generated_Source\PSoC5/cyPm.c ****     * be restored on wakeup.
 236:Generated_Source\PSoC5/cyPm.c ****     ***************************************************************************/
 237:Generated_Source\PSoC5/cyPm.c ****     if(0u != (CY_PM_CLKDIST_DELAY_REG & CY_PM_CLKDIST_DELAY_EN))
 238:Generated_Source\PSoC5/cyPm.c ****     {
 239:Generated_Source\PSoC5/cyPm.c ****         cyPmClockBackup.clkDistDelay = CY_PM_ENABLED;
 240:Generated_Source\PSoC5/cyPm.c ****     }
 241:Generated_Source\PSoC5/cyPm.c ****     else
 242:Generated_Source\PSoC5/cyPm.c ****     {
 243:Generated_Source\PSoC5/cyPm.c ****         cyPmClockBackup.clkDistDelay = CY_PM_DISABLED;
 244:Generated_Source\PSoC5/cyPm.c ****     }
 245:Generated_Source\PSoC5/cyPm.c **** }
 246:Generated_Source\PSoC5/cyPm.c **** 
 247:Generated_Source\PSoC5/cyPm.c **** 
 248:Generated_Source\PSoC5/cyPm.c **** /*******************************************************************************
 249:Generated_Source\PSoC5/cyPm.c **** * Function Name: CyPmRestoreClocks
 250:Generated_Source\PSoC5/cyPm.c **** ****************************************************************************//**
 251:Generated_Source\PSoC5/cyPm.c **** *
 252:Generated_Source\PSoC5/cyPm.c **** *  Restores any state that was preserved by the last call to CyPmSaveClocks().
 253:Generated_Source\PSoC5/cyPm.c **** *  The Flash wait state setting is also restored.
 254:Generated_Source\PSoC5/cyPm.c **** *
 255:Generated_Source\PSoC5/cyPm.c **** *  Note If the Master Clock source is routed through the DSI inputs, then it
 256:Generated_Source\PSoC5/cyPm.c **** *  must be set manually to another source before using the
 257:Generated_Source\PSoC5/cyPm.c **** *  CyPmSaveClocks()/CyPmRestoreClocks() functions.
 258:Generated_Source\PSoC5/cyPm.c **** *
 259:Generated_Source\PSoC5/cyPm.c **** *  PSoC 3 and PSoC 5LP:
 260:Generated_Source\PSoC5/cyPm.c **** *  The merge region could be used to process state when the megahertz crystal is
ARM GAS  C:\Users\jens-\AppData\Local\Temp\ccih1T9a.s 			page 6


 261:Generated_Source\PSoC5/cyPm.c **** *  not ready after a hold-off timeout.
 262:Generated_Source\PSoC5/cyPm.c **** *
 263:Generated_Source\PSoC5/cyPm.c **** *  PSoC 5:
 264:Generated_Source\PSoC5/cyPm.c **** *  The 130 ms is given for the megahertz crystal to stabilize. Its readiness is
 265:Generated_Source\PSoC5/cyPm.c **** *  not verified after a hold-off timeout.
 266:Generated_Source\PSoC5/cyPm.c **** *
 267:Generated_Source\PSoC5/cyPm.c **** *******************************************************************************/
 268:Generated_Source\PSoC5/cyPm.c **** void CyPmRestoreClocks(void) 
 269:Generated_Source\PSoC5/cyPm.c **** {
 270:Generated_Source\PSoC5/cyPm.c ****     cystatus status = CYRET_TIMEOUT;
 271:Generated_Source\PSoC5/cyPm.c ****     uint16 i;
 272:Generated_Source\PSoC5/cyPm.c ****     uint16 clkBusDivTmp;
 273:Generated_Source\PSoC5/cyPm.c **** 
 274:Generated_Source\PSoC5/cyPm.c **** 
 275:Generated_Source\PSoC5/cyPm.c ****     /* Convertion table between CyIMO_SetFreq() parameters and register's value */
 276:Generated_Source\PSoC5/cyPm.c ****     const uint8 CYCODE cyPmImoFreqMhz2Reg[7u] = {
 277:Generated_Source\PSoC5/cyPm.c ****         CY_IMO_FREQ_12MHZ, CY_IMO_FREQ_6MHZ,  CY_IMO_FREQ_24MHZ, CY_IMO_FREQ_3MHZ,
 278:Generated_Source\PSoC5/cyPm.c ****         CY_IMO_FREQ_48MHZ, 5u, 6u};
 279:Generated_Source\PSoC5/cyPm.c **** 
 280:Generated_Source\PSoC5/cyPm.c ****     /* Restore enable state of delay between system bus clock and ACLKs. */
 281:Generated_Source\PSoC5/cyPm.c ****     if(CY_PM_ENABLED == cyPmClockBackup.clkDistDelay)
 282:Generated_Source\PSoC5/cyPm.c ****     {
 283:Generated_Source\PSoC5/cyPm.c ****         /* Delay for both bandgap and delay line to settle out */
 284:Generated_Source\PSoC5/cyPm.c ****         CyDelayCycles((uint32)(CY_PM_CLK_DELAY_BANDGAP_SETTLE_US + CY_PM_CLK_DELAY_BIAS_SETTLE_US) 
 285:Generated_Source\PSoC5/cyPm.c ****                         CY_PM_GET_CPU_FREQ_MHZ);
 286:Generated_Source\PSoC5/cyPm.c **** 
 287:Generated_Source\PSoC5/cyPm.c ****         CY_PM_CLKDIST_DELAY_REG |= CY_PM_CLKDIST_DELAY_EN;
 288:Generated_Source\PSoC5/cyPm.c ****     }
 289:Generated_Source\PSoC5/cyPm.c **** 
 290:Generated_Source\PSoC5/cyPm.c ****     /* MHz ECO restore state */
 291:Generated_Source\PSoC5/cyPm.c ****     if(CY_PM_ENABLED == cyPmClockBackup.xmhzEnableState)
 292:Generated_Source\PSoC5/cyPm.c ****     {
 293:Generated_Source\PSoC5/cyPm.c ****         /***********************************************************************
 294:Generated_Source\PSoC5/cyPm.c ****         * Enabling XMHZ XTAL. The actual CyXTAL_Start() with a non zero wait
 295:Generated_Source\PSoC5/cyPm.c ****         * period uses FTW for period measurement. This could cause a problem
 296:Generated_Source\PSoC5/cyPm.c ****         * if CTW/FTW is used as a wake up time in the low power modes APIs.
 297:Generated_Source\PSoC5/cyPm.c ****         * So, the XTAL wait procedure is implemented with a software delay.
 298:Generated_Source\PSoC5/cyPm.c ****         ***********************************************************************/
 299:Generated_Source\PSoC5/cyPm.c **** 
 300:Generated_Source\PSoC5/cyPm.c ****         /* Enable XMHZ XTAL with no wait */
 301:Generated_Source\PSoC5/cyPm.c ****         (void) CyXTAL_Start(CY_PM_XTAL_MHZ_NO_WAIT);
 302:Generated_Source\PSoC5/cyPm.c **** 
 303:Generated_Source\PSoC5/cyPm.c ****         /* Read XERR bit to clear it */
 304:Generated_Source\PSoC5/cyPm.c ****         (void) CY_PM_FASTCLK_XMHZ_CSR_REG;
 305:Generated_Source\PSoC5/cyPm.c **** 
 306:Generated_Source\PSoC5/cyPm.c ****         /* Wait */
 307:Generated_Source\PSoC5/cyPm.c ****         for(i = CY_PM_MHZ_XTAL_WAIT_NUM_OF_200_US; i > 0u; i--)
 308:Generated_Source\PSoC5/cyPm.c ****         {
 309:Generated_Source\PSoC5/cyPm.c ****             /* Make a 200 microseconds delay */
 310:Generated_Source\PSoC5/cyPm.c ****             CyDelayCycles((uint32)CY_PM_WAIT_200_US * CY_PM_GET_CPU_FREQ_MHZ);
 311:Generated_Source\PSoC5/cyPm.c **** 
 312:Generated_Source\PSoC5/cyPm.c ****             /* High output indicates oscillator failure */
 313:Generated_Source\PSoC5/cyPm.c ****             if(0u == (CY_PM_FASTCLK_XMHZ_CSR_REG & CY_PM_XMHZ_CSR_XERR))
 314:Generated_Source\PSoC5/cyPm.c ****             {
 315:Generated_Source\PSoC5/cyPm.c ****                 status = CYRET_SUCCESS;
 316:Generated_Source\PSoC5/cyPm.c ****                 break;
 317:Generated_Source\PSoC5/cyPm.c ****             }
ARM GAS  C:\Users\jens-\AppData\Local\Temp\ccih1T9a.s 			page 7


 318:Generated_Source\PSoC5/cyPm.c ****         }
 319:Generated_Source\PSoC5/cyPm.c **** 
 320:Generated_Source\PSoC5/cyPm.c ****         if(CYRET_TIMEOUT == status)
 321:Generated_Source\PSoC5/cyPm.c ****         {
 322:Generated_Source\PSoC5/cyPm.c ****             /*******************************************************************
 323:Generated_Source\PSoC5/cyPm.c ****             * Process the situation when megahertz crystal is not ready.
 324:Generated_Source\PSoC5/cyPm.c ****             * Time to stabilize the value is crystal specific.
 325:Generated_Source\PSoC5/cyPm.c ****             *******************************************************************/
 326:Generated_Source\PSoC5/cyPm.c ****            /* `#START_MHZ_ECO_TIMEOUT` */
 327:Generated_Source\PSoC5/cyPm.c **** 
 328:Generated_Source\PSoC5/cyPm.c ****            /* `#END` */
 329:Generated_Source\PSoC5/cyPm.c **** 
 330:Generated_Source\PSoC5/cyPm.c ****         #ifdef CY_BOOT_CY_PM_RESTORE_CLOCKS_ECO_TIMEOUT_CALLBACK
 331:Generated_Source\PSoC5/cyPm.c ****             CyBoot_CyPmRestoreClocks_EcoTimeout_Callback();
 332:Generated_Source\PSoC5/cyPm.c ****         #endif /* CY_BOOT_CY_PM_RESTORE_CLOCKS_ECO_TIMEOUT_CALLBACK */
 333:Generated_Source\PSoC5/cyPm.c ****         }
 334:Generated_Source\PSoC5/cyPm.c ****     }   /* (CY_PM_ENABLED == cyPmClockBackup.xmhzEnableState) */
 335:Generated_Source\PSoC5/cyPm.c **** 
 336:Generated_Source\PSoC5/cyPm.c **** 
 337:Generated_Source\PSoC5/cyPm.c ****     /* Temporary set maximum flash wait cycles */
 338:Generated_Source\PSoC5/cyPm.c ****     CyFlash_SetWaitCycles(CY_PM_MAX_FLASH_WAIT_CYCLES);
 339:Generated_Source\PSoC5/cyPm.c **** 
 340:Generated_Source\PSoC5/cyPm.c ****     /* XTAL and DSI clocks are ready to be source for Master clock. */
 341:Generated_Source\PSoC5/cyPm.c ****     if((CY_PM_MASTER_CLK_SRC_XTAL == cyPmClockBackup.masterClkSrc) ||
 342:Generated_Source\PSoC5/cyPm.c ****        (CY_PM_MASTER_CLK_SRC_DSI  == cyPmClockBackup.masterClkSrc))
 343:Generated_Source\PSoC5/cyPm.c ****     {
 344:Generated_Source\PSoC5/cyPm.c ****         /* Restore Master clock's divider */
 345:Generated_Source\PSoC5/cyPm.c ****         if(CY_PM_CLKDIST_MSTR0_REG != cyPmClockBackup.clkSyncDiv)
 346:Generated_Source\PSoC5/cyPm.c ****         {
 347:Generated_Source\PSoC5/cyPm.c ****             /* Restore Master clock divider */
 348:Generated_Source\PSoC5/cyPm.c ****             CyMasterClk_SetDivider(cyPmClockBackup.clkSyncDiv);
 349:Generated_Source\PSoC5/cyPm.c ****         }
 350:Generated_Source\PSoC5/cyPm.c **** 
 351:Generated_Source\PSoC5/cyPm.c ****         /* Restore Master clock source */
 352:Generated_Source\PSoC5/cyPm.c ****         CyMasterClk_SetSource(cyPmClockBackup.masterClkSrc);
 353:Generated_Source\PSoC5/cyPm.c ****     }
 354:Generated_Source\PSoC5/cyPm.c **** 
 355:Generated_Source\PSoC5/cyPm.c ****     /* IMO - restore IMO frequency */
 356:Generated_Source\PSoC5/cyPm.c ****     if((0u != (cyPmClockBackup.imoUsbClk & CY_PM_FASTCLK_IMO_CR_USB)) &&
 357:Generated_Source\PSoC5/cyPm.c ****         (CY_IMO_FREQ_24MHZ == cyPmImoFreqMhz2Reg[cyPmClockBackup.imoFreq]))
 358:Generated_Source\PSoC5/cyPm.c ****     {
 359:Generated_Source\PSoC5/cyPm.c ****         /* Restore IMO frequency (24 MHz) and trim it for USB */
 360:Generated_Source\PSoC5/cyPm.c ****         CyIMO_SetFreq(CY_IMO_FREQ_USB);
 361:Generated_Source\PSoC5/cyPm.c ****     }
 362:Generated_Source\PSoC5/cyPm.c ****     else
 363:Generated_Source\PSoC5/cyPm.c ****     {
 364:Generated_Source\PSoC5/cyPm.c ****         /* Restore IMO frequency */
 365:Generated_Source\PSoC5/cyPm.c ****         CyIMO_SetFreq(cyPmImoFreqMhz2Reg[cyPmClockBackup.imoFreq]);
 366:Generated_Source\PSoC5/cyPm.c **** 
 367:Generated_Source\PSoC5/cyPm.c ****         if(0u != (cyPmClockBackup.imoUsbClk & CY_PM_FASTCLK_IMO_CR_USB))
 368:Generated_Source\PSoC5/cyPm.c ****         {
 369:Generated_Source\PSoC5/cyPm.c ****             CY_PM_FASTCLK_IMO_CR_REG |= CY_PM_FASTCLK_IMO_CR_USB;
 370:Generated_Source\PSoC5/cyPm.c ****         }
 371:Generated_Source\PSoC5/cyPm.c ****         else
 372:Generated_Source\PSoC5/cyPm.c ****         {
 373:Generated_Source\PSoC5/cyPm.c ****             CY_PM_FASTCLK_IMO_CR_REG &= ((uint8)(~CY_PM_FASTCLK_IMO_CR_USB));
 374:Generated_Source\PSoC5/cyPm.c ****         }
ARM GAS  C:\Users\jens-\AppData\Local\Temp\ccih1T9a.s 			page 8


 375:Generated_Source\PSoC5/cyPm.c ****     }
 376:Generated_Source\PSoC5/cyPm.c **** 
 377:Generated_Source\PSoC5/cyPm.c ****     /* IMO - restore enable state if needed */
 378:Generated_Source\PSoC5/cyPm.c ****     if((CY_PM_ENABLED == cyPmClockBackup.imoEnable) &&
 379:Generated_Source\PSoC5/cyPm.c ****        (0u == (CY_PM_ACT_CFG0_IMO & CY_PM_ACT_CFG0_REG)))
 380:Generated_Source\PSoC5/cyPm.c ****     {
 381:Generated_Source\PSoC5/cyPm.c ****         /* IMO - restore enabled state */
 382:Generated_Source\PSoC5/cyPm.c ****         CyIMO_Start(CY_PM_IMO_NO_WAIT_TO_SETTLE);
 383:Generated_Source\PSoC5/cyPm.c ****     }
 384:Generated_Source\PSoC5/cyPm.c **** 
 385:Generated_Source\PSoC5/cyPm.c ****     /* IMO - restore IMOCLK source */
 386:Generated_Source\PSoC5/cyPm.c ****     CyIMO_SetSource(cyPmClockBackup.imoClkSrc);
 387:Generated_Source\PSoC5/cyPm.c **** 
 388:Generated_Source\PSoC5/cyPm.c ****     /* Restore IMO doubler enable state (turned off by CyPmSaveClocks()) */
 389:Generated_Source\PSoC5/cyPm.c ****     if(CY_PM_ENABLED == cyPmClockBackup.imo2x)
 390:Generated_Source\PSoC5/cyPm.c ****     {
 391:Generated_Source\PSoC5/cyPm.c ****         CyIMO_EnableDoubler();
 392:Generated_Source\PSoC5/cyPm.c ****     }
 393:Generated_Source\PSoC5/cyPm.c **** 
 394:Generated_Source\PSoC5/cyPm.c ****     /* IMO - restore clk_imo source, if needed */
 395:Generated_Source\PSoC5/cyPm.c ****     if(cyPmClockBackup.clkImoSrc != (CY_PM_CLKDIST_CR_REG & CY_PM_CLKDIST_IMO_OUT_MASK))
 396:Generated_Source\PSoC5/cyPm.c ****     {
 397:Generated_Source\PSoC5/cyPm.c ****         CY_PM_CLKDIST_CR_REG = (CY_PM_CLKDIST_CR_REG & ((uint8)(~CY_PM_CLKDIST_IMO_OUT_MASK))) |
 398:Generated_Source\PSoC5/cyPm.c ****                                 cyPmClockBackup.clkImoSrc;
 399:Generated_Source\PSoC5/cyPm.c ****     }
 400:Generated_Source\PSoC5/cyPm.c **** 
 401:Generated_Source\PSoC5/cyPm.c **** 
 402:Generated_Source\PSoC5/cyPm.c ****     /* PLL restore state */
 403:Generated_Source\PSoC5/cyPm.c ****     if(CY_PM_ENABLED == cyPmClockBackup.pllEnableState)
 404:Generated_Source\PSoC5/cyPm.c ****     {
 405:Generated_Source\PSoC5/cyPm.c ****         /***********************************************************************
 406:Generated_Source\PSoC5/cyPm.c ****         * Enable PLL. The actual CyPLL_OUT_Start() without wait period uses FTW
 407:Generated_Source\PSoC5/cyPm.c ****         * for period measurement. This could cause a problem if CTW/FTW is used
 408:Generated_Source\PSoC5/cyPm.c ****         * as a wakeup time in the low power modes APIs. To omit this issue PLL
 409:Generated_Source\PSoC5/cyPm.c ****         * wait procedure is implemented with a software delay.
 410:Generated_Source\PSoC5/cyPm.c ****         ***********************************************************************/
 411:Generated_Source\PSoC5/cyPm.c ****         status = CYRET_TIMEOUT;
 412:Generated_Source\PSoC5/cyPm.c **** 
 413:Generated_Source\PSoC5/cyPm.c ****         /* Enable PLL */
 414:Generated_Source\PSoC5/cyPm.c ****         (void) CyPLL_OUT_Start(CY_PM_PLL_OUT_NO_WAIT);
 415:Generated_Source\PSoC5/cyPm.c **** 
 416:Generated_Source\PSoC5/cyPm.c ****         /* Read to clear lock status after delay */
 417:Generated_Source\PSoC5/cyPm.c ****         CyDelayUs((uint32)80u);
 418:Generated_Source\PSoC5/cyPm.c ****         (void) CY_PM_FASTCLK_PLL_SR_REG;
 419:Generated_Source\PSoC5/cyPm.c **** 
 420:Generated_Source\PSoC5/cyPm.c ****         /* It should take 250 us lock: 251-80 = 171 */
 421:Generated_Source\PSoC5/cyPm.c ****         for(i = 171u; i > 0u; i--)
 422:Generated_Source\PSoC5/cyPm.c ****         {
 423:Generated_Source\PSoC5/cyPm.c ****             CyDelayUs((uint32)1u);
 424:Generated_Source\PSoC5/cyPm.c **** 
 425:Generated_Source\PSoC5/cyPm.c ****             /* Accept PLL is OK after two consecutive polls indicate PLL lock */
 426:Generated_Source\PSoC5/cyPm.c ****             if((0u != (CY_PM_FASTCLK_PLL_SR_REG & CY_PM_FASTCLK_PLL_LOCKED)) &&
 427:Generated_Source\PSoC5/cyPm.c ****                (0u != (CY_PM_FASTCLK_PLL_SR_REG & CY_PM_FASTCLK_PLL_LOCKED)))
 428:Generated_Source\PSoC5/cyPm.c ****             {
 429:Generated_Source\PSoC5/cyPm.c ****                 status = CYRET_SUCCESS;
 430:Generated_Source\PSoC5/cyPm.c ****                 break;
 431:Generated_Source\PSoC5/cyPm.c ****             }
ARM GAS  C:\Users\jens-\AppData\Local\Temp\ccih1T9a.s 			page 9


 432:Generated_Source\PSoC5/cyPm.c ****         }
 433:Generated_Source\PSoC5/cyPm.c **** 
 434:Generated_Source\PSoC5/cyPm.c ****         if(CYRET_TIMEOUT == status)
 435:Generated_Source\PSoC5/cyPm.c ****         {
 436:Generated_Source\PSoC5/cyPm.c ****             /*******************************************************************
 437:Generated_Source\PSoC5/cyPm.c ****             * Process the situation when PLL is not ready.
 438:Generated_Source\PSoC5/cyPm.c ****             *******************************************************************/
 439:Generated_Source\PSoC5/cyPm.c ****            /* `#START_PLL_TIMEOUT` */
 440:Generated_Source\PSoC5/cyPm.c **** 
 441:Generated_Source\PSoC5/cyPm.c ****            /* `#END` */
 442:Generated_Source\PSoC5/cyPm.c **** 
 443:Generated_Source\PSoC5/cyPm.c ****         #ifdef CY_BOOT_CY_PM_RESTORE_CLOCKS_PLL_TIMEOUT_CALLBACK
 444:Generated_Source\PSoC5/cyPm.c ****             CyBoot_CyPmRestoreClocks_PllTimeout_Callback();
 445:Generated_Source\PSoC5/cyPm.c ****         #endif /* CY_BOOT_CY_PM_RESTORE_CLOCKS_PLL_TIMEOUT_CALLBACK */
 446:Generated_Source\PSoC5/cyPm.c ****         }
 447:Generated_Source\PSoC5/cyPm.c ****     }   /* (CY_PM_ENABLED == cyPmClockBackup.pllEnableState) */
 448:Generated_Source\PSoC5/cyPm.c **** 
 449:Generated_Source\PSoC5/cyPm.c **** 
 450:Generated_Source\PSoC5/cyPm.c ****     /* PLL and IMO is ready to be source for Master clock */
 451:Generated_Source\PSoC5/cyPm.c ****     if((CY_PM_MASTER_CLK_SRC_IMO == cyPmClockBackup.masterClkSrc) ||
 452:Generated_Source\PSoC5/cyPm.c ****        (CY_PM_MASTER_CLK_SRC_PLL == cyPmClockBackup.masterClkSrc))
 453:Generated_Source\PSoC5/cyPm.c ****     {
 454:Generated_Source\PSoC5/cyPm.c ****         /* Restore Master clock divider */
 455:Generated_Source\PSoC5/cyPm.c ****         if(CY_PM_CLKDIST_MSTR0_REG != cyPmClockBackup.clkSyncDiv)
 456:Generated_Source\PSoC5/cyPm.c ****         {
 457:Generated_Source\PSoC5/cyPm.c ****             CyMasterClk_SetDivider(cyPmClockBackup.clkSyncDiv);
 458:Generated_Source\PSoC5/cyPm.c ****         }
 459:Generated_Source\PSoC5/cyPm.c **** 
 460:Generated_Source\PSoC5/cyPm.c ****         /* Restore Master clock source */
 461:Generated_Source\PSoC5/cyPm.c ****         CyMasterClk_SetSource(cyPmClockBackup.masterClkSrc);
 462:Generated_Source\PSoC5/cyPm.c ****     }
 463:Generated_Source\PSoC5/cyPm.c **** 
 464:Generated_Source\PSoC5/cyPm.c ****     /* IMO - disable if it was originally disabled */
 465:Generated_Source\PSoC5/cyPm.c ****     if((CY_PM_DISABLED == cyPmClockBackup.imoEnable) &&
 466:Generated_Source\PSoC5/cyPm.c ****        (0u != (CY_PM_ACT_CFG0_IMO & CY_PM_ACT_CFG0_REG)))
 467:Generated_Source\PSoC5/cyPm.c ****     {
 468:Generated_Source\PSoC5/cyPm.c ****         CyIMO_Stop();
 469:Generated_Source\PSoC5/cyPm.c ****     }
 470:Generated_Source\PSoC5/cyPm.c **** 
 471:Generated_Source\PSoC5/cyPm.c ****     /* Bus clock - restore divider, if needed */
 472:Generated_Source\PSoC5/cyPm.c ****     clkBusDivTmp = (uint16) ((uint16)CY_PM_CLK_BUS_MSB_DIV_REG << 8u);
 473:Generated_Source\PSoC5/cyPm.c ****     clkBusDivTmp |= CY_PM_CLK_BUS_LSB_DIV_REG;
 474:Generated_Source\PSoC5/cyPm.c ****     if(cyPmClockBackup.clkBusDiv != clkBusDivTmp)
 475:Generated_Source\PSoC5/cyPm.c ****     {
 476:Generated_Source\PSoC5/cyPm.c ****         CyBusClk_SetDivider(cyPmClockBackup.clkBusDiv);
 477:Generated_Source\PSoC5/cyPm.c ****     }
 478:Generated_Source\PSoC5/cyPm.c **** 
 479:Generated_Source\PSoC5/cyPm.c ****     /* Restore flash wait cycles */
 480:Generated_Source\PSoC5/cyPm.c ****     CY_PM_CACHE_CR_REG = ((CY_PM_CACHE_CR_REG & ((uint8)(~CY_PM_CACHE_CR_CYCLES_MASK))) |
 481:Generated_Source\PSoC5/cyPm.c ****                            cyPmClockBackup.flashWaitCycles);
 482:Generated_Source\PSoC5/cyPm.c **** 
 483:Generated_Source\PSoC5/cyPm.c ****     /* Digital and analog clocks - restore state */
 484:Generated_Source\PSoC5/cyPm.c ****     CY_PM_ACT_CFG1_REG = cyPmClockBackup.enClkA;
 485:Generated_Source\PSoC5/cyPm.c ****     CY_PM_ACT_CFG2_REG = cyPmClockBackup.enClkD;
 486:Generated_Source\PSoC5/cyPm.c **** }
 487:Generated_Source\PSoC5/cyPm.c **** 
 488:Generated_Source\PSoC5/cyPm.c **** 
ARM GAS  C:\Users\jens-\AppData\Local\Temp\ccih1T9a.s 			page 10


 489:Generated_Source\PSoC5/cyPm.c **** /*******************************************************************************
 490:Generated_Source\PSoC5/cyPm.c **** * Function Name: CyPmAltAct
 491:Generated_Source\PSoC5/cyPm.c **** ****************************************************************************//**
 492:Generated_Source\PSoC5/cyPm.c **** *
 493:Generated_Source\PSoC5/cyPm.c **** *  Puts the part into the Alternate Active (Standby) state. The Alternate Active
 494:Generated_Source\PSoC5/cyPm.c **** *  state can allow for any of the capabilities of the device to be active, but
 495:Generated_Source\PSoC5/cyPm.c **** *  the operation of this function is dependent on the CPU being disabled during
 496:Generated_Source\PSoC5/cyPm.c **** *  the Alternate Active state. The configuration code and the component APIs
 497:Generated_Source\PSoC5/cyPm.c **** *  will configure the template for the Alternate Active state to be the same as
 498:Generated_Source\PSoC5/cyPm.c **** *  the Active state with the exception that the CPU will be disabled during
 499:Generated_Source\PSoC5/cyPm.c **** *  Alternate Active.
 500:Generated_Source\PSoC5/cyPm.c **** *
 501:Generated_Source\PSoC5/cyPm.c **** *  Note Before calling this function, you must manually configure the power mode
 502:Generated_Source\PSoC5/cyPm.c **** *  of the source clocks for the timer that is used as the wakeup timer.
 503:Generated_Source\PSoC5/cyPm.c **** *
 504:Generated_Source\PSoC5/cyPm.c **** *  PSoC 3:
 505:Generated_Source\PSoC5/cyPm.c **** *  Before switching to Alternate Active, if a wakeupTime other than NONE is
 506:Generated_Source\PSoC5/cyPm.c **** *  specified, then the appropriate timer state is configured as specified with
 507:Generated_Source\PSoC5/cyPm.c **** *  the interrupt for that timer disabled.  The wakeup source will be the
 508:Generated_Source\PSoC5/cyPm.c **** *  combination of the values specified in the wakeupSource and any timer
 509:Generated_Source\PSoC5/cyPm.c **** *  specified in the wakeupTime argument.  Once the wakeup condition is
 510:Generated_Source\PSoC5/cyPm.c **** *  satisfied, then all saved state is restored and the function returns in the
 511:Generated_Source\PSoC5/cyPm.c **** *  Active state.
 512:Generated_Source\PSoC5/cyPm.c **** *
 513:Generated_Source\PSoC5/cyPm.c **** *  Note that if the wakeupTime is made with a different value, the period before
 514:Generated_Source\PSoC5/cyPm.c **** *  the wakeup occurs can be significantly shorter than the specified time.  If
 515:Generated_Source\PSoC5/cyPm.c **** *  the next call is made with the same wakeupTime value, then the wakeup will
 516:Generated_Source\PSoC5/cyPm.c **** *  occur the specified period after the previous wakeup occurred.
 517:Generated_Source\PSoC5/cyPm.c **** *
 518:Generated_Source\PSoC5/cyPm.c **** *  If a wakeupTime other than NONE is specified, then upon exit the state of the
 519:Generated_Source\PSoC5/cyPm.c **** *  specified timer will be left as specified by wakeupTime with the timer
 520:Generated_Source\PSoC5/cyPm.c **** *  enabled and the interrupt disabled.  If the CTW, FTW or One PPS is already
 521:Generated_Source\PSoC5/cyPm.c **** *  configured for wakeup, for example with the SleepTimer or RTC components,
 522:Generated_Source\PSoC5/cyPm.c **** *  then specify NONE for the wakeupTime and include the appropriate source for
 523:Generated_Source\PSoC5/cyPm.c **** *  wakeupSource.
 524:Generated_Source\PSoC5/cyPm.c **** *
 525:Generated_Source\PSoC5/cyPm.c **** *  PSoC 5LP:
 526:Generated_Source\PSoC5/cyPm.c **** *  This function is used to both enter the Alternate Active mode and halt the
 527:Generated_Source\PSoC5/cyPm.c **** *  processor.  For PSoC 3 these two actions must be paired together.  With PSoC
 528:Generated_Source\PSoC5/cyPm.c **** *  5LP the processor can be halted independently with the __WFI() function from
 529:Generated_Source\PSoC5/cyPm.c **** *  the CMSIS library that is included in Creator.  This function should be used
 530:Generated_Source\PSoC5/cyPm.c **** *  instead when the action required is just to halt the processor until an
 531:Generated_Source\PSoC5/cyPm.c **** *  enabled interrupt occurs.
 532:Generated_Source\PSoC5/cyPm.c **** *
 533:Generated_Source\PSoC5/cyPm.c **** *  The wakeupTime parameter is not used for this device. It must be set to zero
 534:Generated_Source\PSoC5/cyPm.c **** *  (PM_ALT_ACT_TIME_NONE). The wake up time configuration can be done by a
 535:Generated_Source\PSoC5/cyPm.c **** *  separate component: the CTW wakeup interval should be configured with the
 536:Generated_Source\PSoC5/cyPm.c **** *  Sleep Timer component and one second interval should be configured with the
 537:Generated_Source\PSoC5/cyPm.c **** *  RTC component.
 538:Generated_Source\PSoC5/cyPm.c **** *
 539:Generated_Source\PSoC5/cyPm.c **** *  The wakeup behavior depends on the wakeupSource parameter in the following
 540:Generated_Source\PSoC5/cyPm.c **** *  manner: upon function execution the device will be switched from Active to
 541:Generated_Source\PSoC5/cyPm.c **** *  Alternate Active mode and then the CPU will be halted. When an enabled wakeup
 542:Generated_Source\PSoC5/cyPm.c **** *  event occurs the device will return to Active mode.  Similarly when an
 543:Generated_Source\PSoC5/cyPm.c **** *  enabled interrupt occurs the CPU will be started. These two actions will
 544:Generated_Source\PSoC5/cyPm.c **** *  occur together provided that the event that occurs is an enabled wakeup
 545:Generated_Source\PSoC5/cyPm.c **** *  source and also generates an interrupt. If just the wakeup event occurs then
ARM GAS  C:\Users\jens-\AppData\Local\Temp\ccih1T9a.s 			page 11


 546:Generated_Source\PSoC5/cyPm.c **** *  the device will be in Active mode, but the CPU will remain halted waiting for
 547:Generated_Source\PSoC5/cyPm.c **** *  an interrupt. If an interrupt occurs from something other than a wakeup
 548:Generated_Source\PSoC5/cyPm.c **** *  source, then the CPU will restart with the device in Alternate Active mode
 549:Generated_Source\PSoC5/cyPm.c **** *  until a wakeup event occurs.
 550:Generated_Source\PSoC5/cyPm.c **** *
 551:Generated_Source\PSoC5/cyPm.c **** *  For example, if CyPmAltAct(PM_ALT_ACT_TIME_NONE, PM_ALT_ACT_SRC_PICU) is
 552:Generated_Source\PSoC5/cyPm.c **** *  called and PICU interrupt occurs, the CPU will be started and device will be
 553:Generated_Source\PSoC5/cyPm.c **** *  switched into Active mode. And if CyPmAltAct(PM_ALT_ACT_TIME_NONE,
 554:Generated_Source\PSoC5/cyPm.c **** *  PM_ALT_ACT_SRC_NONE) is called and PICU interrupt occurs, the CPU will be
 555:Generated_Source\PSoC5/cyPm.c **** *  started while device remains in Alternate Active mode.
 556:Generated_Source\PSoC5/cyPm.c **** *
 557:Generated_Source\PSoC5/cyPm.c **** *  \param wakeupTime: Specifies a timer wakeup source and the frequency of that
 558:Generated_Source\PSoC5/cyPm.c **** *              source. For PSoC 5LP this parameter is ignored.
 559:Generated_Source\PSoC5/cyPm.c **** *
 560:Generated_Source\PSoC5/cyPm.c **** *           Define                      Time
 561:Generated_Source\PSoC5/cyPm.c **** *  PM_ALT_ACT_TIME_NONE             None
 562:Generated_Source\PSoC5/cyPm.c **** *  \param PM_ALT_ACT_TIME_ONE_PPS          One PPS: 1 second
 563:Generated_Source\PSoC5/cyPm.c **** *  \param PM_ALT_ACT_TIME_CTW_2MS          CTW: 2 ms
 564:Generated_Source\PSoC5/cyPm.c **** *  \param PM_ALT_ACT_TIME_CTW_4MS          CTW: 4 ms
 565:Generated_Source\PSoC5/cyPm.c **** *  \param PM_ALT_ACT_TIME_CTW_8MS          CTW: 8 ms
 566:Generated_Source\PSoC5/cyPm.c **** *  \param PM_ALT_ACT_TIME_CTW_16MS         CTW: 16 ms
 567:Generated_Source\PSoC5/cyPm.c **** *  \param PM_ALT_ACT_TIME_CTW_32MS         CTW: 32 ms
 568:Generated_Source\PSoC5/cyPm.c **** *  \param PM_ALT_ACT_TIME_CTW_64MS         CTW: 64 ms
 569:Generated_Source\PSoC5/cyPm.c **** *  \param PM_ALT_ACT_TIME_CTW_128MS        CTW: 128 ms
 570:Generated_Source\PSoC5/cyPm.c **** *  \param PM_ALT_ACT_TIME_CTW_256MS        CTW: 256 ms
 571:Generated_Source\PSoC5/cyPm.c **** *  \param PM_ALT_ACT_TIME_CTW_512MS        CTW: 512 ms
 572:Generated_Source\PSoC5/cyPm.c **** *  \param PM_ALT_ACT_TIME_CTW_1024MS       CTW: 1024 ms
 573:Generated_Source\PSoC5/cyPm.c **** *  \param PM_ALT_ACT_TIME_CTW_2048MS       CTW: 2048 ms
 574:Generated_Source\PSoC5/cyPm.c **** *  \param PM_ALT_ACT_TIME_CTW_4096MS       CTW: 4096 ms
 575:Generated_Source\PSoC5/cyPm.c **** *  PM_ALT_ACT_TIME_FTW(1-256)*       FTW: 10us to 2.56 ms
 576:Generated_Source\PSoC5/cyPm.c **** *
 577:Generated_Source\PSoC5/cyPm.c **** *  \param *Note:   PM_ALT_ACT_TIME_FTW() is a macro that takes an argument that
 578:Generated_Source\PSoC5/cyPm.c **** *           specifies how many increments of 10 us to delay.
 579:Generated_Source\PSoC5/cyPm.c ****             For PSoC 3 silicon the valid range of  values is 1 to 256.
 580:Generated_Source\PSoC5/cyPm.c **** *
 581:Generated_Source\PSoC5/cyPm.c **** *  \param wakeUpSource:    Specifies a bitwise mask of wakeup sources. In addition, if
 582:Generated_Source\PSoC5/cyPm.c **** *                   a wakeupTime has been specified, the associated timer will
 583:Generated_Source\PSoC5/cyPm.c **** *                   be included as a wakeup source.
 584:Generated_Source\PSoC5/cyPm.c **** *
 585:Generated_Source\PSoC5/cyPm.c **** *           Define                      Source
 586:Generated_Source\PSoC5/cyPm.c **** *  PM_ALT_ACT_SRC_NONE              None
 587:Generated_Source\PSoC5/cyPm.c **** *  PM_ALT_ACT_SRC_COMPARATOR0       Comparator 0
 588:Generated_Source\PSoC5/cyPm.c **** *  PM_ALT_ACT_SRC_COMPARATOR1       Comparator 1
 589:Generated_Source\PSoC5/cyPm.c **** *  PM_ALT_ACT_SRC_COMPARATOR2       Comparator 2
 590:Generated_Source\PSoC5/cyPm.c **** *  PM_ALT_ACT_SRC_COMPARATOR3       Comparator 3
 591:Generated_Source\PSoC5/cyPm.c **** *  PM_ALT_ACT_SRC_INTERRUPT         Interrupt
 592:Generated_Source\PSoC5/cyPm.c **** *  PM_ALT_ACT_SRC_PICU              PICU
 593:Generated_Source\PSoC5/cyPm.c **** *  PM_ALT_ACT_SRC_I2C               I2C
 594:Generated_Source\PSoC5/cyPm.c **** *  PM_ALT_ACT_SRC_BOOSTCONVERTER    Boost Converter
 595:Generated_Source\PSoC5/cyPm.c **** *  PM_ALT_ACT_SRC_FTW               Fast Timewheel*
 596:Generated_Source\PSoC5/cyPm.c **** *  PM_ALT_ACT_SRC_VD                High and Low Voltage Detection (HVI, LVI)*
 597:Generated_Source\PSoC5/cyPm.c **** *  PM_ALT_ACT_SRC_CTW               Central Timewheel**
 598:Generated_Source\PSoC5/cyPm.c **** *  PM_ALT_ACT_SRC_ONE_PPS           One PPS**
 599:Generated_Source\PSoC5/cyPm.c **** *  PM_ALT_ACT_SRC_LCD               LCD
 600:Generated_Source\PSoC5/cyPm.c **** *
 601:Generated_Source\PSoC5/cyPm.c **** *  \param *Note : FTW and HVI/LVI wakeup signals are in the same mask bit.
 602:Generated_Source\PSoC5/cyPm.c **** *  \param **Note: CTW and One PPS wakeup signals are in the same mask bit.
ARM GAS  C:\Users\jens-\AppData\Local\Temp\ccih1T9a.s 			page 12


 603:Generated_Source\PSoC5/cyPm.c **** *
 604:Generated_Source\PSoC5/cyPm.c **** *  When specifying a Comparator as the wakeupSource, an instance specific define
 605:Generated_Source\PSoC5/cyPm.c **** *  that will track with the specific comparator that the instance
 606:Generated_Source\PSoC5/cyPm.c **** *  is placed into should be used. As an example, for a Comparator instance named
 607:Generated_Source\PSoC5/cyPm.c **** *  \param MyComp the value to OR into the mask is: MyComp_ctComp__CMP_MASK.
 608:Generated_Source\PSoC5/cyPm.c **** *
 609:Generated_Source\PSoC5/cyPm.c **** *  When CTW, FTW or One PPS is used as a wakeup source, the CyPmReadStatus()
 610:Generated_Source\PSoC5/cyPm.c **** *  function must be called upon wakeup with a corresponding parameter. Please
 611:Generated_Source\PSoC5/cyPm.c **** *  refer to the CyPmReadStatus() API in the System Reference Guide for more
 612:Generated_Source\PSoC5/cyPm.c **** *  information.
 613:Generated_Source\PSoC5/cyPm.c **** *
 614:Generated_Source\PSoC5/cyPm.c **** * Reentrant:
 615:Generated_Source\PSoC5/cyPm.c **** *  No
 616:Generated_Source\PSoC5/cyPm.c **** *
 617:Generated_Source\PSoC5/cyPm.c **** * \sideeffect
 618:Generated_Source\PSoC5/cyPm.c **** *  If a wakeupTime other than NONE is specified, then upon exit the state of the
 619:Generated_Source\PSoC5/cyPm.c **** *  specified timer will be left as specified by wakeupTime with the timer
 620:Generated_Source\PSoC5/cyPm.c **** *  enabled and the interrupt disabled.  Also, the ILO 1 KHz (if CTW timer is
 621:Generated_Source\PSoC5/cyPm.c **** *  used as wakeup time) or ILO 100 KHz (if the FTW timer is used as wakeup time)
 622:Generated_Source\PSoC5/cyPm.c **** *  will be left started.
 623:Generated_Source\PSoC5/cyPm.c **** *
 624:Generated_Source\PSoC5/cyPm.c **** *******************************************************************************/
 625:Generated_Source\PSoC5/cyPm.c **** void CyPmAltAct(uint16 wakeupTime, uint16 wakeupSource) 
 626:Generated_Source\PSoC5/cyPm.c **** {
 627:Generated_Source\PSoC5/cyPm.c ****     #if(CY_PSOC5)
 628:Generated_Source\PSoC5/cyPm.c **** 
 629:Generated_Source\PSoC5/cyPm.c ****         /* Arguments expected to be 0 */
 630:Generated_Source\PSoC5/cyPm.c ****         CYASSERT(PM_ALT_ACT_TIME_NONE == wakeupTime);
 631:Generated_Source\PSoC5/cyPm.c **** 
 632:Generated_Source\PSoC5/cyPm.c ****         if(0u != wakeupTime)
 633:Generated_Source\PSoC5/cyPm.c ****         {
 634:Generated_Source\PSoC5/cyPm.c ****             /* To remove unreferenced local variable warning */
 635:Generated_Source\PSoC5/cyPm.c ****         }
 636:Generated_Source\PSoC5/cyPm.c **** 
 637:Generated_Source\PSoC5/cyPm.c ****     #endif /* (CY_PSOC5) */
 638:Generated_Source\PSoC5/cyPm.c **** 
 639:Generated_Source\PSoC5/cyPm.c **** 
 640:Generated_Source\PSoC5/cyPm.c ****     #if(CY_PSOC3)
 641:Generated_Source\PSoC5/cyPm.c **** 
 642:Generated_Source\PSoC5/cyPm.c ****         /* FTW - save current and set new configuration */
 643:Generated_Source\PSoC5/cyPm.c ****         if((wakeupTime >= PM_ALT_ACT_TIME_FTW(1u)) && (wakeupTime <= PM_ALT_ACT_TIME_FTW(256u)))
 644:Generated_Source\PSoC5/cyPm.c ****         {
 645:Generated_Source\PSoC5/cyPm.c ****             CyPmFtwSetInterval(PM_ALT_ACT_FTW_INTERVAL(wakeupTime));
 646:Generated_Source\PSoC5/cyPm.c **** 
 647:Generated_Source\PSoC5/cyPm.c ****             /* Include associated timer to wakeupSource */
 648:Generated_Source\PSoC5/cyPm.c ****             wakeupSource |= PM_ALT_ACT_SRC_FTW;
 649:Generated_Source\PSoC5/cyPm.c ****         }
 650:Generated_Source\PSoC5/cyPm.c **** 
 651:Generated_Source\PSoC5/cyPm.c ****         /* CTW - save current and set new configuration */
 652:Generated_Source\PSoC5/cyPm.c ****         if((wakeupTime >= PM_ALT_ACT_TIME_CTW_2MS) && (wakeupTime <= PM_ALT_ACT_TIME_CTW_4096MS))
 653:Generated_Source\PSoC5/cyPm.c ****         {
 654:Generated_Source\PSoC5/cyPm.c ****             /* Save current CTW configuration and set new one */
 655:Generated_Source\PSoC5/cyPm.c ****             CyPmCtwSetInterval((uint8)(wakeupTime - 1u));
 656:Generated_Source\PSoC5/cyPm.c **** 
 657:Generated_Source\PSoC5/cyPm.c ****             /* Include associated timer to wakeupSource */
 658:Generated_Source\PSoC5/cyPm.c ****             wakeupSource |= PM_ALT_ACT_SRC_CTW;
 659:Generated_Source\PSoC5/cyPm.c ****         }
ARM GAS  C:\Users\jens-\AppData\Local\Temp\ccih1T9a.s 			page 13


 660:Generated_Source\PSoC5/cyPm.c **** 
 661:Generated_Source\PSoC5/cyPm.c ****         /* 1PPS - save current and set new configuration */
 662:Generated_Source\PSoC5/cyPm.c ****         if(PM_ALT_ACT_TIME_ONE_PPS == wakeupTime)
 663:Generated_Source\PSoC5/cyPm.c ****         {
 664:Generated_Source\PSoC5/cyPm.c ****             /* Save current 1PPS configuration and set new one */
 665:Generated_Source\PSoC5/cyPm.c ****             CyPmOppsSet();
 666:Generated_Source\PSoC5/cyPm.c **** 
 667:Generated_Source\PSoC5/cyPm.c ****             /* Include associated timer to wakeupSource */
 668:Generated_Source\PSoC5/cyPm.c ****             wakeupSource |= PM_ALT_ACT_SRC_ONE_PPS;
 669:Generated_Source\PSoC5/cyPm.c ****         }
 670:Generated_Source\PSoC5/cyPm.c **** 
 671:Generated_Source\PSoC5/cyPm.c ****     #endif /* (CY_PSOC3) */
 672:Generated_Source\PSoC5/cyPm.c **** 
 673:Generated_Source\PSoC5/cyPm.c **** 
 674:Generated_Source\PSoC5/cyPm.c ****     /* Save and set new wake up configuration */
 675:Generated_Source\PSoC5/cyPm.c **** 
 676:Generated_Source\PSoC5/cyPm.c ****     /* Interrupt, PICU, I2C, Boost converter, CTW/1PPS */
 677:Generated_Source\PSoC5/cyPm.c ****     cyPmBackup.wakeupCfg0 = CY_PM_WAKEUP_CFG0_REG;
 678:Generated_Source\PSoC5/cyPm.c ****     CY_PM_WAKEUP_CFG0_REG = (uint8) (wakeupSource >> 4u);
 679:Generated_Source\PSoC5/cyPm.c **** 
 680:Generated_Source\PSoC5/cyPm.c ****     /* Comparators */
 681:Generated_Source\PSoC5/cyPm.c ****     cyPmBackup.wakeupCfg1 = CY_PM_WAKEUP_CFG1_REG;
 682:Generated_Source\PSoC5/cyPm.c ****     CY_PM_WAKEUP_CFG1_REG = (((uint8) wakeupSource) & CY_PM_WAKEUP_SRC_CMPS_MASK);
 683:Generated_Source\PSoC5/cyPm.c **** 
 684:Generated_Source\PSoC5/cyPm.c ****     /* LCD */
 685:Generated_Source\PSoC5/cyPm.c ****     cyPmBackup.wakeupCfg2 = CY_PM_WAKEUP_CFG2_REG;
 686:Generated_Source\PSoC5/cyPm.c ****     CY_PM_WAKEUP_CFG2_REG = ((uint8) ((wakeupSource >> 12u) & 0x01u));
 687:Generated_Source\PSoC5/cyPm.c **** 
 688:Generated_Source\PSoC5/cyPm.c **** 
 689:Generated_Source\PSoC5/cyPm.c ****     /* Switch to the Alternate Active mode */
 690:Generated_Source\PSoC5/cyPm.c ****     CY_PM_MODE_CSR_REG = ((CY_PM_MODE_CSR_REG & ((uint8)(~CY_PM_MODE_CSR_MASK))) | CY_PM_MODE_CSR_A
 691:Generated_Source\PSoC5/cyPm.c **** 
 692:Generated_Source\PSoC5/cyPm.c ****     /* Recommended readback. */
 693:Generated_Source\PSoC5/cyPm.c ****     (void) CY_PM_MODE_CSR_REG;
 694:Generated_Source\PSoC5/cyPm.c **** 
 695:Generated_Source\PSoC5/cyPm.c ****     /* Two recommended NOPs to get into the mode. */
 696:Generated_Source\PSoC5/cyPm.c ****     CY_NOP;
 697:Generated_Source\PSoC5/cyPm.c ****     CY_NOP;
 698:Generated_Source\PSoC5/cyPm.c **** 
 699:Generated_Source\PSoC5/cyPm.c ****     /* Execute WFI instruction (for ARM-based devices only) */
 700:Generated_Source\PSoC5/cyPm.c ****     CY_PM_WFI;
 701:Generated_Source\PSoC5/cyPm.c **** 
 702:Generated_Source\PSoC5/cyPm.c ****     /* Point of return from Alternate Active Mode */
 703:Generated_Source\PSoC5/cyPm.c **** 
 704:Generated_Source\PSoC5/cyPm.c ****     /* Restore wake up configuration */
 705:Generated_Source\PSoC5/cyPm.c ****     CY_PM_WAKEUP_CFG0_REG = cyPmBackup.wakeupCfg0;
 706:Generated_Source\PSoC5/cyPm.c ****     CY_PM_WAKEUP_CFG1_REG = cyPmBackup.wakeupCfg1;
 707:Generated_Source\PSoC5/cyPm.c ****     CY_PM_WAKEUP_CFG2_REG = cyPmBackup.wakeupCfg2;
 708:Generated_Source\PSoC5/cyPm.c **** }
 709:Generated_Source\PSoC5/cyPm.c **** 
 710:Generated_Source\PSoC5/cyPm.c **** 
 711:Generated_Source\PSoC5/cyPm.c **** /*******************************************************************************
 712:Generated_Source\PSoC5/cyPm.c **** * Function Name: CyPmSleep
 713:Generated_Source\PSoC5/cyPm.c **** ****************************************************************************//**
 714:Generated_Source\PSoC5/cyPm.c **** *
 715:Generated_Source\PSoC5/cyPm.c **** *  Puts the part into the Sleep state.
 716:Generated_Source\PSoC5/cyPm.c **** *
ARM GAS  C:\Users\jens-\AppData\Local\Temp\ccih1T9a.s 			page 14


 717:Generated_Source\PSoC5/cyPm.c **** *  Note Before calling this function, you must manually configure the power
 718:Generated_Source\PSoC5/cyPm.c **** *  mode of the source clocks for the timer that is used as the wakeup timer.
 719:Generated_Source\PSoC5/cyPm.c **** *
 720:Generated_Source\PSoC5/cyPm.c **** *  Note Before calling this function, you must prepare clock tree configuration
 721:Generated_Source\PSoC5/cyPm.c **** *  for the low power mode by calling CyPmSaveClocks(). And restore clock
 722:Generated_Source\PSoC5/cyPm.c **** *  configuration after CyPmSleep() execution by calling CyPmRestoreClocks(). See
 723:Generated_Source\PSoC5/cyPm.c **** *  Power Management section, Clock Configuration subsection of the System
 724:Generated_Source\PSoC5/cyPm.c **** *  Reference Guide for more information.
 725:Generated_Source\PSoC5/cyPm.c **** *
 726:Generated_Source\PSoC5/cyPm.c **** *  PSoC 3:
 727:Generated_Source\PSoC5/cyPm.c **** *  Before switching to Sleep, if a wakeupTime other than NONE is specified,
 728:Generated_Source\PSoC5/cyPm.c **** *  then the appropriate timer state is configured as specified with the
 729:Generated_Source\PSoC5/cyPm.c **** *  interrupt for that timer disabled.  The wakeup source will be a combination
 730:Generated_Source\PSoC5/cyPm.c **** *  of the values specified in the wakeupSource and any timer specified in the
 731:Generated_Source\PSoC5/cyPm.c **** *  wakeupTime argument.  Once the wakeup condition is satisfied, then all saved
 732:Generated_Source\PSoC5/cyPm.c **** *  state is restored and the function returns in the Active state.
 733:Generated_Source\PSoC5/cyPm.c **** *
 734:Generated_Source\PSoC5/cyPm.c **** *  Note that if the wakeupTime is made with a different value, the period before
 735:Generated_Source\PSoC5/cyPm.c **** *  the wakeup occurs can be significantly shorter than the specified time.  If
 736:Generated_Source\PSoC5/cyPm.c **** *  the next call is made with the same wakeupTime value, then the wakeup will
 737:Generated_Source\PSoC5/cyPm.c **** *  occur the specified period after the previous wakeup occurred.
 738:Generated_Source\PSoC5/cyPm.c **** *
 739:Generated_Source\PSoC5/cyPm.c **** *  If a wakeupTime other than NONE is specified, then upon exit the state of the
 740:Generated_Source\PSoC5/cyPm.c **** *  specified timer will be left as specified by wakeupTime with the timer
 741:Generated_Source\PSoC5/cyPm.c **** *  enabled and the interrupt disabled.  If the CTW or One PPS is already
 742:Generated_Source\PSoC5/cyPm.c **** *  configured for wakeup, for example with the SleepTimer or RTC components,
 743:Generated_Source\PSoC5/cyPm.c **** *  then specify NONE for the wakeupTime and include the appropriate source for
 744:Generated_Source\PSoC5/cyPm.c **** *  wakeupSource.
 745:Generated_Source\PSoC5/cyPm.c **** *
 746:Generated_Source\PSoC5/cyPm.c **** *  PSoC 5LP:
 747:Generated_Source\PSoC5/cyPm.c **** *  The wakeupTime parameter is not used and the only NONE can be specified.
 748:Generated_Source\PSoC5/cyPm.c **** *  The wakeup time must be configured with the component, SleepTimer for CTW
 749:Generated_Source\PSoC5/cyPm.c **** *  intervals and RTC for 1PPS interval. The component must be configured to
 750:Generated_Source\PSoC5/cyPm.c **** *  generate interrupt.
 751:Generated_Source\PSoC5/cyPm.c **** *
 752:Generated_Source\PSoC5/cyPm.c **** *  \param wakeupTime:      Specifies a timer wakeup source and the frequency of that
 753:Generated_Source\PSoC5/cyPm.c **** *                   source. For PSoC 5LP, this parameter is ignored.
 754:Generated_Source\PSoC5/cyPm.c **** *
 755:Generated_Source\PSoC5/cyPm.c **** *           Define                      Time
 756:Generated_Source\PSoC5/cyPm.c **** *  PM_SLEEP_TIME_NONE               None
 757:Generated_Source\PSoC5/cyPm.c **** *  \param PM_SLEEP_TIME_ONE_PPS            One PPS: 1 second
 758:Generated_Source\PSoC5/cyPm.c **** *  \param PM_SLEEP_TIME_CTW_2MS            CTW: 2 ms
 759:Generated_Source\PSoC5/cyPm.c **** *  \param PM_SLEEP_TIME_CTW_4MS            CTW: 4 ms
 760:Generated_Source\PSoC5/cyPm.c **** *  \param PM_SLEEP_TIME_CTW_8MS            CTW: 8 ms
 761:Generated_Source\PSoC5/cyPm.c **** *  \param PM_SLEEP_TIME_CTW_16MS           CTW: 16 ms
 762:Generated_Source\PSoC5/cyPm.c **** *  \param PM_SLEEP_TIME_CTW_32MS           CTW: 32 ms
 763:Generated_Source\PSoC5/cyPm.c **** *  \param PM_SLEEP_TIME_CTW_64MS           CTW: 64 ms
 764:Generated_Source\PSoC5/cyPm.c **** *  \param PM_SLEEP_TIME_CTW_128MS          CTW: 128 ms
 765:Generated_Source\PSoC5/cyPm.c **** *  \param PM_SLEEP_TIME_CTW_256MS          CTW: 256 ms
 766:Generated_Source\PSoC5/cyPm.c **** *  \param PM_SLEEP_TIME_CTW_512MS          CTW: 512 ms
 767:Generated_Source\PSoC5/cyPm.c **** *  \param PM_SLEEP_TIME_CTW_1024MS         CTW: 1024 ms
 768:Generated_Source\PSoC5/cyPm.c **** *  \param PM_SLEEP_TIME_CTW_2048MS         CTW: 2048 ms
 769:Generated_Source\PSoC5/cyPm.c **** *  \param PM_SLEEP_TIME_CTW_4096MS         CTW: 4096 ms
 770:Generated_Source\PSoC5/cyPm.c **** *
 771:Generated_Source\PSoC5/cyPm.c **** *  \param wakeUpSource:    Specifies a bitwise mask of wakeup sources. In addition, if
 772:Generated_Source\PSoC5/cyPm.c **** *                   a wakeupTime has been specified the associated timer will be
 773:Generated_Source\PSoC5/cyPm.c **** *                   included as a wakeup source.
ARM GAS  C:\Users\jens-\AppData\Local\Temp\ccih1T9a.s 			page 15


 774:Generated_Source\PSoC5/cyPm.c **** *
 775:Generated_Source\PSoC5/cyPm.c **** *           Define                      Source
 776:Generated_Source\PSoC5/cyPm.c **** *  PM_SLEEP_SRC_NONE                None
 777:Generated_Source\PSoC5/cyPm.c **** *  PM_SLEEP_SRC_COMPARATOR0         Comparator 0
 778:Generated_Source\PSoC5/cyPm.c **** *  PM_SLEEP_SRC_COMPARATOR1         Comparator 1
 779:Generated_Source\PSoC5/cyPm.c **** *  PM_SLEEP_SRC_COMPARATOR2         Comparator 2
 780:Generated_Source\PSoC5/cyPm.c **** *  PM_SLEEP_SRC_COMPARATOR3         Comparator 3
 781:Generated_Source\PSoC5/cyPm.c **** *  PM_SLEEP_SRC_PICU                PICU
 782:Generated_Source\PSoC5/cyPm.c **** *  PM_SLEEP_SRC_I2C                 I2C
 783:Generated_Source\PSoC5/cyPm.c **** *  PM_SLEEP_SRC_BOOSTCONVERTER      Boost Converter
 784:Generated_Source\PSoC5/cyPm.c **** *  PM_SLEEP_SRC_VD                  High and Low Voltage Detection (HVI, LVI)
 785:Generated_Source\PSoC5/cyPm.c **** *  PM_SLEEP_SRC_CTW                 Central Timewheel*
 786:Generated_Source\PSoC5/cyPm.c **** *  PM_SLEEP_SRC_ONE_PPS             One PPS*
 787:Generated_Source\PSoC5/cyPm.c **** *  PM_SLEEP_SRC_LCD                 LCD
 788:Generated_Source\PSoC5/cyPm.c **** *
 789:Generated_Source\PSoC5/cyPm.c **** *  \param *Note:   CTW and One PPS wakeup signals are in the same mask bit.
 790:Generated_Source\PSoC5/cyPm.c **** *
 791:Generated_Source\PSoC5/cyPm.c **** *  When specifying a Comparator as the wakeupSource an instance specific define
 792:Generated_Source\PSoC5/cyPm.c **** *  should be used that will track with the specific comparator that the instance
 793:Generated_Source\PSoC5/cyPm.c **** *  is placed into. As an example for a Comparator instance named MyComp the
 794:Generated_Source\PSoC5/cyPm.c **** *  \param value to OR into the mask is: MyComp_ctComp__CMP_MASK.
 795:Generated_Source\PSoC5/cyPm.c **** *
 796:Generated_Source\PSoC5/cyPm.c **** *  When CTW or One PPS is used as a wakeup source, the CyPmReadStatus()
 797:Generated_Source\PSoC5/cyPm.c **** *  function must be called upon wakeup with corresponding parameter. Please
 798:Generated_Source\PSoC5/cyPm.c **** *  refer to the CyPmReadStatus() API in the System Reference Guide for more
 799:Generated_Source\PSoC5/cyPm.c **** *  information.
 800:Generated_Source\PSoC5/cyPm.c **** *
 801:Generated_Source\PSoC5/cyPm.c **** * Reentrant:
 802:Generated_Source\PSoC5/cyPm.c **** *  No
 803:Generated_Source\PSoC5/cyPm.c **** *
 804:Generated_Source\PSoC5/cyPm.c **** * Side Effects and Restrictions:
 805:Generated_Source\PSoC5/cyPm.c **** *  If a wakeupTime other than NONE is specified, then upon exit the state of the
 806:Generated_Source\PSoC5/cyPm.c **** *  specified timer will be left as specified by wakeupTime with the timer
 807:Generated_Source\PSoC5/cyPm.c **** *  enabled and the interrupt disabled. Also, the ILO 1 KHz (if CTW timer is
 808:Generated_Source\PSoC5/cyPm.c **** *  used as wake up time) will be left started.
 809:Generated_Source\PSoC5/cyPm.c **** *
 810:Generated_Source\PSoC5/cyPm.c **** *  The 1 kHz ILO clock is expected to be enabled for PSoC 3 and PSoC 5LP to
 811:Generated_Source\PSoC5/cyPm.c **** *  measure Hibernate/Sleep regulator settling time after a reset. The holdoff
 812:Generated_Source\PSoC5/cyPm.c **** *  delay is measured using rising edges of the 1 kHz ILO.
 813:Generated_Source\PSoC5/cyPm.c **** *
 814:Generated_Source\PSoC5/cyPm.c **** *  For PSoC 3 silicon hardware buzz should be disabled before entering a sleep
 815:Generated_Source\PSoC5/cyPm.c **** *  power mode. It is disabled by PSoC Creator during startup.
 816:Generated_Source\PSoC5/cyPm.c **** *  If a Low Voltage Interrupt (LVI), High Voltage Interrupt (HVI) or Brown Out
 817:Generated_Source\PSoC5/cyPm.c **** *  detect (power supply supervising capabilities) are required in a design
 818:Generated_Source\PSoC5/cyPm.c **** *  during sleep, use the Central Time Wheel (CTW) to periodically wake the
 819:Generated_Source\PSoC5/cyPm.c **** *  device, perform software buzz, and refresh the supervisory services. If LVI,
 820:Generated_Source\PSoC5/cyPm.c **** *  HVI, or Brown Out is not required, then CTW is not required.
 821:Generated_Source\PSoC5/cyPm.c **** *  Refer to the device errata for more information.
 822:Generated_Source\PSoC5/cyPm.c **** *
 823:Generated_Source\PSoC5/cyPm.c **** *******************************************************************************/
 824:Generated_Source\PSoC5/cyPm.c **** void CyPmSleep(uint8 wakeupTime, uint16 wakeupSource) 
 825:Generated_Source\PSoC5/cyPm.c **** {
 826:Generated_Source\PSoC5/cyPm.c ****     uint8 interruptState;
 827:Generated_Source\PSoC5/cyPm.c **** 
 828:Generated_Source\PSoC5/cyPm.c ****     /* Save current global interrupt enable and disable it */
 829:Generated_Source\PSoC5/cyPm.c ****     interruptState = CyEnterCriticalSection();
 830:Generated_Source\PSoC5/cyPm.c **** 
ARM GAS  C:\Users\jens-\AppData\Local\Temp\ccih1T9a.s 			page 16


 831:Generated_Source\PSoC5/cyPm.c **** 
 832:Generated_Source\PSoC5/cyPm.c ****     /***********************************************************************
 833:Generated_Source\PSoC5/cyPm.c ****     * The Hibernate/Sleep regulator has a settling time after a reset.
 834:Generated_Source\PSoC5/cyPm.c ****     * During this time, the system ignores requests to enter Sleep and
 835:Generated_Source\PSoC5/cyPm.c ****     * Hibernate modes. The holdoff delay is measured using rising edges of
 836:Generated_Source\PSoC5/cyPm.c ****     * the 1 kHz ILO.
 837:Generated_Source\PSoC5/cyPm.c ****     ***********************************************************************/
 838:Generated_Source\PSoC5/cyPm.c ****     if(0u == (CY_PM_MODE_CSR_REG & CY_PM_MODE_CSR_PWRUP_PULSE_Q))
 839:Generated_Source\PSoC5/cyPm.c ****     {
 840:Generated_Source\PSoC5/cyPm.c ****         /* Disable hold off - no action on restore */
 841:Generated_Source\PSoC5/cyPm.c ****         CY_PM_PWRSYS_SLP_TR_REG &= CY_PM_PWRSYS_SLP_TR_HIBSLP_HOLDOFF_MASK;
 842:Generated_Source\PSoC5/cyPm.c ****     }
 843:Generated_Source\PSoC5/cyPm.c ****     else
 844:Generated_Source\PSoC5/cyPm.c ****     {
 845:Generated_Source\PSoC5/cyPm.c ****         /* Abort, device is not ready for low power mode entry */
 846:Generated_Source\PSoC5/cyPm.c **** 
 847:Generated_Source\PSoC5/cyPm.c ****         /* Restore global interrupt enable state */
 848:Generated_Source\PSoC5/cyPm.c ****         CyExitCriticalSection(interruptState);
 849:Generated_Source\PSoC5/cyPm.c **** 
 850:Generated_Source\PSoC5/cyPm.c ****         return;
 851:Generated_Source\PSoC5/cyPm.c ****     }
 852:Generated_Source\PSoC5/cyPm.c **** 
 853:Generated_Source\PSoC5/cyPm.c **** 
 854:Generated_Source\PSoC5/cyPm.c ****     /***********************************************************************
 855:Generated_Source\PSoC5/cyPm.c ****     * PSoC3 < TO6:
 856:Generated_Source\PSoC5/cyPm.c ****     * - Hardware buzz must be disabled before the sleep mode entry.
 857:Generated_Source\PSoC5/cyPm.c ****     * - Voltage supervision (HVI/LVI) requires hardware buzz, so they must
 858:Generated_Source\PSoC5/cyPm.c ****     *   be also disabled.
 859:Generated_Source\PSoC5/cyPm.c ****     *
 860:Generated_Source\PSoC5/cyPm.c ****     * PSoC3 >= TO6:
 861:Generated_Source\PSoC5/cyPm.c ****     * - Voltage supervision (HVI/LVI) requires hardware buzz, so hardware
 862:Generated_Source\PSoC5/cyPm.c ****     *   buzz must be enabled before the sleep mode entry and restored on
 863:Generated_Source\PSoC5/cyPm.c ****     *   the wakeup.
 864:Generated_Source\PSoC5/cyPm.c ****     ***********************************************************************/
 865:Generated_Source\PSoC5/cyPm.c ****     #if(CY_PSOC3)
 866:Generated_Source\PSoC5/cyPm.c **** 
 867:Generated_Source\PSoC5/cyPm.c ****         /* Silicon Revision ID is below TO6 */
 868:Generated_Source\PSoC5/cyPm.c ****         if(CYDEV_CHIP_REV_ACTUAL < 5u)
 869:Generated_Source\PSoC5/cyPm.c ****         {
 870:Generated_Source\PSoC5/cyPm.c ****             /* Hardware buzz expected to be disabled in Sleep mode */
 871:Generated_Source\PSoC5/cyPm.c ****             CYASSERT(0u == (CY_PM_PWRSYS_WAKE_TR2_REG & CY_PM_PWRSYS_WAKE_TR2_EN_BUZZ));
 872:Generated_Source\PSoC5/cyPm.c ****         }
 873:Generated_Source\PSoC5/cyPm.c **** 
 874:Generated_Source\PSoC5/cyPm.c **** 
 875:Generated_Source\PSoC5/cyPm.c ****         if(0u != (CY_PM_RESET_CR1_REG & (CY_PM_RESET_CR1_HVIA_EN |
 876:Generated_Source\PSoC5/cyPm.c ****             CY_PM_RESET_CR1_LVIA_EN | CY_PM_RESET_CR1_LVID_EN)))
 877:Generated_Source\PSoC5/cyPm.c ****         {
 878:Generated_Source\PSoC5/cyPm.c ****             if(CYDEV_CHIP_REV_ACTUAL < 5u)
 879:Generated_Source\PSoC5/cyPm.c ****             {
 880:Generated_Source\PSoC5/cyPm.c ****                 /* LVI/HVI requires hardware buzz to be enabled */
 881:Generated_Source\PSoC5/cyPm.c ****                 CYASSERT(0u != 0u);
 882:Generated_Source\PSoC5/cyPm.c ****             }
 883:Generated_Source\PSoC5/cyPm.c ****             else
 884:Generated_Source\PSoC5/cyPm.c ****             {
 885:Generated_Source\PSoC5/cyPm.c ****                 if (0u == (CY_PM_PWRSYS_WAKE_TR2_REG & CY_PM_PWRSYS_WAKE_TR2_EN_BUZZ))
 886:Generated_Source\PSoC5/cyPm.c ****                 {
 887:Generated_Source\PSoC5/cyPm.c ****                     cyPmBackup.hardwareBuzz = CY_PM_DISABLED;
ARM GAS  C:\Users\jens-\AppData\Local\Temp\ccih1T9a.s 			page 17


 888:Generated_Source\PSoC5/cyPm.c ****                     CY_PM_PWRSYS_WAKE_TR2_REG |= CY_PM_PWRSYS_WAKE_TR2_EN_BUZZ;
 889:Generated_Source\PSoC5/cyPm.c ****                 }
 890:Generated_Source\PSoC5/cyPm.c ****                 else
 891:Generated_Source\PSoC5/cyPm.c ****                 {
 892:Generated_Source\PSoC5/cyPm.c ****                     cyPmBackup.hardwareBuzz = CY_PM_ENABLED;
 893:Generated_Source\PSoC5/cyPm.c ****                 }
 894:Generated_Source\PSoC5/cyPm.c ****             }
 895:Generated_Source\PSoC5/cyPm.c ****         }
 896:Generated_Source\PSoC5/cyPm.c **** 
 897:Generated_Source\PSoC5/cyPm.c ****     #endif /* (CY_PSOC3) */
 898:Generated_Source\PSoC5/cyPm.c **** 
 899:Generated_Source\PSoC5/cyPm.c **** 
 900:Generated_Source\PSoC5/cyPm.c ****     /*******************************************************************************
 901:Generated_Source\PSoC5/cyPm.c ****     * For ARM-based devices,interrupt is required for the CPU to wake up. The
 902:Generated_Source\PSoC5/cyPm.c ****     * Power Management implementation assumes that wakeup time is configured with a
 903:Generated_Source\PSoC5/cyPm.c ****     * separate component (component-based wakeup time configuration) for
 904:Generated_Source\PSoC5/cyPm.c ****     * interrupt to be issued on terminal count. For more information, refer to the
 905:Generated_Source\PSoC5/cyPm.c ****     * Wakeup Time Configuration section of System Reference Guide.
 906:Generated_Source\PSoC5/cyPm.c ****     *******************************************************************************/
 907:Generated_Source\PSoC5/cyPm.c ****     #if(CY_PSOC5)
 908:Generated_Source\PSoC5/cyPm.c **** 
 909:Generated_Source\PSoC5/cyPm.c ****         /* Arguments expected to be 0 */
 910:Generated_Source\PSoC5/cyPm.c ****         CYASSERT(PM_SLEEP_TIME_NONE == wakeupTime);
 911:Generated_Source\PSoC5/cyPm.c **** 
 912:Generated_Source\PSoC5/cyPm.c ****         if(0u != wakeupTime)
 913:Generated_Source\PSoC5/cyPm.c ****         {
 914:Generated_Source\PSoC5/cyPm.c ****             /* To remove unreferenced local variable warning */
 915:Generated_Source\PSoC5/cyPm.c ****         }
 916:Generated_Source\PSoC5/cyPm.c **** 
 917:Generated_Source\PSoC5/cyPm.c ****     #endif /* (CY_PSOC5) */
 918:Generated_Source\PSoC5/cyPm.c **** 
 919:Generated_Source\PSoC5/cyPm.c **** 
 920:Generated_Source\PSoC5/cyPm.c ****     CyPmHibSlpSaveSet();
 921:Generated_Source\PSoC5/cyPm.c **** 
 922:Generated_Source\PSoC5/cyPm.c **** 
 923:Generated_Source\PSoC5/cyPm.c ****     #if(CY_PSOC3)
 924:Generated_Source\PSoC5/cyPm.c **** 
 925:Generated_Source\PSoC5/cyPm.c ****         /* CTW - save current and set new configuration */
 926:Generated_Source\PSoC5/cyPm.c ****         if((wakeupTime >= PM_SLEEP_TIME_CTW_2MS) && (wakeupTime <= PM_SLEEP_TIME_CTW_4096MS))
 927:Generated_Source\PSoC5/cyPm.c ****         {
 928:Generated_Source\PSoC5/cyPm.c ****             /* Save current and set new configuration of CTW */
 929:Generated_Source\PSoC5/cyPm.c ****             CyPmCtwSetInterval((uint8)(wakeupTime - 1u));
 930:Generated_Source\PSoC5/cyPm.c **** 
 931:Generated_Source\PSoC5/cyPm.c ****             /* Include associated timer to wakeupSource */
 932:Generated_Source\PSoC5/cyPm.c ****             wakeupSource |= PM_SLEEP_SRC_CTW;
 933:Generated_Source\PSoC5/cyPm.c ****         }
 934:Generated_Source\PSoC5/cyPm.c **** 
 935:Generated_Source\PSoC5/cyPm.c ****         /* 1PPS - save current and set new configuration */
 936:Generated_Source\PSoC5/cyPm.c ****         if(PM_SLEEP_TIME_ONE_PPS == wakeupTime)
 937:Generated_Source\PSoC5/cyPm.c ****         {
 938:Generated_Source\PSoC5/cyPm.c ****             /* Save current and set new configuration of the 1PPS */
 939:Generated_Source\PSoC5/cyPm.c ****             CyPmOppsSet();
 940:Generated_Source\PSoC5/cyPm.c **** 
 941:Generated_Source\PSoC5/cyPm.c ****             /* Include associated timer to wakeupSource */
 942:Generated_Source\PSoC5/cyPm.c ****             wakeupSource |= PM_SLEEP_SRC_ONE_PPS;
 943:Generated_Source\PSoC5/cyPm.c ****         }
 944:Generated_Source\PSoC5/cyPm.c **** 
ARM GAS  C:\Users\jens-\AppData\Local\Temp\ccih1T9a.s 			page 18


 945:Generated_Source\PSoC5/cyPm.c ****     #endif /* (CY_PSOC3) */
 946:Generated_Source\PSoC5/cyPm.c **** 
 947:Generated_Source\PSoC5/cyPm.c **** 
 948:Generated_Source\PSoC5/cyPm.c ****     /* Save and set new wake up configuration */
 949:Generated_Source\PSoC5/cyPm.c **** 
 950:Generated_Source\PSoC5/cyPm.c ****     /* Interrupt, PICU, I2C, Boost converter, CTW/1PPS */
 951:Generated_Source\PSoC5/cyPm.c ****     cyPmBackup.wakeupCfg0 = CY_PM_WAKEUP_CFG0_REG;
 952:Generated_Source\PSoC5/cyPm.c ****     CY_PM_WAKEUP_CFG0_REG = (uint8) (wakeupSource >> 4u);
 953:Generated_Source\PSoC5/cyPm.c **** 
 954:Generated_Source\PSoC5/cyPm.c ****     /* Comparators */
 955:Generated_Source\PSoC5/cyPm.c ****     cyPmBackup.wakeupCfg1 = CY_PM_WAKEUP_CFG1_REG;
 956:Generated_Source\PSoC5/cyPm.c ****     CY_PM_WAKEUP_CFG1_REG = (((uint8) wakeupSource) & CY_PM_WAKEUP_SRC_CMPS_MASK);
 957:Generated_Source\PSoC5/cyPm.c **** 
 958:Generated_Source\PSoC5/cyPm.c ****     /* LCD */
 959:Generated_Source\PSoC5/cyPm.c ****     cyPmBackup.wakeupCfg2 = CY_PM_WAKEUP_CFG2_REG;
 960:Generated_Source\PSoC5/cyPm.c ****     CY_PM_WAKEUP_CFG2_REG = ((uint8) ((wakeupSource >> 12u) & 0x01u));
 961:Generated_Source\PSoC5/cyPm.c **** 
 962:Generated_Source\PSoC5/cyPm.c **** 
 963:Generated_Source\PSoC5/cyPm.c ****     /*******************************************************************
 964:Generated_Source\PSoC5/cyPm.c ****     * Do not use the merge region below unless any component datasheet
 965:Generated_Source\PSoC5/cyPm.c ****     * suggests doing so.
 966:Generated_Source\PSoC5/cyPm.c ****     *******************************************************************/
 967:Generated_Source\PSoC5/cyPm.c ****     /* `#START CY_PM_JUST_BEFORE_SLEEP` */
 968:Generated_Source\PSoC5/cyPm.c **** 
 969:Generated_Source\PSoC5/cyPm.c ****     /* `#END` */
 970:Generated_Source\PSoC5/cyPm.c **** 
 971:Generated_Source\PSoC5/cyPm.c ****     #ifdef CY_BOOT_CY_PM_SLEEP_BEFORE_SLEEP_CALLBACK
 972:Generated_Source\PSoC5/cyPm.c ****         CyBoot_CyPmSleep_BeforeSleep_Callback();
 973:Generated_Source\PSoC5/cyPm.c ****     #endif /* CY_BOOT_CY_PM_SLEEP_BEFORE_SLEEP_CALLBACK */
 974:Generated_Source\PSoC5/cyPm.c **** 
 975:Generated_Source\PSoC5/cyPm.c ****     /* Last moment IMO frequency change */
 976:Generated_Source\PSoC5/cyPm.c ****     if(0u == (CY_PM_FASTCLK_IMO_CR_REG & CY_PM_FASTCLK_IMO_CR_FREQ_MASK))
 977:Generated_Source\PSoC5/cyPm.c ****     {
 978:Generated_Source\PSoC5/cyPm.c ****         /* IMO frequency is 12 MHz */
 979:Generated_Source\PSoC5/cyPm.c ****         cyPmBackup.imoActFreq12Mhz = CY_PM_ENABLED;
 980:Generated_Source\PSoC5/cyPm.c ****     }
 981:Generated_Source\PSoC5/cyPm.c ****     else
 982:Generated_Source\PSoC5/cyPm.c ****     {
 983:Generated_Source\PSoC5/cyPm.c ****         /* IMO frequency is not 12 MHz */
 984:Generated_Source\PSoC5/cyPm.c ****         cyPmBackup.imoActFreq12Mhz = CY_PM_DISABLED;
 985:Generated_Source\PSoC5/cyPm.c **** 
 986:Generated_Source\PSoC5/cyPm.c ****         /* Save IMO frequency */
 987:Generated_Source\PSoC5/cyPm.c ****         cyPmBackup.imoActFreq = CY_PM_FASTCLK_IMO_CR_REG & CY_PM_FASTCLK_IMO_CR_FREQ_MASK;
 988:Generated_Source\PSoC5/cyPm.c **** 
 989:Generated_Source\PSoC5/cyPm.c ****         /* Set IMO frequency to 12 MHz */
 990:Generated_Source\PSoC5/cyPm.c ****         CY_PM_FASTCLK_IMO_CR_REG &= ((uint8) (~CY_PM_FASTCLK_IMO_CR_FREQ_MASK));
 991:Generated_Source\PSoC5/cyPm.c ****     }
 992:Generated_Source\PSoC5/cyPm.c **** 
 993:Generated_Source\PSoC5/cyPm.c ****     /* Switch to Sleep mode */
 994:Generated_Source\PSoC5/cyPm.c ****     CY_PM_MODE_CSR_REG = ((CY_PM_MODE_CSR_REG & ((uint8)(~CY_PM_MODE_CSR_MASK))) | CY_PM_MODE_CSR_S
 995:Generated_Source\PSoC5/cyPm.c **** 
 996:Generated_Source\PSoC5/cyPm.c ****     /* Recommended readback. */
 997:Generated_Source\PSoC5/cyPm.c ****     (void) CY_PM_MODE_CSR_REG;
 998:Generated_Source\PSoC5/cyPm.c **** 
 999:Generated_Source\PSoC5/cyPm.c ****     /* Two recommended NOPs to get into mode. */
1000:Generated_Source\PSoC5/cyPm.c ****     CY_NOP;
1001:Generated_Source\PSoC5/cyPm.c ****     CY_NOP;
ARM GAS  C:\Users\jens-\AppData\Local\Temp\ccih1T9a.s 			page 19


1002:Generated_Source\PSoC5/cyPm.c **** 
1003:Generated_Source\PSoC5/cyPm.c ****     /* Execute WFI instruction (for ARM-based devices only) */
1004:Generated_Source\PSoC5/cyPm.c ****     CY_PM_WFI;
1005:Generated_Source\PSoC5/cyPm.c **** 
1006:Generated_Source\PSoC5/cyPm.c ****     /* Point of return from Sleep Mode */
1007:Generated_Source\PSoC5/cyPm.c **** 
1008:Generated_Source\PSoC5/cyPm.c ****     /* Restore last moment IMO frequency change */
1009:Generated_Source\PSoC5/cyPm.c ****     if(CY_PM_ENABLED != cyPmBackup.imoActFreq12Mhz)
1010:Generated_Source\PSoC5/cyPm.c ****     {
1011:Generated_Source\PSoC5/cyPm.c ****         CY_PM_FASTCLK_IMO_CR_REG  = (CY_PM_FASTCLK_IMO_CR_REG & ((uint8)(~CY_PM_FASTCLK_IMO_CR_FREQ
1012:Generated_Source\PSoC5/cyPm.c ****                                     cyPmBackup.imoActFreq;
1013:Generated_Source\PSoC5/cyPm.c ****     }
1014:Generated_Source\PSoC5/cyPm.c **** 
1015:Generated_Source\PSoC5/cyPm.c **** 
1016:Generated_Source\PSoC5/cyPm.c ****     /*******************************************************************
1017:Generated_Source\PSoC5/cyPm.c ****     * Do not use merge region below unless any component datasheet
1018:Generated_Source\PSoC5/cyPm.c ****     * suggest to do so.
1019:Generated_Source\PSoC5/cyPm.c ****     *******************************************************************/
1020:Generated_Source\PSoC5/cyPm.c ****     /* `#START CY_PM_JUST_AFTER_WAKEUP_FROM_SLEEP` */
1021:Generated_Source\PSoC5/cyPm.c **** 
1022:Generated_Source\PSoC5/cyPm.c ****     /* `#END` */
1023:Generated_Source\PSoC5/cyPm.c **** 
1024:Generated_Source\PSoC5/cyPm.c ****     #ifdef CY_BOOT_CY_PM_SLEEP_AFTER_SLEEP_CALLBACK
1025:Generated_Source\PSoC5/cyPm.c ****         CyBoot_CyPmSleep_AfterSleep_Callback();
1026:Generated_Source\PSoC5/cyPm.c ****     #endif /* CY_BOOT_CY_PM_SLEEP_AFTER_SLEEP_CALLBACK */
1027:Generated_Source\PSoC5/cyPm.c **** 
1028:Generated_Source\PSoC5/cyPm.c ****     /* Restore hardware configuration */
1029:Generated_Source\PSoC5/cyPm.c ****     CyPmHibSlpRestore();
1030:Generated_Source\PSoC5/cyPm.c **** 
1031:Generated_Source\PSoC5/cyPm.c **** 
1032:Generated_Source\PSoC5/cyPm.c ****     /* Disable hardware buzz, if it was previously enabled */
1033:Generated_Source\PSoC5/cyPm.c ****     #if(CY_PSOC3)
1034:Generated_Source\PSoC5/cyPm.c **** 
1035:Generated_Source\PSoC5/cyPm.c ****         if(0u != (CY_PM_RESET_CR1_REG & (CY_PM_RESET_CR1_HVIA_EN |
1036:Generated_Source\PSoC5/cyPm.c ****             CY_PM_RESET_CR1_LVIA_EN | CY_PM_RESET_CR1_LVID_EN)))
1037:Generated_Source\PSoC5/cyPm.c ****         {
1038:Generated_Source\PSoC5/cyPm.c ****             if(CYDEV_CHIP_REV_ACTUAL >= 5u)
1039:Generated_Source\PSoC5/cyPm.c ****             {
1040:Generated_Source\PSoC5/cyPm.c ****                 if (CY_PM_DISABLED == cyPmBackup.hardwareBuzz)
1041:Generated_Source\PSoC5/cyPm.c ****                 {
1042:Generated_Source\PSoC5/cyPm.c ****                     CY_PM_PWRSYS_WAKE_TR2_REG &= (uint8)(~CY_PM_PWRSYS_WAKE_TR2_EN_BUZZ);
1043:Generated_Source\PSoC5/cyPm.c ****                 }
1044:Generated_Source\PSoC5/cyPm.c ****             }
1045:Generated_Source\PSoC5/cyPm.c ****         }
1046:Generated_Source\PSoC5/cyPm.c **** 
1047:Generated_Source\PSoC5/cyPm.c ****     #endif /* (CY_PSOC3) */
1048:Generated_Source\PSoC5/cyPm.c **** 
1049:Generated_Source\PSoC5/cyPm.c **** 
1050:Generated_Source\PSoC5/cyPm.c ****     /* Restore current wake up configuration */
1051:Generated_Source\PSoC5/cyPm.c ****     CY_PM_WAKEUP_CFG0_REG = cyPmBackup.wakeupCfg0;
1052:Generated_Source\PSoC5/cyPm.c ****     CY_PM_WAKEUP_CFG1_REG = cyPmBackup.wakeupCfg1;
1053:Generated_Source\PSoC5/cyPm.c ****     CY_PM_WAKEUP_CFG2_REG = cyPmBackup.wakeupCfg2;
1054:Generated_Source\PSoC5/cyPm.c **** 
1055:Generated_Source\PSoC5/cyPm.c ****     /* Restore global interrupt enable state */
1056:Generated_Source\PSoC5/cyPm.c ****     CyExitCriticalSection(interruptState);
1057:Generated_Source\PSoC5/cyPm.c **** }
1058:Generated_Source\PSoC5/cyPm.c **** 
ARM GAS  C:\Users\jens-\AppData\Local\Temp\ccih1T9a.s 			page 20


1059:Generated_Source\PSoC5/cyPm.c **** 
1060:Generated_Source\PSoC5/cyPm.c **** /*******************************************************************************
1061:Generated_Source\PSoC5/cyPm.c **** * Function Name: CyPmHibernate
1062:Generated_Source\PSoC5/cyPm.c **** ****************************************************************************//**
1063:Generated_Source\PSoC5/cyPm.c **** *
1064:Generated_Source\PSoC5/cyPm.c **** *  Puts the part into the Hibernate state.
1065:Generated_Source\PSoC5/cyPm.c **** *
1066:Generated_Source\PSoC5/cyPm.c **** *  Before switching to Hibernate, the current status of the PICU wakeup source
1067:Generated_Source\PSoC5/cyPm.c **** *  bit is saved and then set. This configures the device to wake up from the
1068:Generated_Source\PSoC5/cyPm.c **** *  PICU. Make sure you have at least one pin configured to generate PICU
1069:Generated_Source\PSoC5/cyPm.c **** *  interrupt. For pin Px.y, the register "PICU_INTTYPE_PICUx_INTTYPEy" controls
1070:Generated_Source\PSoC5/cyPm.c **** *  the PICU behavior. In the TRM, this register is "PICU[0..15]_INTTYPE[0..7]."
1071:Generated_Source\PSoC5/cyPm.c **** *  In the Pins component datasheet, this register is referred to as the IRQ
1072:Generated_Source\PSoC5/cyPm.c **** *  option. Once the wakeup occurs, the PICU wakeup source bit is restored and
1073:Generated_Source\PSoC5/cyPm.c **** *  the PSoC returns to the Active state.
1074:Generated_Source\PSoC5/cyPm.c **** *
1075:Generated_Source\PSoC5/cyPm.c **** * Reentrant:
1076:Generated_Source\PSoC5/cyPm.c **** *  No
1077:Generated_Source\PSoC5/cyPm.c **** *
1078:Generated_Source\PSoC5/cyPm.c **** * \sideeffect
1079:Generated_Source\PSoC5/cyPm.c **** *  Applications must wait 20 us before re-entering hibernate or sleep after
1080:Generated_Source\PSoC5/cyPm.c **** *  waking up from hibernate. The 20 us allows the sleep regulator time to
1081:Generated_Source\PSoC5/cyPm.c **** *  stabilize before the next hibernate / sleep event occurs. The 20 us
1082:Generated_Source\PSoC5/cyPm.c **** *  requirement begins when the device wakes up. There is no hardware check that
1083:Generated_Source\PSoC5/cyPm.c **** *  this requirement is met. The specified delay should be done on ISR entry.
1084:Generated_Source\PSoC5/cyPm.c **** *
1085:Generated_Source\PSoC5/cyPm.c **** *  After the wakeup PICU interrupt occurs, the Pin_ClearInterrupt() (where Pin
1086:Generated_Source\PSoC5/cyPm.c **** *  is instance name of the Pins component) function must be called to clear the
1087:Generated_Source\PSoC5/cyPm.c **** *  latched pin events to allow the proper Hibernate mode entry and to enable
1088:Generated_Source\PSoC5/cyPm.c **** *  detection of future events.
1089:Generated_Source\PSoC5/cyPm.c **** *
1090:Generated_Source\PSoC5/cyPm.c **** *  The 1 kHz ILO clock is expected to be enabled for PSoC 3 and PSoC 5LP to
1091:Generated_Source\PSoC5/cyPm.c **** *  measure Hibernate/Sleep regulator settling time after a reset. The holdoff
1092:Generated_Source\PSoC5/cyPm.c **** *  delay is measured using the rising edges of the 1 kHz ILO.
1093:Generated_Source\PSoC5/cyPm.c **** *
1094:Generated_Source\PSoC5/cyPm.c **** *******************************************************************************/
1095:Generated_Source\PSoC5/cyPm.c **** void CyPmHibernate(void) 
1096:Generated_Source\PSoC5/cyPm.c **** {
1097:Generated_Source\PSoC5/cyPm.c ****     CyPmHibernateEx(CY_PM_HIB_SRC_PICU);
1098:Generated_Source\PSoC5/cyPm.c **** }
1099:Generated_Source\PSoC5/cyPm.c **** 
1100:Generated_Source\PSoC5/cyPm.c **** 
1101:Generated_Source\PSoC5/cyPm.c **** /*******************************************************************************
1102:Generated_Source\PSoC5/cyPm.c **** * Function Name: CyPmHibernateEx
1103:Generated_Source\PSoC5/cyPm.c **** ****************************************************************************//**
1104:Generated_Source\PSoC5/cyPm.c **** *
1105:Generated_Source\PSoC5/cyPm.c **** *  Puts the part into the Hibernate state.
1106:Generated_Source\PSoC5/cyPm.c **** *
1107:Generated_Source\PSoC5/cyPm.c **** *  The following wake up sources can be configured: PICU interrupt, Comparator0,
1108:Generated_Source\PSoC5/cyPm.c **** *  Comparator1, Comparator2, and Comparator3 output.
1109:Generated_Source\PSoC5/cyPm.c **** *
1110:Generated_Source\PSoC5/cyPm.c **** *  Before switching to Hibernate, the current status of the PICU wakeup source
1111:Generated_Source\PSoC5/cyPm.c **** *  bit is saved and then set.
1112:Generated_Source\PSoC5/cyPm.c **** *
1113:Generated_Source\PSoC5/cyPm.c **** *  If using PICU as the wake up source, make sure you have at least one pin
1114:Generated_Source\PSoC5/cyPm.c **** *  configured to generate a PICU interrupt. For pin Px.y, the register
1115:Generated_Source\PSoC5/cyPm.c **** *  "PICU_INTTYPE_PICUx_INTTYPEy" controls  the PICU behavior. In the TRM, this
ARM GAS  C:\Users\jens-\AppData\Local\Temp\ccih1T9a.s 			page 21


1116:Generated_Source\PSoC5/cyPm.c **** *  register is "PICU[0..15]_INTTYPE[0..7]." In the Pins component datasheet,
1117:Generated_Source\PSoC5/cyPm.c **** *  this register is referred to as the IRQ option. Once the wakeup occurs, the
1118:Generated_Source\PSoC5/cyPm.c **** *  PICU wakeup source bit is restored and the PSoC returns to the Active state.
1119:Generated_Source\PSoC5/cyPm.c **** *
1120:Generated_Source\PSoC5/cyPm.c **** *  If using a comparator as the wake up source, make sure you call this function
1121:Generated_Source\PSoC5/cyPm.c **** *  with the 'wakeupSource' parameter set to the appropriate comparator. The part
1122:Generated_Source\PSoC5/cyPm.c **** *  is configured for the requested wakeup source by setting the corresponding
1123:Generated_Source\PSoC5/cyPm.c **** *  bits in PM_WAKEUP_CFG1 register.
1124:Generated_Source\PSoC5/cyPm.c **** *
1125:Generated_Source\PSoC5/cyPm.c **** *  Function call CyPmHibernateEx(CY_PM_HIB_SRC_PICU) will act in the same way as
1126:Generated_Source\PSoC5/cyPm.c **** *  CyPmHibernate().
1127:Generated_Source\PSoC5/cyPm.c **** *
1128:Generated_Source\PSoC5/cyPm.c **** *  \param wakeupSource:
1129:Generated_Source\PSoC5/cyPm.c **** *           Parameter Value             Description
1130:Generated_Source\PSoC5/cyPm.c **** *       CY_PM_HIB_SRC_PICU          PICU interrupt is set as the wake up source.
1131:Generated_Source\PSoC5/cyPm.c **** *       CY_PM_HIB_SRC_COMPARATOR0   Comparator 0 is set as the wake up source.
1132:Generated_Source\PSoC5/cyPm.c **** *       CY_PM_HIB_SRC_COMPARATOR1   Comparator 1 is set as the wake up source.
1133:Generated_Source\PSoC5/cyPm.c **** *       CY_PM_HIB_SRC_COMPARATOR2   Comparator 2 is set as the wake up source.
1134:Generated_Source\PSoC5/cyPm.c **** *       CY_PM_HIB_SRC_COMPARATOR3   Comparator 3 is set as the wake up source.
1135:Generated_Source\PSoC5/cyPm.c **** *
1136:Generated_Source\PSoC5/cyPm.c **** * Reentrant:
1137:Generated_Source\PSoC5/cyPm.c **** *  No
1138:Generated_Source\PSoC5/cyPm.c **** *
1139:Generated_Source\PSoC5/cyPm.c **** * \sideeffect
1140:Generated_Source\PSoC5/cyPm.c **** *  Applications must wait 20 us before re-entering hibernate or sleep after
1141:Generated_Source\PSoC5/cyPm.c **** *  waking up from hibernate. The 20 us allows the sleep regulator time to
1142:Generated_Source\PSoC5/cyPm.c **** *  stabilize before the next hibernate / sleep event occurs. The 20 us
1143:Generated_Source\PSoC5/cyPm.c **** *  requirement begins when the device wakes up. There is no hardware check that
1144:Generated_Source\PSoC5/cyPm.c **** *  this requirement is met. The specified delay should be done on ISR entry.
1145:Generated_Source\PSoC5/cyPm.c **** *
1146:Generated_Source\PSoC5/cyPm.c **** *  After the wakeup PICU interrupt occurs, the Pin_ClearInterrupt() (where Pin
1147:Generated_Source\PSoC5/cyPm.c **** *  is instance name of the Pins component) function must be called to clear the
1148:Generated_Source\PSoC5/cyPm.c **** *  latched pin events to allow the proper Hibernate mode entry and to enable
1149:Generated_Source\PSoC5/cyPm.c **** *  detection of future events.
1150:Generated_Source\PSoC5/cyPm.c **** *
1151:Generated_Source\PSoC5/cyPm.c **** *  The 1 kHz ILO clock is expected to be enabled for PSoC 3 and PSoC 5LP to
1152:Generated_Source\PSoC5/cyPm.c **** *  measure Hibernate/Sleep regulator settling time after a reset. The holdoff
1153:Generated_Source\PSoC5/cyPm.c **** *  delay is measured using the rising edges of the 1 kHz ILO.
1154:Generated_Source\PSoC5/cyPm.c **** *
1155:Generated_Source\PSoC5/cyPm.c **** *******************************************************************************/
1156:Generated_Source\PSoC5/cyPm.c **** void CyPmHibernateEx(uint16 wakeupSource) 
1157:Generated_Source\PSoC5/cyPm.c **** {
1158:Generated_Source\PSoC5/cyPm.c ****     uint8 interruptState;
1159:Generated_Source\PSoC5/cyPm.c **** 
1160:Generated_Source\PSoC5/cyPm.c ****     /* Save current global interrupt enable and disable it */
1161:Generated_Source\PSoC5/cyPm.c ****     interruptState = CyEnterCriticalSection();
1162:Generated_Source\PSoC5/cyPm.c **** 
1163:Generated_Source\PSoC5/cyPm.c ****         /***********************************************************************
1164:Generated_Source\PSoC5/cyPm.c ****         * The Hibernate/Sleep regulator has a settling time after a reset.
1165:Generated_Source\PSoC5/cyPm.c ****         * During this time, the system ignores requests to enter the Sleep and
1166:Generated_Source\PSoC5/cyPm.c ****         * Hibernate modes. The holdoff delay is measured using the rising edges of
1167:Generated_Source\PSoC5/cyPm.c ****         * the 1 kHz ILO.
1168:Generated_Source\PSoC5/cyPm.c ****         ***********************************************************************/
1169:Generated_Source\PSoC5/cyPm.c ****         if(0u == (CY_PM_MODE_CSR_REG & CY_PM_MODE_CSR_PWRUP_PULSE_Q))
1170:Generated_Source\PSoC5/cyPm.c ****         {
1171:Generated_Source\PSoC5/cyPm.c ****             /* Disable hold off - no action on restore */
1172:Generated_Source\PSoC5/cyPm.c ****             CY_PM_PWRSYS_SLP_TR_REG &= CY_PM_PWRSYS_SLP_TR_HIBSLP_HOLDOFF_MASK;
ARM GAS  C:\Users\jens-\AppData\Local\Temp\ccih1T9a.s 			page 22


1173:Generated_Source\PSoC5/cyPm.c ****         }
1174:Generated_Source\PSoC5/cyPm.c ****         else
1175:Generated_Source\PSoC5/cyPm.c ****         {
1176:Generated_Source\PSoC5/cyPm.c ****             /* Abort, device is not ready for low power mode entry */
1177:Generated_Source\PSoC5/cyPm.c **** 
1178:Generated_Source\PSoC5/cyPm.c ****             /* Restore global interrupt enable state */
1179:Generated_Source\PSoC5/cyPm.c ****             CyExitCriticalSection(interruptState);
1180:Generated_Source\PSoC5/cyPm.c **** 
1181:Generated_Source\PSoC5/cyPm.c ****             return;
1182:Generated_Source\PSoC5/cyPm.c ****         }
1183:Generated_Source\PSoC5/cyPm.c **** 
1184:Generated_Source\PSoC5/cyPm.c ****     CyPmHibSaveSet();
1185:Generated_Source\PSoC5/cyPm.c **** 
1186:Generated_Source\PSoC5/cyPm.c **** 
1187:Generated_Source\PSoC5/cyPm.c ****     /* Save and set new wake up configuration */
1188:Generated_Source\PSoC5/cyPm.c **** 
1189:Generated_Source\PSoC5/cyPm.c ****     /* Save and enable only wakeup on PICU */
1190:Generated_Source\PSoC5/cyPm.c ****     cyPmBackup.wakeupCfg0 = CY_PM_WAKEUP_CFG0_REG;
1191:Generated_Source\PSoC5/cyPm.c ****     CY_PM_WAKEUP_CFG0_REG = ((uint8) (wakeupSource >> 4u) & CY_PM_WAKEUP_PICU);
1192:Generated_Source\PSoC5/cyPm.c **** 
1193:Generated_Source\PSoC5/cyPm.c ****     /* Comparators */
1194:Generated_Source\PSoC5/cyPm.c ****     cyPmBackup.wakeupCfg1 = CY_PM_WAKEUP_CFG1_REG;
1195:Generated_Source\PSoC5/cyPm.c ****     CY_PM_WAKEUP_CFG1_REG = (((uint8) wakeupSource) & CY_PM_WAKEUP_SRC_CMPS_MASK);
1196:Generated_Source\PSoC5/cyPm.c **** 
1197:Generated_Source\PSoC5/cyPm.c ****     cyPmBackup.wakeupCfg2 = CY_PM_WAKEUP_CFG2_REG;
1198:Generated_Source\PSoC5/cyPm.c ****     CY_PM_WAKEUP_CFG2_REG = 0x00u;
1199:Generated_Source\PSoC5/cyPm.c **** 
1200:Generated_Source\PSoC5/cyPm.c **** 
1201:Generated_Source\PSoC5/cyPm.c ****     /* Last moment IMO frequency change */
1202:Generated_Source\PSoC5/cyPm.c ****     if(0u == (CY_PM_FASTCLK_IMO_CR_REG & CY_PM_FASTCLK_IMO_CR_FREQ_MASK))
1203:Generated_Source\PSoC5/cyPm.c ****     {
1204:Generated_Source\PSoC5/cyPm.c ****         /* IMO frequency is 12 MHz */
1205:Generated_Source\PSoC5/cyPm.c ****         cyPmBackup.imoActFreq12Mhz = CY_PM_ENABLED;
1206:Generated_Source\PSoC5/cyPm.c ****     }
1207:Generated_Source\PSoC5/cyPm.c ****     else
1208:Generated_Source\PSoC5/cyPm.c ****     {
1209:Generated_Source\PSoC5/cyPm.c ****         /* IMO frequency is not 12 MHz */
1210:Generated_Source\PSoC5/cyPm.c ****         cyPmBackup.imoActFreq12Mhz = CY_PM_DISABLED;
1211:Generated_Source\PSoC5/cyPm.c **** 
1212:Generated_Source\PSoC5/cyPm.c ****         /* Save IMO frequency */
1213:Generated_Source\PSoC5/cyPm.c ****         cyPmBackup.imoActFreq = CY_PM_FASTCLK_IMO_CR_REG & CY_PM_FASTCLK_IMO_CR_FREQ_MASK;
1214:Generated_Source\PSoC5/cyPm.c **** 
1215:Generated_Source\PSoC5/cyPm.c ****         /* Set IMO frequency to 12 MHz */
1216:Generated_Source\PSoC5/cyPm.c ****         CY_PM_FASTCLK_IMO_CR_REG &= ((uint8) (~CY_PM_FASTCLK_IMO_CR_FREQ_MASK));
1217:Generated_Source\PSoC5/cyPm.c ****     }
1218:Generated_Source\PSoC5/cyPm.c **** 
1219:Generated_Source\PSoC5/cyPm.c **** 
1220:Generated_Source\PSoC5/cyPm.c ****     /* Switch to Hibernate Mode */
1221:Generated_Source\PSoC5/cyPm.c ****     CY_PM_MODE_CSR_REG = (CY_PM_MODE_CSR_REG & ((uint8) (~CY_PM_MODE_CSR_MASK))) | CY_PM_MODE_CSR_H
1222:Generated_Source\PSoC5/cyPm.c **** 
1223:Generated_Source\PSoC5/cyPm.c ****     /* Recommended readback. */
1224:Generated_Source\PSoC5/cyPm.c ****     (void) CY_PM_MODE_CSR_REG;
1225:Generated_Source\PSoC5/cyPm.c **** 
1226:Generated_Source\PSoC5/cyPm.c ****     /* Two recommended NOPs to get into mode. */
1227:Generated_Source\PSoC5/cyPm.c ****     CY_NOP;
1228:Generated_Source\PSoC5/cyPm.c ****     CY_NOP;
1229:Generated_Source\PSoC5/cyPm.c **** 
ARM GAS  C:\Users\jens-\AppData\Local\Temp\ccih1T9a.s 			page 23


1230:Generated_Source\PSoC5/cyPm.c ****     /* Execute WFI instruction (for ARM-based devices only) */
1231:Generated_Source\PSoC5/cyPm.c ****     CY_PM_WFI;
1232:Generated_Source\PSoC5/cyPm.c **** 
1233:Generated_Source\PSoC5/cyPm.c **** 
1234:Generated_Source\PSoC5/cyPm.c ****     /* Point of return from Hibernate mode */
1235:Generated_Source\PSoC5/cyPm.c **** 
1236:Generated_Source\PSoC5/cyPm.c **** 
1237:Generated_Source\PSoC5/cyPm.c ****     /* Restore last moment IMO frequency change */
1238:Generated_Source\PSoC5/cyPm.c ****     if(CY_PM_ENABLED != cyPmBackup.imoActFreq12Mhz)
1239:Generated_Source\PSoC5/cyPm.c ****     {
1240:Generated_Source\PSoC5/cyPm.c ****         CY_PM_FASTCLK_IMO_CR_REG  = (CY_PM_FASTCLK_IMO_CR_REG & ((uint8)(~CY_PM_FASTCLK_IMO_CR_FREQ
1241:Generated_Source\PSoC5/cyPm.c ****                                     cyPmBackup.imoActFreq;
1242:Generated_Source\PSoC5/cyPm.c ****     }
1243:Generated_Source\PSoC5/cyPm.c **** 
1244:Generated_Source\PSoC5/cyPm.c **** 
1245:Generated_Source\PSoC5/cyPm.c ****     /* Restore device for proper Hibernate mode exit*/
1246:Generated_Source\PSoC5/cyPm.c ****     CyPmHibRestore();
1247:Generated_Source\PSoC5/cyPm.c **** 
1248:Generated_Source\PSoC5/cyPm.c ****     /* Restore current wake up configuration */
1249:Generated_Source\PSoC5/cyPm.c ****     CY_PM_WAKEUP_CFG0_REG = cyPmBackup.wakeupCfg0;
1250:Generated_Source\PSoC5/cyPm.c ****     CY_PM_WAKEUP_CFG1_REG = cyPmBackup.wakeupCfg1;
1251:Generated_Source\PSoC5/cyPm.c ****     CY_PM_WAKEUP_CFG2_REG = cyPmBackup.wakeupCfg2;
1252:Generated_Source\PSoC5/cyPm.c **** 
1253:Generated_Source\PSoC5/cyPm.c ****     /* Restore global interrupt enable state */
1254:Generated_Source\PSoC5/cyPm.c ****     CyExitCriticalSection(interruptState);
1255:Generated_Source\PSoC5/cyPm.c **** }
1256:Generated_Source\PSoC5/cyPm.c **** 
1257:Generated_Source\PSoC5/cyPm.c **** 
1258:Generated_Source\PSoC5/cyPm.c **** /*******************************************************************************
1259:Generated_Source\PSoC5/cyPm.c **** * Function Name: CyPmReadStatus
1260:Generated_Source\PSoC5/cyPm.c **** ****************************************************************************//**
1261:Generated_Source\PSoC5/cyPm.c **** *
1262:Generated_Source\PSoC5/cyPm.c **** *  Manages the Power Manager Interrupt Status Register.  This register has the
1263:Generated_Source\PSoC5/cyPm.c **** *  interrupt status for the one pulse per second, central timewheel and fast
1264:Generated_Source\PSoC5/cyPm.c **** *  timewheel timers.  This hardware register clears on read.  To allow for only
1265:Generated_Source\PSoC5/cyPm.c **** *  clearing the bits of interest and preserving the other bits, this function
1266:Generated_Source\PSoC5/cyPm.c **** *  uses a shadow register that retains the state.  This function reads the
1267:Generated_Source\PSoC5/cyPm.c **** *  status register and ORs that value with the shadow register.  That is the
1268:Generated_Source\PSoC5/cyPm.c **** *  value that is returned.  Then the bits in the mask that are set are cleared
1269:Generated_Source\PSoC5/cyPm.c **** *  from this value and written back to the shadow register.
1270:Generated_Source\PSoC5/cyPm.c **** *
1271:Generated_Source\PSoC5/cyPm.c **** *  Note You must call this function within 1 ms (1 clock cycle of the ILO)
1272:Generated_Source\PSoC5/cyPm.c **** *  after a CTW event has occurred.
1273:Generated_Source\PSoC5/cyPm.c **** *
1274:Generated_Source\PSoC5/cyPm.c **** *  \param mask: Bits in the shadow register to clear.
1275:Generated_Source\PSoC5/cyPm.c **** *
1276:Generated_Source\PSoC5/cyPm.c **** *       Define                      Source
1277:Generated_Source\PSoC5/cyPm.c **** *  CY_PM_FTW_INT                Fast Timewheel
1278:Generated_Source\PSoC5/cyPm.c **** *  CY_PM_CTW_INT                Central Timewheel
1279:Generated_Source\PSoC5/cyPm.c **** *  CY_PM_ONEPPS_INT             One Pulse Per Second
1280:Generated_Source\PSoC5/cyPm.c **** *
1281:Generated_Source\PSoC5/cyPm.c **** * \return
1282:Generated_Source\PSoC5/cyPm.c **** *  Status.  Same bits values as the mask parameter.
1283:Generated_Source\PSoC5/cyPm.c **** *
1284:Generated_Source\PSoC5/cyPm.c **** *******************************************************************************/
1285:Generated_Source\PSoC5/cyPm.c **** uint8 CyPmReadStatus(uint8 mask) 
1286:Generated_Source\PSoC5/cyPm.c **** {
ARM GAS  C:\Users\jens-\AppData\Local\Temp\ccih1T9a.s 			page 24


1287:Generated_Source\PSoC5/cyPm.c ****     static uint8 interruptStatus;
1288:Generated_Source\PSoC5/cyPm.c ****     uint8 interruptState;
1289:Generated_Source\PSoC5/cyPm.c ****     uint8 tmpStatus;
1290:Generated_Source\PSoC5/cyPm.c **** 
1291:Generated_Source\PSoC5/cyPm.c ****     /* Enter critical section */
1292:Generated_Source\PSoC5/cyPm.c ****     interruptState = CyEnterCriticalSection();
1293:Generated_Source\PSoC5/cyPm.c **** 
1294:Generated_Source\PSoC5/cyPm.c ****     /* Save value of register, copy it and clear desired bit */
1295:Generated_Source\PSoC5/cyPm.c ****     interruptStatus |= CY_PM_INT_SR_REG;
1296:Generated_Source\PSoC5/cyPm.c ****     tmpStatus = interruptStatus & (CY_PM_FTW_INT | CY_PM_CTW_INT | CY_PM_ONEPPS_INT);
1297:Generated_Source\PSoC5/cyPm.c ****     interruptStatus &= ((uint8)(~mask));
1298:Generated_Source\PSoC5/cyPm.c **** 
1299:Generated_Source\PSoC5/cyPm.c ****     /* Exit critical section */
1300:Generated_Source\PSoC5/cyPm.c ****     CyExitCriticalSection(interruptState);
1301:Generated_Source\PSoC5/cyPm.c **** 
1302:Generated_Source\PSoC5/cyPm.c ****     return(tmpStatus);
1303:Generated_Source\PSoC5/cyPm.c **** }
1304:Generated_Source\PSoC5/cyPm.c **** 
1305:Generated_Source\PSoC5/cyPm.c **** 
1306:Generated_Source\PSoC5/cyPm.c **** /*******************************************************************************
1307:Generated_Source\PSoC5/cyPm.c **** * Function Name: CyPmHibSaveSet
1308:Generated_Source\PSoC5/cyPm.c **** ****************************************************************************//**
1309:Generated_Source\PSoC5/cyPm.c **** *
1310:Generated_Source\PSoC5/cyPm.c **** *  Prepare device for proper Hibernate low power mode entry:
1311:Generated_Source\PSoC5/cyPm.c **** *  - Disables I2C backup regulator
1312:Generated_Source\PSoC5/cyPm.c **** *  - Saves ILO power down mode state and enable it
1313:Generated_Source\PSoC5/cyPm.c **** *  - Saves state of 1 kHz and 100 kHz ILO and disable them
1314:Generated_Source\PSoC5/cyPm.c **** *  - Disables sleep regulator and shorts vccd to vpwrsleep
1315:Generated_Source\PSoC5/cyPm.c **** *  - Save LVI/HVI configuration and disable them - CyPmHviLviSaveDisable()
1316:Generated_Source\PSoC5/cyPm.c **** *  - CyPmHibSlpSaveSet() function is called
1317:Generated_Source\PSoC5/cyPm.c **** *
1318:Generated_Source\PSoC5/cyPm.c **** * Reentrant:
1319:Generated_Source\PSoC5/cyPm.c **** *  No
1320:Generated_Source\PSoC5/cyPm.c **** *
1321:Generated_Source\PSoC5/cyPm.c **** *******************************************************************************/
1322:Generated_Source\PSoC5/cyPm.c **** static void CyPmHibSaveSet(void) 
1323:Generated_Source\PSoC5/cyPm.c **** {
1324:Generated_Source\PSoC5/cyPm.c ****     /* I2C backup reg must be off when the sleep regulator is unavailable */
1325:Generated_Source\PSoC5/cyPm.c ****     if(0u != (CY_PM_PWRSYS_CR1_REG & CY_PM_PWRSYS_CR1_I2CREG_BACKUP))
1326:Generated_Source\PSoC5/cyPm.c ****     {
1327:Generated_Source\PSoC5/cyPm.c ****         /***********************************************************************
1328:Generated_Source\PSoC5/cyPm.c ****         * If the I2C backup regulator is enabled, all the fixed-function registers
1329:Generated_Source\PSoC5/cyPm.c ****         * store their values while the device is in the low power mode, otherwise their
1330:Generated_Source\PSoC5/cyPm.c ****         * configuration is lost. The I2C API makes a decision to restore or not
1331:Generated_Source\PSoC5/cyPm.c ****         * to restore I2C registers based on this. If this regulator will be
1332:Generated_Source\PSoC5/cyPm.c ****         * disabled and then enabled, I2C API will suppose that the I2C block
1333:Generated_Source\PSoC5/cyPm.c ****         * registers preserved their values, while this is not true. So, the
1334:Generated_Source\PSoC5/cyPm.c ****         * backup regulator is disabled. The I2C sleep APIs is responsible for
1335:Generated_Source\PSoC5/cyPm.c ****         * restoration.
1336:Generated_Source\PSoC5/cyPm.c ****         ***********************************************************************/
1337:Generated_Source\PSoC5/cyPm.c **** 
1338:Generated_Source\PSoC5/cyPm.c ****         /* Disable I2C backup register */
1339:Generated_Source\PSoC5/cyPm.c ****         CY_PM_PWRSYS_CR1_REG &= ((uint8)(~CY_PM_PWRSYS_CR1_I2CREG_BACKUP));
1340:Generated_Source\PSoC5/cyPm.c ****     }
1341:Generated_Source\PSoC5/cyPm.c **** 
1342:Generated_Source\PSoC5/cyPm.c **** 
1343:Generated_Source\PSoC5/cyPm.c ****     /* Save current ILO power mode and ensure low power mode */
ARM GAS  C:\Users\jens-\AppData\Local\Temp\ccih1T9a.s 			page 25


1344:Generated_Source\PSoC5/cyPm.c ****     cyPmBackup.iloPowerMode = CyILO_SetPowerMode(CY_PM_POWERDOWN_MODE);
1345:Generated_Source\PSoC5/cyPm.c **** 
1346:Generated_Source\PSoC5/cyPm.c ****     /* Save current 1kHz ILO enable state. Disabled automatically. */
1347:Generated_Source\PSoC5/cyPm.c ****     cyPmBackup.ilo1kEnable = (0u == (CY_PM_SLOWCLK_ILO_CR0_REG & CY_PM_ILO_CR0_EN_1K)) ?
1348:Generated_Source\PSoC5/cyPm.c ****                                 CY_PM_DISABLED : CY_PM_ENABLED;
1349:Generated_Source\PSoC5/cyPm.c **** 
1350:Generated_Source\PSoC5/cyPm.c ****     /* Save current 100kHz ILO enable state. Disabled automatically. */
1351:Generated_Source\PSoC5/cyPm.c ****     cyPmBackup.ilo100kEnable = (0u == (CY_PM_SLOWCLK_ILO_CR0_REG & CY_PM_ILO_CR0_EN_100K)) ?
1352:Generated_Source\PSoC5/cyPm.c ****                                 CY_PM_DISABLED : CY_PM_ENABLED;
1353:Generated_Source\PSoC5/cyPm.c **** 
1354:Generated_Source\PSoC5/cyPm.c **** 
1355:Generated_Source\PSoC5/cyPm.c ****     /* Disable the sleep regulator and shorts vccd to vpwrsleep */
1356:Generated_Source\PSoC5/cyPm.c ****     if(0u == (CY_PM_PWRSYS_SLP_TR_REG & CY_PM_PWRSYS_SLP_TR_BYPASS))
1357:Generated_Source\PSoC5/cyPm.c ****     {
1358:Generated_Source\PSoC5/cyPm.c ****         /* Save current bypass state */
1359:Generated_Source\PSoC5/cyPm.c ****         cyPmBackup.slpTrBypass = CY_PM_DISABLED;
1360:Generated_Source\PSoC5/cyPm.c ****         CY_PM_PWRSYS_SLP_TR_REG |= CY_PM_PWRSYS_SLP_TR_BYPASS;
1361:Generated_Source\PSoC5/cyPm.c ****     }
1362:Generated_Source\PSoC5/cyPm.c ****     else
1363:Generated_Source\PSoC5/cyPm.c ****     {
1364:Generated_Source\PSoC5/cyPm.c ****         cyPmBackup.slpTrBypass = CY_PM_ENABLED;
1365:Generated_Source\PSoC5/cyPm.c ****     }
1366:Generated_Source\PSoC5/cyPm.c **** 
1367:Generated_Source\PSoC5/cyPm.c ****     /* LPCOMPs are always enabled (even when BOTH ext_vccd=1 and ext_vcca=1)*/
1368:Generated_Source\PSoC5/cyPm.c **** 
1369:Generated_Source\PSoC5/cyPm.c **** 
1370:Generated_Source\PSoC5/cyPm.c ****     /***************************************************************************
1371:Generated_Source\PSoC5/cyPm.c ****     * LVI/HVI must be disabled in Hibernate
1372:Generated_Source\PSoC5/cyPm.c ****     ***************************************************************************/
1373:Generated_Source\PSoC5/cyPm.c **** 
1374:Generated_Source\PSoC5/cyPm.c ****     /* Save LVI/HVI configuration and disable them */
1375:Generated_Source\PSoC5/cyPm.c ****     CyPmHviLviSaveDisable();
1376:Generated_Source\PSoC5/cyPm.c **** 
1377:Generated_Source\PSoC5/cyPm.c **** 
1378:Generated_Source\PSoC5/cyPm.c ****     /* Make the same preparations for Hibernate and Sleep modes */
1379:Generated_Source\PSoC5/cyPm.c ****     CyPmHibSlpSaveSet();
1380:Generated_Source\PSoC5/cyPm.c **** 
1381:Generated_Source\PSoC5/cyPm.c **** 
1382:Generated_Source\PSoC5/cyPm.c ****     /***************************************************************************
1383:Generated_Source\PSoC5/cyPm.c ****     * Save and set the power mode wakeup trim registers
1384:Generated_Source\PSoC5/cyPm.c ****     ***************************************************************************/
1385:Generated_Source\PSoC5/cyPm.c ****     cyPmBackup.wakeupTrim0 = CY_PM_PWRSYS_WAKE_TR0_REG;
1386:Generated_Source\PSoC5/cyPm.c ****     cyPmBackup.wakeupTrim1 = CY_PM_PWRSYS_WAKE_TR1_REG;
1387:Generated_Source\PSoC5/cyPm.c ****     
1388:Generated_Source\PSoC5/cyPm.c ****     #if(CY_PSOC5)
1389:Generated_Source\PSoC5/cyPm.c ****         cyPmBackup.wakeupTrim3 = CY_PM_PWRSYS_WAKE_TR3_REG;
1390:Generated_Source\PSoC5/cyPm.c ****     #endif  /* (CY_PSOC5) */    
1391:Generated_Source\PSoC5/cyPm.c **** 
1392:Generated_Source\PSoC5/cyPm.c ****     CY_PM_PWRSYS_WAKE_TR0_REG = CY_PM_PWRSYS_WAKE_TR0;
1393:Generated_Source\PSoC5/cyPm.c ****     CY_PM_PWRSYS_WAKE_TR1_REG = CY_PM_PWRSYS_WAKE_TR1;
1394:Generated_Source\PSoC5/cyPm.c ****     
1395:Generated_Source\PSoC5/cyPm.c ****     #if(CY_PSOC5)
1396:Generated_Source\PSoC5/cyPm.c ****         CY_PM_PWRSYS_WAKE_TR3_REG = CY_PM_PWRSYS_WAKE_TR3;
1397:Generated_Source\PSoC5/cyPm.c ****     #endif  /* (CY_PSOC5) */    
1398:Generated_Source\PSoC5/cyPm.c **** }
1399:Generated_Source\PSoC5/cyPm.c **** 
1400:Generated_Source\PSoC5/cyPm.c **** 
ARM GAS  C:\Users\jens-\AppData\Local\Temp\ccih1T9a.s 			page 26


1401:Generated_Source\PSoC5/cyPm.c **** /*******************************************************************************
1402:Generated_Source\PSoC5/cyPm.c **** * Function Name: CyPmHibRestore
1403:Generated_Source\PSoC5/cyPm.c **** ****************************************************************************//**
1404:Generated_Source\PSoC5/cyPm.c **** *
1405:Generated_Source\PSoC5/cyPm.c **** *  Restores the device for the proper Hibernate mode exit:
1406:Generated_Source\PSoC5/cyPm.c **** *  - Restores LVI/HVI configuration - calsl CyPmHviLviRestore()
1407:Generated_Source\PSoC5/cyPm.c **** *  - CyPmHibSlpSaveRestore() function is called
1408:Generated_Source\PSoC5/cyPm.c **** *  - Restores ILO power down mode state and enables it
1409:Generated_Source\PSoC5/cyPm.c **** *  - Restores the state of 1 kHz and 100 kHz ILO and disables them
1410:Generated_Source\PSoC5/cyPm.c **** *  - Restores the sleep regulator settings
1411:Generated_Source\PSoC5/cyPm.c **** *
1412:Generated_Source\PSoC5/cyPm.c **** *******************************************************************************/
1413:Generated_Source\PSoC5/cyPm.c **** static void CyPmHibRestore(void) 
1414:Generated_Source\PSoC5/cyPm.c **** {
1415:Generated_Source\PSoC5/cyPm.c ****     /* Restore LVI/HVI configuration */
1416:Generated_Source\PSoC5/cyPm.c ****     CyPmHviLviRestore();
1417:Generated_Source\PSoC5/cyPm.c **** 
1418:Generated_Source\PSoC5/cyPm.c ****     /* Restore the same configuration for Hibernate and Sleep modes */
1419:Generated_Source\PSoC5/cyPm.c ****     CyPmHibSlpRestore();
1420:Generated_Source\PSoC5/cyPm.c **** 
1421:Generated_Source\PSoC5/cyPm.c ****     /* Restore 1kHz ILO enable state */
1422:Generated_Source\PSoC5/cyPm.c ****     if(CY_PM_ENABLED == cyPmBackup.ilo1kEnable)
1423:Generated_Source\PSoC5/cyPm.c ****     {
1424:Generated_Source\PSoC5/cyPm.c ****         /* Enable 1kHz ILO */
1425:Generated_Source\PSoC5/cyPm.c ****         CyILO_Start1K();
1426:Generated_Source\PSoC5/cyPm.c ****     }
1427:Generated_Source\PSoC5/cyPm.c **** 
1428:Generated_Source\PSoC5/cyPm.c ****     /* Restore 100kHz ILO enable state */
1429:Generated_Source\PSoC5/cyPm.c ****     if(CY_PM_ENABLED == cyPmBackup.ilo100kEnable)
1430:Generated_Source\PSoC5/cyPm.c ****     {
1431:Generated_Source\PSoC5/cyPm.c ****         /* Enable 100kHz ILO */
1432:Generated_Source\PSoC5/cyPm.c ****         CyILO_Start100K();
1433:Generated_Source\PSoC5/cyPm.c ****     }
1434:Generated_Source\PSoC5/cyPm.c **** 
1435:Generated_Source\PSoC5/cyPm.c ****     /* Restore ILO power mode */
1436:Generated_Source\PSoC5/cyPm.c ****     (void) CyILO_SetPowerMode(cyPmBackup.iloPowerMode);
1437:Generated_Source\PSoC5/cyPm.c **** 
1438:Generated_Source\PSoC5/cyPm.c **** 
1439:Generated_Source\PSoC5/cyPm.c ****     if(CY_PM_DISABLED == cyPmBackup.slpTrBypass)
1440:Generated_Source\PSoC5/cyPm.c ****     {
1441:Generated_Source\PSoC5/cyPm.c ****         /* Enable the sleep regulator */
1442:Generated_Source\PSoC5/cyPm.c ****         CY_PM_PWRSYS_SLP_TR_REG &= ((uint8)(~CY_PM_PWRSYS_SLP_TR_BYPASS));
1443:Generated_Source\PSoC5/cyPm.c ****     }
1444:Generated_Source\PSoC5/cyPm.c **** 
1445:Generated_Source\PSoC5/cyPm.c **** 
1446:Generated_Source\PSoC5/cyPm.c ****     /***************************************************************************
1447:Generated_Source\PSoC5/cyPm.c ****     * Restore the power mode wakeup trim registers
1448:Generated_Source\PSoC5/cyPm.c ****     ***************************************************************************/
1449:Generated_Source\PSoC5/cyPm.c ****     CY_PM_PWRSYS_WAKE_TR0_REG = cyPmBackup.wakeupTrim0;
1450:Generated_Source\PSoC5/cyPm.c ****     CY_PM_PWRSYS_WAKE_TR1_REG = cyPmBackup.wakeupTrim1;
1451:Generated_Source\PSoC5/cyPm.c **** 
1452:Generated_Source\PSoC5/cyPm.c ****     #if(CY_PSOC5)
1453:Generated_Source\PSoC5/cyPm.c ****         CY_PM_PWRSYS_WAKE_TR3_REG = cyPmBackup.wakeupTrim3;
1454:Generated_Source\PSoC5/cyPm.c ****     #endif  /* (CY_PSOC5) */    
1455:Generated_Source\PSoC5/cyPm.c **** }
1456:Generated_Source\PSoC5/cyPm.c **** 
1457:Generated_Source\PSoC5/cyPm.c **** 
ARM GAS  C:\Users\jens-\AppData\Local\Temp\ccih1T9a.s 			page 27


1458:Generated_Source\PSoC5/cyPm.c **** /*******************************************************************************
1459:Generated_Source\PSoC5/cyPm.c **** * Function Name: CyPmCtwSetInterval
1460:Generated_Source\PSoC5/cyPm.c **** ****************************************************************************//**
1461:Generated_Source\PSoC5/cyPm.c **** *
1462:Generated_Source\PSoC5/cyPm.c **** *  Performs the CTW configuration:
1463:Generated_Source\PSoC5/cyPm.c **** *  - Disables the CTW interrupt
1464:Generated_Source\PSoC5/cyPm.c **** *  - Enables 1 kHz ILO
1465:Generated_Source\PSoC5/cyPm.c **** *  - Sets a new CTW interval
1466:Generated_Source\PSoC5/cyPm.c **** *
1467:Generated_Source\PSoC5/cyPm.c **** *  \param ctwInterval: the CTW interval to be set.
1468:Generated_Source\PSoC5/cyPm.c **** *
1469:Generated_Source\PSoC5/cyPm.c **** * \sideeffect
1470:Generated_Source\PSoC5/cyPm.c **** *  Enables ILO 1 KHz clock and leaves it enabled.
1471:Generated_Source\PSoC5/cyPm.c **** *
1472:Generated_Source\PSoC5/cyPm.c **** *******************************************************************************/
1473:Generated_Source\PSoC5/cyPm.c **** void CyPmCtwSetInterval(uint8 ctwInterval) 
1474:Generated_Source\PSoC5/cyPm.c **** {
1475:Generated_Source\PSoC5/cyPm.c ****     /* Disable CTW interrupt enable */
1476:Generated_Source\PSoC5/cyPm.c ****     CY_PM_TW_CFG2_REG &= ((uint8)(~CY_PM_CTW_IE));
1477:Generated_Source\PSoC5/cyPm.c **** 
1478:Generated_Source\PSoC5/cyPm.c ****     /* Enable 1kHz ILO (required for CTW operation) */
1479:Generated_Source\PSoC5/cyPm.c ****     CyILO_Start1K();
1480:Generated_Source\PSoC5/cyPm.c **** 
1481:Generated_Source\PSoC5/cyPm.c ****     /* Interval could be set only while CTW is disabled */
1482:Generated_Source\PSoC5/cyPm.c ****     if(0u != (CY_PM_TW_CFG2_REG & CY_PM_CTW_EN))
1483:Generated_Source\PSoC5/cyPm.c ****     {
1484:Generated_Source\PSoC5/cyPm.c ****         /* Set CTW interval if needed */
1485:Generated_Source\PSoC5/cyPm.c ****         if(CY_PM_TW_CFG1_REG != ctwInterval)
1486:Generated_Source\PSoC5/cyPm.c ****         {
1487:Generated_Source\PSoC5/cyPm.c ****             /* Disable the CTW, set new CTW interval and enable it again */
1488:Generated_Source\PSoC5/cyPm.c ****             CY_PM_TW_CFG2_REG &= ((uint8)(~CY_PM_CTW_EN));
1489:Generated_Source\PSoC5/cyPm.c ****             CY_PM_TW_CFG1_REG = ctwInterval;
1490:Generated_Source\PSoC5/cyPm.c ****             CY_PM_TW_CFG2_REG |= CY_PM_CTW_EN;
1491:Generated_Source\PSoC5/cyPm.c ****         }   /* Required interval is already set */
1492:Generated_Source\PSoC5/cyPm.c ****     }
1493:Generated_Source\PSoC5/cyPm.c ****     else
1494:Generated_Source\PSoC5/cyPm.c ****     {
1495:Generated_Source\PSoC5/cyPm.c ****         /* Set CTW interval if needed */
1496:Generated_Source\PSoC5/cyPm.c ****         if(CY_PM_TW_CFG1_REG != ctwInterval)
1497:Generated_Source\PSoC5/cyPm.c ****         {
1498:Generated_Source\PSoC5/cyPm.c ****             /* Set new CTW interval. Could be changed if CTW is disabled */
1499:Generated_Source\PSoC5/cyPm.c ****             CY_PM_TW_CFG1_REG = ctwInterval;
1500:Generated_Source\PSoC5/cyPm.c ****         }   /* Required interval is already set */
1501:Generated_Source\PSoC5/cyPm.c **** 
1502:Generated_Source\PSoC5/cyPm.c ****         /* Enable CTW */
1503:Generated_Source\PSoC5/cyPm.c ****         CY_PM_TW_CFG2_REG |= CY_PM_CTW_EN;
1504:Generated_Source\PSoC5/cyPm.c ****     }
1505:Generated_Source\PSoC5/cyPm.c **** }
1506:Generated_Source\PSoC5/cyPm.c **** 
1507:Generated_Source\PSoC5/cyPm.c **** 
1508:Generated_Source\PSoC5/cyPm.c **** /*******************************************************************************
1509:Generated_Source\PSoC5/cyPm.c **** * Function Name: CyPmOppsSet
1510:Generated_Source\PSoC5/cyPm.c **** ****************************************************************************//**
1511:Generated_Source\PSoC5/cyPm.c **** *
1512:Generated_Source\PSoC5/cyPm.c **** *  Performs 1PPS configuration:
1513:Generated_Source\PSoC5/cyPm.c **** *  - Starts 32 KHz XTAL
1514:Generated_Source\PSoC5/cyPm.c **** *  - Disables 1PPS interrupts
ARM GAS  C:\Users\jens-\AppData\Local\Temp\ccih1T9a.s 			page 28


1515:Generated_Source\PSoC5/cyPm.c **** *  - Enables 1PPS
1516:Generated_Source\PSoC5/cyPm.c **** *
1517:Generated_Source\PSoC5/cyPm.c **** *******************************************************************************/
1518:Generated_Source\PSoC5/cyPm.c **** void CyPmOppsSet(void) 
1519:Generated_Source\PSoC5/cyPm.c **** {
1520:Generated_Source\PSoC5/cyPm.c ****     /* Enable 32kHz XTAL if needed */
1521:Generated_Source\PSoC5/cyPm.c ****     if(0u == (CY_PM_SLOWCLK_X32_CR_REG & CY_PM_X32_CR_X32EN))
1522:Generated_Source\PSoC5/cyPm.c ****     {
1523:Generated_Source\PSoC5/cyPm.c ****         /* Enable 32kHz XTAL */
1524:Generated_Source\PSoC5/cyPm.c ****         CyXTAL_32KHZ_Start();
1525:Generated_Source\PSoC5/cyPm.c ****     }
1526:Generated_Source\PSoC5/cyPm.c **** 
1527:Generated_Source\PSoC5/cyPm.c ****     /* Disable 1PPS interrupt enable */
1528:Generated_Source\PSoC5/cyPm.c ****     CY_PM_TW_CFG2_REG &= ((uint8)(~CY_PM_1PPS_IE));
1529:Generated_Source\PSoC5/cyPm.c **** 
1530:Generated_Source\PSoC5/cyPm.c ****     /* Enable 1PPS operation */
1531:Generated_Source\PSoC5/cyPm.c ****     CY_PM_TW_CFG2_REG |= CY_PM_1PPS_EN;
1532:Generated_Source\PSoC5/cyPm.c **** }
1533:Generated_Source\PSoC5/cyPm.c **** 
1534:Generated_Source\PSoC5/cyPm.c **** 
1535:Generated_Source\PSoC5/cyPm.c **** /*******************************************************************************
1536:Generated_Source\PSoC5/cyPm.c **** * Function Name: CyPmFtwSetInterval
1537:Generated_Source\PSoC5/cyPm.c **** ****************************************************************************//**
1538:Generated_Source\PSoC5/cyPm.c **** *
1539:Generated_Source\PSoC5/cyPm.c **** *  Performs the FTW configuration:
1540:Generated_Source\PSoC5/cyPm.c **** *  - Disables the FTW interrupt
1541:Generated_Source\PSoC5/cyPm.c **** *  - Enables 100 kHz ILO
1542:Generated_Source\PSoC5/cyPm.c **** *  - Sets a new FTW interval.
1543:Generated_Source\PSoC5/cyPm.c **** *
1544:Generated_Source\PSoC5/cyPm.c **** *  \param ftwInterval The FTW counter interval.
1545:Generated_Source\PSoC5/cyPm.c **** *
1546:Generated_Source\PSoC5/cyPm.c **** * \sideeffect
1547:Generated_Source\PSoC5/cyPm.c **** *  Enables the ILO 100 KHz clock and leaves it enabled.
1548:Generated_Source\PSoC5/cyPm.c **** *
1549:Generated_Source\PSoC5/cyPm.c **** *******************************************************************************/
1550:Generated_Source\PSoC5/cyPm.c **** void CyPmFtwSetInterval(uint8 ftwInterval) 
1551:Generated_Source\PSoC5/cyPm.c **** {
1552:Generated_Source\PSoC5/cyPm.c ****     /* Disable FTW interrupt enable */
1553:Generated_Source\PSoC5/cyPm.c ****     CY_PM_TW_CFG2_REG &= ((uint8)(~CY_PM_FTW_IE));
1554:Generated_Source\PSoC5/cyPm.c **** 
1555:Generated_Source\PSoC5/cyPm.c ****     /* Enable 100kHz ILO */
1556:Generated_Source\PSoC5/cyPm.c ****     CyILO_Start100K();
1557:Generated_Source\PSoC5/cyPm.c **** 
1558:Generated_Source\PSoC5/cyPm.c ****     /* Interval could be set only while FTW is disabled */
1559:Generated_Source\PSoC5/cyPm.c ****     if(0u != (CY_PM_TW_CFG2_REG & CY_PM_FTW_EN))
1560:Generated_Source\PSoC5/cyPm.c ****     {
1561:Generated_Source\PSoC5/cyPm.c ****         /* Disable FTW, set new FTW interval if needed and enable it again */
1562:Generated_Source\PSoC5/cyPm.c ****         if(CY_PM_TW_CFG0_REG != ftwInterval)
1563:Generated_Source\PSoC5/cyPm.c ****         {
1564:Generated_Source\PSoC5/cyPm.c ****             /* Disable CTW, set new CTW interval and enable it again */
1565:Generated_Source\PSoC5/cyPm.c ****             CY_PM_TW_CFG2_REG &= ((uint8)(~CY_PM_FTW_EN));
1566:Generated_Source\PSoC5/cyPm.c ****             CY_PM_TW_CFG0_REG = ftwInterval;
1567:Generated_Source\PSoC5/cyPm.c ****             CY_PM_TW_CFG2_REG |= CY_PM_FTW_EN;
1568:Generated_Source\PSoC5/cyPm.c ****         }   /* Required interval is already set */
1569:Generated_Source\PSoC5/cyPm.c ****     }
1570:Generated_Source\PSoC5/cyPm.c ****     else
1571:Generated_Source\PSoC5/cyPm.c ****     {
ARM GAS  C:\Users\jens-\AppData\Local\Temp\ccih1T9a.s 			page 29


1572:Generated_Source\PSoC5/cyPm.c ****         /* Set new FTW counter interval if needed. FTW is disabled. */
1573:Generated_Source\PSoC5/cyPm.c ****         if(CY_PM_TW_CFG0_REG != ftwInterval)
1574:Generated_Source\PSoC5/cyPm.c ****         {
1575:Generated_Source\PSoC5/cyPm.c ****             /* Set new CTW interval. Could be changed if CTW is disabled */
1576:Generated_Source\PSoC5/cyPm.c ****             CY_PM_TW_CFG0_REG = ftwInterval;
1577:Generated_Source\PSoC5/cyPm.c ****         }   /* Required interval is already set */
1578:Generated_Source\PSoC5/cyPm.c **** 
1579:Generated_Source\PSoC5/cyPm.c ****         /* Enable FTW */
1580:Generated_Source\PSoC5/cyPm.c ****         CY_PM_TW_CFG2_REG |= CY_PM_FTW_EN;
1581:Generated_Source\PSoC5/cyPm.c ****     }
1582:Generated_Source\PSoC5/cyPm.c **** }
1583:Generated_Source\PSoC5/cyPm.c **** 
1584:Generated_Source\PSoC5/cyPm.c **** 
1585:Generated_Source\PSoC5/cyPm.c **** /*******************************************************************************
1586:Generated_Source\PSoC5/cyPm.c **** * Function Name: CyPmHibSlpSaveSet
1587:Generated_Source\PSoC5/cyPm.c **** ****************************************************************************//**
1588:Generated_Source\PSoC5/cyPm.c **** *
1589:Generated_Source\PSoC5/cyPm.c **** *  This API is used for preparing the device for the Sleep and Hibernate low
1590:Generated_Source\PSoC5/cyPm.c **** *  power modes entry:
1591:Generated_Source\PSoC5/cyPm.c **** *  - Saves the COMP, VIDAC, DSM, and SAR routing connections (PSoC 5)
1592:Generated_Source\PSoC5/cyPm.c **** *  - Saves the SC/CT routing connections (PSoC 3/5/5LP)
1593:Generated_Source\PSoC5/cyPm.c **** *  - Disables the Serial Wire Viewer (SWV) (PSoC 3)
1594:Generated_Source\PSoC5/cyPm.c **** *  - Saves the boost reference selection and sets it to internal
1595:Generated_Source\PSoC5/cyPm.c **** *
1596:Generated_Source\PSoC5/cyPm.c **** * Reentrant:
1597:Generated_Source\PSoC5/cyPm.c **** *  No
1598:Generated_Source\PSoC5/cyPm.c **** *
1599:Generated_Source\PSoC5/cyPm.c **** *******************************************************************************/
1600:Generated_Source\PSoC5/cyPm.c **** static void CyPmHibSlpSaveSet(void) 
1601:Generated_Source\PSoC5/cyPm.c **** {
  26              		.loc 1 1601 1 view -0
  27              		.cfi_startproc
  28              		@ args = 0, pretend = 0, frame = 0
  29              		@ frame_needed = 0, uses_anonymous_args = 0
  30 0000 2DE9F04F 		push	{r4, r5, r6, r7, r8, r9, r10, fp, lr}
  31              		.cfi_def_cfa_offset 36
  32              		.cfi_offset 4, -36
  33              		.cfi_offset 5, -32
  34              		.cfi_offset 6, -28
  35              		.cfi_offset 7, -24
  36              		.cfi_offset 8, -20
  37              		.cfi_offset 9, -16
  38              		.cfi_offset 10, -12
  39              		.cfi_offset 11, -8
  40              		.cfi_offset 14, -4
1602:Generated_Source\PSoC5/cyPm.c ****     /* Save SC/CT routing registers */
1603:Generated_Source\PSoC5/cyPm.c ****     cyPmBackup.scctData[0u]   = CY_GET_REG8(CYREG_SC0_SW0 );
  41              		.loc 1 1603 5 view .LVU1
  42              		.loc 1 1603 33 is_stmt 0 view .LVU2
  43 0004 DFF884A1 		ldr	r10, .L5+40
  44 0008 9AF80020 		ldrb	r2, [r10]	@ zero_extendqisi2
  45              		.loc 1 1603 31 view .LVU3
  46 000c 554B     		ldr	r3, .L5
  47 000e 9A72     		strb	r2, [r3, #10]
1604:Generated_Source\PSoC5/cyPm.c ****     cyPmBackup.scctData[1u]   = CY_GET_REG8(CYREG_SC0_SW2 );
  48              		.loc 1 1604 5 is_stmt 1 view .LVU4
  49              		.loc 1 1604 33 is_stmt 0 view .LVU5
ARM GAS  C:\Users\jens-\AppData\Local\Temp\ccih1T9a.s 			page 30


  50 0010 DFF87C91 		ldr	r9, .L5+44
  51 0014 99F80020 		ldrb	r2, [r9]	@ zero_extendqisi2
  52              		.loc 1 1604 31 view .LVU6
  53 0018 DA72     		strb	r2, [r3, #11]
1605:Generated_Source\PSoC5/cyPm.c ****     cyPmBackup.scctData[2u]   = CY_GET_REG8(CYREG_SC0_SW3 );
  54              		.loc 1 1605 5 is_stmt 1 view .LVU7
  55              		.loc 1 1605 33 is_stmt 0 view .LVU8
  56 001a 534A     		ldr	r2, .L5+4
  57 001c 1278     		ldrb	r2, [r2]	@ zero_extendqisi2
  58              		.loc 1 1605 31 view .LVU9
  59 001e 1A73     		strb	r2, [r3, #12]
1606:Generated_Source\PSoC5/cyPm.c ****     cyPmBackup.scctData[3u]   = CY_GET_REG8(CYREG_SC0_SW4 );
  60              		.loc 1 1606 5 is_stmt 1 view .LVU10
  61              		.loc 1 1606 33 is_stmt 0 view .LVU11
  62 0020 5249     		ldr	r1, .L5+8
  63 0022 0A78     		ldrb	r2, [r1]	@ zero_extendqisi2
  64              		.loc 1 1606 31 view .LVU12
  65 0024 5A73     		strb	r2, [r3, #13]
1607:Generated_Source\PSoC5/cyPm.c ****     cyPmBackup.scctData[4u]   = CY_GET_REG8(CYREG_SC0_SW6 );
  66              		.loc 1 1607 5 is_stmt 1 view .LVU13
  67              		.loc 1 1607 33 is_stmt 0 view .LVU14
  68 0026 5248     		ldr	r0, .L5+12
  69 0028 0278     		ldrb	r2, [r0]	@ zero_extendqisi2
  70              		.loc 1 1607 31 view .LVU15
  71 002a 9A73     		strb	r2, [r3, #14]
1608:Generated_Source\PSoC5/cyPm.c ****     cyPmBackup.scctData[5u]   = CY_GET_REG8(CYREG_SC0_SW8 );
  72              		.loc 1 1608 5 is_stmt 1 view .LVU16
  73              		.loc 1 1608 33 is_stmt 0 view .LVU17
  74 002c 514C     		ldr	r4, .L5+16
  75 002e 2278     		ldrb	r2, [r4]	@ zero_extendqisi2
  76              		.loc 1 1608 31 view .LVU18
  77 0030 DA73     		strb	r2, [r3, #15]
1609:Generated_Source\PSoC5/cyPm.c ****     cyPmBackup.scctData[6u]   = CY_GET_REG8(CYREG_SC0_SW10);
  78              		.loc 1 1609 5 is_stmt 1 view .LVU19
  79              		.loc 1 1609 33 is_stmt 0 view .LVU20
  80 0032 514D     		ldr	r5, .L5+20
  81 0034 2A78     		ldrb	r2, [r5]	@ zero_extendqisi2
  82              		.loc 1 1609 31 view .LVU21
  83 0036 1A74     		strb	r2, [r3, #16]
1610:Generated_Source\PSoC5/cyPm.c **** 
1611:Generated_Source\PSoC5/cyPm.c ****     cyPmBackup.scctData[7u]   = CY_GET_REG8(CYREG_SC1_SW0 );
  84              		.loc 1 1611 5 is_stmt 1 view .LVU22
  85              		.loc 1 1611 33 is_stmt 0 view .LVU23
  86 0038 504E     		ldr	r6, .L5+24
  87 003a 3278     		ldrb	r2, [r6]	@ zero_extendqisi2
  88              		.loc 1 1611 31 view .LVU24
  89 003c 5A74     		strb	r2, [r3, #17]
1612:Generated_Source\PSoC5/cyPm.c ****     cyPmBackup.scctData[8u]   = CY_GET_REG8(CYREG_SC1_SW2 );
  90              		.loc 1 1612 5 is_stmt 1 view .LVU25
  91              		.loc 1 1612 33 is_stmt 0 view .LVU26
  92 003e 504F     		ldr	r7, .L5+28
  93 0040 3A78     		ldrb	r2, [r7]	@ zero_extendqisi2
  94              		.loc 1 1612 31 view .LVU27
  95 0042 9A74     		strb	r2, [r3, #18]
1613:Generated_Source\PSoC5/cyPm.c ****     cyPmBackup.scctData[9u]   = CY_GET_REG8(CYREG_SC1_SW3 );
  96              		.loc 1 1613 5 is_stmt 1 view .LVU28
  97              		.loc 1 1613 33 is_stmt 0 view .LVU29
ARM GAS  C:\Users\jens-\AppData\Local\Temp\ccih1T9a.s 			page 31


  98 0044 0F31     		adds	r1, r1, #15
  99 0046 0A78     		ldrb	r2, [r1]	@ zero_extendqisi2
 100              		.loc 1 1613 31 view .LVU30
 101 0048 DA74     		strb	r2, [r3, #19]
1614:Generated_Source\PSoC5/cyPm.c ****     cyPmBackup.scctData[10u]  = CY_GET_REG8(CYREG_SC1_SW4 );
 102              		.loc 1 1614 5 is_stmt 1 view .LVU31
 103              		.loc 1 1614 33 is_stmt 0 view .LVU32
 104 004a 0E30     		adds	r0, r0, #14
 105 004c 0278     		ldrb	r2, [r0]	@ zero_extendqisi2
 106              		.loc 1 1614 31 view .LVU33
 107 004e 1A75     		strb	r2, [r3, #20]
1615:Generated_Source\PSoC5/cyPm.c ****     cyPmBackup.scctData[11u]  = CY_GET_REG8(CYREG_SC1_SW6 );
 108              		.loc 1 1615 5 is_stmt 1 view .LVU34
 109              		.loc 1 1615 33 is_stmt 0 view .LVU35
 110 0050 0E34     		adds	r4, r4, #14
 111 0052 2278     		ldrb	r2, [r4]	@ zero_extendqisi2
 112              		.loc 1 1615 31 view .LVU36
 113 0054 5A75     		strb	r2, [r3, #21]
1616:Generated_Source\PSoC5/cyPm.c ****     cyPmBackup.scctData[12u]  = CY_GET_REG8(CYREG_SC1_SW8 );
 114              		.loc 1 1616 5 is_stmt 1 view .LVU37
 115              		.loc 1 1616 33 is_stmt 0 view .LVU38
 116 0056 0E35     		adds	r5, r5, #14
 117 0058 2A78     		ldrb	r2, [r5]	@ zero_extendqisi2
 118              		.loc 1 1616 31 view .LVU39
 119 005a 9A75     		strb	r2, [r3, #22]
1617:Generated_Source\PSoC5/cyPm.c ****     cyPmBackup.scctData[13u]  = CY_GET_REG8(CYREG_SC1_SW10);
 120              		.loc 1 1617 5 is_stmt 1 view .LVU40
 121              		.loc 1 1617 33 is_stmt 0 view .LVU41
 122 005c 0A36     		adds	r6, r6, #10
 123 005e 3278     		ldrb	r2, [r6]	@ zero_extendqisi2
 124              		.loc 1 1617 31 view .LVU42
 125 0060 DA75     		strb	r2, [r3, #23]
1618:Generated_Source\PSoC5/cyPm.c **** 
1619:Generated_Source\PSoC5/cyPm.c ****     cyPmBackup.scctData[14u]  = CY_GET_REG8(CYREG_SC2_SW0 );
 126              		.loc 1 1619 5 is_stmt 1 view .LVU43
 127              		.loc 1 1619 33 is_stmt 0 view .LVU44
 128 0062 0E37     		adds	r7, r7, #14
 129 0064 3A78     		ldrb	r2, [r7]	@ zero_extendqisi2
 130              		.loc 1 1619 31 view .LVU45
 131 0066 1A76     		strb	r2, [r3, #24]
1620:Generated_Source\PSoC5/cyPm.c ****     cyPmBackup.scctData[15u]  = CY_GET_REG8(CYREG_SC2_SW2 );
 132              		.loc 1 1620 5 is_stmt 1 view .LVU46
 133              		.loc 1 1620 33 is_stmt 0 view .LVU47
 134 0068 0F31     		adds	r1, r1, #15
 135 006a 0A78     		ldrb	r2, [r1]	@ zero_extendqisi2
 136              		.loc 1 1620 31 view .LVU48
 137 006c 5A76     		strb	r2, [r3, #25]
1621:Generated_Source\PSoC5/cyPm.c ****     cyPmBackup.scctData[16u]  = CY_GET_REG8(CYREG_SC2_SW3 );
 138              		.loc 1 1621 5 is_stmt 1 view .LVU49
 139              		.loc 1 1621 33 is_stmt 0 view .LVU50
 140 006e 0F30     		adds	r0, r0, #15
 141 0070 0278     		ldrb	r2, [r0]	@ zero_extendqisi2
 142              		.loc 1 1621 31 view .LVU51
 143 0072 9A76     		strb	r2, [r3, #26]
1622:Generated_Source\PSoC5/cyPm.c ****     cyPmBackup.scctData[17u]  = CY_GET_REG8(CYREG_SC2_SW4 );
 144              		.loc 1 1622 5 is_stmt 1 view .LVU52
 145              		.loc 1 1622 33 is_stmt 0 view .LVU53
ARM GAS  C:\Users\jens-\AppData\Local\Temp\ccih1T9a.s 			page 32


 146 0074 DFF81CB1 		ldr	fp, .L5+48
 147 0078 9BF80020 		ldrb	r2, [fp]	@ zero_extendqisi2
 148              		.loc 1 1622 31 view .LVU54
 149 007c DA76     		strb	r2, [r3, #27]
1623:Generated_Source\PSoC5/cyPm.c ****     cyPmBackup.scctData[18u]  = CY_GET_REG8(CYREG_SC2_SW6 );
 150              		.loc 1 1623 5 is_stmt 1 view .LVU55
 151              		.loc 1 1623 33 is_stmt 0 view .LVU56
 152 007e DFF81881 		ldr	r8, .L5+52
 153 0082 98F80020 		ldrb	r2, [r8]	@ zero_extendqisi2
 154              		.loc 1 1623 31 view .LVU57
 155 0086 1A77     		strb	r2, [r3, #28]
1624:Generated_Source\PSoC5/cyPm.c ****     cyPmBackup.scctData[19u]  = CY_GET_REG8(CYREG_SC2_SW8 );
 156              		.loc 1 1624 5 is_stmt 1 view .LVU58
 157              		.loc 1 1624 33 is_stmt 0 view .LVU59
 158 0088 DFF810E1 		ldr	lr, .L5+56
 159 008c 9EF80020 		ldrb	r2, [lr]	@ zero_extendqisi2
 160              		.loc 1 1624 31 view .LVU60
 161 0090 5A77     		strb	r2, [r3, #29]
1625:Generated_Source\PSoC5/cyPm.c ****     cyPmBackup.scctData[20u]  = CY_GET_REG8(CYREG_SC2_SW10);
 162              		.loc 1 1625 5 is_stmt 1 view .LVU61
 163              		.loc 1 1625 33 is_stmt 0 view .LVU62
 164 0092 DFF80CC1 		ldr	ip, .L5+60
 165 0096 9CF80020 		ldrb	r2, [ip]	@ zero_extendqisi2
 166              		.loc 1 1625 31 view .LVU63
 167 009a 9A77     		strb	r2, [r3, #30]
1626:Generated_Source\PSoC5/cyPm.c **** 
1627:Generated_Source\PSoC5/cyPm.c ****     cyPmBackup.scctData[21u]  = CY_GET_REG8(CYREG_SC3_SW0 );
 168              		.loc 1 1627 5 is_stmt 1 view .LVU64
 169              		.loc 1 1627 33 is_stmt 0 view .LVU65
 170 009c 1037     		adds	r7, r7, #16
 171 009e 3A78     		ldrb	r2, [r7]	@ zero_extendqisi2
 172              		.loc 1 1627 31 view .LVU66
 173 00a0 DA77     		strb	r2, [r3, #31]
1628:Generated_Source\PSoC5/cyPm.c ****     cyPmBackup.scctData[22u]  = CY_GET_REG8(CYREG_SC3_SW2 );
 174              		.loc 1 1628 5 is_stmt 1 view .LVU67
 175              		.loc 1 1628 33 is_stmt 0 view .LVU68
 176 00a2 1836     		adds	r6, r6, #24
 177 00a4 3278     		ldrb	r2, [r6]	@ zero_extendqisi2
 178              		.loc 1 1628 31 view .LVU69
 179 00a6 83F82020 		strb	r2, [r3, #32]
1629:Generated_Source\PSoC5/cyPm.c ****     cyPmBackup.scctData[23u]  = CY_GET_REG8(CYREG_SC3_SW3 );
 180              		.loc 1 1629 5 is_stmt 1 view .LVU70
 181              		.loc 1 1629 33 is_stmt 0 view .LVU71
 182 00aa 1B35     		adds	r5, r5, #27
 183 00ac 2A78     		ldrb	r2, [r5]	@ zero_extendqisi2
 184              		.loc 1 1629 31 view .LVU72
 185 00ae 83F82120 		strb	r2, [r3, #33]
1630:Generated_Source\PSoC5/cyPm.c ****     cyPmBackup.scctData[24u]  = CY_GET_REG8(CYREG_SC3_SW4 );
 186              		.loc 1 1630 5 is_stmt 1 view .LVU73
 187              		.loc 1 1630 33 is_stmt 0 view .LVU74
 188 00b2 1E34     		adds	r4, r4, #30
 189 00b4 2278     		ldrb	r2, [r4]	@ zero_extendqisi2
 190              		.loc 1 1630 31 view .LVU75
 191 00b6 83F82220 		strb	r2, [r3, #34]
1631:Generated_Source\PSoC5/cyPm.c ****     cyPmBackup.scctData[25u]  = CY_GET_REG8(CYREG_SC3_SW6 );
 192              		.loc 1 1631 5 is_stmt 1 view .LVU76
 193              		.loc 1 1631 33 is_stmt 0 view .LVU77
ARM GAS  C:\Users\jens-\AppData\Local\Temp\ccih1T9a.s 			page 33


 194 00ba 1330     		adds	r0, r0, #19
 195 00bc 0278     		ldrb	r2, [r0]	@ zero_extendqisi2
 196              		.loc 1 1631 31 view .LVU78
 197 00be 83F82320 		strb	r2, [r3, #35]
1632:Generated_Source\PSoC5/cyPm.c ****     cyPmBackup.scctData[26u]  = CY_GET_REG8(CYREG_SC3_SW8 );
 198              		.loc 1 1632 5 is_stmt 1 view .LVU79
 199              		.loc 1 1632 33 is_stmt 0 view .LVU80
 200 00c2 1631     		adds	r1, r1, #22
 201 00c4 0A78     		ldrb	r2, [r1]	@ zero_extendqisi2
 202              		.loc 1 1632 31 view .LVU81
 203 00c6 83F82420 		strb	r2, [r3, #36]
1633:Generated_Source\PSoC5/cyPm.c ****     cyPmBackup.scctData[27u]  = CY_GET_REG8(CYREG_SC3_SW10);
 204              		.loc 1 1633 5 is_stmt 1 view .LVU82
 205              		.loc 1 1633 33 is_stmt 0 view .LVU83
 206 00ca 2E4A     		ldr	r2, .L5+32
 207 00cc 1278     		ldrb	r2, [r2]	@ zero_extendqisi2
 208              		.loc 1 1633 31 view .LVU84
 209 00ce 83F82520 		strb	r2, [r3, #37]
1634:Generated_Source\PSoC5/cyPm.c **** 
1635:Generated_Source\PSoC5/cyPm.c ****     CY_SET_REG8(CYREG_SC0_SW0 , 0u);
 210              		.loc 1 1635 5 is_stmt 1 view .LVU85
 211 00d2 0023     		movs	r3, #0
 212 00d4 8AF80030 		strb	r3, [r10]
1636:Generated_Source\PSoC5/cyPm.c ****     CY_SET_REG8(CYREG_SC0_SW2 , 0u);
 213              		.loc 1 1636 5 view .LVU86
 214 00d8 89F80030 		strb	r3, [r9]
1637:Generated_Source\PSoC5/cyPm.c ****     CY_SET_REG8(CYREG_SC0_SW3 , 0u);
 215              		.loc 1 1637 5 view .LVU87
 216 00dc 224A     		ldr	r2, .L5+4
 217 00de 1370     		strb	r3, [r2]
1638:Generated_Source\PSoC5/cyPm.c ****     CY_SET_REG8(CYREG_SC0_SW4 , 0u);
 218              		.loc 1 1638 5 view .LVU88
 219 00e0 0132     		adds	r2, r2, #1
 220 00e2 1370     		strb	r3, [r2]
1639:Generated_Source\PSoC5/cyPm.c ****     CY_SET_REG8(CYREG_SC0_SW6 , 0u);
 221              		.loc 1 1639 5 view .LVU89
 222 00e4 0232     		adds	r2, r2, #2
 223 00e6 1370     		strb	r3, [r2]
1640:Generated_Source\PSoC5/cyPm.c ****     CY_SET_REG8(CYREG_SC0_SW8 , 0u);
 224              		.loc 1 1640 5 view .LVU90
 225 00e8 0232     		adds	r2, r2, #2
 226 00ea 1370     		strb	r3, [r2]
1641:Generated_Source\PSoC5/cyPm.c ****     CY_SET_REG8(CYREG_SC0_SW10, 0u);
 227              		.loc 1 1641 5 view .LVU91
 228 00ec 0232     		adds	r2, r2, #2
 229 00ee 1370     		strb	r3, [r2]
1642:Generated_Source\PSoC5/cyPm.c **** 
1643:Generated_Source\PSoC5/cyPm.c ****     CY_SET_REG8(CYREG_SC1_SW0 , 0u);
 230              		.loc 1 1643 5 view .LVU92
 231 00f0 0632     		adds	r2, r2, #6
 232 00f2 1370     		strb	r3, [r2]
1644:Generated_Source\PSoC5/cyPm.c ****     CY_SET_REG8(CYREG_SC1_SW2 , 0u);
 233              		.loc 1 1644 5 view .LVU93
 234 00f4 0232     		adds	r2, r2, #2
 235 00f6 1370     		strb	r3, [r2]
1645:Generated_Source\PSoC5/cyPm.c ****     CY_SET_REG8(CYREG_SC1_SW3 , 0u);
 236              		.loc 1 1645 5 view .LVU94
ARM GAS  C:\Users\jens-\AppData\Local\Temp\ccih1T9a.s 			page 34


 237 00f8 0132     		adds	r2, r2, #1
 238 00fa 1370     		strb	r3, [r2]
1646:Generated_Source\PSoC5/cyPm.c ****     CY_SET_REG8(CYREG_SC1_SW4 , 0u);
 239              		.loc 1 1646 5 view .LVU95
 240 00fc 0132     		adds	r2, r2, #1
 241 00fe 1370     		strb	r3, [r2]
1647:Generated_Source\PSoC5/cyPm.c ****     CY_SET_REG8(CYREG_SC1_SW6 , 0u);
 242              		.loc 1 1647 5 view .LVU96
 243 0100 0232     		adds	r2, r2, #2
 244 0102 1370     		strb	r3, [r2]
1648:Generated_Source\PSoC5/cyPm.c ****     CY_SET_REG8(CYREG_SC1_SW8 , 0u);
 245              		.loc 1 1648 5 view .LVU97
 246 0104 0232     		adds	r2, r2, #2
 247 0106 1370     		strb	r3, [r2]
1649:Generated_Source\PSoC5/cyPm.c ****     CY_SET_REG8(CYREG_SC1_SW10, 0u);
 248              		.loc 1 1649 5 view .LVU98
 249 0108 0232     		adds	r2, r2, #2
 250 010a 1370     		strb	r3, [r2]
1650:Generated_Source\PSoC5/cyPm.c **** 
1651:Generated_Source\PSoC5/cyPm.c ****     CY_SET_REG8(CYREG_SC2_SW0 , 0u);
 251              		.loc 1 1651 5 view .LVU99
 252 010c 0632     		adds	r2, r2, #6
 253 010e 1370     		strb	r3, [r2]
1652:Generated_Source\PSoC5/cyPm.c ****     CY_SET_REG8(CYREG_SC2_SW2 , 0u);
 254              		.loc 1 1652 5 view .LVU100
 255 0110 0232     		adds	r2, r2, #2
 256 0112 1370     		strb	r3, [r2]
1653:Generated_Source\PSoC5/cyPm.c ****     CY_SET_REG8(CYREG_SC2_SW3 , 0u);
 257              		.loc 1 1653 5 view .LVU101
 258 0114 0132     		adds	r2, r2, #1
 259 0116 1370     		strb	r3, [r2]
1654:Generated_Source\PSoC5/cyPm.c ****     CY_SET_REG8(CYREG_SC2_SW4 , 0u);
 260              		.loc 1 1654 5 view .LVU102
 261 0118 8BF80030 		strb	r3, [fp]
1655:Generated_Source\PSoC5/cyPm.c ****     CY_SET_REG8(CYREG_SC2_SW6 , 0u);
 262              		.loc 1 1655 5 view .LVU103
 263 011c 88F80030 		strb	r3, [r8]
1656:Generated_Source\PSoC5/cyPm.c ****     CY_SET_REG8(CYREG_SC2_SW8 , 0u);
 264              		.loc 1 1656 5 view .LVU104
 265 0120 8EF80030 		strb	r3, [lr]
1657:Generated_Source\PSoC5/cyPm.c ****     CY_SET_REG8(CYREG_SC2_SW10, 0u);
 266              		.loc 1 1657 5 view .LVU105
 267 0124 8CF80030 		strb	r3, [ip]
1658:Generated_Source\PSoC5/cyPm.c **** 
1659:Generated_Source\PSoC5/cyPm.c ****     CY_SET_REG8(CYREG_SC3_SW0 , 0u);
 268              		.loc 1 1659 5 view .LVU106
 269 0128 3B70     		strb	r3, [r7]
1660:Generated_Source\PSoC5/cyPm.c ****     CY_SET_REG8(CYREG_SC3_SW2 , 0u);
 270              		.loc 1 1660 5 view .LVU107
 271 012a 3370     		strb	r3, [r6]
1661:Generated_Source\PSoC5/cyPm.c ****     CY_SET_REG8(CYREG_SC3_SW3 , 0u);
 272              		.loc 1 1661 5 view .LVU108
 273 012c 2B70     		strb	r3, [r5]
1662:Generated_Source\PSoC5/cyPm.c ****     CY_SET_REG8(CYREG_SC3_SW4 , 0u);
 274              		.loc 1 1662 5 view .LVU109
 275 012e 2370     		strb	r3, [r4]
1663:Generated_Source\PSoC5/cyPm.c ****     CY_SET_REG8(CYREG_SC3_SW6 , 0u);
ARM GAS  C:\Users\jens-\AppData\Local\Temp\ccih1T9a.s 			page 35


 276              		.loc 1 1663 5 view .LVU110
 277 0130 0370     		strb	r3, [r0]
1664:Generated_Source\PSoC5/cyPm.c ****     CY_SET_REG8(CYREG_SC3_SW8 , 0u);
 278              		.loc 1 1664 5 view .LVU111
 279 0132 0B70     		strb	r3, [r1]
1665:Generated_Source\PSoC5/cyPm.c ****     CY_SET_REG8(CYREG_SC3_SW10, 0u);
 280              		.loc 1 1665 5 view .LVU112
 281 0134 1732     		adds	r2, r2, #23
 282 0136 1370     		strb	r3, [r2]
1666:Generated_Source\PSoC5/cyPm.c **** 
1667:Generated_Source\PSoC5/cyPm.c **** 
1668:Generated_Source\PSoC5/cyPm.c ****     #if(CY_PSOC3)
1669:Generated_Source\PSoC5/cyPm.c **** 
1670:Generated_Source\PSoC5/cyPm.c ****         /* Serial Wire Viewer (SWV) workaround */
1671:Generated_Source\PSoC5/cyPm.c **** 
1672:Generated_Source\PSoC5/cyPm.c ****         /* Disable SWV before entering low power mode */
1673:Generated_Source\PSoC5/cyPm.c ****         if(0u != (CY_PM_MLOGIC_DBG_REG & CY_PM_MLOGIC_DBG_SWV_CLK_EN))
1674:Generated_Source\PSoC5/cyPm.c ****         {
1675:Generated_Source\PSoC5/cyPm.c ****             /* Save SWV clock enabled state */
1676:Generated_Source\PSoC5/cyPm.c ****             cyPmBackup.swvClkEnabled = CY_PM_ENABLED;
1677:Generated_Source\PSoC5/cyPm.c **** 
1678:Generated_Source\PSoC5/cyPm.c ****             /* Save current ports drive mode settings */
1679:Generated_Source\PSoC5/cyPm.c ****             cyPmBackup.prt1Dm = CY_PM_PRT1_PC3_REG & ((uint8)(~CY_PM_PRT1_PC3_DM_MASK));
1680:Generated_Source\PSoC5/cyPm.c **** 
1681:Generated_Source\PSoC5/cyPm.c ****             /* Set drive mode to strong output */
1682:Generated_Source\PSoC5/cyPm.c ****             CY_PM_PRT1_PC3_REG = (CY_PM_PRT1_PC3_REG & CY_PM_PRT1_PC3_DM_MASK) |
1683:Generated_Source\PSoC5/cyPm.c ****                                 CY_PM_PRT1_PC3_DM_STRONG;
1684:Generated_Source\PSoC5/cyPm.c **** 
1685:Generated_Source\PSoC5/cyPm.c ****             /* Disable SWV clocks */
1686:Generated_Source\PSoC5/cyPm.c ****             CY_PM_MLOGIC_DBG_REG &= ((uint8)(~CY_PM_MLOGIC_DBG_SWV_CLK_EN));
1687:Generated_Source\PSoC5/cyPm.c ****         }
1688:Generated_Source\PSoC5/cyPm.c ****         else
1689:Generated_Source\PSoC5/cyPm.c ****         {
1690:Generated_Source\PSoC5/cyPm.c ****             /* Save SWV clock disabled state */
1691:Generated_Source\PSoC5/cyPm.c ****             cyPmBackup.swvClkEnabled = CY_PM_DISABLED;
1692:Generated_Source\PSoC5/cyPm.c ****         }
1693:Generated_Source\PSoC5/cyPm.c **** 
1694:Generated_Source\PSoC5/cyPm.c ****     #endif  /* (CY_PSOC3) */
1695:Generated_Source\PSoC5/cyPm.c **** 
1696:Generated_Source\PSoC5/cyPm.c **** 
1697:Generated_Source\PSoC5/cyPm.c ****     /***************************************************************************
1698:Generated_Source\PSoC5/cyPm.c ****     * Save boost reference and set it to boost's internal by clearing the bit.
1699:Generated_Source\PSoC5/cyPm.c ****     * External (chip bandgap) reference is not available in Sleep and Hibernate.
1700:Generated_Source\PSoC5/cyPm.c ****     ***************************************************************************/
1701:Generated_Source\PSoC5/cyPm.c ****     if(0u != (CY_PM_BOOST_CR2_REG & CY_PM_BOOST_CR2_EREFSEL_EXT))
 283              		.loc 1 1701 5 view .LVU113
 284              		.loc 1 1701 15 is_stmt 0 view .LVU114
 285 0138 134B     		ldr	r3, .L5+36
 286 013a 1B78     		ldrb	r3, [r3]	@ zero_extendqisi2
 287              		.loc 1 1701 7 view .LVU115
 288 013c 13F0080F 		tst	r3, #8
 289 0140 0AD0     		beq	.L2
1702:Generated_Source\PSoC5/cyPm.c ****     {
1703:Generated_Source\PSoC5/cyPm.c ****         cyPmBackup.boostRefExt = CY_PM_ENABLED;
 290              		.loc 1 1703 9 is_stmt 1 view .LVU116
 291              		.loc 1 1703 32 is_stmt 0 view .LVU117
 292 0142 084B     		ldr	r3, .L5
ARM GAS  C:\Users\jens-\AppData\Local\Temp\ccih1T9a.s 			page 36


 293 0144 0122     		movs	r2, #1
 294 0146 83F82F20 		strb	r2, [r3, #47]
1704:Generated_Source\PSoC5/cyPm.c ****         CY_PM_BOOST_CR2_REG &= ((uint8)(~CY_PM_BOOST_CR2_EREFSEL_EXT));
 295              		.loc 1 1704 9 is_stmt 1 view .LVU118
 296              		.loc 1 1704 29 is_stmt 0 view .LVU119
 297 014a 0F4A     		ldr	r2, .L5+36
 298 014c 1378     		ldrb	r3, [r2]	@ zero_extendqisi2
 299 014e 03F0F703 		and	r3, r3, #247
 300 0152 1370     		strb	r3, [r2]
 301              	.L1:
1705:Generated_Source\PSoC5/cyPm.c ****     }
1706:Generated_Source\PSoC5/cyPm.c ****     else
1707:Generated_Source\PSoC5/cyPm.c ****     {
1708:Generated_Source\PSoC5/cyPm.c ****         cyPmBackup.boostRefExt = CY_PM_DISABLED;
1709:Generated_Source\PSoC5/cyPm.c ****     }
1710:Generated_Source\PSoC5/cyPm.c **** }
 302              		.loc 1 1710 1 view .LVU120
 303 0154 BDE8F08F 		pop	{r4, r5, r6, r7, r8, r9, r10, fp, pc}
 304              	.L2:
1708:Generated_Source\PSoC5/cyPm.c ****     }
 305              		.loc 1 1708 9 is_stmt 1 view .LVU121
1708:Generated_Source\PSoC5/cyPm.c ****     }
 306              		.loc 1 1708 32 is_stmt 0 view .LVU122
 307 0158 024B     		ldr	r3, .L5
 308 015a 0022     		movs	r2, #0
 309 015c 83F82F20 		strb	r2, [r3, #47]
 310              		.loc 1 1710 1 view .LVU123
 311 0160 F8E7     		b	.L1
 312              	.L6:
 313 0162 00BF     		.align	2
 314              	.L5:
 315 0164 00000000 		.word	.LANCHOR0
 316 0168 035A0040 		.word	1073764867
 317 016c 045A0040 		.word	1073764868
 318 0170 065A0040 		.word	1073764870
 319 0174 085A0040 		.word	1073764872
 320 0178 0A5A0040 		.word	1073764874
 321 017c 105A0040 		.word	1073764880
 322 0180 125A0040 		.word	1073764882
 323 0184 3A5A0040 		.word	1073764922
 324 0188 22430040 		.word	1073759010
 325 018c 005A0040 		.word	1073764864
 326 0190 025A0040 		.word	1073764866
 327 0194 245A0040 		.word	1073764900
 328 0198 265A0040 		.word	1073764902
 329 019c 285A0040 		.word	1073764904
 330 01a0 2A5A0040 		.word	1073764906
 331              		.cfi_endproc
 332              	.LFE12:
 333              		.size	CyPmHibSlpSaveSet, .-CyPmHibSlpSaveSet
 334              		.section	.text.CyPmHibSlpRestore,"ax",%progbits
 335              		.align	1
 336              		.syntax unified
 337              		.thumb
 338              		.thumb_func
 339              		.fpu softvfp
 340              		.type	CyPmHibSlpRestore, %function
ARM GAS  C:\Users\jens-\AppData\Local\Temp\ccih1T9a.s 			page 37


 341              	CyPmHibSlpRestore:
 342              	.LFB13:
1711:Generated_Source\PSoC5/cyPm.c **** 
1712:Generated_Source\PSoC5/cyPm.c **** 
1713:Generated_Source\PSoC5/cyPm.c **** /*******************************************************************************
1714:Generated_Source\PSoC5/cyPm.c **** * Function Name: CyPmHibSlpRestore
1715:Generated_Source\PSoC5/cyPm.c **** ****************************************************************************//**
1716:Generated_Source\PSoC5/cyPm.c **** *
1717:Generated_Source\PSoC5/cyPm.c **** *  This API is used for restoring the device configurations after wakeup from
1718:Generated_Source\PSoC5/cyPm.c **** *  the Sleep and Hibernate low power modes:
1719:Generated_Source\PSoC5/cyPm.c **** *  - Restores the SC/CT routing connections
1720:Generated_Source\PSoC5/cyPm.c **** *  - Restores the enable state of the Serial Wire Viewer (SWV) (PSoC 3)
1721:Generated_Source\PSoC5/cyPm.c **** *  - Restores the  boost reference selection
1722:Generated_Source\PSoC5/cyPm.c **** *
1723:Generated_Source\PSoC5/cyPm.c **** *******************************************************************************/
1724:Generated_Source\PSoC5/cyPm.c **** static void CyPmHibSlpRestore(void) 
1725:Generated_Source\PSoC5/cyPm.c **** {
 343              		.loc 1 1725 1 is_stmt 1 view -0
 344              		.cfi_startproc
 345              		@ args = 0, pretend = 0, frame = 0
 346              		@ frame_needed = 0, uses_anonymous_args = 0
 347              		@ link register save eliminated.
1726:Generated_Source\PSoC5/cyPm.c ****     /* Restore SC/CT routing registers */
1727:Generated_Source\PSoC5/cyPm.c ****     CY_SET_REG8(CYREG_SC0_SW0 , cyPmBackup.scctData[0u] );
 348              		.loc 1 1727 5 view .LVU125
 349 0000 334B     		ldr	r3, .L10
 350 0002 997A     		ldrb	r1, [r3, #10]	@ zero_extendqisi2
 351 0004 334A     		ldr	r2, .L10+4
 352 0006 1170     		strb	r1, [r2]
1728:Generated_Source\PSoC5/cyPm.c ****     CY_SET_REG8(CYREG_SC0_SW2 , cyPmBackup.scctData[1u] );
 353              		.loc 1 1728 5 view .LVU126
 354 0008 D97A     		ldrb	r1, [r3, #11]	@ zero_extendqisi2
 355 000a 0232     		adds	r2, r2, #2
 356 000c 1170     		strb	r1, [r2]
1729:Generated_Source\PSoC5/cyPm.c ****     CY_SET_REG8(CYREG_SC0_SW3 , cyPmBackup.scctData[2u] );
 357              		.loc 1 1729 5 view .LVU127
 358 000e 197B     		ldrb	r1, [r3, #12]	@ zero_extendqisi2
 359 0010 0132     		adds	r2, r2, #1
 360 0012 1170     		strb	r1, [r2]
1730:Generated_Source\PSoC5/cyPm.c ****     CY_SET_REG8(CYREG_SC0_SW4 , cyPmBackup.scctData[3u] );
 361              		.loc 1 1730 5 view .LVU128
 362 0014 597B     		ldrb	r1, [r3, #13]	@ zero_extendqisi2
 363 0016 0132     		adds	r2, r2, #1
 364 0018 1170     		strb	r1, [r2]
1731:Generated_Source\PSoC5/cyPm.c ****     CY_SET_REG8(CYREG_SC0_SW6 , cyPmBackup.scctData[4u] );
 365              		.loc 1 1731 5 view .LVU129
 366 001a 997B     		ldrb	r1, [r3, #14]	@ zero_extendqisi2
 367 001c 0232     		adds	r2, r2, #2
 368 001e 1170     		strb	r1, [r2]
1732:Generated_Source\PSoC5/cyPm.c ****     CY_SET_REG8(CYREG_SC0_SW8 , cyPmBackup.scctData[5u] );
 369              		.loc 1 1732 5 view .LVU130
 370 0020 D97B     		ldrb	r1, [r3, #15]	@ zero_extendqisi2
 371 0022 0232     		adds	r2, r2, #2
 372 0024 1170     		strb	r1, [r2]
1733:Generated_Source\PSoC5/cyPm.c ****     CY_SET_REG8(CYREG_SC0_SW10, cyPmBackup.scctData[6u] );
 373              		.loc 1 1733 5 view .LVU131
 374 0026 197C     		ldrb	r1, [r3, #16]	@ zero_extendqisi2
ARM GAS  C:\Users\jens-\AppData\Local\Temp\ccih1T9a.s 			page 38


 375 0028 0232     		adds	r2, r2, #2
 376 002a 1170     		strb	r1, [r2]
1734:Generated_Source\PSoC5/cyPm.c **** 
1735:Generated_Source\PSoC5/cyPm.c ****     CY_SET_REG8(CYREG_SC1_SW0 , cyPmBackup.scctData[7u] );
 377              		.loc 1 1735 5 view .LVU132
 378 002c 597C     		ldrb	r1, [r3, #17]	@ zero_extendqisi2
 379 002e 0632     		adds	r2, r2, #6
 380 0030 1170     		strb	r1, [r2]
1736:Generated_Source\PSoC5/cyPm.c ****     CY_SET_REG8(CYREG_SC1_SW2 , cyPmBackup.scctData[8u] );
 381              		.loc 1 1736 5 view .LVU133
 382 0032 997C     		ldrb	r1, [r3, #18]	@ zero_extendqisi2
 383 0034 0232     		adds	r2, r2, #2
 384 0036 1170     		strb	r1, [r2]
1737:Generated_Source\PSoC5/cyPm.c ****     CY_SET_REG8(CYREG_SC1_SW3 , cyPmBackup.scctData[9u] );
 385              		.loc 1 1737 5 view .LVU134
 386 0038 D97C     		ldrb	r1, [r3, #19]	@ zero_extendqisi2
 387 003a 0132     		adds	r2, r2, #1
 388 003c 1170     		strb	r1, [r2]
1738:Generated_Source\PSoC5/cyPm.c ****     CY_SET_REG8(CYREG_SC1_SW4 , cyPmBackup.scctData[10u]);
 389              		.loc 1 1738 5 view .LVU135
 390 003e 197D     		ldrb	r1, [r3, #20]	@ zero_extendqisi2
 391 0040 0132     		adds	r2, r2, #1
 392 0042 1170     		strb	r1, [r2]
1739:Generated_Source\PSoC5/cyPm.c ****     CY_SET_REG8(CYREG_SC1_SW6 , cyPmBackup.scctData[11u]);
 393              		.loc 1 1739 5 view .LVU136
 394 0044 597D     		ldrb	r1, [r3, #21]	@ zero_extendqisi2
 395 0046 0232     		adds	r2, r2, #2
 396 0048 1170     		strb	r1, [r2]
1740:Generated_Source\PSoC5/cyPm.c ****     CY_SET_REG8(CYREG_SC1_SW8 , cyPmBackup.scctData[12u]);
 397              		.loc 1 1740 5 view .LVU137
 398 004a 997D     		ldrb	r1, [r3, #22]	@ zero_extendqisi2
 399 004c 0232     		adds	r2, r2, #2
 400 004e 1170     		strb	r1, [r2]
1741:Generated_Source\PSoC5/cyPm.c ****     CY_SET_REG8(CYREG_SC1_SW10, cyPmBackup.scctData[13u]);
 401              		.loc 1 1741 5 view .LVU138
 402 0050 D97D     		ldrb	r1, [r3, #23]	@ zero_extendqisi2
 403 0052 0232     		adds	r2, r2, #2
 404 0054 1170     		strb	r1, [r2]
1742:Generated_Source\PSoC5/cyPm.c **** 
1743:Generated_Source\PSoC5/cyPm.c ****     CY_SET_REG8(CYREG_SC2_SW0 , cyPmBackup.scctData[14u]);
 405              		.loc 1 1743 5 view .LVU139
 406 0056 197E     		ldrb	r1, [r3, #24]	@ zero_extendqisi2
 407 0058 0632     		adds	r2, r2, #6
 408 005a 1170     		strb	r1, [r2]
1744:Generated_Source\PSoC5/cyPm.c ****     CY_SET_REG8(CYREG_SC2_SW2 , cyPmBackup.scctData[15u]);
 409              		.loc 1 1744 5 view .LVU140
 410 005c 597E     		ldrb	r1, [r3, #25]	@ zero_extendqisi2
 411 005e 0232     		adds	r2, r2, #2
 412 0060 1170     		strb	r1, [r2]
1745:Generated_Source\PSoC5/cyPm.c ****     CY_SET_REG8(CYREG_SC2_SW3 , cyPmBackup.scctData[16u]);
 413              		.loc 1 1745 5 view .LVU141
 414 0062 997E     		ldrb	r1, [r3, #26]	@ zero_extendqisi2
 415 0064 0132     		adds	r2, r2, #1
 416 0066 1170     		strb	r1, [r2]
1746:Generated_Source\PSoC5/cyPm.c ****     CY_SET_REG8(CYREG_SC2_SW4 , cyPmBackup.scctData[17u]);
 417              		.loc 1 1746 5 view .LVU142
 418 0068 D97E     		ldrb	r1, [r3, #27]	@ zero_extendqisi2
ARM GAS  C:\Users\jens-\AppData\Local\Temp\ccih1T9a.s 			page 39


 419 006a 0132     		adds	r2, r2, #1
 420 006c 1170     		strb	r1, [r2]
1747:Generated_Source\PSoC5/cyPm.c ****     CY_SET_REG8(CYREG_SC2_SW6 , cyPmBackup.scctData[18u]);
 421              		.loc 1 1747 5 view .LVU143
 422 006e 197F     		ldrb	r1, [r3, #28]	@ zero_extendqisi2
 423 0070 0232     		adds	r2, r2, #2
 424 0072 1170     		strb	r1, [r2]
1748:Generated_Source\PSoC5/cyPm.c ****     CY_SET_REG8(CYREG_SC2_SW8 , cyPmBackup.scctData[19u]);
 425              		.loc 1 1748 5 view .LVU144
 426 0074 597F     		ldrb	r1, [r3, #29]	@ zero_extendqisi2
 427 0076 0232     		adds	r2, r2, #2
 428 0078 1170     		strb	r1, [r2]
1749:Generated_Source\PSoC5/cyPm.c ****     CY_SET_REG8(CYREG_SC2_SW10, cyPmBackup.scctData[20u]);
 429              		.loc 1 1749 5 view .LVU145
 430 007a 997F     		ldrb	r1, [r3, #30]	@ zero_extendqisi2
 431 007c 0232     		adds	r2, r2, #2
 432 007e 1170     		strb	r1, [r2]
1750:Generated_Source\PSoC5/cyPm.c **** 
1751:Generated_Source\PSoC5/cyPm.c ****     CY_SET_REG8(CYREG_SC3_SW0 , cyPmBackup.scctData[21u]);
 433              		.loc 1 1751 5 view .LVU146
 434 0080 D97F     		ldrb	r1, [r3, #31]	@ zero_extendqisi2
 435 0082 0632     		adds	r2, r2, #6
 436 0084 1170     		strb	r1, [r2]
1752:Generated_Source\PSoC5/cyPm.c ****     CY_SET_REG8(CYREG_SC3_SW2 , cyPmBackup.scctData[22u]);
 437              		.loc 1 1752 5 view .LVU147
 438 0086 93F82010 		ldrb	r1, [r3, #32]	@ zero_extendqisi2
 439 008a 0232     		adds	r2, r2, #2
 440 008c 1170     		strb	r1, [r2]
1753:Generated_Source\PSoC5/cyPm.c ****     CY_SET_REG8(CYREG_SC3_SW3 , cyPmBackup.scctData[23u]);
 441              		.loc 1 1753 5 view .LVU148
 442 008e 93F82110 		ldrb	r1, [r3, #33]	@ zero_extendqisi2
 443 0092 0132     		adds	r2, r2, #1
 444 0094 1170     		strb	r1, [r2]
1754:Generated_Source\PSoC5/cyPm.c ****     CY_SET_REG8(CYREG_SC3_SW4 , cyPmBackup.scctData[24u]);
 445              		.loc 1 1754 5 view .LVU149
 446 0096 93F82210 		ldrb	r1, [r3, #34]	@ zero_extendqisi2
 447 009a 0132     		adds	r2, r2, #1
 448 009c 1170     		strb	r1, [r2]
1755:Generated_Source\PSoC5/cyPm.c ****     CY_SET_REG8(CYREG_SC3_SW6 , cyPmBackup.scctData[25u]);
 449              		.loc 1 1755 5 view .LVU150
 450 009e 93F82310 		ldrb	r1, [r3, #35]	@ zero_extendqisi2
 451 00a2 0232     		adds	r2, r2, #2
 452 00a4 1170     		strb	r1, [r2]
1756:Generated_Source\PSoC5/cyPm.c ****     CY_SET_REG8(CYREG_SC3_SW8 , cyPmBackup.scctData[26u]);
 453              		.loc 1 1756 5 view .LVU151
 454 00a6 93F82410 		ldrb	r1, [r3, #36]	@ zero_extendqisi2
 455 00aa 0232     		adds	r2, r2, #2
 456 00ac 1170     		strb	r1, [r2]
1757:Generated_Source\PSoC5/cyPm.c ****     CY_SET_REG8(CYREG_SC3_SW10, cyPmBackup.scctData[27u]);
 457              		.loc 1 1757 5 view .LVU152
 458 00ae 93F82510 		ldrb	r1, [r3, #37]	@ zero_extendqisi2
 459 00b2 0232     		adds	r2, r2, #2
 460 00b4 1170     		strb	r1, [r2]
1758:Generated_Source\PSoC5/cyPm.c **** 
1759:Generated_Source\PSoC5/cyPm.c **** 
1760:Generated_Source\PSoC5/cyPm.c ****     #if(CY_PSOC3)
1761:Generated_Source\PSoC5/cyPm.c **** 
ARM GAS  C:\Users\jens-\AppData\Local\Temp\ccih1T9a.s 			page 40


1762:Generated_Source\PSoC5/cyPm.c ****         /* Serial Wire Viewer (SWV) workaround */
1763:Generated_Source\PSoC5/cyPm.c ****         if(CY_PM_ENABLED == cyPmBackup.swvClkEnabled)
1764:Generated_Source\PSoC5/cyPm.c ****         {
1765:Generated_Source\PSoC5/cyPm.c ****             /* Restore ports drive mode */
1766:Generated_Source\PSoC5/cyPm.c ****             CY_PM_PRT1_PC3_REG = (CY_PM_PRT1_PC3_REG & CY_PM_PRT1_PC3_DM_MASK) |
1767:Generated_Source\PSoC5/cyPm.c ****                                     cyPmBackup.prt1Dm;
1768:Generated_Source\PSoC5/cyPm.c **** 
1769:Generated_Source\PSoC5/cyPm.c ****             /* Enable SWV clocks */
1770:Generated_Source\PSoC5/cyPm.c ****             CY_PM_MLOGIC_DBG_REG |= CY_PM_MLOGIC_DBG_SWV_CLK_EN;
1771:Generated_Source\PSoC5/cyPm.c ****         }
1772:Generated_Source\PSoC5/cyPm.c **** 
1773:Generated_Source\PSoC5/cyPm.c ****     #endif /* (CY_PSOC3) */
1774:Generated_Source\PSoC5/cyPm.c **** 
1775:Generated_Source\PSoC5/cyPm.c **** 
1776:Generated_Source\PSoC5/cyPm.c ****     /* Restore boost reference */
1777:Generated_Source\PSoC5/cyPm.c ****     if(CY_PM_ENABLED == cyPmBackup.boostRefExt)
 461              		.loc 1 1777 5 view .LVU153
 462              		.loc 1 1777 35 is_stmt 0 view .LVU154
 463 00b6 93F82F30 		ldrb	r3, [r3, #47]	@ zero_extendqisi2
 464              		.loc 1 1777 7 view .LVU155
 465 00ba 012B     		cmp	r3, #1
 466 00bc 00D0     		beq	.L9
 467              	.L7:
1778:Generated_Source\PSoC5/cyPm.c ****     {
1779:Generated_Source\PSoC5/cyPm.c ****         CY_PM_BOOST_CR2_REG |= CY_PM_BOOST_CR2_EREFSEL_EXT;
1780:Generated_Source\PSoC5/cyPm.c ****     }
1781:Generated_Source\PSoC5/cyPm.c **** }
 468              		.loc 1 1781 1 view .LVU156
 469 00be 7047     		bx	lr
 470              	.L9:
1779:Generated_Source\PSoC5/cyPm.c ****     }
 471              		.loc 1 1779 9 is_stmt 1 view .LVU157
1779:Generated_Source\PSoC5/cyPm.c ****     }
 472              		.loc 1 1779 29 is_stmt 0 view .LVU158
 473 00c0 A2F5B852 		sub	r2, r2, #5888
 474 00c4 183A     		subs	r2, r2, #24
 475 00c6 1378     		ldrb	r3, [r2]	@ zero_extendqisi2
 476 00c8 43F00803 		orr	r3, r3, #8
 477 00cc 1370     		strb	r3, [r2]
 478              		.loc 1 1781 1 view .LVU159
 479 00ce F6E7     		b	.L7
 480              	.L11:
 481              		.align	2
 482              	.L10:
 483 00d0 00000000 		.word	.LANCHOR0
 484 00d4 005A0040 		.word	1073764864
 485              		.cfi_endproc
 486              	.LFE13:
 487              		.size	CyPmHibSlpRestore, .-CyPmHibSlpRestore
 488              		.section	.text.CyPmHviLviSaveDisable,"ax",%progbits
 489              		.align	1
 490              		.syntax unified
 491              		.thumb
 492              		.thumb_func
 493              		.fpu softvfp
 494              		.type	CyPmHviLviSaveDisable, %function
 495              	CyPmHviLviSaveDisable:
ARM GAS  C:\Users\jens-\AppData\Local\Temp\ccih1T9a.s 			page 41


 496              	.LFB14:
1782:Generated_Source\PSoC5/cyPm.c **** 
1783:Generated_Source\PSoC5/cyPm.c **** 
1784:Generated_Source\PSoC5/cyPm.c **** /*******************************************************************************
1785:Generated_Source\PSoC5/cyPm.c **** * Function Name: CyPmHviLviSaveDisable
1786:Generated_Source\PSoC5/cyPm.c **** ****************************************************************************//**
1787:Generated_Source\PSoC5/cyPm.c **** *
1788:Generated_Source\PSoC5/cyPm.c **** *  Saves analog and digital LVI and HVI configuration and disables them.
1789:Generated_Source\PSoC5/cyPm.c **** *
1790:Generated_Source\PSoC5/cyPm.c **** * Reentrant:
1791:Generated_Source\PSoC5/cyPm.c **** *  No
1792:Generated_Source\PSoC5/cyPm.c **** *
1793:Generated_Source\PSoC5/cyPm.c **** *******************************************************************************/
1794:Generated_Source\PSoC5/cyPm.c **** static void CyPmHviLviSaveDisable(void) 
1795:Generated_Source\PSoC5/cyPm.c **** {
 497              		.loc 1 1795 1 is_stmt 1 view -0
 498              		.cfi_startproc
 499              		@ args = 0, pretend = 0, frame = 0
 500              		@ frame_needed = 0, uses_anonymous_args = 0
 501 0000 08B5     		push	{r3, lr}
 502              		.cfi_def_cfa_offset 8
 503              		.cfi_offset 3, -8
 504              		.cfi_offset 14, -4
1796:Generated_Source\PSoC5/cyPm.c ****     if(0u != (CY_VD_LVI_HVI_CONTROL_REG & CY_VD_LVID_EN))
 505              		.loc 1 1796 5 view .LVU161
 506              		.loc 1 1796 15 is_stmt 0 view .LVU162
 507 0002 234B     		ldr	r3, .L23
 508 0004 1B78     		ldrb	r3, [r3]	@ zero_extendqisi2
 509              		.loc 1 1796 7 view .LVU163
 510 0006 13F0010F 		tst	r3, #1
 511 000a 16D1     		bne	.L20
1797:Generated_Source\PSoC5/cyPm.c ****     {
1798:Generated_Source\PSoC5/cyPm.c ****         cyPmBackup.lvidEn = CY_PM_ENABLED;
1799:Generated_Source\PSoC5/cyPm.c ****         cyPmBackup.lvidTrip = CY_VD_LVI_TRIP_REG & CY_VD_LVI_TRIP_LVID_MASK;
1800:Generated_Source\PSoC5/cyPm.c **** 
1801:Generated_Source\PSoC5/cyPm.c ****         /* Save state of reset device at specified Vddd threshold */
1802:Generated_Source\PSoC5/cyPm.c ****         cyPmBackup.lvidRst = (0u == (CY_VD_PRES_CONTROL_REG & CY_VD_PRESD_EN)) ? \
1803:Generated_Source\PSoC5/cyPm.c ****                              CY_PM_DISABLED : CY_PM_ENABLED;
1804:Generated_Source\PSoC5/cyPm.c **** 
1805:Generated_Source\PSoC5/cyPm.c ****         CyVdLvDigitDisable();
1806:Generated_Source\PSoC5/cyPm.c ****     }
1807:Generated_Source\PSoC5/cyPm.c ****     else
1808:Generated_Source\PSoC5/cyPm.c ****     {
1809:Generated_Source\PSoC5/cyPm.c ****         cyPmBackup.lvidEn = CY_PM_DISABLED;
 512              		.loc 1 1809 9 is_stmt 1 view .LVU164
 513              		.loc 1 1809 27 is_stmt 0 view .LVU165
 514 000c 214B     		ldr	r3, .L23+4
 515 000e 0022     		movs	r2, #0
 516 0010 83F82620 		strb	r2, [r3, #38]
 517              	.L14:
1810:Generated_Source\PSoC5/cyPm.c ****     }
1811:Generated_Source\PSoC5/cyPm.c **** 
1812:Generated_Source\PSoC5/cyPm.c ****     if(0u != (CY_VD_LVI_HVI_CONTROL_REG & CY_VD_LVIA_EN))
 518              		.loc 1 1812 5 is_stmt 1 view .LVU166
 519              		.loc 1 1812 15 is_stmt 0 view .LVU167
 520 0014 1E4B     		ldr	r3, .L23
 521 0016 1B78     		ldrb	r3, [r3]	@ zero_extendqisi2
ARM GAS  C:\Users\jens-\AppData\Local\Temp\ccih1T9a.s 			page 42


 522              		.loc 1 1812 7 view .LVU168
 523 0018 13F0020F 		tst	r3, #2
 524 001c 20D1     		bne	.L21
1813:Generated_Source\PSoC5/cyPm.c ****     {
1814:Generated_Source\PSoC5/cyPm.c ****         cyPmBackup.lviaEn = CY_PM_ENABLED;
1815:Generated_Source\PSoC5/cyPm.c ****         cyPmBackup.lviaTrip = CY_VD_LVI_TRIP_REG >> 4u;
1816:Generated_Source\PSoC5/cyPm.c **** 
1817:Generated_Source\PSoC5/cyPm.c ****         /* Save state of reset device at specified Vdda threshold */
1818:Generated_Source\PSoC5/cyPm.c ****         cyPmBackup.lviaRst = (0u == (CY_VD_PRES_CONTROL_REG & CY_VD_PRESA_EN)) ? \
1819:Generated_Source\PSoC5/cyPm.c ****                              CY_PM_DISABLED : CY_PM_ENABLED;
1820:Generated_Source\PSoC5/cyPm.c **** 
1821:Generated_Source\PSoC5/cyPm.c ****         CyVdLvAnalogDisable();
1822:Generated_Source\PSoC5/cyPm.c ****     }
1823:Generated_Source\PSoC5/cyPm.c ****     else
1824:Generated_Source\PSoC5/cyPm.c ****     {
1825:Generated_Source\PSoC5/cyPm.c ****         cyPmBackup.lviaEn = CY_PM_DISABLED;
 525              		.loc 1 1825 9 is_stmt 1 view .LVU169
 526              		.loc 1 1825 27 is_stmt 0 view .LVU170
 527 001e 1D4B     		ldr	r3, .L23+4
 528 0020 0022     		movs	r2, #0
 529 0022 83F82820 		strb	r2, [r3, #40]
 530              	.L16:
1826:Generated_Source\PSoC5/cyPm.c ****     }
1827:Generated_Source\PSoC5/cyPm.c **** 
1828:Generated_Source\PSoC5/cyPm.c ****     if(0u != (CY_VD_LVI_HVI_CONTROL_REG & CY_VD_HVIA_EN))
 531              		.loc 1 1828 5 is_stmt 1 view .LVU171
 532              		.loc 1 1828 15 is_stmt 0 view .LVU172
 533 0026 1A4B     		ldr	r3, .L23
 534 0028 1B78     		ldrb	r3, [r3]	@ zero_extendqisi2
 535              		.loc 1 1828 7 view .LVU173
 536 002a 13F0040F 		tst	r3, #4
 537 002e 28D1     		bne	.L22
1829:Generated_Source\PSoC5/cyPm.c ****     {
1830:Generated_Source\PSoC5/cyPm.c ****         cyPmBackup.hviaEn = CY_PM_ENABLED;
1831:Generated_Source\PSoC5/cyPm.c ****         CyVdHvAnalogDisable();
1832:Generated_Source\PSoC5/cyPm.c ****     }
1833:Generated_Source\PSoC5/cyPm.c ****     else
1834:Generated_Source\PSoC5/cyPm.c ****     {
1835:Generated_Source\PSoC5/cyPm.c ****         cyPmBackup.hviaEn = CY_PM_DISABLED;
 538              		.loc 1 1835 9 is_stmt 1 view .LVU174
 539              		.loc 1 1835 27 is_stmt 0 view .LVU175
 540 0030 184B     		ldr	r3, .L23+4
 541 0032 0022     		movs	r2, #0
 542 0034 83F82A20 		strb	r2, [r3, #42]
 543              	.L12:
1836:Generated_Source\PSoC5/cyPm.c ****     }
1837:Generated_Source\PSoC5/cyPm.c **** }
 544              		.loc 1 1837 1 view .LVU176
 545 0038 08BD     		pop	{r3, pc}
 546              	.L20:
1798:Generated_Source\PSoC5/cyPm.c ****         cyPmBackup.lvidTrip = CY_VD_LVI_TRIP_REG & CY_VD_LVI_TRIP_LVID_MASK;
 547              		.loc 1 1798 9 is_stmt 1 view .LVU177
1798:Generated_Source\PSoC5/cyPm.c ****         cyPmBackup.lvidTrip = CY_VD_LVI_TRIP_REG & CY_VD_LVI_TRIP_LVID_MASK;
 548              		.loc 1 1798 27 is_stmt 0 view .LVU178
 549 003a 164B     		ldr	r3, .L23+4
 550 003c 0122     		movs	r2, #1
 551 003e 83F82620 		strb	r2, [r3, #38]
ARM GAS  C:\Users\jens-\AppData\Local\Temp\ccih1T9a.s 			page 43


1799:Generated_Source\PSoC5/cyPm.c **** 
 552              		.loc 1 1799 9 is_stmt 1 view .LVU179
1799:Generated_Source\PSoC5/cyPm.c **** 
 553              		.loc 1 1799 31 is_stmt 0 view .LVU180
 554 0042 154A     		ldr	r2, .L23+8
 555 0044 1278     		ldrb	r2, [r2]	@ zero_extendqisi2
1799:Generated_Source\PSoC5/cyPm.c **** 
 556              		.loc 1 1799 50 view .LVU181
 557 0046 02F00F02 		and	r2, r2, #15
1799:Generated_Source\PSoC5/cyPm.c **** 
 558              		.loc 1 1799 29 view .LVU182
 559 004a 83F82720 		strb	r2, [r3, #39]
1802:Generated_Source\PSoC5/cyPm.c ****                              CY_PM_DISABLED : CY_PM_ENABLED;
 560              		.loc 1 1802 9 is_stmt 1 view .LVU183
1802:Generated_Source\PSoC5/cyPm.c ****                              CY_PM_DISABLED : CY_PM_ENABLED;
 561              		.loc 1 1802 38 is_stmt 0 view .LVU184
 562 004e 134A     		ldr	r2, .L23+12
 563 0050 1278     		ldrb	r2, [r2]	@ zero_extendqisi2
1803:Generated_Source\PSoC5/cyPm.c **** 
 564              		.loc 1 1803 45 view .LVU185
 565 0052 C2F38012 		ubfx	r2, r2, #6, #1
1802:Generated_Source\PSoC5/cyPm.c ****                              CY_PM_DISABLED : CY_PM_ENABLED;
 566              		.loc 1 1802 28 view .LVU186
 567 0056 83F82B20 		strb	r2, [r3, #43]
1805:Generated_Source\PSoC5/cyPm.c ****     }
 568              		.loc 1 1805 9 is_stmt 1 view .LVU187
 569 005a FFF7FEFF 		bl	CyVdLvDigitDisable
 570              	.LVL0:
 571 005e D9E7     		b	.L14
 572              	.L21:
1814:Generated_Source\PSoC5/cyPm.c ****         cyPmBackup.lviaTrip = CY_VD_LVI_TRIP_REG >> 4u;
 573              		.loc 1 1814 9 view .LVU188
1814:Generated_Source\PSoC5/cyPm.c ****         cyPmBackup.lviaTrip = CY_VD_LVI_TRIP_REG >> 4u;
 574              		.loc 1 1814 27 is_stmt 0 view .LVU189
 575 0060 0C4B     		ldr	r3, .L23+4
 576 0062 0122     		movs	r2, #1
 577 0064 83F82820 		strb	r2, [r3, #40]
1815:Generated_Source\PSoC5/cyPm.c **** 
 578              		.loc 1 1815 9 is_stmt 1 view .LVU190
1815:Generated_Source\PSoC5/cyPm.c **** 
 579              		.loc 1 1815 31 is_stmt 0 view .LVU191
 580 0068 0B4A     		ldr	r2, .L23+8
 581 006a 1278     		ldrb	r2, [r2]	@ zero_extendqisi2
1815:Generated_Source\PSoC5/cyPm.c **** 
 582              		.loc 1 1815 29 view .LVU192
 583 006c 1209     		lsrs	r2, r2, #4
 584 006e 83F82920 		strb	r2, [r3, #41]
1818:Generated_Source\PSoC5/cyPm.c ****                              CY_PM_DISABLED : CY_PM_ENABLED;
 585              		.loc 1 1818 9 is_stmt 1 view .LVU193
1818:Generated_Source\PSoC5/cyPm.c ****                              CY_PM_DISABLED : CY_PM_ENABLED;
 586              		.loc 1 1818 38 is_stmt 0 view .LVU194
 587 0072 0A4A     		ldr	r2, .L23+12
 588 0074 1278     		ldrb	r2, [r2]	@ zero_extendqisi2
1819:Generated_Source\PSoC5/cyPm.c **** 
 589              		.loc 1 1819 45 view .LVU195
 590 0076 D209     		lsrs	r2, r2, #7
1818:Generated_Source\PSoC5/cyPm.c ****                              CY_PM_DISABLED : CY_PM_ENABLED;
ARM GAS  C:\Users\jens-\AppData\Local\Temp\ccih1T9a.s 			page 44


 591              		.loc 1 1818 28 view .LVU196
 592 0078 83F82C20 		strb	r2, [r3, #44]
1821:Generated_Source\PSoC5/cyPm.c ****     }
 593              		.loc 1 1821 9 is_stmt 1 view .LVU197
 594 007c FFF7FEFF 		bl	CyVdLvAnalogDisable
 595              	.LVL1:
 596 0080 D1E7     		b	.L16
 597              	.L22:
1830:Generated_Source\PSoC5/cyPm.c ****         CyVdHvAnalogDisable();
 598              		.loc 1 1830 9 view .LVU198
1830:Generated_Source\PSoC5/cyPm.c ****         CyVdHvAnalogDisable();
 599              		.loc 1 1830 27 is_stmt 0 view .LVU199
 600 0082 044B     		ldr	r3, .L23+4
 601 0084 0122     		movs	r2, #1
 602 0086 83F82A20 		strb	r2, [r3, #42]
1831:Generated_Source\PSoC5/cyPm.c ****     }
 603              		.loc 1 1831 9 is_stmt 1 view .LVU200
 604 008a FFF7FEFF 		bl	CyVdHvAnalogDisable
 605              	.LVL2:
 606 008e D3E7     		b	.L12
 607              	.L24:
 608              		.align	2
 609              	.L23:
 610 0090 F5460040 		.word	1073759989
 611 0094 00000000 		.word	.LANCHOR0
 612 0098 F4460040 		.word	1073759988
 613 009c F7460040 		.word	1073759991
 614              		.cfi_endproc
 615              	.LFE14:
 616              		.size	CyPmHviLviSaveDisable, .-CyPmHviLviSaveDisable
 617              		.section	.text.CyPmHibSaveSet,"ax",%progbits
 618              		.align	1
 619              		.syntax unified
 620              		.thumb
 621              		.thumb_func
 622              		.fpu softvfp
 623              		.type	CyPmHibSaveSet, %function
 624              	CyPmHibSaveSet:
 625              	.LFB7:
1323:Generated_Source\PSoC5/cyPm.c ****     /* I2C backup reg must be off when the sleep regulator is unavailable */
 626              		.loc 1 1323 1 view -0
 627              		.cfi_startproc
 628              		@ args = 0, pretend = 0, frame = 0
 629              		@ frame_needed = 0, uses_anonymous_args = 0
 630 0000 10B5     		push	{r4, lr}
 631              		.cfi_def_cfa_offset 8
 632              		.cfi_offset 4, -8
 633              		.cfi_offset 14, -4
1325:Generated_Source\PSoC5/cyPm.c ****     {
 634              		.loc 1 1325 5 view .LVU202
1325:Generated_Source\PSoC5/cyPm.c ****     {
 635              		.loc 1 1325 15 is_stmt 0 view .LVU203
 636 0002 1E4B     		ldr	r3, .L30
 637 0004 1B78     		ldrb	r3, [r3]	@ zero_extendqisi2
1325:Generated_Source\PSoC5/cyPm.c ****     {
 638              		.loc 1 1325 7 view .LVU204
 639 0006 13F0040F 		tst	r3, #4
ARM GAS  C:\Users\jens-\AppData\Local\Temp\ccih1T9a.s 			page 45


 640 000a 04D0     		beq	.L26
1339:Generated_Source\PSoC5/cyPm.c ****     }
 641              		.loc 1 1339 9 is_stmt 1 view .LVU205
1339:Generated_Source\PSoC5/cyPm.c ****     }
 642              		.loc 1 1339 30 is_stmt 0 view .LVU206
 643 000c 1B4A     		ldr	r2, .L30
 644 000e 1378     		ldrb	r3, [r2]	@ zero_extendqisi2
 645 0010 03F0FB03 		and	r3, r3, #251
 646 0014 1370     		strb	r3, [r2]
 647              	.L26:
1344:Generated_Source\PSoC5/cyPm.c **** 
 648              		.loc 1 1344 5 is_stmt 1 view .LVU207
1344:Generated_Source\PSoC5/cyPm.c **** 
 649              		.loc 1 1344 31 is_stmt 0 view .LVU208
 650 0016 0120     		movs	r0, #1
 651 0018 FFF7FEFF 		bl	CyILO_SetPowerMode
 652              	.LVL3:
1344:Generated_Source\PSoC5/cyPm.c **** 
 653              		.loc 1 1344 29 view .LVU209
 654 001c 184B     		ldr	r3, .L30+4
 655 001e 1870     		strb	r0, [r3]
1347:Generated_Source\PSoC5/cyPm.c ****                                 CY_PM_DISABLED : CY_PM_ENABLED;
 656              		.loc 1 1347 5 is_stmt 1 view .LVU210
1347:Generated_Source\PSoC5/cyPm.c ****                                 CY_PM_DISABLED : CY_PM_ENABLED;
 657              		.loc 1 1347 38 is_stmt 0 view .LVU211
 658 0020 1849     		ldr	r1, .L30+8
 659 0022 0A78     		ldrb	r2, [r1]	@ zero_extendqisi2
1348:Generated_Source\PSoC5/cyPm.c **** 
 660              		.loc 1 1348 48 view .LVU212
 661 0024 C2F34002 		ubfx	r2, r2, #1, #1
1347:Generated_Source\PSoC5/cyPm.c ****                                 CY_PM_DISABLED : CY_PM_ENABLED;
 662              		.loc 1 1347 28 view .LVU213
 663 0028 5A70     		strb	r2, [r3, #1]
1351:Generated_Source\PSoC5/cyPm.c ****                                 CY_PM_DISABLED : CY_PM_ENABLED;
 664              		.loc 1 1351 5 is_stmt 1 view .LVU214
1351:Generated_Source\PSoC5/cyPm.c ****                                 CY_PM_DISABLED : CY_PM_ENABLED;
 665              		.loc 1 1351 40 is_stmt 0 view .LVU215
 666 002a 0A78     		ldrb	r2, [r1]	@ zero_extendqisi2
1352:Generated_Source\PSoC5/cyPm.c **** 
 667              		.loc 1 1352 48 view .LVU216
 668 002c C2F38002 		ubfx	r2, r2, #2, #1
1351:Generated_Source\PSoC5/cyPm.c ****                                 CY_PM_DISABLED : CY_PM_ENABLED;
 669              		.loc 1 1351 30 view .LVU217
 670 0030 9A70     		strb	r2, [r3, #2]
1356:Generated_Source\PSoC5/cyPm.c ****     {
 671              		.loc 1 1356 5 is_stmt 1 view .LVU218
1356:Generated_Source\PSoC5/cyPm.c ****     {
 672              		.loc 1 1356 15 is_stmt 0 view .LVU219
 673 0032 154B     		ldr	r3, .L30+12
 674 0034 1B78     		ldrb	r3, [r3]	@ zero_extendqisi2
1356:Generated_Source\PSoC5/cyPm.c ****     {
 675              		.loc 1 1356 7 view .LVU220
 676 0036 13F0100F 		tst	r3, #16
 677 003a 1BD1     		bne	.L27
1359:Generated_Source\PSoC5/cyPm.c ****         CY_PM_PWRSYS_SLP_TR_REG |= CY_PM_PWRSYS_SLP_TR_BYPASS;
 678              		.loc 1 1359 9 is_stmt 1 view .LVU221
1359:Generated_Source\PSoC5/cyPm.c ****         CY_PM_PWRSYS_SLP_TR_REG |= CY_PM_PWRSYS_SLP_TR_BYPASS;
ARM GAS  C:\Users\jens-\AppData\Local\Temp\ccih1T9a.s 			page 46


 679              		.loc 1 1359 32 is_stmt 0 view .LVU222
 680 003c 104B     		ldr	r3, .L30+4
 681 003e 0022     		movs	r2, #0
 682 0040 DA70     		strb	r2, [r3, #3]
1360:Generated_Source\PSoC5/cyPm.c ****     }
 683              		.loc 1 1360 9 is_stmt 1 view .LVU223
1360:Generated_Source\PSoC5/cyPm.c ****     }
 684              		.loc 1 1360 33 is_stmt 0 view .LVU224
 685 0042 114A     		ldr	r2, .L30+12
 686 0044 1378     		ldrb	r3, [r2]	@ zero_extendqisi2
 687 0046 43F01003 		orr	r3, r3, #16
 688 004a 1370     		strb	r3, [r2]
 689              	.L28:
1375:Generated_Source\PSoC5/cyPm.c **** 
 690              		.loc 1 1375 5 is_stmt 1 view .LVU225
 691 004c FFF7FEFF 		bl	CyPmHviLviSaveDisable
 692              	.LVL4:
1379:Generated_Source\PSoC5/cyPm.c **** 
 693              		.loc 1 1379 5 view .LVU226
 694 0050 FFF7FEFF 		bl	CyPmHibSlpSaveSet
 695              	.LVL5:
1385:Generated_Source\PSoC5/cyPm.c ****     cyPmBackup.wakeupTrim1 = CY_PM_PWRSYS_WAKE_TR1_REG;
 696              		.loc 1 1385 5 view .LVU227
1385:Generated_Source\PSoC5/cyPm.c ****     cyPmBackup.wakeupTrim1 = CY_PM_PWRSYS_WAKE_TR1_REG;
 697              		.loc 1 1385 30 is_stmt 0 view .LVU228
 698 0054 0D48     		ldr	r0, .L30+16
 699 0056 0278     		ldrb	r2, [r0]	@ zero_extendqisi2
1385:Generated_Source\PSoC5/cyPm.c ****     cyPmBackup.wakeupTrim1 = CY_PM_PWRSYS_WAKE_TR1_REG;
 700              		.loc 1 1385 28 view .LVU229
 701 0058 094B     		ldr	r3, .L30+4
 702 005a DA71     		strb	r2, [r3, #7]
1386:Generated_Source\PSoC5/cyPm.c ****     
 703              		.loc 1 1386 5 is_stmt 1 view .LVU230
1386:Generated_Source\PSoC5/cyPm.c ****     
 704              		.loc 1 1386 30 is_stmt 0 view .LVU231
 705 005c 0C49     		ldr	r1, .L30+20
 706 005e 0A78     		ldrb	r2, [r1]	@ zero_extendqisi2
1386:Generated_Source\PSoC5/cyPm.c ****     
 707              		.loc 1 1386 28 view .LVU232
 708 0060 1A72     		strb	r2, [r3, #8]
1389:Generated_Source\PSoC5/cyPm.c ****     #endif  /* (CY_PSOC5) */    
 709              		.loc 1 1389 9 is_stmt 1 view .LVU233
1389:Generated_Source\PSoC5/cyPm.c ****     #endif  /* (CY_PSOC5) */    
 710              		.loc 1 1389 34 is_stmt 0 view .LVU234
 711 0062 0C4A     		ldr	r2, .L30+24
 712 0064 1478     		ldrb	r4, [r2]	@ zero_extendqisi2
1389:Generated_Source\PSoC5/cyPm.c ****     #endif  /* (CY_PSOC5) */    
 713              		.loc 1 1389 32 view .LVU235
 714 0066 5C72     		strb	r4, [r3, #9]
1392:Generated_Source\PSoC5/cyPm.c ****     CY_PM_PWRSYS_WAKE_TR1_REG = CY_PM_PWRSYS_WAKE_TR1;
 715              		.loc 1 1392 5 is_stmt 1 view .LVU236
1392:Generated_Source\PSoC5/cyPm.c ****     CY_PM_PWRSYS_WAKE_TR1_REG = CY_PM_PWRSYS_WAKE_TR1;
 716              		.loc 1 1392 31 is_stmt 0 view .LVU237
 717 0068 FF23     		movs	r3, #255
 718 006a 0370     		strb	r3, [r0]
1393:Generated_Source\PSoC5/cyPm.c ****     
 719              		.loc 1 1393 5 is_stmt 1 view .LVU238
ARM GAS  C:\Users\jens-\AppData\Local\Temp\ccih1T9a.s 			page 47


1393:Generated_Source\PSoC5/cyPm.c ****     
 720              		.loc 1 1393 31 is_stmt 0 view .LVU239
 721 006c B020     		movs	r0, #176
 722 006e 0870     		strb	r0, [r1]
1396:Generated_Source\PSoC5/cyPm.c ****     #endif  /* (CY_PSOC5) */    
 723              		.loc 1 1396 9 is_stmt 1 view .LVU240
1396:Generated_Source\PSoC5/cyPm.c ****     #endif  /* (CY_PSOC5) */    
 724              		.loc 1 1396 35 is_stmt 0 view .LVU241
 725 0070 1370     		strb	r3, [r2]
1398:Generated_Source\PSoC5/cyPm.c **** 
 726              		.loc 1 1398 1 view .LVU242
 727 0072 10BD     		pop	{r4, pc}
 728              	.L27:
1364:Generated_Source\PSoC5/cyPm.c ****     }
 729              		.loc 1 1364 9 is_stmt 1 view .LVU243
1364:Generated_Source\PSoC5/cyPm.c ****     }
 730              		.loc 1 1364 32 is_stmt 0 view .LVU244
 731 0074 024B     		ldr	r3, .L30+4
 732 0076 0122     		movs	r2, #1
 733 0078 DA70     		strb	r2, [r3, #3]
 734 007a E7E7     		b	.L28
 735              	.L31:
 736              		.align	2
 737              	.L30:
 738 007c 31430040 		.word	1073759025
 739 0080 00000000 		.word	.LANCHOR0
 740 0084 00430040 		.word	1073758976
 741 0088 83460040 		.word	1073759875
 742 008c 85460040 		.word	1073759877
 743 0090 86460040 		.word	1073759878
 744 0094 8A460040 		.word	1073759882
 745              		.cfi_endproc
 746              	.LFE7:
 747              		.size	CyPmHibSaveSet, .-CyPmHibSaveSet
 748              		.section	.text.CyPmHviLviRestore,"ax",%progbits
 749              		.align	1
 750              		.syntax unified
 751              		.thumb
 752              		.thumb_func
 753              		.fpu softvfp
 754              		.type	CyPmHviLviRestore, %function
 755              	CyPmHviLviRestore:
 756              	.LFB15:
1838:Generated_Source\PSoC5/cyPm.c **** 
1839:Generated_Source\PSoC5/cyPm.c **** 
1840:Generated_Source\PSoC5/cyPm.c **** /*******************************************************************************
1841:Generated_Source\PSoC5/cyPm.c **** * Function Name: CyPmHviLviRestore
1842:Generated_Source\PSoC5/cyPm.c **** ****************************************************************************//**
1843:Generated_Source\PSoC5/cyPm.c **** *
1844:Generated_Source\PSoC5/cyPm.c **** *  Restores the analog and digital LVI and HVI configuration.
1845:Generated_Source\PSoC5/cyPm.c **** *
1846:Generated_Source\PSoC5/cyPm.c **** * Reentrant:
1847:Generated_Source\PSoC5/cyPm.c **** *  No
1848:Generated_Source\PSoC5/cyPm.c **** *
1849:Generated_Source\PSoC5/cyPm.c **** *******************************************************************************/
1850:Generated_Source\PSoC5/cyPm.c **** static void CyPmHviLviRestore(void) 
1851:Generated_Source\PSoC5/cyPm.c **** {
ARM GAS  C:\Users\jens-\AppData\Local\Temp\ccih1T9a.s 			page 48


 757              		.loc 1 1851 1 is_stmt 1 view -0
 758              		.cfi_startproc
 759              		@ args = 0, pretend = 0, frame = 0
 760              		@ frame_needed = 0, uses_anonymous_args = 0
 761 0000 08B5     		push	{r3, lr}
 762              		.cfi_def_cfa_offset 8
 763              		.cfi_offset 3, -8
 764              		.cfi_offset 14, -4
1852:Generated_Source\PSoC5/cyPm.c ****     /* Restore LVI/HVI configuration */
1853:Generated_Source\PSoC5/cyPm.c ****     if(CY_PM_ENABLED == cyPmBackup.lvidEn)
 765              		.loc 1 1853 5 view .LVU246
 766              		.loc 1 1853 35 is_stmt 0 view .LVU247
 767 0002 114B     		ldr	r3, .L40
 768 0004 93F82630 		ldrb	r3, [r3, #38]	@ zero_extendqisi2
 769              		.loc 1 1853 7 view .LVU248
 770 0008 012B     		cmp	r3, #1
 771 000a 0AD0     		beq	.L37
 772              	.L33:
1854:Generated_Source\PSoC5/cyPm.c ****     {
1855:Generated_Source\PSoC5/cyPm.c ****         CyVdLvDigitEnable(cyPmBackup.lvidRst, cyPmBackup.lvidTrip);
1856:Generated_Source\PSoC5/cyPm.c ****     }
1857:Generated_Source\PSoC5/cyPm.c **** 
1858:Generated_Source\PSoC5/cyPm.c ****     if(CY_PM_ENABLED == cyPmBackup.lviaEn)
 773              		.loc 1 1858 5 is_stmt 1 view .LVU249
 774              		.loc 1 1858 35 is_stmt 0 view .LVU250
 775 000c 0E4B     		ldr	r3, .L40
 776 000e 93F82830 		ldrb	r3, [r3, #40]	@ zero_extendqisi2
 777              		.loc 1 1858 7 view .LVU251
 778 0012 012B     		cmp	r3, #1
 779 0014 0DD0     		beq	.L38
 780              	.L34:
1859:Generated_Source\PSoC5/cyPm.c ****     {
1860:Generated_Source\PSoC5/cyPm.c ****         CyVdLvAnalogEnable(cyPmBackup.lviaRst, cyPmBackup.lviaTrip);
1861:Generated_Source\PSoC5/cyPm.c ****     }
1862:Generated_Source\PSoC5/cyPm.c **** 
1863:Generated_Source\PSoC5/cyPm.c ****     if(CY_PM_ENABLED == cyPmBackup.hviaEn)
 781              		.loc 1 1863 5 is_stmt 1 view .LVU252
 782              		.loc 1 1863 35 is_stmt 0 view .LVU253
 783 0016 0C4B     		ldr	r3, .L40
 784 0018 93F82A30 		ldrb	r3, [r3, #42]	@ zero_extendqisi2
 785              		.loc 1 1863 7 view .LVU254
 786 001c 012B     		cmp	r3, #1
 787 001e 10D0     		beq	.L39
 788              	.L32:
1864:Generated_Source\PSoC5/cyPm.c ****     {
1865:Generated_Source\PSoC5/cyPm.c ****         CyVdHvAnalogEnable();
1866:Generated_Source\PSoC5/cyPm.c ****     }
1867:Generated_Source\PSoC5/cyPm.c **** }
 789              		.loc 1 1867 1 view .LVU255
 790 0020 08BD     		pop	{r3, pc}
 791              	.L37:
1855:Generated_Source\PSoC5/cyPm.c ****     }
 792              		.loc 1 1855 9 is_stmt 1 view .LVU256
 793 0022 094B     		ldr	r3, .L40
 794 0024 93F82710 		ldrb	r1, [r3, #39]	@ zero_extendqisi2
 795 0028 93F82B00 		ldrb	r0, [r3, #43]	@ zero_extendqisi2
 796 002c FFF7FEFF 		bl	CyVdLvDigitEnable
ARM GAS  C:\Users\jens-\AppData\Local\Temp\ccih1T9a.s 			page 49


 797              	.LVL6:
 798 0030 ECE7     		b	.L33
 799              	.L38:
1860:Generated_Source\PSoC5/cyPm.c ****     }
 800              		.loc 1 1860 9 view .LVU257
 801 0032 054B     		ldr	r3, .L40
 802 0034 93F82910 		ldrb	r1, [r3, #41]	@ zero_extendqisi2
 803 0038 93F82C00 		ldrb	r0, [r3, #44]	@ zero_extendqisi2
 804 003c FFF7FEFF 		bl	CyVdLvAnalogEnable
 805              	.LVL7:
 806 0040 E9E7     		b	.L34
 807              	.L39:
1865:Generated_Source\PSoC5/cyPm.c ****     }
 808              		.loc 1 1865 9 view .LVU258
 809 0042 FFF7FEFF 		bl	CyVdHvAnalogEnable
 810              	.LVL8:
 811              		.loc 1 1867 1 is_stmt 0 view .LVU259
 812 0046 EBE7     		b	.L32
 813              	.L41:
 814              		.align	2
 815              	.L40:
 816 0048 00000000 		.word	.LANCHOR0
 817              		.cfi_endproc
 818              	.LFE15:
 819              		.size	CyPmHviLviRestore, .-CyPmHviLviRestore
 820              		.section	.text.CyPmHibRestore,"ax",%progbits
 821              		.align	1
 822              		.syntax unified
 823              		.thumb
 824              		.thumb_func
 825              		.fpu softvfp
 826              		.type	CyPmHibRestore, %function
 827              	CyPmHibRestore:
 828              	.LFB8:
1414:Generated_Source\PSoC5/cyPm.c ****     /* Restore LVI/HVI configuration */
 829              		.loc 1 1414 1 is_stmt 1 view -0
 830              		.cfi_startproc
 831              		@ args = 0, pretend = 0, frame = 0
 832              		@ frame_needed = 0, uses_anonymous_args = 0
 833 0000 10B5     		push	{r4, lr}
 834              		.cfi_def_cfa_offset 8
 835              		.cfi_offset 4, -8
 836              		.cfi_offset 14, -4
1416:Generated_Source\PSoC5/cyPm.c **** 
 837              		.loc 1 1416 5 view .LVU261
 838 0002 FFF7FEFF 		bl	CyPmHviLviRestore
 839              	.LVL9:
1419:Generated_Source\PSoC5/cyPm.c **** 
 840              		.loc 1 1419 5 view .LVU262
 841 0006 FFF7FEFF 		bl	CyPmHibSlpRestore
 842              	.LVL10:
1422:Generated_Source\PSoC5/cyPm.c ****     {
 843              		.loc 1 1422 5 view .LVU263
1422:Generated_Source\PSoC5/cyPm.c ****     {
 844              		.loc 1 1422 35 is_stmt 0 view .LVU264
 845 000a 124B     		ldr	r3, .L49
 846 000c 5B78     		ldrb	r3, [r3, #1]	@ zero_extendqisi2
ARM GAS  C:\Users\jens-\AppData\Local\Temp\ccih1T9a.s 			page 50


1422:Generated_Source\PSoC5/cyPm.c ****     {
 847              		.loc 1 1422 7 view .LVU265
 848 000e 012B     		cmp	r3, #1
 849 0010 19D0     		beq	.L47
 850              	.L43:
1429:Generated_Source\PSoC5/cyPm.c ****     {
 851              		.loc 1 1429 5 is_stmt 1 view .LVU266
1429:Generated_Source\PSoC5/cyPm.c ****     {
 852              		.loc 1 1429 35 is_stmt 0 view .LVU267
 853 0012 104B     		ldr	r3, .L49
 854 0014 9B78     		ldrb	r3, [r3, #2]	@ zero_extendqisi2
1429:Generated_Source\PSoC5/cyPm.c ****     {
 855              		.loc 1 1429 7 view .LVU268
 856 0016 012B     		cmp	r3, #1
 857 0018 18D0     		beq	.L48
 858              	.L44:
1436:Generated_Source\PSoC5/cyPm.c **** 
 859              		.loc 1 1436 5 is_stmt 1 view .LVU269
1436:Generated_Source\PSoC5/cyPm.c **** 
 860              		.loc 1 1436 12 is_stmt 0 view .LVU270
 861 001a 0E4C     		ldr	r4, .L49
 862 001c 2078     		ldrb	r0, [r4]	@ zero_extendqisi2
 863 001e FFF7FEFF 		bl	CyILO_SetPowerMode
 864              	.LVL11:
1439:Generated_Source\PSoC5/cyPm.c ****     {
 865              		.loc 1 1439 5 is_stmt 1 view .LVU271
1439:Generated_Source\PSoC5/cyPm.c ****     {
 866              		.loc 1 1439 36 is_stmt 0 view .LVU272
 867 0022 E378     		ldrb	r3, [r4, #3]	@ zero_extendqisi2
1439:Generated_Source\PSoC5/cyPm.c ****     {
 868              		.loc 1 1439 7 view .LVU273
 869 0024 23B9     		cbnz	r3, .L45
1442:Generated_Source\PSoC5/cyPm.c ****     }
 870              		.loc 1 1442 9 is_stmt 1 view .LVU274
1442:Generated_Source\PSoC5/cyPm.c ****     }
 871              		.loc 1 1442 33 is_stmt 0 view .LVU275
 872 0026 0C4A     		ldr	r2, .L49+4
 873 0028 1378     		ldrb	r3, [r2]	@ zero_extendqisi2
 874 002a 03F0EF03 		and	r3, r3, #239
 875 002e 1370     		strb	r3, [r2]
 876              	.L45:
1449:Generated_Source\PSoC5/cyPm.c ****     CY_PM_PWRSYS_WAKE_TR1_REG = cyPmBackup.wakeupTrim1;
 877              		.loc 1 1449 5 is_stmt 1 view .LVU276
1449:Generated_Source\PSoC5/cyPm.c ****     CY_PM_PWRSYS_WAKE_TR1_REG = cyPmBackup.wakeupTrim1;
 878              		.loc 1 1449 43 is_stmt 0 view .LVU277
 879 0030 084B     		ldr	r3, .L49
 880 0032 D979     		ldrb	r1, [r3, #7]	@ zero_extendqisi2
1449:Generated_Source\PSoC5/cyPm.c ****     CY_PM_PWRSYS_WAKE_TR1_REG = cyPmBackup.wakeupTrim1;
 881              		.loc 1 1449 31 view .LVU278
 882 0034 094A     		ldr	r2, .L49+8
 883 0036 1170     		strb	r1, [r2]
1450:Generated_Source\PSoC5/cyPm.c **** 
 884              		.loc 1 1450 5 is_stmt 1 view .LVU279
1450:Generated_Source\PSoC5/cyPm.c **** 
 885              		.loc 1 1450 43 is_stmt 0 view .LVU280
 886 0038 197A     		ldrb	r1, [r3, #8]	@ zero_extendqisi2
1450:Generated_Source\PSoC5/cyPm.c **** 
ARM GAS  C:\Users\jens-\AppData\Local\Temp\ccih1T9a.s 			page 51


 887              		.loc 1 1450 31 view .LVU281
 888 003a 0132     		adds	r2, r2, #1
 889 003c 1170     		strb	r1, [r2]
1453:Generated_Source\PSoC5/cyPm.c ****     #endif  /* (CY_PSOC5) */    
 890              		.loc 1 1453 9 is_stmt 1 view .LVU282
1453:Generated_Source\PSoC5/cyPm.c ****     #endif  /* (CY_PSOC5) */    
 891              		.loc 1 1453 47 is_stmt 0 view .LVU283
 892 003e 5A7A     		ldrb	r2, [r3, #9]	@ zero_extendqisi2
1453:Generated_Source\PSoC5/cyPm.c ****     #endif  /* (CY_PSOC5) */    
 893              		.loc 1 1453 35 view .LVU284
 894 0040 074B     		ldr	r3, .L49+12
 895 0042 1A70     		strb	r2, [r3]
1455:Generated_Source\PSoC5/cyPm.c **** 
 896              		.loc 1 1455 1 view .LVU285
 897 0044 10BD     		pop	{r4, pc}
 898              	.L47:
1425:Generated_Source\PSoC5/cyPm.c ****     }
 899              		.loc 1 1425 9 is_stmt 1 view .LVU286
 900 0046 FFF7FEFF 		bl	CyILO_Start1K
 901              	.LVL12:
 902 004a E2E7     		b	.L43
 903              	.L48:
1432:Generated_Source\PSoC5/cyPm.c ****     }
 904              		.loc 1 1432 9 view .LVU287
 905 004c FFF7FEFF 		bl	CyILO_Start100K
 906              	.LVL13:
 907 0050 E3E7     		b	.L44
 908              	.L50:
 909 0052 00BF     		.align	2
 910              	.L49:
 911 0054 00000000 		.word	.LANCHOR0
 912 0058 83460040 		.word	1073759875
 913 005c 85460040 		.word	1073759877
 914 0060 8A460040 		.word	1073759882
 915              		.cfi_endproc
 916              	.LFE8:
 917              		.size	CyPmHibRestore, .-CyPmHibRestore
 918              		.section	.text.CyPmSaveClocks,"ax",%progbits
 919              		.align	1
 920              		.global	CyPmSaveClocks
 921              		.syntax unified
 922              		.thumb
 923              		.thumb_func
 924              		.fpu softvfp
 925              		.type	CyPmSaveClocks, %function
 926              	CyPmSaveClocks:
 927              	.LFB0:
  74:Generated_Source\PSoC5/cyPm.c ****     /* Digital and analog clocks - save enable state and disable them all */
 928              		.loc 1 74 1 view -0
 929              		.cfi_startproc
 930              		@ args = 0, pretend = 0, frame = 0
 931              		@ frame_needed = 0, uses_anonymous_args = 0
 932 0000 10B5     		push	{r4, lr}
 933              		.cfi_def_cfa_offset 8
 934              		.cfi_offset 4, -8
 935              		.cfi_offset 14, -4
  76:Generated_Source\PSoC5/cyPm.c ****     cyPmClockBackup.enClkD = CY_PM_ACT_CFG2_REG;
ARM GAS  C:\Users\jens-\AppData\Local\Temp\ccih1T9a.s 			page 52


 936              		.loc 1 76 5 view .LVU289
  76:Generated_Source\PSoC5/cyPm.c ****     cyPmClockBackup.enClkD = CY_PM_ACT_CFG2_REG;
 937              		.loc 1 76 30 is_stmt 0 view .LVU290
 938 0002 7D4A     		ldr	r2, .L84
 939 0004 1378     		ldrb	r3, [r2]	@ zero_extendqisi2
  76:Generated_Source\PSoC5/cyPm.c ****     cyPmClockBackup.enClkD = CY_PM_ACT_CFG2_REG;
 940              		.loc 1 76 49 view .LVU291
 941 0006 03F00F03 		and	r3, r3, #15
  76:Generated_Source\PSoC5/cyPm.c ****     cyPmClockBackup.enClkD = CY_PM_ACT_CFG2_REG;
 942              		.loc 1 76 28 view .LVU292
 943 000a 7C4C     		ldr	r4, .L84+4
 944 000c 84F83030 		strb	r3, [r4, #48]
  77:Generated_Source\PSoC5/cyPm.c ****     CY_PM_ACT_CFG1_REG &= ((uint8)(~CY_PM_ACT_EN_CLK_A_MASK));
 945              		.loc 1 77 5 is_stmt 1 view .LVU293
  77:Generated_Source\PSoC5/cyPm.c ****     CY_PM_ACT_CFG1_REG &= ((uint8)(~CY_PM_ACT_EN_CLK_A_MASK));
 946              		.loc 1 77 30 is_stmt 0 view .LVU294
 947 0010 7B4B     		ldr	r3, .L84+8
 948 0012 1978     		ldrb	r1, [r3]	@ zero_extendqisi2
  77:Generated_Source\PSoC5/cyPm.c ****     CY_PM_ACT_CFG1_REG &= ((uint8)(~CY_PM_ACT_EN_CLK_A_MASK));
 949              		.loc 1 77 28 view .LVU295
 950 0014 84F83110 		strb	r1, [r4, #49]
  78:Generated_Source\PSoC5/cyPm.c ****     CY_PM_ACT_CFG2_REG &= ((uint8)(~CY_PM_ACT_EN_CLK_D_MASK));
 951              		.loc 1 78 5 is_stmt 1 view .LVU296
  78:Generated_Source\PSoC5/cyPm.c ****     CY_PM_ACT_CFG2_REG &= ((uint8)(~CY_PM_ACT_EN_CLK_D_MASK));
 952              		.loc 1 78 24 is_stmt 0 view .LVU297
 953 0018 1178     		ldrb	r1, [r2]	@ zero_extendqisi2
 954 001a 01F0F001 		and	r1, r1, #240
 955 001e 1170     		strb	r1, [r2]
  79:Generated_Source\PSoC5/cyPm.c **** 
 956              		.loc 1 79 5 is_stmt 1 view .LVU298
  79:Generated_Source\PSoC5/cyPm.c **** 
 957              		.loc 1 79 24 is_stmt 0 view .LVU299
 958 0020 1A78     		ldrb	r2, [r3]	@ zero_extendqisi2
 959 0022 0022     		movs	r2, #0
 960 0024 1A70     		strb	r2, [r3]
  82:Generated_Source\PSoC5/cyPm.c ****     CyFlash_SetWaitCycles(CY_PM_MAX_FLASH_WAIT_CYCLES);
 961              		.loc 1 82 5 is_stmt 1 view .LVU300
  82:Generated_Source\PSoC5/cyPm.c ****     CyFlash_SetWaitCycles(CY_PM_MAX_FLASH_WAIT_CYCLES);
 962              		.loc 1 82 68 is_stmt 0 view .LVU301
 963 0026 03F25E43 		addw	r3, r3, #1118
 964 002a 1B78     		ldrb	r3, [r3]	@ zero_extendqisi2
  82:Generated_Source\PSoC5/cyPm.c ****     CyFlash_SetWaitCycles(CY_PM_MAX_FLASH_WAIT_CYCLES);
 965              		.loc 1 82 66 view .LVU302
 966 002c 03F0C003 		and	r3, r3, #192
  82:Generated_Source\PSoC5/cyPm.c ****     CyFlash_SetWaitCycles(CY_PM_MAX_FLASH_WAIT_CYCLES);
 967              		.loc 1 82 37 view .LVU303
 968 0030 84F83530 		strb	r3, [r4, #53]
  83:Generated_Source\PSoC5/cyPm.c **** 
 969              		.loc 1 83 5 is_stmt 1 view .LVU304
 970 0034 3720     		movs	r0, #55
 971 0036 FFF7FEFF 		bl	CyFlash_SetWaitCycles
 972              	.LVL14:
  86:Generated_Source\PSoC5/cyPm.c ****     cyPmClockBackup.imoUsbClk = CY_PM_FASTCLK_IMO_CR_REG & CY_PM_FASTCLK_IMO_CR_USB;
 973              		.loc 1 86 5 view .LVU305
  86:Generated_Source\PSoC5/cyPm.c ****     cyPmClockBackup.imoUsbClk = CY_PM_FASTCLK_IMO_CR_REG & CY_PM_FASTCLK_IMO_CR_USB;
 974              		.loc 1 86 31 is_stmt 0 view .LVU306
 975 003a 724B     		ldr	r3, .L84+12
ARM GAS  C:\Users\jens-\AppData\Local\Temp\ccih1T9a.s 			page 53


 976 003c 1A78     		ldrb	r2, [r3]	@ zero_extendqisi2
  86:Generated_Source\PSoC5/cyPm.c ****     cyPmClockBackup.imoUsbClk = CY_PM_FASTCLK_IMO_CR_REG & CY_PM_FASTCLK_IMO_CR_USB;
 977              		.loc 1 86 56 view .LVU307
 978 003e 02F00702 		and	r2, r2, #7
  86:Generated_Source\PSoC5/cyPm.c ****     cyPmClockBackup.imoUsbClk = CY_PM_FASTCLK_IMO_CR_REG & CY_PM_FASTCLK_IMO_CR_USB;
 979              		.loc 1 86 29 view .LVU308
 980 0042 84F83320 		strb	r2, [r4, #51]
  87:Generated_Source\PSoC5/cyPm.c **** 
 981              		.loc 1 87 5 is_stmt 1 view .LVU309
  87:Generated_Source\PSoC5/cyPm.c **** 
 982              		.loc 1 87 33 is_stmt 0 view .LVU310
 983 0046 1A78     		ldrb	r2, [r3]	@ zero_extendqisi2
  87:Generated_Source\PSoC5/cyPm.c **** 
 984              		.loc 1 87 58 view .LVU311
 985 0048 02F04002 		and	r2, r2, #64
  87:Generated_Source\PSoC5/cyPm.c **** 
 986              		.loc 1 87 31 view .LVU312
 987 004c 84F83420 		strb	r2, [r4, #52]
  90:Generated_Source\PSoC5/cyPm.c ****     {
 988              		.loc 1 90 5 is_stmt 1 view .LVU313
  90:Generated_Source\PSoC5/cyPm.c ****     {
 989              		.loc 1 90 15 is_stmt 0 view .LVU314
 990 0050 1B78     		ldrb	r3, [r3]	@ zero_extendqisi2
  90:Generated_Source\PSoC5/cyPm.c ****     {
 991              		.loc 1 90 7 view .LVU315
 992 0052 13F0100F 		tst	r3, #16
 993 0056 7CD0     		beq	.L52
  93:Generated_Source\PSoC5/cyPm.c ****     }
 994              		.loc 1 93 9 is_stmt 1 view .LVU316
  93:Generated_Source\PSoC5/cyPm.c ****     }
 995              		.loc 1 93 31 is_stmt 0 view .LVU317
 996 0058 0122     		movs	r2, #1
 997 005a 84F83920 		strb	r2, [r4, #57]
 998              	.L53:
 102:Generated_Source\PSoC5/cyPm.c **** 
 999              		.loc 1 102 5 is_stmt 1 view .LVU318
 102:Generated_Source\PSoC5/cyPm.c **** 
 1000              		.loc 1 102 36 is_stmt 0 view .LVU319
 1001 005e 6A4B     		ldr	r3, .L84+16
 1002 0060 1B78     		ldrb	r3, [r3]	@ zero_extendqisi2
 102:Generated_Source\PSoC5/cyPm.c **** 
 1003              		.loc 1 102 60 view .LVU320
 1004 0062 03F00303 		and	r3, r3, #3
 102:Generated_Source\PSoC5/cyPm.c **** 
 1005              		.loc 1 102 34 view .LVU321
 1006 0066 654A     		ldr	r2, .L84+4
 1007 0068 82F83230 		strb	r3, [r2, #50]
 105:Generated_Source\PSoC5/cyPm.c ****     {
 1008              		.loc 1 105 5 is_stmt 1 view .LVU322
 105:Generated_Source\PSoC5/cyPm.c ****     {
 1009              		.loc 1 105 7 is_stmt 0 view .LVU323
 1010 006c 012B     		cmp	r3, #1
 1011 006e 75D0     		beq	.L76
 1012              	.L54:
 128:Generated_Source\PSoC5/cyPm.c ****     {
 1013              		.loc 1 128 5 is_stmt 1 view .LVU324
 128:Generated_Source\PSoC5/cyPm.c ****     {
ARM GAS  C:\Users\jens-\AppData\Local\Temp\ccih1T9a.s 			page 54


 1014              		.loc 1 128 15 is_stmt 0 view .LVU325
 1015 0070 664B     		ldr	r3, .L84+20
 1016 0072 1B78     		ldrb	r3, [r3]	@ zero_extendqisi2
 128:Generated_Source\PSoC5/cyPm.c ****     {
 1017              		.loc 1 128 7 view .LVU326
 1018 0074 13F0010F 		tst	r3, #1
 1019 0078 40F08A80 		bne	.L77
 137:Generated_Source\PSoC5/cyPm.c ****     }
 1020              		.loc 1 137 9 is_stmt 1 view .LVU327
 137:Generated_Source\PSoC5/cyPm.c ****     }
 1021              		.loc 1 137 40 is_stmt 0 view .LVU328
 1022 007c 5F4B     		ldr	r3, .L84+4
 1023 007e 0022     		movs	r2, #0
 1024 0080 83F83E20 		strb	r2, [r3, #62]
 1025              	.L59:
 141:Generated_Source\PSoC5/cyPm.c **** 
 1026              		.loc 1 141 5 is_stmt 1 view .LVU329
 1027 0084 0420     		movs	r0, #4
 1028 0086 FFF7FEFF 		bl	CyIMO_SetFreq
 1029              	.LVL15:
 144:Generated_Source\PSoC5/cyPm.c ****     {
 1030              		.loc 1 144 5 view .LVU330
 144:Generated_Source\PSoC5/cyPm.c ****     {
 1031              		.loc 1 144 36 is_stmt 0 view .LVU331
 1032 008a 614B     		ldr	r3, .L84+24
 1033 008c 1B78     		ldrb	r3, [r3]	@ zero_extendqisi2
 144:Generated_Source\PSoC5/cyPm.c ****     {
 1034              		.loc 1 144 7 view .LVU332
 1035 008e 13F0100F 		tst	r3, #16
 1036 0092 00F08480 		beq	.L60
 147:Generated_Source\PSoC5/cyPm.c ****     }
 1037              		.loc 1 147 9 is_stmt 1 view .LVU333
 147:Generated_Source\PSoC5/cyPm.c ****     }
 1038              		.loc 1 147 35 is_stmt 0 view .LVU334
 1039 0096 594B     		ldr	r3, .L84+4
 1040 0098 0122     		movs	r2, #1
 1041 009a 83F83620 		strb	r2, [r3, #54]
 1042              	.L61:
 162:Generated_Source\PSoC5/cyPm.c ****     {
 1043              		.loc 1 162 5 is_stmt 1 view .LVU335
 162:Generated_Source\PSoC5/cyPm.c ****     {
 1044              		.loc 1 162 15 is_stmt 0 view .LVU336
 1045 009e 594B     		ldr	r3, .L84+12
 1046 00a0 1B78     		ldrb	r3, [r3]	@ zero_extendqisi2
 162:Generated_Source\PSoC5/cyPm.c ****     {
 1047              		.loc 1 162 7 view .LVU337
 1048 00a2 13F0200F 		tst	r3, #32
 1049 00a6 00F08680 		beq	.L62
 165:Generated_Source\PSoC5/cyPm.c ****             (0u == (CY_PM_CLKDIST_CR_REG & CY_PM_CLKDIST_IMO2X_SRC)) ? CY_IMO_SOURCE_DSI : CY_IMO_S
 1050              		.loc 1 165 9 is_stmt 1 view .LVU338
 166:Generated_Source\PSoC5/cyPm.c **** 
 1051              		.loc 1 166 21 is_stmt 0 view .LVU339
 1052 00aa 4FF04023 		mov	r3, #1073758208
 1053 00ae 1B78     		ldrb	r3, [r3]	@ zero_extendqisi2
 165:Generated_Source\PSoC5/cyPm.c ****             (0u == (CY_PM_CLKDIST_CR_REG & CY_PM_CLKDIST_IMO2X_SRC)) ? CY_IMO_SOURCE_DSI : CY_IMO_S
 1054              		.loc 1 165 35 view .LVU340
 1055 00b0 13F0400F 		tst	r3, #64
ARM GAS  C:\Users\jens-\AppData\Local\Temp\ccih1T9a.s 			page 55


 1056 00b4 7DD1     		bne	.L74
 1057 00b6 0222     		movs	r2, #2
 1058              	.L63:
 165:Generated_Source\PSoC5/cyPm.c ****             (0u == (CY_PM_CLKDIST_CR_REG & CY_PM_CLKDIST_IMO2X_SRC)) ? CY_IMO_SOURCE_DSI : CY_IMO_S
 1059              		.loc 1 165 35 discriminator 4 view .LVU341
 1060 00b8 504B     		ldr	r3, .L84+4
 1061 00ba 83F83720 		strb	r2, [r3, #55]
 169:Generated_Source\PSoC5/cyPm.c ****     }
 1062              		.loc 1 169 9 is_stmt 1 discriminator 4 view .LVU342
 1063 00be 0020     		movs	r0, #0
 1064 00c0 FFF7FEFF 		bl	CyIMO_SetSource
 1065              	.LVL16:
 1066              	.L64:
 178:Generated_Source\PSoC5/cyPm.c **** 
 1067              		.loc 1 178 5 view .LVU343
 178:Generated_Source\PSoC5/cyPm.c **** 
 1068              		.loc 1 178 33 is_stmt 0 view .LVU344
 1069 00c4 4FF04023 		mov	r3, #1073758208
 1070 00c8 1B78     		ldrb	r3, [r3]	@ zero_extendqisi2
 178:Generated_Source\PSoC5/cyPm.c **** 
 1071              		.loc 1 178 54 view .LVU345
 1072 00ca 03F03003 		and	r3, r3, #48
 178:Generated_Source\PSoC5/cyPm.c **** 
 1073              		.loc 1 178 31 view .LVU346
 1074 00ce 4B4A     		ldr	r2, .L84+4
 1075 00d0 82F83830 		strb	r3, [r2, #56]
 181:Generated_Source\PSoC5/cyPm.c ****     {
 1076              		.loc 1 181 5 is_stmt 1 view .LVU347
 181:Generated_Source\PSoC5/cyPm.c ****     {
 1077              		.loc 1 181 7 is_stmt 0 view .LVU348
 1078 00d4 2BB1     		cbz	r3, .L65
 184:Generated_Source\PSoC5/cyPm.c ****                                 CY_PM_CLKDIST_IMO_OUT_IMO;
 1079              		.loc 1 184 9 is_stmt 1 view .LVU349
 184:Generated_Source\PSoC5/cyPm.c ****                                 CY_PM_CLKDIST_IMO_OUT_IMO;
 1080              		.loc 1 184 33 is_stmt 0 view .LVU350
 1081 00d6 4FF04022 		mov	r2, #1073758208
 1082 00da 1378     		ldrb	r3, [r2]	@ zero_extendqisi2
 184:Generated_Source\PSoC5/cyPm.c ****                                 CY_PM_CLKDIST_IMO_OUT_IMO;
 1083              		.loc 1 184 96 view .LVU351
 1084 00dc 03F0CF03 		and	r3, r3, #207
 184:Generated_Source\PSoC5/cyPm.c ****                                 CY_PM_CLKDIST_IMO_OUT_IMO;
 1085              		.loc 1 184 30 view .LVU352
 1086 00e0 1370     		strb	r3, [r2]
 1087              	.L65:
 189:Generated_Source\PSoC5/cyPm.c ****     {
 1088              		.loc 1 189 5 is_stmt 1 view .LVU353
 189:Generated_Source\PSoC5/cyPm.c ****     {
 1089              		.loc 1 189 15 is_stmt 0 view .LVU354
 1090 00e2 484B     		ldr	r3, .L84+12
 1091 00e4 1B78     		ldrb	r3, [r3]	@ zero_extendqisi2
 189:Generated_Source\PSoC5/cyPm.c ****     {
 1092              		.loc 1 189 7 view .LVU355
 1093 00e6 13F0100F 		tst	r3, #16
 1094 00ea 69D1     		bne	.L78
 1095              	.L66:
 195:Generated_Source\PSoC5/cyPm.c ****     if(CY_PM_DIV_BY_ONE != cyPmClockBackup.clkSyncDiv)
 1096              		.loc 1 195 5 is_stmt 1 view .LVU356
ARM GAS  C:\Users\jens-\AppData\Local\Temp\ccih1T9a.s 			page 56


 195:Generated_Source\PSoC5/cyPm.c ****     if(CY_PM_DIV_BY_ONE != cyPmClockBackup.clkSyncDiv)
 1097              		.loc 1 195 34 is_stmt 0 view .LVU357
 1098 00ec 494B     		ldr	r3, .L84+28
 1099 00ee 1B78     		ldrb	r3, [r3]	@ zero_extendqisi2
 1100 00f0 DBB2     		uxtb	r3, r3
 195:Generated_Source\PSoC5/cyPm.c ****     if(CY_PM_DIV_BY_ONE != cyPmClockBackup.clkSyncDiv)
 1101              		.loc 1 195 32 view .LVU358
 1102 00f2 424A     		ldr	r2, .L84+4
 1103 00f4 82F83A30 		strb	r3, [r2, #58]
 196:Generated_Source\PSoC5/cyPm.c ****     {
 1104              		.loc 1 196 5 is_stmt 1 view .LVU359
 196:Generated_Source\PSoC5/cyPm.c ****     {
 1105              		.loc 1 196 7 is_stmt 0 view .LVU360
 1106 00f8 002B     		cmp	r3, #0
 1107 00fa 64D1     		bne	.L79
 1108              	.L67:
 202:Generated_Source\PSoC5/cyPm.c ****     {
 1109              		.loc 1 202 5 is_stmt 1 view .LVU361
 202:Generated_Source\PSoC5/cyPm.c ****     {
 1110              		.loc 1 202 47 is_stmt 0 view .LVU362
 1111 00fc 3F4B     		ldr	r3, .L84+4
 1112 00fe 93F83230 		ldrb	r3, [r3, #50]	@ zero_extendqisi2
 202:Generated_Source\PSoC5/cyPm.c ****     {
 1113              		.loc 1 202 7 view .LVU363
 1114 0102 002B     		cmp	r3, #0
 1115 0104 63D1     		bne	.L80
 1116              	.L68:
 208:Generated_Source\PSoC5/cyPm.c ****     cyPmClockBackup.clkBusDiv |= CY_PM_CLK_BUS_LSB_DIV_REG;
 1117              		.loc 1 208 5 is_stmt 1 view .LVU364
 208:Generated_Source\PSoC5/cyPm.c ****     cyPmClockBackup.clkBusDiv |= CY_PM_CLK_BUS_LSB_DIV_REG;
 1118              		.loc 1 208 52 is_stmt 0 view .LVU365
 1119 0106 444B     		ldr	r3, .L84+32
 1120 0108 1B78     		ldrb	r3, [r3]	@ zero_extendqisi2
 208:Generated_Source\PSoC5/cyPm.c ****     cyPmClockBackup.clkBusDiv |= CY_PM_CLK_BUS_LSB_DIV_REG;
 1121              		.loc 1 208 33 view .LVU366
 1122 010a 1B02     		lsls	r3, r3, #8
 208:Generated_Source\PSoC5/cyPm.c ****     cyPmClockBackup.clkBusDiv |= CY_PM_CLK_BUS_LSB_DIV_REG;
 1123              		.loc 1 208 31 view .LVU367
 1124 010c 3B4A     		ldr	r2, .L84+4
 1125 010e 9387     		strh	r3, [r2, #60]	@ movhi
 209:Generated_Source\PSoC5/cyPm.c ****     if(CY_PM_BUS_CLK_DIV_BY_ONE != cyPmClockBackup.clkBusDiv)
 1126              		.loc 1 209 5 is_stmt 1 view .LVU368
 209:Generated_Source\PSoC5/cyPm.c ****     if(CY_PM_BUS_CLK_DIV_BY_ONE != cyPmClockBackup.clkBusDiv)
 1127              		.loc 1 209 34 is_stmt 0 view .LVU369
 1128 0110 4249     		ldr	r1, .L84+36
 1129 0112 0978     		ldrb	r1, [r1]	@ zero_extendqisi2
 209:Generated_Source\PSoC5/cyPm.c ****     if(CY_PM_BUS_CLK_DIV_BY_ONE != cyPmClockBackup.clkBusDiv)
 1130              		.loc 1 209 31 view .LVU370
 1131 0114 0B43     		orrs	r3, r3, r1
 1132 0116 9387     		strh	r3, [r2, #60]	@ movhi
 210:Generated_Source\PSoC5/cyPm.c ****     {
 1133              		.loc 1 210 5 is_stmt 1 view .LVU371
 210:Generated_Source\PSoC5/cyPm.c ****     {
 1134              		.loc 1 210 7 is_stmt 0 view .LVU372
 1135 0118 002B     		cmp	r3, #0
 1136 011a 5CD1     		bne	.L81
 1137              	.L69:
ARM GAS  C:\Users\jens-\AppData\Local\Temp\ccih1T9a.s 			page 57


 216:Generated_Source\PSoC5/cyPm.c **** 
 1138              		.loc 1 216 5 is_stmt 1 view .LVU373
 216:Generated_Source\PSoC5/cyPm.c **** 
 1139              		.loc 1 216 34 is_stmt 0 view .LVU374
 1140 011c 394B     		ldr	r3, .L84+12
 1141 011e 1B78     		ldrb	r3, [r3]	@ zero_extendqisi2
 1142 0120 03F00703 		and	r3, r3, #7
 216:Generated_Source\PSoC5/cyPm.c **** 
 1143              		.loc 1 216 5 view .LVU375
 1144 0124 3E4A     		ldr	r2, .L84+40
 1145 0126 D05C     		ldrb	r0, [r2, r3]	@ zero_extendqisi2
 1146 0128 FFF7FEFF 		bl	CyFlash_SetWaitCycles
 1147              	.LVL17:
 219:Generated_Source\PSoC5/cyPm.c ****     {
 1148              		.loc 1 219 5 is_stmt 1 view .LVU376
 219:Generated_Source\PSoC5/cyPm.c ****     {
 1149              		.loc 1 219 15 is_stmt 0 view .LVU377
 1150 012c 3D4B     		ldr	r3, .L84+44
 1151 012e 1B78     		ldrb	r3, [r3]	@ zero_extendqisi2
 219:Generated_Source\PSoC5/cyPm.c ****     {
 1152              		.loc 1 219 7 view .LVU378
 1153 0130 13F0010F 		tst	r3, #1
 1154 0134 53D1     		bne	.L82
 228:Generated_Source\PSoC5/cyPm.c ****     }
 1155              		.loc 1 228 9 is_stmt 1 view .LVU379
 228:Generated_Source\PSoC5/cyPm.c ****     }
 1156              		.loc 1 228 41 is_stmt 0 view .LVU380
 1157 0136 314B     		ldr	r3, .L84+4
 1158 0138 0022     		movs	r2, #0
 1159 013a 83F83F20 		strb	r2, [r3, #63]
 1160              	.L71:
 237:Generated_Source\PSoC5/cyPm.c ****     {
 1161              		.loc 1 237 5 is_stmt 1 view .LVU381
 237:Generated_Source\PSoC5/cyPm.c ****     {
 1162              		.loc 1 237 15 is_stmt 0 view .LVU382
 1163 013e 3A4B     		ldr	r3, .L84+48
 1164 0140 1B78     		ldrb	r3, [r3]	@ zero_extendqisi2
 237:Generated_Source\PSoC5/cyPm.c ****     {
 1165              		.loc 1 237 7 view .LVU383
 1166 0142 13F0040F 		tst	r3, #4
 1167 0146 51D0     		beq	.L72
 239:Generated_Source\PSoC5/cyPm.c ****     }
 1168              		.loc 1 239 9 is_stmt 1 view .LVU384
 239:Generated_Source\PSoC5/cyPm.c ****     }
 1169              		.loc 1 239 38 is_stmt 0 view .LVU385
 1170 0148 2C4B     		ldr	r3, .L84+4
 1171 014a 0122     		movs	r2, #1
 1172 014c 83F84020 		strb	r2, [r3, #64]
 1173              	.L51:
 245:Generated_Source\PSoC5/cyPm.c **** 
 1174              		.loc 1 245 1 view .LVU386
 1175 0150 10BD     		pop	{r4, pc}
 1176              	.L52:
  98:Generated_Source\PSoC5/cyPm.c ****     }
 1177              		.loc 1 98 9 is_stmt 1 view .LVU387
  98:Generated_Source\PSoC5/cyPm.c ****     }
 1178              		.loc 1 98 31 is_stmt 0 view .LVU388
ARM GAS  C:\Users\jens-\AppData\Local\Temp\ccih1T9a.s 			page 58


 1179 0152 2A4B     		ldr	r3, .L84+4
 1180 0154 0022     		movs	r2, #0
 1181 0156 83F83920 		strb	r2, [r3, #57]
 1182 015a 80E7     		b	.L53
 1183              	.L76:
 107:Generated_Source\PSoC5/cyPm.c ****         {
 1184              		.loc 1 107 9 is_stmt 1 view .LVU389
 107:Generated_Source\PSoC5/cyPm.c ****         {
 1185              		.loc 1 107 17 is_stmt 0 view .LVU390
 1186 015c 4FF04023 		mov	r3, #1073758208
 1187 0160 1B78     		ldrb	r3, [r3]	@ zero_extendqisi2
 1188 0162 03F00303 		and	r3, r3, #3
 107:Generated_Source\PSoC5/cyPm.c ****         {
 1189              		.loc 1 107 9 view .LVU391
 1190 0166 012B     		cmp	r3, #1
 1191 0168 0AD0     		beq	.L55
 1192 016a 022B     		cmp	r3, #2
 1193 016c 0CD0     		beq	.L56
 1194 016e 1BB1     		cbz	r3, .L83
 122:Generated_Source\PSoC5/cyPm.c ****             break;
 1195              		.loc 1 122 13 is_stmt 1 discriminator 1 view .LVU392
 122:Generated_Source\PSoC5/cyPm.c ****             break;
 1196              		.loc 1 122 13 discriminator 1 view .LVU393
 1197 0170 0020     		movs	r0, #0
 1198 0172 FFF7FEFF 		bl	CyHalt
 1199              	.LVL18:
 122:Generated_Source\PSoC5/cyPm.c ****             break;
 1200              		.loc 1 122 31 discriminator 1 view .LVU394
 123:Generated_Source\PSoC5/cyPm.c ****         }
 1201              		.loc 1 123 13 discriminator 1 view .LVU395
 1202 0176 7BE7     		b	.L54
 1203              	.L83:
 110:Generated_Source\PSoC5/cyPm.c ****             break;
 1204              		.loc 1 110 13 view .LVU396
 1205 0178 0020     		movs	r0, #0
 1206 017a FFF7FEFF 		bl	CyMasterClk_SetSource
 1207              	.LVL19:
 111:Generated_Source\PSoC5/cyPm.c **** 
 1208              		.loc 1 111 13 view .LVU397
 1209 017e 77E7     		b	.L54
 1210              	.L55:
 114:Generated_Source\PSoC5/cyPm.c ****             break;
 1211              		.loc 1 114 13 view .LVU398
 1212 0180 0220     		movs	r0, #2
 1213 0182 FFF7FEFF 		bl	CyMasterClk_SetSource
 1214              	.LVL20:
 115:Generated_Source\PSoC5/cyPm.c **** 
 1215              		.loc 1 115 13 view .LVU399
 1216 0186 73E7     		b	.L54
 1217              	.L56:
 118:Generated_Source\PSoC5/cyPm.c ****             break;
 1218              		.loc 1 118 13 view .LVU400
 1219 0188 0320     		movs	r0, #3
 1220 018a FFF7FEFF 		bl	CyMasterClk_SetSource
 1221              	.LVL21:
 119:Generated_Source\PSoC5/cyPm.c **** 
 1222              		.loc 1 119 13 view .LVU401
ARM GAS  C:\Users\jens-\AppData\Local\Temp\ccih1T9a.s 			page 59


 1223 018e 6FE7     		b	.L54
 1224              	.L77:
 131:Generated_Source\PSoC5/cyPm.c ****         CyPLL_OUT_Stop();
 1225              		.loc 1 131 9 view .LVU402
 131:Generated_Source\PSoC5/cyPm.c ****         CyPLL_OUT_Stop();
 1226              		.loc 1 131 40 is_stmt 0 view .LVU403
 1227 0190 1A4B     		ldr	r3, .L84+4
 1228 0192 0122     		movs	r2, #1
 1229 0194 83F83E20 		strb	r2, [r3, #62]
 132:Generated_Source\PSoC5/cyPm.c ****     }
 1230              		.loc 1 132 9 is_stmt 1 view .LVU404
 1231 0198 FFF7FEFF 		bl	CyPLL_OUT_Stop
 1232              	.LVL22:
 1233 019c 72E7     		b	.L59
 1234              	.L60:
 152:Generated_Source\PSoC5/cyPm.c **** 
 1235              		.loc 1 152 9 view .LVU405
 152:Generated_Source\PSoC5/cyPm.c **** 
 1236              		.loc 1 152 35 is_stmt 0 view .LVU406
 1237 019e 0020     		movs	r0, #0
 1238 01a0 164B     		ldr	r3, .L84+4
 1239 01a2 83F83600 		strb	r0, [r3, #54]
 155:Generated_Source\PSoC5/cyPm.c **** 
 1240              		.loc 1 155 9 is_stmt 1 view .LVU407
 1241 01a6 FFF7FEFF 		bl	CyIMO_Start
 1242              	.LVL23:
 158:Generated_Source\PSoC5/cyPm.c ****     }
 1243              		.loc 1 158 9 view .LVU408
 1244 01aa 0620     		movs	r0, #6
 1245 01ac FFF7FEFF 		bl	CyDelayUs
 1246              	.LVL24:
 1247 01b0 75E7     		b	.L61
 1248              	.L74:
 165:Generated_Source\PSoC5/cyPm.c ****             (0u == (CY_PM_CLKDIST_CR_REG & CY_PM_CLKDIST_IMO2X_SRC)) ? CY_IMO_SOURCE_DSI : CY_IMO_S
 1249              		.loc 1 165 35 is_stmt 0 view .LVU409
 1250 01b2 0122     		movs	r2, #1
 1251 01b4 80E7     		b	.L63
 1252              	.L62:
 174:Generated_Source\PSoC5/cyPm.c ****     }
 1253              		.loc 1 174 9 is_stmt 1 view .LVU410
 174:Generated_Source\PSoC5/cyPm.c ****     }
 1254              		.loc 1 174 35 is_stmt 0 view .LVU411
 1255 01b6 114B     		ldr	r3, .L84+4
 1256 01b8 0022     		movs	r2, #0
 1257 01ba 83F83720 		strb	r2, [r3, #55]
 1258 01be 81E7     		b	.L64
 1259              	.L78:
 191:Generated_Source\PSoC5/cyPm.c ****     }
 1260              		.loc 1 191 9 is_stmt 1 view .LVU412
 1261 01c0 FFF7FEFF 		bl	CyIMO_DisableDoubler
 1262              	.LVL25:
 1263 01c4 92E7     		b	.L66
 1264              	.L79:
 198:Generated_Source\PSoC5/cyPm.c ****     }    /* No change if master clock divider is 1 */
 1265              		.loc 1 198 9 view .LVU413
 1266 01c6 0020     		movs	r0, #0
 1267 01c8 FFF7FEFF 		bl	CyMasterClk_SetDivider
ARM GAS  C:\Users\jens-\AppData\Local\Temp\ccih1T9a.s 			page 60


 1268              	.LVL26:
 1269 01cc 96E7     		b	.L67
 1270              	.L80:
 204:Generated_Source\PSoC5/cyPm.c ****     }    /* No change if master clock source is IMO */
 1271              		.loc 1 204 9 view .LVU414
 1272 01ce 0020     		movs	r0, #0
 1273 01d0 FFF7FEFF 		bl	CyMasterClk_SetSource
 1274              	.LVL27:
 1275 01d4 97E7     		b	.L68
 1276              	.L81:
 212:Generated_Source\PSoC5/cyPm.c ****     }    /* Do nothing if saved and actual values are equal */
 1277              		.loc 1 212 9 view .LVU415
 1278 01d6 0020     		movs	r0, #0
 1279 01d8 FFF7FEFF 		bl	CyBusClk_SetDivider
 1280              	.LVL28:
 1281 01dc 9EE7     		b	.L69
 1282              	.L82:
 222:Generated_Source\PSoC5/cyPm.c ****         CyXTAL_Stop();
 1283              		.loc 1 222 9 view .LVU416
 222:Generated_Source\PSoC5/cyPm.c ****         CyXTAL_Stop();
 1284              		.loc 1 222 41 is_stmt 0 view .LVU417
 1285 01de 074B     		ldr	r3, .L84+4
 1286 01e0 0122     		movs	r2, #1
 1287 01e2 83F83F20 		strb	r2, [r3, #63]
 223:Generated_Source\PSoC5/cyPm.c ****     }
 1288              		.loc 1 223 9 is_stmt 1 view .LVU418
 1289 01e6 FFF7FEFF 		bl	CyXTAL_Stop
 1290              	.LVL29:
 1291 01ea A8E7     		b	.L71
 1292              	.L72:
 243:Generated_Source\PSoC5/cyPm.c ****     }
 1293              		.loc 1 243 9 view .LVU419
 243:Generated_Source\PSoC5/cyPm.c ****     }
 1294              		.loc 1 243 38 is_stmt 0 view .LVU420
 1295 01ec 034B     		ldr	r3, .L84+4
 1296 01ee 0022     		movs	r2, #0
 1297 01f0 83F84020 		strb	r2, [r3, #64]
 245:Generated_Source\PSoC5/cyPm.c **** 
 1298              		.loc 1 245 1 view .LVU421
 1299 01f4 ACE7     		b	.L51
 1300              	.L85:
 1301 01f6 00BF     		.align	2
 1302              	.L84:
 1303 01f8 A1430040 		.word	1073759137
 1304 01fc 00000000 		.word	.LANCHOR0
 1305 0200 A2430040 		.word	1073759138
 1306 0204 00420040 		.word	1073758720
 1307 0208 05400040 		.word	1073758213
 1308 020c 20420040 		.word	1073758752
 1309 0210 A0430040 		.word	1073759136
 1310 0214 04400040 		.word	1073758212
 1311 0218 07400040 		.word	1073758215
 1312 021c 06400040 		.word	1073758214
 1313 0220 00000000 		.word	.LANCHOR1
 1314 0224 10420040 		.word	1073758736
 1315 0228 0B400040 		.word	1073758219
 1316              		.cfi_endproc
ARM GAS  C:\Users\jens-\AppData\Local\Temp\ccih1T9a.s 			page 61


 1317              	.LFE0:
 1318              		.size	CyPmSaveClocks, .-CyPmSaveClocks
 1319              		.section	.text.CyPmRestoreClocks,"ax",%progbits
 1320              		.align	1
 1321              		.global	CyPmRestoreClocks
 1322              		.syntax unified
 1323              		.thumb
 1324              		.thumb_func
 1325              		.fpu softvfp
 1326              		.type	CyPmRestoreClocks, %function
 1327              	CyPmRestoreClocks:
 1328              	.LFB1:
 269:Generated_Source\PSoC5/cyPm.c ****     cystatus status = CYRET_TIMEOUT;
 1329              		.loc 1 269 1 is_stmt 1 view -0
 1330              		.cfi_startproc
 1331              		@ args = 0, pretend = 0, frame = 8
 1332              		@ frame_needed = 0, uses_anonymous_args = 0
 1333 0000 10B5     		push	{r4, lr}
 1334              		.cfi_def_cfa_offset 8
 1335              		.cfi_offset 4, -8
 1336              		.cfi_offset 14, -4
 1337 0002 82B0     		sub	sp, sp, #8
 1338              		.cfi_def_cfa_offset 16
 270:Generated_Source\PSoC5/cyPm.c ****     uint16 i;
 1339              		.loc 1 270 5 view .LVU423
 1340              	.LVL30:
 271:Generated_Source\PSoC5/cyPm.c ****     uint16 clkBusDivTmp;
 1341              		.loc 1 271 5 view .LVU424
 272:Generated_Source\PSoC5/cyPm.c **** 
 1342              		.loc 1 272 5 view .LVU425
 276:Generated_Source\PSoC5/cyPm.c ****         CY_IMO_FREQ_12MHZ, CY_IMO_FREQ_6MHZ,  CY_IMO_FREQ_24MHZ, CY_IMO_FREQ_3MHZ,
 1343              		.loc 1 276 5 view .LVU426
 276:Generated_Source\PSoC5/cyPm.c ****         CY_IMO_FREQ_12MHZ, CY_IMO_FREQ_6MHZ,  CY_IMO_FREQ_24MHZ, CY_IMO_FREQ_3MHZ,
 1344              		.loc 1 276 24 is_stmt 0 view .LVU427
 1345 0004 934B     		ldr	r3, .L120
 1346 0006 93E80300 		ldm	r3, {r0, r1}
 1347 000a 0090     		str	r0, [sp]
 1348 000c ADF80410 		strh	r1, [sp, #4]	@ movhi
 1349 0010 090C     		lsrs	r1, r1, #16
 1350 0012 8DF80610 		strb	r1, [sp, #6]
 281:Generated_Source\PSoC5/cyPm.c ****     {
 1351              		.loc 1 281 5 is_stmt 1 view .LVU428
 281:Generated_Source\PSoC5/cyPm.c ****     {
 1352              		.loc 1 281 40 is_stmt 0 view .LVU429
 1353 0016 904B     		ldr	r3, .L120+4
 1354 0018 93F84030 		ldrb	r3, [r3, #64]	@ zero_extendqisi2
 281:Generated_Source\PSoC5/cyPm.c ****     {
 1355              		.loc 1 281 7 view .LVU430
 1356 001c 012B     		cmp	r3, #1
 1357 001e 00F08D80 		beq	.L108
 1358              	.L87:
 291:Generated_Source\PSoC5/cyPm.c ****     {
 1359              		.loc 1 291 5 is_stmt 1 view .LVU431
 291:Generated_Source\PSoC5/cyPm.c ****     {
 1360              		.loc 1 291 40 is_stmt 0 view .LVU432
 1361 0022 8D4B     		ldr	r3, .L120+4
 1362 0024 93F83F30 		ldrb	r3, [r3, #63]	@ zero_extendqisi2
ARM GAS  C:\Users\jens-\AppData\Local\Temp\ccih1T9a.s 			page 62


 291:Generated_Source\PSoC5/cyPm.c ****     {
 1363              		.loc 1 291 7 view .LVU433
 1364 0028 012B     		cmp	r3, #1
 1365 002a 00F09980 		beq	.L109
 1366              	.L88:
 1367              	.LVL31:
 333:Generated_Source\PSoC5/cyPm.c ****     }   /* (CY_PM_ENABLED == cyPmClockBackup.xmhzEnableState) */
 1368              		.loc 1 333 9 is_stmt 1 view .LVU434
 338:Generated_Source\PSoC5/cyPm.c **** 
 1369              		.loc 1 338 5 view .LVU435
 1370 002e 3720     		movs	r0, #55
 1371 0030 FFF7FEFF 		bl	CyFlash_SetWaitCycles
 1372              	.LVL32:
 341:Generated_Source\PSoC5/cyPm.c ****        (CY_PM_MASTER_CLK_SRC_DSI  == cyPmClockBackup.masterClkSrc))
 1373              		.loc 1 341 5 view .LVU436
 341:Generated_Source\PSoC5/cyPm.c ****        (CY_PM_MASTER_CLK_SRC_DSI  == cyPmClockBackup.masterClkSrc))
 1374              		.loc 1 341 53 is_stmt 0 view .LVU437
 1375 0034 884B     		ldr	r3, .L120+4
 1376 0036 93F83230 		ldrb	r3, [r3, #50]	@ zero_extendqisi2
 341:Generated_Source\PSoC5/cyPm.c ****        (CY_PM_MASTER_CLK_SRC_DSI  == cyPmClockBackup.masterClkSrc))
 1377              		.loc 1 341 68 view .LVU438
 1378 003a 023B     		subs	r3, r3, #2
 1379 003c DBB2     		uxtb	r3, r3
 341:Generated_Source\PSoC5/cyPm.c ****        (CY_PM_MASTER_CLK_SRC_DSI  == cyPmClockBackup.masterClkSrc))
 1380              		.loc 1 341 7 view .LVU439
 1381 003e 012B     		cmp	r3, #1
 1382 0040 40F2AB80 		bls	.L110
 1383              	.L91:
 356:Generated_Source\PSoC5/cyPm.c ****         (CY_IMO_FREQ_24MHZ == cyPmImoFreqMhz2Reg[cyPmClockBackup.imoFreq]))
 1384              		.loc 1 356 5 is_stmt 1 view .LVU440
 356:Generated_Source\PSoC5/cyPm.c ****         (CY_IMO_FREQ_24MHZ == cyPmImoFreqMhz2Reg[cyPmClockBackup.imoFreq]))
 1385              		.loc 1 356 31 is_stmt 0 view .LVU441
 1386 0044 844B     		ldr	r3, .L120+4
 1387 0046 93F83430 		ldrb	r3, [r3, #52]	@ zero_extendqisi2
 356:Generated_Source\PSoC5/cyPm.c ****         (CY_IMO_FREQ_24MHZ == cyPmImoFreqMhz2Reg[cyPmClockBackup.imoFreq]))
 1388              		.loc 1 356 7 view .LVU442
 1389 004a 13F0400F 		tst	r3, #64
 1390 004e 09D0     		beq	.L93
 357:Generated_Source\PSoC5/cyPm.c ****     {
 1391              		.loc 1 357 65 discriminator 1 view .LVU443
 1392 0050 814B     		ldr	r3, .L120+4
 1393 0052 93F83330 		ldrb	r3, [r3, #51]	@ zero_extendqisi2
 357:Generated_Source\PSoC5/cyPm.c ****     {
 1394              		.loc 1 357 49 discriminator 1 view .LVU444
 1395 0056 02AA     		add	r2, sp, #8
 1396 0058 1344     		add	r3, r3, r2
 1397 005a 13F8083C 		ldrb	r3, [r3, #-8]	@ zero_extendqisi2
 356:Generated_Source\PSoC5/cyPm.c ****         (CY_IMO_FREQ_24MHZ == cyPmImoFreqMhz2Reg[cyPmClockBackup.imoFreq]))
 1398              		.loc 1 356 71 discriminator 1 view .LVU445
 1399 005e 032B     		cmp	r3, #3
 1400 0060 00F0AC80 		beq	.L111
 1401              	.L93:
 365:Generated_Source\PSoC5/cyPm.c **** 
 1402              		.loc 1 365 9 is_stmt 1 view .LVU446
 365:Generated_Source\PSoC5/cyPm.c **** 
 1403              		.loc 1 365 57 is_stmt 0 view .LVU447
 1404 0064 7C4C     		ldr	r4, .L120+4
ARM GAS  C:\Users\jens-\AppData\Local\Temp\ccih1T9a.s 			page 63


 1405 0066 94F83330 		ldrb	r3, [r4, #51]	@ zero_extendqisi2
 365:Generated_Source\PSoC5/cyPm.c **** 
 1406              		.loc 1 365 9 view .LVU448
 1407 006a 02AA     		add	r2, sp, #8
 1408 006c 1344     		add	r3, r3, r2
 1409 006e 13F8080C 		ldrb	r0, [r3, #-8]	@ zero_extendqisi2
 1410 0072 FFF7FEFF 		bl	CyIMO_SetFreq
 1411              	.LVL33:
 367:Generated_Source\PSoC5/cyPm.c ****         {
 1412              		.loc 1 367 9 is_stmt 1 view .LVU449
 367:Generated_Source\PSoC5/cyPm.c ****         {
 1413              		.loc 1 367 34 is_stmt 0 view .LVU450
 1414 0076 94F83430 		ldrb	r3, [r4, #52]	@ zero_extendqisi2
 367:Generated_Source\PSoC5/cyPm.c ****         {
 1415              		.loc 1 367 11 view .LVU451
 1416 007a 13F0400F 		tst	r3, #64
 1417 007e 00F0A180 		beq	.L95
 369:Generated_Source\PSoC5/cyPm.c ****         }
 1418              		.loc 1 369 13 is_stmt 1 view .LVU452
 369:Generated_Source\PSoC5/cyPm.c ****         }
 1419              		.loc 1 369 38 is_stmt 0 view .LVU453
 1420 0082 764A     		ldr	r2, .L120+8
 1421 0084 1378     		ldrb	r3, [r2]	@ zero_extendqisi2
 1422 0086 43F04003 		orr	r3, r3, #64
 1423 008a 1370     		strb	r3, [r2]
 1424              	.L94:
 378:Generated_Source\PSoC5/cyPm.c ****        (0u == (CY_PM_ACT_CFG0_IMO & CY_PM_ACT_CFG0_REG)))
 1425              		.loc 1 378 5 is_stmt 1 view .LVU454
 378:Generated_Source\PSoC5/cyPm.c ****        (0u == (CY_PM_ACT_CFG0_IMO & CY_PM_ACT_CFG0_REG)))
 1426              		.loc 1 378 41 is_stmt 0 view .LVU455
 1427 008c 724B     		ldr	r3, .L120+4
 1428 008e 93F83630 		ldrb	r3, [r3, #54]	@ zero_extendqisi2
 378:Generated_Source\PSoC5/cyPm.c ****        (0u == (CY_PM_ACT_CFG0_IMO & CY_PM_ACT_CFG0_REG)))
 1429              		.loc 1 378 7 view .LVU456
 1430 0092 012B     		cmp	r3, #1
 1431 0094 00F09C80 		beq	.L112
 1432              	.L96:
 386:Generated_Source\PSoC5/cyPm.c **** 
 1433              		.loc 1 386 5 is_stmt 1 view .LVU457
 1434 0098 6F4C     		ldr	r4, .L120+4
 1435 009a 94F83700 		ldrb	r0, [r4, #55]	@ zero_extendqisi2
 1436 009e FFF7FEFF 		bl	CyIMO_SetSource
 1437              	.LVL34:
 389:Generated_Source\PSoC5/cyPm.c ****     {
 1438              		.loc 1 389 5 view .LVU458
 389:Generated_Source\PSoC5/cyPm.c ****     {
 1439              		.loc 1 389 40 is_stmt 0 view .LVU459
 1440 00a2 94F83930 		ldrb	r3, [r4, #57]	@ zero_extendqisi2
 389:Generated_Source\PSoC5/cyPm.c ****     {
 1441              		.loc 1 389 7 view .LVU460
 1442 00a6 012B     		cmp	r3, #1
 1443 00a8 00F09C80 		beq	.L113
 1444              	.L97:
 395:Generated_Source\PSoC5/cyPm.c ****     {
 1445              		.loc 1 395 5 is_stmt 1 view .LVU461
 395:Generated_Source\PSoC5/cyPm.c ****     {
 1446              		.loc 1 395 23 is_stmt 0 view .LVU462
ARM GAS  C:\Users\jens-\AppData\Local\Temp\ccih1T9a.s 			page 64


 1447 00ac 6A4B     		ldr	r3, .L120+4
 1448 00ae 93F83810 		ldrb	r1, [r3, #56]	@ zero_extendqisi2
 395:Generated_Source\PSoC5/cyPm.c ****     {
 1449              		.loc 1 395 38 view .LVU463
 1450 00b2 4FF04023 		mov	r3, #1073758208
 1451 00b6 1A78     		ldrb	r2, [r3]	@ zero_extendqisi2
 395:Generated_Source\PSoC5/cyPm.c ****     {
 1452              		.loc 1 395 7 view .LVU464
 1453 00b8 02F03002 		and	r2, r2, #48
 1454 00bc 8A42     		cmp	r2, r1
 1455 00be 08D0     		beq	.L98
 397:Generated_Source\PSoC5/cyPm.c ****                                 cyPmClockBackup.clkImoSrc;
 1456              		.loc 1 397 9 is_stmt 1 view .LVU465
 397:Generated_Source\PSoC5/cyPm.c ****                                 cyPmClockBackup.clkImoSrc;
 1457              		.loc 1 397 33 is_stmt 0 view .LVU466
 1458 00c0 1A46     		mov	r2, r3
 1459 00c2 1B78     		ldrb	r3, [r3]	@ zero_extendqisi2
 1460 00c4 5BB2     		sxtb	r3, r3
 397:Generated_Source\PSoC5/cyPm.c ****                                 cyPmClockBackup.clkImoSrc;
 1461              		.loc 1 397 54 view .LVU467
 1462 00c6 23F03003 		bic	r3, r3, #48
 398:Generated_Source\PSoC5/cyPm.c ****     }
 1463              		.loc 1 398 48 view .LVU468
 1464 00ca 49B2     		sxtb	r1, r1
 397:Generated_Source\PSoC5/cyPm.c ****                                 cyPmClockBackup.clkImoSrc;
 1465              		.loc 1 397 96 view .LVU469
 1466 00cc 0B43     		orrs	r3, r3, r1
 1467 00ce DBB2     		uxtb	r3, r3
 397:Generated_Source\PSoC5/cyPm.c ****                                 cyPmClockBackup.clkImoSrc;
 1468              		.loc 1 397 30 view .LVU470
 1469 00d0 1370     		strb	r3, [r2]
 1470              	.L98:
 403:Generated_Source\PSoC5/cyPm.c ****     {
 1471              		.loc 1 403 5 is_stmt 1 view .LVU471
 403:Generated_Source\PSoC5/cyPm.c ****     {
 1472              		.loc 1 403 40 is_stmt 0 view .LVU472
 1473 00d2 614B     		ldr	r3, .L120+4
 1474 00d4 93F83E30 		ldrb	r3, [r3, #62]	@ zero_extendqisi2
 403:Generated_Source\PSoC5/cyPm.c ****     {
 1475              		.loc 1 403 7 view .LVU473
 1476 00d8 012B     		cmp	r3, #1
 1477 00da 00F08680 		beq	.L114
 1478              	.L99:
 446:Generated_Source\PSoC5/cyPm.c ****     }   /* (CY_PM_ENABLED == cyPmClockBackup.pllEnableState) */
 1479              		.loc 1 446 9 is_stmt 1 view .LVU474
 451:Generated_Source\PSoC5/cyPm.c ****        (CY_PM_MASTER_CLK_SRC_PLL == cyPmClockBackup.masterClkSrc))
 1480              		.loc 1 451 5 view .LVU475
 451:Generated_Source\PSoC5/cyPm.c ****        (CY_PM_MASTER_CLK_SRC_PLL == cyPmClockBackup.masterClkSrc))
 1481              		.loc 1 451 52 is_stmt 0 view .LVU476
 1482 00de 5E4B     		ldr	r3, .L120+4
 1483 00e0 93F83230 		ldrb	r3, [r3, #50]	@ zero_extendqisi2
 451:Generated_Source\PSoC5/cyPm.c ****        (CY_PM_MASTER_CLK_SRC_PLL == cyPmClockBackup.masterClkSrc))
 1484              		.loc 1 451 7 view .LVU477
 1485 00e4 012B     		cmp	r3, #1
 1486 00e6 40F29D80 		bls	.L115
 1487              	.L103:
 465:Generated_Source\PSoC5/cyPm.c ****        (0u != (CY_PM_ACT_CFG0_IMO & CY_PM_ACT_CFG0_REG)))
ARM GAS  C:\Users\jens-\AppData\Local\Temp\ccih1T9a.s 			page 65


 1488              		.loc 1 465 5 is_stmt 1 view .LVU478
 465:Generated_Source\PSoC5/cyPm.c ****        (0u != (CY_PM_ACT_CFG0_IMO & CY_PM_ACT_CFG0_REG)))
 1489              		.loc 1 465 42 is_stmt 0 view .LVU479
 1490 00ea 5B4B     		ldr	r3, .L120+4
 1491 00ec 93F83630 		ldrb	r3, [r3, #54]	@ zero_extendqisi2
 465:Generated_Source\PSoC5/cyPm.c ****        (0u != (CY_PM_ACT_CFG0_IMO & CY_PM_ACT_CFG0_REG)))
 1492              		.loc 1 465 7 view .LVU480
 1493 00f0 2BB9     		cbnz	r3, .L105
 466:Generated_Source\PSoC5/cyPm.c ****     {
 1494              		.loc 1 466 37 discriminator 1 view .LVU481
 1495 00f2 5B4B     		ldr	r3, .L120+12
 1496 00f4 1B78     		ldrb	r3, [r3]	@ zero_extendqisi2
 465:Generated_Source\PSoC5/cyPm.c ****        (0u != (CY_PM_ACT_CFG0_IMO & CY_PM_ACT_CFG0_REG)))
 1497              		.loc 1 465 54 discriminator 1 view .LVU482
 1498 00f6 13F0100F 		tst	r3, #16
 1499 00fa 40F0A480 		bne	.L116
 1500              	.L105:
 472:Generated_Source\PSoC5/cyPm.c ****     clkBusDivTmp |= CY_PM_CLK_BUS_LSB_DIV_REG;
 1501              		.loc 1 472 5 is_stmt 1 view .LVU483
 472:Generated_Source\PSoC5/cyPm.c ****     clkBusDivTmp |= CY_PM_CLK_BUS_LSB_DIV_REG;
 1502              		.loc 1 472 38 is_stmt 0 view .LVU484
 1503 00fe 594B     		ldr	r3, .L120+16
 1504 0100 1A78     		ldrb	r2, [r3]	@ zero_extendqisi2
 1505              	.LVL35:
 473:Generated_Source\PSoC5/cyPm.c ****     if(cyPmClockBackup.clkBusDiv != clkBusDivTmp)
 1506              		.loc 1 473 5 is_stmt 1 view .LVU485
 473:Generated_Source\PSoC5/cyPm.c ****     if(cyPmClockBackup.clkBusDiv != clkBusDivTmp)
 1507              		.loc 1 473 21 is_stmt 0 view .LVU486
 1508 0102 013B     		subs	r3, r3, #1
 1509 0104 1B78     		ldrb	r3, [r3]	@ zero_extendqisi2
 473:Generated_Source\PSoC5/cyPm.c ****     if(cyPmClockBackup.clkBusDiv != clkBusDivTmp)
 1510              		.loc 1 473 18 view .LVU487
 1511 0106 43EA0223 		orr	r3, r3, r2, lsl #8
 1512              	.LVL36:
 474:Generated_Source\PSoC5/cyPm.c ****     {
 1513              		.loc 1 474 5 is_stmt 1 view .LVU488
 474:Generated_Source\PSoC5/cyPm.c ****     {
 1514              		.loc 1 474 23 is_stmt 0 view .LVU489
 1515 010a 534A     		ldr	r2, .L120+4
 1516 010c 908F     		ldrh	r0, [r2, #60]
 474:Generated_Source\PSoC5/cyPm.c ****     {
 1517              		.loc 1 474 7 view .LVU490
 1518 010e 9842     		cmp	r0, r3
 1519 0110 40F09C80 		bne	.L117
 1520              	.LVL37:
 1521              	.L106:
 480:Generated_Source\PSoC5/cyPm.c ****                            cyPmClockBackup.flashWaitCycles);
 1522              		.loc 1 480 5 is_stmt 1 view .LVU491
 480:Generated_Source\PSoC5/cyPm.c ****                            cyPmClockBackup.flashWaitCycles);
 1523              		.loc 1 480 28 is_stmt 0 view .LVU492
 1524 0114 5449     		ldr	r1, .L120+20
 1525 0116 0B78     		ldrb	r3, [r1]	@ zero_extendqisi2
 480:Generated_Source\PSoC5/cyPm.c ****                            cyPmClockBackup.flashWaitCycles);
 1526              		.loc 1 480 47 view .LVU493
 1527 0118 03F03F03 		and	r3, r3, #63
 481:Generated_Source\PSoC5/cyPm.c **** 
 1528              		.loc 1 481 43 view .LVU494
ARM GAS  C:\Users\jens-\AppData\Local\Temp\ccih1T9a.s 			page 66


 1529 011c 4E4A     		ldr	r2, .L120+4
 1530 011e 92F93500 		ldrsb	r0, [r2, #53]
 480:Generated_Source\PSoC5/cyPm.c ****                            cyPmClockBackup.flashWaitCycles);
 1531              		.loc 1 480 89 view .LVU495
 1532 0122 0343     		orrs	r3, r3, r0
 1533 0124 DBB2     		uxtb	r3, r3
 480:Generated_Source\PSoC5/cyPm.c ****                            cyPmClockBackup.flashWaitCycles);
 1534              		.loc 1 480 24 view .LVU496
 1535 0126 0B70     		strb	r3, [r1]
 484:Generated_Source\PSoC5/cyPm.c ****     CY_PM_ACT_CFG2_REG = cyPmClockBackup.enClkD;
 1536              		.loc 1 484 5 is_stmt 1 view .LVU497
 484:Generated_Source\PSoC5/cyPm.c ****     CY_PM_ACT_CFG2_REG = cyPmClockBackup.enClkD;
 1537              		.loc 1 484 41 is_stmt 0 view .LVU498
 1538 0128 92F83010 		ldrb	r1, [r2, #48]	@ zero_extendqisi2
 484:Generated_Source\PSoC5/cyPm.c ****     CY_PM_ACT_CFG2_REG = cyPmClockBackup.enClkD;
 1539              		.loc 1 484 24 view .LVU499
 1540 012c 4F4B     		ldr	r3, .L120+24
 1541 012e 1970     		strb	r1, [r3]
 485:Generated_Source\PSoC5/cyPm.c **** }
 1542              		.loc 1 485 5 is_stmt 1 view .LVU500
 485:Generated_Source\PSoC5/cyPm.c **** }
 1543              		.loc 1 485 41 is_stmt 0 view .LVU501
 1544 0130 92F83120 		ldrb	r2, [r2, #49]	@ zero_extendqisi2
 485:Generated_Source\PSoC5/cyPm.c **** }
 1545              		.loc 1 485 24 view .LVU502
 1546 0134 0133     		adds	r3, r3, #1
 1547 0136 1A70     		strb	r2, [r3]
 486:Generated_Source\PSoC5/cyPm.c **** 
 1548              		.loc 1 486 1 view .LVU503
 1549 0138 02B0     		add	sp, sp, #8
 1550              		.cfi_remember_state
 1551              		.cfi_def_cfa_offset 8
 1552              		@ sp needed
 1553 013a 10BD     		pop	{r4, pc}
 1554              	.LVL38:
 1555              	.L108:
 1556              		.cfi_restore_state
 284:Generated_Source\PSoC5/cyPm.c ****                         CY_PM_GET_CPU_FREQ_MHZ);
 1557              		.loc 1 284 9 is_stmt 1 view .LVU504
 285:Generated_Source\PSoC5/cyPm.c **** 
 1558              		.loc 1 285 25 is_stmt 0 view .LVU505
 1559 013c 474B     		ldr	r3, .L120+8
 1560 013e 1B78     		ldrb	r3, [r3]	@ zero_extendqisi2
 1561 0140 03F00703 		and	r3, r3, #7
 1562 0144 4A4A     		ldr	r2, .L120+28
 1563 0146 D05C     		ldrb	r0, [r2, r3]	@ zero_extendqisi2
 284:Generated_Source\PSoC5/cyPm.c ****                         CY_PM_GET_CPU_FREQ_MHZ);
 1564              		.loc 1 284 9 view .LVU506
 1565 0148 00EB8000 		add	r0, r0, r0, lsl #2
 1566 014c C0EB0010 		rsb	r0, r0, r0, lsl #4
 1567 0150 FFF7FEFF 		bl	CyDelayCycles
 1568              	.LVL39:
 287:Generated_Source\PSoC5/cyPm.c ****     }
 1569              		.loc 1 287 9 is_stmt 1 view .LVU507
 287:Generated_Source\PSoC5/cyPm.c ****     }
 1570              		.loc 1 287 33 is_stmt 0 view .LVU508
 1571 0154 474A     		ldr	r2, .L120+32
ARM GAS  C:\Users\jens-\AppData\Local\Temp\ccih1T9a.s 			page 67


 1572 0156 1378     		ldrb	r3, [r2]	@ zero_extendqisi2
 1573 0158 43F00403 		orr	r3, r3, #4
 1574 015c 1370     		strb	r3, [r2]
 1575 015e 60E7     		b	.L87
 1576              	.L109:
 301:Generated_Source\PSoC5/cyPm.c **** 
 1577              		.loc 1 301 9 is_stmt 1 view .LVU509
 301:Generated_Source\PSoC5/cyPm.c **** 
 1578              		.loc 1 301 16 is_stmt 0 view .LVU510
 1579 0160 0020     		movs	r0, #0
 1580 0162 FFF7FEFF 		bl	CyXTAL_Start
 1581              	.LVL40:
 304:Generated_Source\PSoC5/cyPm.c **** 
 1582              		.loc 1 304 9 is_stmt 1 view .LVU511
 1583 0166 444B     		ldr	r3, .L120+36
 1584 0168 1B78     		ldrb	r3, [r3]	@ zero_extendqisi2
 307:Generated_Source\PSoC5/cyPm.c ****         {
 1585              		.loc 1 307 9 view .LVU512
 1586              	.LVL41:
 307:Generated_Source\PSoC5/cyPm.c ****         {
 1587              		.loc 1 307 15 is_stmt 0 view .LVU513
 1588 016a 0524     		movs	r4, #5
 1589              	.LVL42:
 1590              	.L89:
 307:Generated_Source\PSoC5/cyPm.c ****         {
 1591              		.loc 1 307 52 is_stmt 1 discriminator 1 view .LVU514
 307:Generated_Source\PSoC5/cyPm.c ****         {
 1592              		.loc 1 307 9 is_stmt 0 discriminator 1 view .LVU515
 1593 016c 002C     		cmp	r4, #0
 1594 016e 3FF45EAF 		beq	.L88
 310:Generated_Source\PSoC5/cyPm.c **** 
 1595              		.loc 1 310 13 is_stmt 1 view .LVU516
 310:Generated_Source\PSoC5/cyPm.c **** 
 1596              		.loc 1 310 55 is_stmt 0 view .LVU517
 1597 0172 3A4B     		ldr	r3, .L120+8
 1598 0174 1B78     		ldrb	r3, [r3]	@ zero_extendqisi2
 1599 0176 03F00703 		and	r3, r3, #7
 1600 017a 3D4A     		ldr	r2, .L120+28
 1601 017c D35C     		ldrb	r3, [r2, r3]	@ zero_extendqisi2
 310:Generated_Source\PSoC5/cyPm.c **** 
 1602              		.loc 1 310 13 view .LVU518
 1603 017e C820     		movs	r0, #200
 1604 0180 00FB03F0 		mul	r0, r0, r3
 1605 0184 FFF7FEFF 		bl	CyDelayCycles
 1606              	.LVL43:
 313:Generated_Source\PSoC5/cyPm.c ****             {
 1607              		.loc 1 313 13 is_stmt 1 view .LVU519
 313:Generated_Source\PSoC5/cyPm.c ****             {
 1608              		.loc 1 313 23 is_stmt 0 view .LVU520
 1609 0188 3B4B     		ldr	r3, .L120+36
 1610 018a 1B78     		ldrb	r3, [r3]	@ zero_extendqisi2
 313:Generated_Source\PSoC5/cyPm.c ****             {
 1611              		.loc 1 313 15 view .LVU521
 1612 018c 13F0800F 		tst	r3, #128
 1613 0190 3FF44DAF 		beq	.L88
 307:Generated_Source\PSoC5/cyPm.c ****         {
 1614              		.loc 1 307 60 is_stmt 1 discriminator 2 view .LVU522
ARM GAS  C:\Users\jens-\AppData\Local\Temp\ccih1T9a.s 			page 68


 307:Generated_Source\PSoC5/cyPm.c ****         {
 1615              		.loc 1 307 61 is_stmt 0 discriminator 2 view .LVU523
 1616 0194 013C     		subs	r4, r4, #1
 1617              	.LVL44:
 307:Generated_Source\PSoC5/cyPm.c ****         {
 1618              		.loc 1 307 61 discriminator 2 view .LVU524
 1619 0196 A4B2     		uxth	r4, r4
 1620              	.LVL45:
 307:Generated_Source\PSoC5/cyPm.c ****         {
 1621              		.loc 1 307 61 discriminator 2 view .LVU525
 1622 0198 E8E7     		b	.L89
 1623              	.LVL46:
 1624              	.L110:
 345:Generated_Source\PSoC5/cyPm.c ****         {
 1625              		.loc 1 345 9 is_stmt 1 view .LVU526
 345:Generated_Source\PSoC5/cyPm.c ****         {
 1626              		.loc 1 345 12 is_stmt 0 view .LVU527
 1627 019a 384B     		ldr	r3, .L120+40
 1628 019c 1B78     		ldrb	r3, [r3]	@ zero_extendqisi2
 1629 019e DBB2     		uxtb	r3, r3
 345:Generated_Source\PSoC5/cyPm.c ****         {
 1630              		.loc 1 345 54 view .LVU528
 1631 01a0 2D4A     		ldr	r2, .L120+4
 1632 01a2 92F83A00 		ldrb	r0, [r2, #58]	@ zero_extendqisi2
 345:Generated_Source\PSoC5/cyPm.c ****         {
 1633              		.loc 1 345 11 view .LVU529
 1634 01a6 8342     		cmp	r3, r0
 1635 01a8 05D1     		bne	.L118
 1636              	.L92:
 352:Generated_Source\PSoC5/cyPm.c ****     }
 1637              		.loc 1 352 9 is_stmt 1 view .LVU530
 1638 01aa 2B4B     		ldr	r3, .L120+4
 1639 01ac 93F83200 		ldrb	r0, [r3, #50]	@ zero_extendqisi2
 1640 01b0 FFF7FEFF 		bl	CyMasterClk_SetSource
 1641              	.LVL47:
 1642 01b4 46E7     		b	.L91
 1643              	.L118:
 348:Generated_Source\PSoC5/cyPm.c ****         }
 1644              		.loc 1 348 13 view .LVU531
 1645 01b6 FFF7FEFF 		bl	CyMasterClk_SetDivider
 1646              	.LVL48:
 1647 01ba F6E7     		b	.L92
 1648              	.L111:
 360:Generated_Source\PSoC5/cyPm.c ****     }
 1649              		.loc 1 360 9 view .LVU532
 1650 01bc 0820     		movs	r0, #8
 1651 01be FFF7FEFF 		bl	CyIMO_SetFreq
 1652              	.LVL49:
 1653 01c2 63E7     		b	.L94
 1654              	.L95:
 373:Generated_Source\PSoC5/cyPm.c ****         }
 1655              		.loc 1 373 13 view .LVU533
 373:Generated_Source\PSoC5/cyPm.c ****         }
 1656              		.loc 1 373 38 is_stmt 0 view .LVU534
 1657 01c4 254A     		ldr	r2, .L120+8
 1658 01c6 1378     		ldrb	r3, [r2]	@ zero_extendqisi2
 1659 01c8 03F0BF03 		and	r3, r3, #191
ARM GAS  C:\Users\jens-\AppData\Local\Temp\ccih1T9a.s 			page 69


 1660 01cc 1370     		strb	r3, [r2]
 1661 01ce 5DE7     		b	.L94
 1662              	.L112:
 379:Generated_Source\PSoC5/cyPm.c ****     {
 1663              		.loc 1 379 37 discriminator 1 view .LVU535
 1664 01d0 234B     		ldr	r3, .L120+12
 1665 01d2 1B78     		ldrb	r3, [r3]	@ zero_extendqisi2
 378:Generated_Source\PSoC5/cyPm.c ****        (0u == (CY_PM_ACT_CFG0_IMO & CY_PM_ACT_CFG0_REG)))
 1666              		.loc 1 378 53 discriminator 1 view .LVU536
 1667 01d4 13F0100F 		tst	r3, #16
 1668 01d8 7FF45EAF 		bne	.L96
 382:Generated_Source\PSoC5/cyPm.c ****     }
 1669              		.loc 1 382 9 is_stmt 1 view .LVU537
 1670 01dc 0020     		movs	r0, #0
 1671 01de FFF7FEFF 		bl	CyIMO_Start
 1672              	.LVL50:
 1673 01e2 59E7     		b	.L96
 1674              	.L113:
 391:Generated_Source\PSoC5/cyPm.c ****     }
 1675              		.loc 1 391 9 view .LVU538
 1676 01e4 FFF7FEFF 		bl	CyIMO_EnableDoubler
 1677              	.LVL51:
 1678 01e8 60E7     		b	.L97
 1679              	.L114:
 411:Generated_Source\PSoC5/cyPm.c **** 
 1680              		.loc 1 411 9 view .LVU539
 1681              	.LVL52:
 414:Generated_Source\PSoC5/cyPm.c **** 
 1682              		.loc 1 414 9 view .LVU540
 414:Generated_Source\PSoC5/cyPm.c **** 
 1683              		.loc 1 414 16 is_stmt 0 view .LVU541
 1684 01ea 0020     		movs	r0, #0
 1685 01ec FFF7FEFF 		bl	CyPLL_OUT_Start
 1686              	.LVL53:
 417:Generated_Source\PSoC5/cyPm.c ****         (void) CY_PM_FASTCLK_PLL_SR_REG;
 1687              		.loc 1 417 9 is_stmt 1 view .LVU542
 1688 01f0 5020     		movs	r0, #80
 1689 01f2 FFF7FEFF 		bl	CyDelayUs
 1690              	.LVL54:
 418:Generated_Source\PSoC5/cyPm.c **** 
 1691              		.loc 1 418 9 view .LVU543
 1692 01f6 224B     		ldr	r3, .L120+44
 1693 01f8 1B78     		ldrb	r3, [r3]	@ zero_extendqisi2
 421:Generated_Source\PSoC5/cyPm.c ****         {
 1694              		.loc 1 421 9 view .LVU544
 1695              	.LVL55:
 421:Generated_Source\PSoC5/cyPm.c ****         {
 1696              		.loc 1 421 15 is_stmt 0 view .LVU545
 1697 01fa AB24     		movs	r4, #171
 421:Generated_Source\PSoC5/cyPm.c ****         {
 1698              		.loc 1 421 9 view .LVU546
 1699 01fc 01E0     		b	.L100
 1700              	.LVL56:
 1701              	.L101:
 421:Generated_Source\PSoC5/cyPm.c ****         {
 1702              		.loc 1 421 31 is_stmt 1 discriminator 2 view .LVU547
 421:Generated_Source\PSoC5/cyPm.c ****         {
ARM GAS  C:\Users\jens-\AppData\Local\Temp\ccih1T9a.s 			page 70


 1703              		.loc 1 421 32 is_stmt 0 discriminator 2 view .LVU548
 1704 01fe 013C     		subs	r4, r4, #1
 1705              	.LVL57:
 421:Generated_Source\PSoC5/cyPm.c ****         {
 1706              		.loc 1 421 32 discriminator 2 view .LVU549
 1707 0200 A4B2     		uxth	r4, r4
 1708              	.LVL58:
 1709              	.L100:
 421:Generated_Source\PSoC5/cyPm.c ****         {
 1710              		.loc 1 421 23 is_stmt 1 discriminator 1 view .LVU550
 421:Generated_Source\PSoC5/cyPm.c ****         {
 1711              		.loc 1 421 9 is_stmt 0 discriminator 1 view .LVU551
 1712 0202 002C     		cmp	r4, #0
 1713 0204 3FF46BAF 		beq	.L99
 423:Generated_Source\PSoC5/cyPm.c **** 
 1714              		.loc 1 423 13 is_stmt 1 view .LVU552
 1715 0208 0120     		movs	r0, #1
 1716 020a FFF7FEFF 		bl	CyDelayUs
 1717              	.LVL59:
 426:Generated_Source\PSoC5/cyPm.c ****                (0u != (CY_PM_FASTCLK_PLL_SR_REG & CY_PM_FASTCLK_PLL_LOCKED)))
 1718              		.loc 1 426 13 view .LVU553
 426:Generated_Source\PSoC5/cyPm.c ****                (0u != (CY_PM_FASTCLK_PLL_SR_REG & CY_PM_FASTCLK_PLL_LOCKED)))
 1719              		.loc 1 426 24 is_stmt 0 view .LVU554
 1720 020e 1C4B     		ldr	r3, .L120+44
 1721 0210 1B78     		ldrb	r3, [r3]	@ zero_extendqisi2
 426:Generated_Source\PSoC5/cyPm.c ****                (0u != (CY_PM_FASTCLK_PLL_SR_REG & CY_PM_FASTCLK_PLL_LOCKED)))
 1722              		.loc 1 426 15 view .LVU555
 1723 0212 13F0010F 		tst	r3, #1
 1724 0216 F2D0     		beq	.L101
 427:Generated_Source\PSoC5/cyPm.c ****             {
 1725              		.loc 1 427 24 discriminator 1 view .LVU556
 1726 0218 194B     		ldr	r3, .L120+44
 1727 021a 1B78     		ldrb	r3, [r3]	@ zero_extendqisi2
 426:Generated_Source\PSoC5/cyPm.c ****                (0u != (CY_PM_FASTCLK_PLL_SR_REG & CY_PM_FASTCLK_PLL_LOCKED)))
 1728              		.loc 1 426 78 discriminator 1 view .LVU557
 1729 021c 13F0010F 		tst	r3, #1
 1730 0220 EDD0     		beq	.L101
 1731 0222 5CE7     		b	.L99
 1732              	.LVL60:
 1733              	.L115:
 455:Generated_Source\PSoC5/cyPm.c ****         {
 1734              		.loc 1 455 9 is_stmt 1 view .LVU558
 455:Generated_Source\PSoC5/cyPm.c ****         {
 1735              		.loc 1 455 12 is_stmt 0 view .LVU559
 1736 0224 154B     		ldr	r3, .L120+40
 1737 0226 1B78     		ldrb	r3, [r3]	@ zero_extendqisi2
 1738 0228 DBB2     		uxtb	r3, r3
 455:Generated_Source\PSoC5/cyPm.c ****         {
 1739              		.loc 1 455 54 view .LVU560
 1740 022a 0B4A     		ldr	r2, .L120+4
 1741 022c 92F83A00 		ldrb	r0, [r2, #58]	@ zero_extendqisi2
 455:Generated_Source\PSoC5/cyPm.c ****         {
 1742              		.loc 1 455 11 view .LVU561
 1743 0230 8342     		cmp	r3, r0
 1744 0232 05D1     		bne	.L119
 1745              	.L104:
 461:Generated_Source\PSoC5/cyPm.c ****     }
ARM GAS  C:\Users\jens-\AppData\Local\Temp\ccih1T9a.s 			page 71


 1746              		.loc 1 461 9 is_stmt 1 view .LVU562
 1747 0234 084B     		ldr	r3, .L120+4
 1748 0236 93F83200 		ldrb	r0, [r3, #50]	@ zero_extendqisi2
 1749 023a FFF7FEFF 		bl	CyMasterClk_SetSource
 1750              	.LVL61:
 1751 023e 54E7     		b	.L103
 1752              	.L119:
 457:Generated_Source\PSoC5/cyPm.c ****         }
 1753              		.loc 1 457 13 view .LVU563
 1754 0240 FFF7FEFF 		bl	CyMasterClk_SetDivider
 1755              	.LVL62:
 1756 0244 F6E7     		b	.L104
 1757              	.L116:
 468:Generated_Source\PSoC5/cyPm.c ****     }
 1758              		.loc 1 468 9 view .LVU564
 1759 0246 FFF7FEFF 		bl	CyIMO_Stop
 1760              	.LVL63:
 1761 024a 58E7     		b	.L105
 1762              	.LVL64:
 1763              	.L117:
 476:Generated_Source\PSoC5/cyPm.c ****     }
 1764              		.loc 1 476 9 view .LVU565
 1765 024c FFF7FEFF 		bl	CyBusClk_SetDivider
 1766              	.LVL65:
 476:Generated_Source\PSoC5/cyPm.c ****     }
 1767              		.loc 1 476 9 is_stmt 0 view .LVU566
 1768 0250 60E7     		b	.L106
 1769              	.L121:
 1770 0252 00BF     		.align	2
 1771              	.L120:
 1772 0254 08000000 		.word	.LANCHOR1+8
 1773 0258 00000000 		.word	.LANCHOR0
 1774 025c 00420040 		.word	1073758720
 1775 0260 A0430040 		.word	1073759136
 1776 0264 07400040 		.word	1073758215
 1777 0268 00480040 		.word	1073760256
 1778 026c A1430040 		.word	1073759137
 1779 0270 00000000 		.word	.LANCHOR1
 1780 0274 0B400040 		.word	1073758219
 1781 0278 10420040 		.word	1073758736
 1782 027c 04400040 		.word	1073758212
 1783 0280 25420040 		.word	1073758757
 1784              		.cfi_endproc
 1785              	.LFE1:
 1786              		.size	CyPmRestoreClocks, .-CyPmRestoreClocks
 1787              		.section	.text.CyPmAltAct,"ax",%progbits
 1788              		.align	1
 1789              		.global	CyPmAltAct
 1790              		.syntax unified
 1791              		.thumb
 1792              		.thumb_func
 1793              		.fpu softvfp
 1794              		.type	CyPmAltAct, %function
 1795              	CyPmAltAct:
 1796              	.LVL66:
 1797              	.LFB2:
 626:Generated_Source\PSoC5/cyPm.c ****     #if(CY_PSOC5)
ARM GAS  C:\Users\jens-\AppData\Local\Temp\ccih1T9a.s 			page 72


 1798              		.loc 1 626 1 is_stmt 1 view -0
 1799              		.cfi_startproc
 1800              		@ args = 0, pretend = 0, frame = 0
 1801              		@ frame_needed = 0, uses_anonymous_args = 0
 626:Generated_Source\PSoC5/cyPm.c ****     #if(CY_PSOC5)
 1802              		.loc 1 626 1 is_stmt 0 view .LVU568
 1803 0000 38B5     		push	{r3, r4, r5, lr}
 1804              		.cfi_def_cfa_offset 16
 1805              		.cfi_offset 3, -16
 1806              		.cfi_offset 4, -12
 1807              		.cfi_offset 5, -8
 1808              		.cfi_offset 14, -4
 1809 0002 0C46     		mov	r4, r1
 630:Generated_Source\PSoC5/cyPm.c **** 
 1810              		.loc 1 630 9 is_stmt 1 view .LVU569
 1811 0004 20BB     		cbnz	r0, .L125
 1812              	.LVL67:
 1813              	.L123:
 630:Generated_Source\PSoC5/cyPm.c **** 
 1814              		.loc 1 630 53 view .LVU570
 632:Generated_Source\PSoC5/cyPm.c ****         {
 1815              		.loc 1 632 9 view .LVU571
 635:Generated_Source\PSoC5/cyPm.c **** 
 1816              		.loc 1 635 9 view .LVU572
 677:Generated_Source\PSoC5/cyPm.c ****     CY_PM_WAKEUP_CFG0_REG = (uint8) (wakeupSource >> 4u);
 1817              		.loc 1 677 5 view .LVU573
 677:Generated_Source\PSoC5/cyPm.c ****     CY_PM_WAKEUP_CFG0_REG = (uint8) (wakeupSource >> 4u);
 1818              		.loc 1 677 29 is_stmt 0 view .LVU574
 1819 0006 144D     		ldr	r5, .L126
 1820 0008 2B78     		ldrb	r3, [r5]	@ zero_extendqisi2
 677:Generated_Source\PSoC5/cyPm.c ****     CY_PM_WAKEUP_CFG0_REG = (uint8) (wakeupSource >> 4u);
 1821              		.loc 1 677 27 view .LVU575
 1822 000a 144A     		ldr	r2, .L126+4
 1823 000c 1371     		strb	r3, [r2, #4]
 678:Generated_Source\PSoC5/cyPm.c **** 
 1824              		.loc 1 678 5 is_stmt 1 view .LVU576
 678:Generated_Source\PSoC5/cyPm.c **** 
 1825              		.loc 1 678 29 is_stmt 0 view .LVU577
 1826 000e C4F30713 		ubfx	r3, r4, #4, #8
 678:Generated_Source\PSoC5/cyPm.c **** 
 1827              		.loc 1 678 27 view .LVU578
 1828 0012 2B70     		strb	r3, [r5]
 681:Generated_Source\PSoC5/cyPm.c ****     CY_PM_WAKEUP_CFG1_REG = (((uint8) wakeupSource) & CY_PM_WAKEUP_SRC_CMPS_MASK);
 1829              		.loc 1 681 5 is_stmt 1 view .LVU579
 681:Generated_Source\PSoC5/cyPm.c ****     CY_PM_WAKEUP_CFG1_REG = (((uint8) wakeupSource) & CY_PM_WAKEUP_SRC_CMPS_MASK);
 1830              		.loc 1 681 29 is_stmt 0 view .LVU580
 1831 0014 1248     		ldr	r0, .L126+8
 1832 0016 0378     		ldrb	r3, [r0]	@ zero_extendqisi2
 681:Generated_Source\PSoC5/cyPm.c ****     CY_PM_WAKEUP_CFG1_REG = (((uint8) wakeupSource) & CY_PM_WAKEUP_SRC_CMPS_MASK);
 1833              		.loc 1 681 27 view .LVU581
 1834 0018 5371     		strb	r3, [r2, #5]
 682:Generated_Source\PSoC5/cyPm.c **** 
 1835              		.loc 1 682 5 is_stmt 1 view .LVU582
 682:Generated_Source\PSoC5/cyPm.c **** 
 1836              		.loc 1 682 53 is_stmt 0 view .LVU583
 1837 001a 04F00F03 		and	r3, r4, #15
 682:Generated_Source\PSoC5/cyPm.c **** 
ARM GAS  C:\Users\jens-\AppData\Local\Temp\ccih1T9a.s 			page 73


 1838              		.loc 1 682 27 view .LVU584
 1839 001e 0370     		strb	r3, [r0]
 685:Generated_Source\PSoC5/cyPm.c ****     CY_PM_WAKEUP_CFG2_REG = ((uint8) ((wakeupSource >> 12u) & 0x01u));
 1840              		.loc 1 685 5 is_stmt 1 view .LVU585
 685:Generated_Source\PSoC5/cyPm.c ****     CY_PM_WAKEUP_CFG2_REG = ((uint8) ((wakeupSource >> 12u) & 0x01u));
 1841              		.loc 1 685 29 is_stmt 0 view .LVU586
 1842 0020 1049     		ldr	r1, .L126+12
 1843 0022 0B78     		ldrb	r3, [r1]	@ zero_extendqisi2
 685:Generated_Source\PSoC5/cyPm.c ****     CY_PM_WAKEUP_CFG2_REG = ((uint8) ((wakeupSource >> 12u) & 0x01u));
 1844              		.loc 1 685 27 view .LVU587
 1845 0024 9371     		strb	r3, [r2, #6]
 686:Generated_Source\PSoC5/cyPm.c **** 
 1846              		.loc 1 686 5 is_stmt 1 view .LVU588
 686:Generated_Source\PSoC5/cyPm.c **** 
 1847              		.loc 1 686 30 is_stmt 0 view .LVU589
 1848 0026 C4F30034 		ubfx	r4, r4, #12, #1
 686:Generated_Source\PSoC5/cyPm.c **** 
 1849              		.loc 1 686 27 view .LVU590
 1850 002a 0C70     		strb	r4, [r1]
 690:Generated_Source\PSoC5/cyPm.c **** 
 1851              		.loc 1 690 5 is_stmt 1 view .LVU591
 690:Generated_Source\PSoC5/cyPm.c **** 
 1852              		.loc 1 690 28 is_stmt 0 view .LVU592
 1853 002c 0E4C     		ldr	r4, .L126+16
 1854 002e 2378     		ldrb	r3, [r4]	@ zero_extendqisi2
 690:Generated_Source\PSoC5/cyPm.c **** 
 1855              		.loc 1 690 47 view .LVU593
 1856 0030 03F0F803 		and	r3, r3, #248
 690:Generated_Source\PSoC5/cyPm.c **** 
 1857              		.loc 1 690 82 view .LVU594
 1858 0034 43F00103 		orr	r3, r3, #1
 690:Generated_Source\PSoC5/cyPm.c **** 
 1859              		.loc 1 690 24 view .LVU595
 1860 0038 2370     		strb	r3, [r4]
 693:Generated_Source\PSoC5/cyPm.c **** 
 1861              		.loc 1 693 5 is_stmt 1 view .LVU596
 1862 003a 2378     		ldrb	r3, [r4]	@ zero_extendqisi2
 696:Generated_Source\PSoC5/cyPm.c ****     CY_NOP;
 1863              		.loc 1 696 5 view .LVU597
 1864              		.syntax unified
 1865              	@ 696 "Generated_Source\PSoC5\cyPm.c" 1
 1866 003c 00BF     		NOP
 1867              	
 1868              	@ 0 "" 2
 697:Generated_Source\PSoC5/cyPm.c **** 
 1869              		.loc 1 697 5 view .LVU598
 1870              	@ 697 "Generated_Source\PSoC5\cyPm.c" 1
 1871 003e 00BF     		NOP
 1872              	
 1873              	@ 0 "" 2
 700:Generated_Source\PSoC5/cyPm.c **** 
 1874              		.loc 1 700 5 view .LVU599
 1875              	@ 700 "Generated_Source\PSoC5\cyPm.c" 1
 1876 0040 30BF     		WFI 
 1877              	
 1878              	@ 0 "" 2
 705:Generated_Source\PSoC5/cyPm.c ****     CY_PM_WAKEUP_CFG1_REG = cyPmBackup.wakeupCfg1;
ARM GAS  C:\Users\jens-\AppData\Local\Temp\ccih1T9a.s 			page 74


 1879              		.loc 1 705 5 view .LVU600
 705:Generated_Source\PSoC5/cyPm.c ****     CY_PM_WAKEUP_CFG1_REG = cyPmBackup.wakeupCfg1;
 1880              		.loc 1 705 39 is_stmt 0 view .LVU601
 1881              		.thumb
 1882              		.syntax unified
 1883 0042 1379     		ldrb	r3, [r2, #4]	@ zero_extendqisi2
 705:Generated_Source\PSoC5/cyPm.c ****     CY_PM_WAKEUP_CFG1_REG = cyPmBackup.wakeupCfg1;
 1884              		.loc 1 705 27 view .LVU602
 1885 0044 2B70     		strb	r3, [r5]
 706:Generated_Source\PSoC5/cyPm.c ****     CY_PM_WAKEUP_CFG2_REG = cyPmBackup.wakeupCfg2;
 1886              		.loc 1 706 5 is_stmt 1 view .LVU603
 706:Generated_Source\PSoC5/cyPm.c ****     CY_PM_WAKEUP_CFG2_REG = cyPmBackup.wakeupCfg2;
 1887              		.loc 1 706 39 is_stmt 0 view .LVU604
 1888 0046 5379     		ldrb	r3, [r2, #5]	@ zero_extendqisi2
 706:Generated_Source\PSoC5/cyPm.c ****     CY_PM_WAKEUP_CFG2_REG = cyPmBackup.wakeupCfg2;
 1889              		.loc 1 706 27 view .LVU605
 1890 0048 0370     		strb	r3, [r0]
 707:Generated_Source\PSoC5/cyPm.c **** }
 1891              		.loc 1 707 5 is_stmt 1 view .LVU606
 707:Generated_Source\PSoC5/cyPm.c **** }
 1892              		.loc 1 707 39 is_stmt 0 view .LVU607
 1893 004a 9379     		ldrb	r3, [r2, #6]	@ zero_extendqisi2
 707:Generated_Source\PSoC5/cyPm.c **** }
 1894              		.loc 1 707 27 view .LVU608
 1895 004c 0B70     		strb	r3, [r1]
 708:Generated_Source\PSoC5/cyPm.c **** 
 1896              		.loc 1 708 1 view .LVU609
 1897 004e 38BD     		pop	{r3, r4, r5, pc}
 1898              	.LVL68:
 1899              	.L125:
 630:Generated_Source\PSoC5/cyPm.c **** 
 1900              		.loc 1 630 9 is_stmt 1 discriminator 1 view .LVU610
 1901 0050 0020     		movs	r0, #0
 1902              	.LVL69:
 630:Generated_Source\PSoC5/cyPm.c **** 
 1903              		.loc 1 630 9 is_stmt 0 discriminator 1 view .LVU611
 1904 0052 FFF7FEFF 		bl	CyHalt
 1905              	.LVL70:
 630:Generated_Source\PSoC5/cyPm.c **** 
 1906              		.loc 1 630 9 discriminator 1 view .LVU612
 1907 0056 D6E7     		b	.L123
 1908              	.L127:
 1909              		.align	2
 1910              	.L126:
 1911 0058 98430040 		.word	1073759128
 1912 005c 00000000 		.word	.LANCHOR0
 1913 0060 99430040 		.word	1073759129
 1914 0064 9A430040 		.word	1073759130
 1915 0068 93430040 		.word	1073759123
 1916              		.cfi_endproc
 1917              	.LFE2:
 1918              		.size	CyPmAltAct, .-CyPmAltAct
 1919              		.section	.text.CyPmSleep,"ax",%progbits
 1920              		.align	1
 1921              		.global	CyPmSleep
 1922              		.syntax unified
 1923              		.thumb
ARM GAS  C:\Users\jens-\AppData\Local\Temp\ccih1T9a.s 			page 75


 1924              		.thumb_func
 1925              		.fpu softvfp
 1926              		.type	CyPmSleep, %function
 1927              	CyPmSleep:
 1928              	.LVL71:
 1929              	.LFB3:
 825:Generated_Source\PSoC5/cyPm.c ****     uint8 interruptState;
 1930              		.loc 1 825 1 is_stmt 1 view -0
 1931              		.cfi_startproc
 1932              		@ args = 0, pretend = 0, frame = 0
 1933              		@ frame_needed = 0, uses_anonymous_args = 0
 825:Generated_Source\PSoC5/cyPm.c ****     uint8 interruptState;
 1934              		.loc 1 825 1 is_stmt 0 view .LVU614
 1935 0000 70B5     		push	{r4, r5, r6, lr}
 1936              		.cfi_def_cfa_offset 16
 1937              		.cfi_offset 4, -16
 1938              		.cfi_offset 5, -12
 1939              		.cfi_offset 6, -8
 1940              		.cfi_offset 14, -4
 1941 0002 0646     		mov	r6, r0
 1942 0004 0C46     		mov	r4, r1
 826:Generated_Source\PSoC5/cyPm.c **** 
 1943              		.loc 1 826 5 is_stmt 1 view .LVU615
 829:Generated_Source\PSoC5/cyPm.c **** 
 1944              		.loc 1 829 5 view .LVU616
 829:Generated_Source\PSoC5/cyPm.c **** 
 1945              		.loc 1 829 22 is_stmt 0 view .LVU617
 1946 0006 FFF7FEFF 		bl	CyEnterCriticalSection
 1947              	.LVL72:
 829:Generated_Source\PSoC5/cyPm.c **** 
 1948              		.loc 1 829 22 view .LVU618
 1949 000a 0546     		mov	r5, r0
 1950              	.LVL73:
 838:Generated_Source\PSoC5/cyPm.c ****     {
 1951              		.loc 1 838 5 is_stmt 1 view .LVU619
 838:Generated_Source\PSoC5/cyPm.c ****     {
 1952              		.loc 1 838 15 is_stmt 0 view .LVU620
 1953 000c 354B     		ldr	r3, .L138
 1954 000e 1B78     		ldrb	r3, [r3]	@ zero_extendqisi2
 838:Generated_Source\PSoC5/cyPm.c ****     {
 1955              		.loc 1 838 7 view .LVU621
 1956 0010 13F0080F 		tst	r3, #8
 1957 0014 50D1     		bne	.L129
 841:Generated_Source\PSoC5/cyPm.c ****     }
 1958              		.loc 1 841 9 is_stmt 1 view .LVU622
 841:Generated_Source\PSoC5/cyPm.c ****     }
 1959              		.loc 1 841 33 is_stmt 0 view .LVU623
 1960 0016 344A     		ldr	r2, .L138+4
 1961 0018 1378     		ldrb	r3, [r2]	@ zero_extendqisi2
 1962 001a 03F01F03 		and	r3, r3, #31
 1963 001e 1370     		strb	r3, [r2]
 910:Generated_Source\PSoC5/cyPm.c **** 
 1964              		.loc 1 910 9 is_stmt 1 view .LVU624
 1965 0020 002E     		cmp	r6, #0
 1966 0022 4CD1     		bne	.L137
 1967              	.LVL74:
 1968              	.L131:
ARM GAS  C:\Users\jens-\AppData\Local\Temp\ccih1T9a.s 			page 76


 910:Generated_Source\PSoC5/cyPm.c **** 
 1969              		.loc 1 910 51 view .LVU625
 912:Generated_Source\PSoC5/cyPm.c ****         {
 1970              		.loc 1 912 9 view .LVU626
 915:Generated_Source\PSoC5/cyPm.c **** 
 1971              		.loc 1 915 9 view .LVU627
 920:Generated_Source\PSoC5/cyPm.c **** 
 1972              		.loc 1 920 5 view .LVU628
 1973 0024 FFF7FEFF 		bl	CyPmHibSlpSaveSet
 1974              	.LVL75:
 951:Generated_Source\PSoC5/cyPm.c ****     CY_PM_WAKEUP_CFG0_REG = (uint8) (wakeupSource >> 4u);
 1975              		.loc 1 951 5 view .LVU629
 951:Generated_Source\PSoC5/cyPm.c ****     CY_PM_WAKEUP_CFG0_REG = (uint8) (wakeupSource >> 4u);
 1976              		.loc 1 951 29 is_stmt 0 view .LVU630
 1977 0028 304A     		ldr	r2, .L138+8
 1978 002a 1178     		ldrb	r1, [r2]	@ zero_extendqisi2
 951:Generated_Source\PSoC5/cyPm.c ****     CY_PM_WAKEUP_CFG0_REG = (uint8) (wakeupSource >> 4u);
 1979              		.loc 1 951 27 view .LVU631
 1980 002c 304B     		ldr	r3, .L138+12
 1981 002e 1971     		strb	r1, [r3, #4]
 952:Generated_Source\PSoC5/cyPm.c **** 
 1982              		.loc 1 952 5 is_stmt 1 view .LVU632
 952:Generated_Source\PSoC5/cyPm.c **** 
 1983              		.loc 1 952 29 is_stmt 0 view .LVU633
 1984 0030 C4F30711 		ubfx	r1, r4, #4, #8
 952:Generated_Source\PSoC5/cyPm.c **** 
 1985              		.loc 1 952 27 view .LVU634
 1986 0034 1170     		strb	r1, [r2]
 955:Generated_Source\PSoC5/cyPm.c ****     CY_PM_WAKEUP_CFG1_REG = (((uint8) wakeupSource) & CY_PM_WAKEUP_SRC_CMPS_MASK);
 1987              		.loc 1 955 5 is_stmt 1 view .LVU635
 955:Generated_Source\PSoC5/cyPm.c ****     CY_PM_WAKEUP_CFG1_REG = (((uint8) wakeupSource) & CY_PM_WAKEUP_SRC_CMPS_MASK);
 1988              		.loc 1 955 29 is_stmt 0 view .LVU636
 1989 0036 0132     		adds	r2, r2, #1
 1990 0038 1178     		ldrb	r1, [r2]	@ zero_extendqisi2
 955:Generated_Source\PSoC5/cyPm.c ****     CY_PM_WAKEUP_CFG1_REG = (((uint8) wakeupSource) & CY_PM_WAKEUP_SRC_CMPS_MASK);
 1991              		.loc 1 955 27 view .LVU637
 1992 003a 5971     		strb	r1, [r3, #5]
 956:Generated_Source\PSoC5/cyPm.c **** 
 1993              		.loc 1 956 5 is_stmt 1 view .LVU638
 956:Generated_Source\PSoC5/cyPm.c **** 
 1994              		.loc 1 956 53 is_stmt 0 view .LVU639
 1995 003c 04F00F01 		and	r1, r4, #15
 956:Generated_Source\PSoC5/cyPm.c **** 
 1996              		.loc 1 956 27 view .LVU640
 1997 0040 1170     		strb	r1, [r2]
 959:Generated_Source\PSoC5/cyPm.c ****     CY_PM_WAKEUP_CFG2_REG = ((uint8) ((wakeupSource >> 12u) & 0x01u));
 1998              		.loc 1 959 5 is_stmt 1 view .LVU641
 959:Generated_Source\PSoC5/cyPm.c ****     CY_PM_WAKEUP_CFG2_REG = ((uint8) ((wakeupSource >> 12u) & 0x01u));
 1999              		.loc 1 959 29 is_stmt 0 view .LVU642
 2000 0042 0132     		adds	r2, r2, #1
 2001 0044 1178     		ldrb	r1, [r2]	@ zero_extendqisi2
 959:Generated_Source\PSoC5/cyPm.c ****     CY_PM_WAKEUP_CFG2_REG = ((uint8) ((wakeupSource >> 12u) & 0x01u));
 2002              		.loc 1 959 27 view .LVU643
 2003 0046 9971     		strb	r1, [r3, #6]
 960:Generated_Source\PSoC5/cyPm.c **** 
 2004              		.loc 1 960 5 is_stmt 1 view .LVU644
 960:Generated_Source\PSoC5/cyPm.c **** 
ARM GAS  C:\Users\jens-\AppData\Local\Temp\ccih1T9a.s 			page 77


 2005              		.loc 1 960 30 is_stmt 0 view .LVU645
 2006 0048 C4F30034 		ubfx	r4, r4, #12, #1
 960:Generated_Source\PSoC5/cyPm.c **** 
 2007              		.loc 1 960 27 view .LVU646
 2008 004c 1470     		strb	r4, [r2]
 976:Generated_Source\PSoC5/cyPm.c ****     {
 2009              		.loc 1 976 5 is_stmt 1 view .LVU647
 976:Generated_Source\PSoC5/cyPm.c ****     {
 2010              		.loc 1 976 15 is_stmt 0 view .LVU648
 2011 004e 294B     		ldr	r3, .L138+16
 2012 0050 1B78     		ldrb	r3, [r3]	@ zero_extendqisi2
 976:Generated_Source\PSoC5/cyPm.c ****     {
 2013              		.loc 1 976 7 view .LVU649
 2014 0052 13F0070F 		tst	r3, #7
 2015 0056 36D1     		bne	.L133
 979:Generated_Source\PSoC5/cyPm.c ****     }
 2016              		.loc 1 979 9 is_stmt 1 view .LVU650
 979:Generated_Source\PSoC5/cyPm.c ****     }
 2017              		.loc 1 979 36 is_stmt 0 view .LVU651
 2018 0058 254B     		ldr	r3, .L138+12
 2019 005a 0122     		movs	r2, #1
 2020 005c 83F82E20 		strb	r2, [r3, #46]
 2021              	.L134:
 994:Generated_Source\PSoC5/cyPm.c **** 
 2022              		.loc 1 994 5 is_stmt 1 view .LVU652
 994:Generated_Source\PSoC5/cyPm.c **** 
 2023              		.loc 1 994 28 is_stmt 0 view .LVU653
 2024 0060 204A     		ldr	r2, .L138
 2025 0062 1378     		ldrb	r3, [r2]	@ zero_extendqisi2
 994:Generated_Source\PSoC5/cyPm.c **** 
 2026              		.loc 1 994 47 view .LVU654
 2027 0064 03F0F803 		and	r3, r3, #248
 994:Generated_Source\PSoC5/cyPm.c **** 
 2028              		.loc 1 994 82 view .LVU655
 2029 0068 43F00303 		orr	r3, r3, #3
 994:Generated_Source\PSoC5/cyPm.c **** 
 2030              		.loc 1 994 24 view .LVU656
 2031 006c 1370     		strb	r3, [r2]
 997:Generated_Source\PSoC5/cyPm.c **** 
 2032              		.loc 1 997 5 is_stmt 1 view .LVU657
 2033 006e 1378     		ldrb	r3, [r2]	@ zero_extendqisi2
1000:Generated_Source\PSoC5/cyPm.c ****     CY_NOP;
 2034              		.loc 1 1000 5 view .LVU658
 2035              		.syntax unified
 2036              	@ 1000 "Generated_Source\PSoC5\cyPm.c" 1
 2037 0070 00BF     		NOP
 2038              	
 2039              	@ 0 "" 2
1001:Generated_Source\PSoC5/cyPm.c **** 
 2040              		.loc 1 1001 5 view .LVU659
 2041              	@ 1001 "Generated_Source\PSoC5\cyPm.c" 1
 2042 0072 00BF     		NOP
 2043              	
 2044              	@ 0 "" 2
1004:Generated_Source\PSoC5/cyPm.c **** 
 2045              		.loc 1 1004 5 view .LVU660
 2046              	@ 1004 "Generated_Source\PSoC5\cyPm.c" 1
ARM GAS  C:\Users\jens-\AppData\Local\Temp\ccih1T9a.s 			page 78


 2047 0074 30BF     		WFI 
 2048              	
 2049              	@ 0 "" 2
1009:Generated_Source\PSoC5/cyPm.c ****     {
 2050              		.loc 1 1009 5 view .LVU661
1009:Generated_Source\PSoC5/cyPm.c ****     {
 2051              		.loc 1 1009 35 is_stmt 0 view .LVU662
 2052              		.thumb
 2053              		.syntax unified
 2054 0076 1E4B     		ldr	r3, .L138+12
 2055 0078 93F82E30 		ldrb	r3, [r3, #46]	@ zero_extendqisi2
1009:Generated_Source\PSoC5/cyPm.c ****     {
 2056              		.loc 1 1009 7 view .LVU663
 2057 007c 012B     		cmp	r3, #1
 2058 007e 0BD0     		beq	.L135
1011:Generated_Source\PSoC5/cyPm.c ****                                     cyPmBackup.imoActFreq;
 2059              		.loc 1 1011 9 is_stmt 1 view .LVU664
1011:Generated_Source\PSoC5/cyPm.c ****                                     cyPmBackup.imoActFreq;
 2060              		.loc 1 1011 38 is_stmt 0 view .LVU665
 2061 0080 A2F29312 		subw	r2, r2, #403
 2062 0084 1378     		ldrb	r3, [r2]	@ zero_extendqisi2
 2063 0086 5BB2     		sxtb	r3, r3
1011:Generated_Source\PSoC5/cyPm.c ****                                     cyPmBackup.imoActFreq;
 2064              		.loc 1 1011 63 view .LVU666
 2065 0088 23F00703 		bic	r3, r3, #7
1012:Generated_Source\PSoC5/cyPm.c ****     }
 2066              		.loc 1 1012 47 view .LVU667
 2067 008c 1849     		ldr	r1, .L138+12
 2068 008e 91F92D10 		ldrsb	r1, [r1, #45]
1011:Generated_Source\PSoC5/cyPm.c ****                                     cyPmBackup.imoActFreq;
 2069              		.loc 1 1011 109 view .LVU668
 2070 0092 0B43     		orrs	r3, r3, r1
 2071 0094 DBB2     		uxtb	r3, r3
1011:Generated_Source\PSoC5/cyPm.c ****                                     cyPmBackup.imoActFreq;
 2072              		.loc 1 1011 35 view .LVU669
 2073 0096 1370     		strb	r3, [r2]
 2074              	.L135:
1029:Generated_Source\PSoC5/cyPm.c **** 
 2075              		.loc 1 1029 5 is_stmt 1 view .LVU670
 2076 0098 FFF7FEFF 		bl	CyPmHibSlpRestore
 2077              	.LVL76:
1051:Generated_Source\PSoC5/cyPm.c ****     CY_PM_WAKEUP_CFG1_REG = cyPmBackup.wakeupCfg1;
 2078              		.loc 1 1051 5 view .LVU671
1051:Generated_Source\PSoC5/cyPm.c ****     CY_PM_WAKEUP_CFG1_REG = cyPmBackup.wakeupCfg1;
 2079              		.loc 1 1051 39 is_stmt 0 view .LVU672
 2080 009c 144B     		ldr	r3, .L138+12
 2081 009e 1979     		ldrb	r1, [r3, #4]	@ zero_extendqisi2
1051:Generated_Source\PSoC5/cyPm.c ****     CY_PM_WAKEUP_CFG1_REG = cyPmBackup.wakeupCfg1;
 2082              		.loc 1 1051 27 view .LVU673
 2083 00a0 124A     		ldr	r2, .L138+8
 2084 00a2 1170     		strb	r1, [r2]
1052:Generated_Source\PSoC5/cyPm.c ****     CY_PM_WAKEUP_CFG2_REG = cyPmBackup.wakeupCfg2;
 2085              		.loc 1 1052 5 is_stmt 1 view .LVU674
1052:Generated_Source\PSoC5/cyPm.c ****     CY_PM_WAKEUP_CFG2_REG = cyPmBackup.wakeupCfg2;
 2086              		.loc 1 1052 39 is_stmt 0 view .LVU675
 2087 00a4 5979     		ldrb	r1, [r3, #5]	@ zero_extendqisi2
1052:Generated_Source\PSoC5/cyPm.c ****     CY_PM_WAKEUP_CFG2_REG = cyPmBackup.wakeupCfg2;
ARM GAS  C:\Users\jens-\AppData\Local\Temp\ccih1T9a.s 			page 79


 2088              		.loc 1 1052 27 view .LVU676
 2089 00a6 0132     		adds	r2, r2, #1
 2090 00a8 1170     		strb	r1, [r2]
1053:Generated_Source\PSoC5/cyPm.c **** 
 2091              		.loc 1 1053 5 is_stmt 1 view .LVU677
1053:Generated_Source\PSoC5/cyPm.c **** 
 2092              		.loc 1 1053 39 is_stmt 0 view .LVU678
 2093 00aa 9A79     		ldrb	r2, [r3, #6]	@ zero_extendqisi2
1053:Generated_Source\PSoC5/cyPm.c **** 
 2094              		.loc 1 1053 27 view .LVU679
 2095 00ac 124B     		ldr	r3, .L138+20
 2096 00ae 1A70     		strb	r2, [r3]
1056:Generated_Source\PSoC5/cyPm.c **** }
 2097              		.loc 1 1056 5 is_stmt 1 view .LVU680
 2098 00b0 2846     		mov	r0, r5
 2099 00b2 FFF7FEFF 		bl	CyExitCriticalSection
 2100              	.LVL77:
 2101              	.L128:
1057:Generated_Source\PSoC5/cyPm.c **** 
 2102              		.loc 1 1057 1 is_stmt 0 view .LVU681
 2103 00b6 70BD     		pop	{r4, r5, r6, pc}
 2104              	.LVL78:
 2105              	.L129:
 848:Generated_Source\PSoC5/cyPm.c **** 
 2106              		.loc 1 848 9 is_stmt 1 view .LVU682
 2107 00b8 FFF7FEFF 		bl	CyExitCriticalSection
 2108              	.LVL79:
 850:Generated_Source\PSoC5/cyPm.c ****     }
 2109              		.loc 1 850 9 view .LVU683
 2110 00bc FBE7     		b	.L128
 2111              	.LVL80:
 2112              	.L137:
 910:Generated_Source\PSoC5/cyPm.c **** 
 2113              		.loc 1 910 9 discriminator 1 view .LVU684
 2114 00be 0020     		movs	r0, #0
 2115              	.LVL81:
 910:Generated_Source\PSoC5/cyPm.c **** 
 2116              		.loc 1 910 9 is_stmt 0 discriminator 1 view .LVU685
 2117 00c0 FFF7FEFF 		bl	CyHalt
 2118              	.LVL82:
 2119 00c4 AEE7     		b	.L131
 2120              	.L133:
 984:Generated_Source\PSoC5/cyPm.c **** 
 2121              		.loc 1 984 9 is_stmt 1 view .LVU686
 984:Generated_Source\PSoC5/cyPm.c **** 
 2122              		.loc 1 984 36 is_stmt 0 view .LVU687
 2123 00c6 0A49     		ldr	r1, .L138+12
 2124 00c8 0023     		movs	r3, #0
 2125 00ca 81F82E30 		strb	r3, [r1, #46]
 987:Generated_Source\PSoC5/cyPm.c **** 
 2126              		.loc 1 987 9 is_stmt 1 view .LVU688
 987:Generated_Source\PSoC5/cyPm.c **** 
 2127              		.loc 1 987 33 is_stmt 0 view .LVU689
 2128 00ce 094B     		ldr	r3, .L138+16
 2129 00d0 1A78     		ldrb	r2, [r3]	@ zero_extendqisi2
 987:Generated_Source\PSoC5/cyPm.c **** 
 2130              		.loc 1 987 58 view .LVU690
ARM GAS  C:\Users\jens-\AppData\Local\Temp\ccih1T9a.s 			page 80


 2131 00d2 02F00702 		and	r2, r2, #7
 987:Generated_Source\PSoC5/cyPm.c **** 
 2132              		.loc 1 987 31 view .LVU691
 2133 00d6 81F82D20 		strb	r2, [r1, #45]
 990:Generated_Source\PSoC5/cyPm.c ****     }
 2134              		.loc 1 990 9 is_stmt 1 view .LVU692
 990:Generated_Source\PSoC5/cyPm.c ****     }
 2135              		.loc 1 990 34 is_stmt 0 view .LVU693
 2136 00da 1A78     		ldrb	r2, [r3]	@ zero_extendqisi2
 2137 00dc 02F0F802 		and	r2, r2, #248
 2138 00e0 1A70     		strb	r2, [r3]
 2139 00e2 BDE7     		b	.L134
 2140              	.L139:
 2141              		.align	2
 2142              	.L138:
 2143 00e4 93430040 		.word	1073759123
 2144 00e8 83460040 		.word	1073759875
 2145 00ec 98430040 		.word	1073759128
 2146 00f0 00000000 		.word	.LANCHOR0
 2147 00f4 00420040 		.word	1073758720
 2148 00f8 9A430040 		.word	1073759130
 2149              		.cfi_endproc
 2150              	.LFE3:
 2151              		.size	CyPmSleep, .-CyPmSleep
 2152              		.section	.text.CyPmHibernateEx,"ax",%progbits
 2153              		.align	1
 2154              		.global	CyPmHibernateEx
 2155              		.syntax unified
 2156              		.thumb
 2157              		.thumb_func
 2158              		.fpu softvfp
 2159              		.type	CyPmHibernateEx, %function
 2160              	CyPmHibernateEx:
 2161              	.LVL83:
 2162              	.LFB5:
1157:Generated_Source\PSoC5/cyPm.c ****     uint8 interruptState;
 2163              		.loc 1 1157 1 is_stmt 1 view -0
 2164              		.cfi_startproc
 2165              		@ args = 0, pretend = 0, frame = 0
 2166              		@ frame_needed = 0, uses_anonymous_args = 0
1157:Generated_Source\PSoC5/cyPm.c ****     uint8 interruptState;
 2167              		.loc 1 1157 1 is_stmt 0 view .LVU695
 2168 0000 38B5     		push	{r3, r4, r5, lr}
 2169              		.cfi_def_cfa_offset 16
 2170              		.cfi_offset 3, -16
 2171              		.cfi_offset 4, -12
 2172              		.cfi_offset 5, -8
 2173              		.cfi_offset 14, -4
 2174 0002 0446     		mov	r4, r0
1158:Generated_Source\PSoC5/cyPm.c **** 
 2175              		.loc 1 1158 5 is_stmt 1 view .LVU696
1161:Generated_Source\PSoC5/cyPm.c **** 
 2176              		.loc 1 1161 5 view .LVU697
1161:Generated_Source\PSoC5/cyPm.c **** 
 2177              		.loc 1 1161 22 is_stmt 0 view .LVU698
 2178 0004 FFF7FEFF 		bl	CyEnterCriticalSection
 2179              	.LVL84:
ARM GAS  C:\Users\jens-\AppData\Local\Temp\ccih1T9a.s 			page 81


1161:Generated_Source\PSoC5/cyPm.c **** 
 2180              		.loc 1 1161 22 view .LVU699
 2181 0008 0546     		mov	r5, r0
 2182              	.LVL85:
1169:Generated_Source\PSoC5/cyPm.c ****         {
 2183              		.loc 1 1169 9 is_stmt 1 view .LVU700
1169:Generated_Source\PSoC5/cyPm.c ****         {
 2184              		.loc 1 1169 19 is_stmt 0 view .LVU701
 2185 000a 334B     		ldr	r3, .L149
 2186 000c 1B78     		ldrb	r3, [r3]	@ zero_extendqisi2
1169:Generated_Source\PSoC5/cyPm.c ****         {
 2187              		.loc 1 1169 11 view .LVU702
 2188 000e 13F0080F 		tst	r3, #8
 2189 0012 2ED1     		bne	.L141
1172:Generated_Source\PSoC5/cyPm.c ****         }
 2190              		.loc 1 1172 13 is_stmt 1 view .LVU703
1172:Generated_Source\PSoC5/cyPm.c ****         }
 2191              		.loc 1 1172 37 is_stmt 0 view .LVU704
 2192 0014 314A     		ldr	r2, .L149+4
 2193 0016 1378     		ldrb	r3, [r2]	@ zero_extendqisi2
 2194 0018 03F01F03 		and	r3, r3, #31
 2195 001c 1370     		strb	r3, [r2]
1184:Generated_Source\PSoC5/cyPm.c **** 
 2196              		.loc 1 1184 5 is_stmt 1 view .LVU705
 2197 001e FFF7FEFF 		bl	CyPmHibSaveSet
 2198              	.LVL86:
1190:Generated_Source\PSoC5/cyPm.c ****     CY_PM_WAKEUP_CFG0_REG = ((uint8) (wakeupSource >> 4u) & CY_PM_WAKEUP_PICU);
 2199              		.loc 1 1190 5 view .LVU706
1190:Generated_Source\PSoC5/cyPm.c ****     CY_PM_WAKEUP_CFG0_REG = ((uint8) (wakeupSource >> 4u) & CY_PM_WAKEUP_PICU);
 2200              		.loc 1 1190 29 is_stmt 0 view .LVU707
 2201 0022 2F49     		ldr	r1, .L149+8
 2202 0024 0A78     		ldrb	r2, [r1]	@ zero_extendqisi2
1190:Generated_Source\PSoC5/cyPm.c ****     CY_PM_WAKEUP_CFG0_REG = ((uint8) (wakeupSource >> 4u) & CY_PM_WAKEUP_PICU);
 2203              		.loc 1 1190 27 view .LVU708
 2204 0026 2F4B     		ldr	r3, .L149+12
 2205 0028 1A71     		strb	r2, [r3, #4]
1191:Generated_Source\PSoC5/cyPm.c **** 
 2206              		.loc 1 1191 5 is_stmt 1 view .LVU709
1191:Generated_Source\PSoC5/cyPm.c **** 
 2207              		.loc 1 1191 30 is_stmt 0 view .LVU710
 2208 002a C4F30712 		ubfx	r2, r4, #4, #8
1191:Generated_Source\PSoC5/cyPm.c **** 
 2209              		.loc 1 1191 59 view .LVU711
 2210 002e 02F00402 		and	r2, r2, #4
1191:Generated_Source\PSoC5/cyPm.c **** 
 2211              		.loc 1 1191 27 view .LVU712
 2212 0032 0A70     		strb	r2, [r1]
1194:Generated_Source\PSoC5/cyPm.c ****     CY_PM_WAKEUP_CFG1_REG = (((uint8) wakeupSource) & CY_PM_WAKEUP_SRC_CMPS_MASK);
 2213              		.loc 1 1194 5 is_stmt 1 view .LVU713
1194:Generated_Source\PSoC5/cyPm.c ****     CY_PM_WAKEUP_CFG1_REG = (((uint8) wakeupSource) & CY_PM_WAKEUP_SRC_CMPS_MASK);
 2214              		.loc 1 1194 29 is_stmt 0 view .LVU714
 2215 0034 2C4A     		ldr	r2, .L149+16
 2216 0036 1178     		ldrb	r1, [r2]	@ zero_extendqisi2
1194:Generated_Source\PSoC5/cyPm.c ****     CY_PM_WAKEUP_CFG1_REG = (((uint8) wakeupSource) & CY_PM_WAKEUP_SRC_CMPS_MASK);
 2217              		.loc 1 1194 27 view .LVU715
 2218 0038 5971     		strb	r1, [r3, #5]
1195:Generated_Source\PSoC5/cyPm.c **** 
ARM GAS  C:\Users\jens-\AppData\Local\Temp\ccih1T9a.s 			page 82


 2219              		.loc 1 1195 5 is_stmt 1 view .LVU716
1195:Generated_Source\PSoC5/cyPm.c **** 
 2220              		.loc 1 1195 53 is_stmt 0 view .LVU717
 2221 003a 04F00F04 		and	r4, r4, #15
1195:Generated_Source\PSoC5/cyPm.c **** 
 2222              		.loc 1 1195 27 view .LVU718
 2223 003e 1470     		strb	r4, [r2]
1197:Generated_Source\PSoC5/cyPm.c ****     CY_PM_WAKEUP_CFG2_REG = 0x00u;
 2224              		.loc 1 1197 5 is_stmt 1 view .LVU719
1197:Generated_Source\PSoC5/cyPm.c ****     CY_PM_WAKEUP_CFG2_REG = 0x00u;
 2225              		.loc 1 1197 29 is_stmt 0 view .LVU720
 2226 0040 0132     		adds	r2, r2, #1
 2227 0042 1178     		ldrb	r1, [r2]	@ zero_extendqisi2
1197:Generated_Source\PSoC5/cyPm.c ****     CY_PM_WAKEUP_CFG2_REG = 0x00u;
 2228              		.loc 1 1197 27 view .LVU721
 2229 0044 9971     		strb	r1, [r3, #6]
1198:Generated_Source\PSoC5/cyPm.c **** 
 2230              		.loc 1 1198 5 is_stmt 1 view .LVU722
1198:Generated_Source\PSoC5/cyPm.c **** 
 2231              		.loc 1 1198 27 is_stmt 0 view .LVU723
 2232 0046 0023     		movs	r3, #0
 2233 0048 1370     		strb	r3, [r2]
1202:Generated_Source\PSoC5/cyPm.c ****     {
 2234              		.loc 1 1202 5 is_stmt 1 view .LVU724
1202:Generated_Source\PSoC5/cyPm.c ****     {
 2235              		.loc 1 1202 15 is_stmt 0 view .LVU725
 2236 004a 284B     		ldr	r3, .L149+20
 2237 004c 1B78     		ldrb	r3, [r3]	@ zero_extendqisi2
1202:Generated_Source\PSoC5/cyPm.c ****     {
 2238              		.loc 1 1202 7 view .LVU726
 2239 004e 13F0070F 		tst	r3, #7
 2240 0052 11D0     		beq	.L142
1210:Generated_Source\PSoC5/cyPm.c **** 
 2241              		.loc 1 1210 9 is_stmt 1 view .LVU727
1210:Generated_Source\PSoC5/cyPm.c **** 
 2242              		.loc 1 1210 36 is_stmt 0 view .LVU728
 2243 0054 2349     		ldr	r1, .L149+12
 2244 0056 0023     		movs	r3, #0
 2245 0058 81F82E30 		strb	r3, [r1, #46]
1213:Generated_Source\PSoC5/cyPm.c **** 
 2246              		.loc 1 1213 9 is_stmt 1 view .LVU729
1213:Generated_Source\PSoC5/cyPm.c **** 
 2247              		.loc 1 1213 33 is_stmt 0 view .LVU730
 2248 005c 234B     		ldr	r3, .L149+20
 2249 005e 1A78     		ldrb	r2, [r3]	@ zero_extendqisi2
1213:Generated_Source\PSoC5/cyPm.c **** 
 2250              		.loc 1 1213 58 view .LVU731
 2251 0060 02F00702 		and	r2, r2, #7
1213:Generated_Source\PSoC5/cyPm.c **** 
 2252              		.loc 1 1213 31 view .LVU732
 2253 0064 81F82D20 		strb	r2, [r1, #45]
1216:Generated_Source\PSoC5/cyPm.c ****     }
 2254              		.loc 1 1216 9 is_stmt 1 view .LVU733
1216:Generated_Source\PSoC5/cyPm.c ****     }
 2255              		.loc 1 1216 34 is_stmt 0 view .LVU734
 2256 0068 1A78     		ldrb	r2, [r3]	@ zero_extendqisi2
 2257 006a 02F0F802 		and	r2, r2, #248
ARM GAS  C:\Users\jens-\AppData\Local\Temp\ccih1T9a.s 			page 83


 2258 006e 1A70     		strb	r2, [r3]
 2259 0070 06E0     		b	.L145
 2260              	.LVL87:
 2261              	.L141:
1179:Generated_Source\PSoC5/cyPm.c **** 
 2262              		.loc 1 1179 13 is_stmt 1 view .LVU735
 2263 0072 FFF7FEFF 		bl	CyExitCriticalSection
 2264              	.LVL88:
1181:Generated_Source\PSoC5/cyPm.c ****         }
 2265              		.loc 1 1181 13 view .LVU736
 2266 0076 2EE0     		b	.L140
 2267              	.L142:
1205:Generated_Source\PSoC5/cyPm.c ****     }
 2268              		.loc 1 1205 9 view .LVU737
1205:Generated_Source\PSoC5/cyPm.c ****     }
 2269              		.loc 1 1205 36 is_stmt 0 view .LVU738
 2270 0078 1A4B     		ldr	r3, .L149+12
 2271 007a 0122     		movs	r2, #1
 2272 007c 83F82E20 		strb	r2, [r3, #46]
 2273              	.L145:
1221:Generated_Source\PSoC5/cyPm.c **** 
 2274              		.loc 1 1221 5 is_stmt 1 view .LVU739
1221:Generated_Source\PSoC5/cyPm.c **** 
 2275              		.loc 1 1221 27 is_stmt 0 view .LVU740
 2276 0080 154A     		ldr	r2, .L149
 2277 0082 1378     		ldrb	r3, [r2]	@ zero_extendqisi2
1221:Generated_Source\PSoC5/cyPm.c **** 
 2278              		.loc 1 1221 46 view .LVU741
 2279 0084 03F0F803 		and	r3, r3, #248
1221:Generated_Source\PSoC5/cyPm.c **** 
 2280              		.loc 1 1221 82 view .LVU742
 2281 0088 43F00403 		orr	r3, r3, #4
1221:Generated_Source\PSoC5/cyPm.c **** 
 2282              		.loc 1 1221 24 view .LVU743
 2283 008c 1370     		strb	r3, [r2]
1224:Generated_Source\PSoC5/cyPm.c **** 
 2284              		.loc 1 1224 5 is_stmt 1 view .LVU744
 2285 008e 1378     		ldrb	r3, [r2]	@ zero_extendqisi2
1227:Generated_Source\PSoC5/cyPm.c ****     CY_NOP;
 2286              		.loc 1 1227 5 view .LVU745
 2287              		.syntax unified
 2288              	@ 1227 "Generated_Source\PSoC5\cyPm.c" 1
 2289 0090 00BF     		NOP
 2290              	
 2291              	@ 0 "" 2
1228:Generated_Source\PSoC5/cyPm.c **** 
 2292              		.loc 1 1228 5 view .LVU746
 2293              	@ 1228 "Generated_Source\PSoC5\cyPm.c" 1
 2294 0092 00BF     		NOP
 2295              	
 2296              	@ 0 "" 2
1231:Generated_Source\PSoC5/cyPm.c **** 
 2297              		.loc 1 1231 5 view .LVU747
 2298              	@ 1231 "Generated_Source\PSoC5\cyPm.c" 1
 2299 0094 30BF     		WFI 
 2300              	
 2301              	@ 0 "" 2
ARM GAS  C:\Users\jens-\AppData\Local\Temp\ccih1T9a.s 			page 84


1238:Generated_Source\PSoC5/cyPm.c ****     {
 2302              		.loc 1 1238 5 view .LVU748
1238:Generated_Source\PSoC5/cyPm.c ****     {
 2303              		.loc 1 1238 35 is_stmt 0 view .LVU749
 2304              		.thumb
 2305              		.syntax unified
 2306 0096 134B     		ldr	r3, .L149+12
 2307 0098 93F82E30 		ldrb	r3, [r3, #46]	@ zero_extendqisi2
1238:Generated_Source\PSoC5/cyPm.c ****     {
 2308              		.loc 1 1238 7 view .LVU750
 2309 009c 012B     		cmp	r3, #1
 2310 009e 0BD0     		beq	.L146
1240:Generated_Source\PSoC5/cyPm.c ****                                     cyPmBackup.imoActFreq;
 2311              		.loc 1 1240 9 is_stmt 1 view .LVU751
1240:Generated_Source\PSoC5/cyPm.c ****                                     cyPmBackup.imoActFreq;
 2312              		.loc 1 1240 38 is_stmt 0 view .LVU752
 2313 00a0 A2F29312 		subw	r2, r2, #403
 2314 00a4 1378     		ldrb	r3, [r2]	@ zero_extendqisi2
 2315 00a6 5BB2     		sxtb	r3, r3
1240:Generated_Source\PSoC5/cyPm.c ****                                     cyPmBackup.imoActFreq;
 2316              		.loc 1 1240 63 view .LVU753
 2317 00a8 23F00703 		bic	r3, r3, #7
1241:Generated_Source\PSoC5/cyPm.c ****     }
 2318              		.loc 1 1241 47 view .LVU754
 2319 00ac 0D49     		ldr	r1, .L149+12
 2320 00ae 91F92D10 		ldrsb	r1, [r1, #45]
1240:Generated_Source\PSoC5/cyPm.c ****                                     cyPmBackup.imoActFreq;
 2321              		.loc 1 1240 109 view .LVU755
 2322 00b2 0B43     		orrs	r3, r3, r1
 2323 00b4 DBB2     		uxtb	r3, r3
1240:Generated_Source\PSoC5/cyPm.c ****                                     cyPmBackup.imoActFreq;
 2324              		.loc 1 1240 35 view .LVU756
 2325 00b6 1370     		strb	r3, [r2]
 2326              	.L146:
1246:Generated_Source\PSoC5/cyPm.c **** 
 2327              		.loc 1 1246 5 is_stmt 1 view .LVU757
 2328 00b8 FFF7FEFF 		bl	CyPmHibRestore
 2329              	.LVL89:
1249:Generated_Source\PSoC5/cyPm.c ****     CY_PM_WAKEUP_CFG1_REG = cyPmBackup.wakeupCfg1;
 2330              		.loc 1 1249 5 view .LVU758
1249:Generated_Source\PSoC5/cyPm.c ****     CY_PM_WAKEUP_CFG1_REG = cyPmBackup.wakeupCfg1;
 2331              		.loc 1 1249 39 is_stmt 0 view .LVU759
 2332 00bc 094B     		ldr	r3, .L149+12
 2333 00be 1979     		ldrb	r1, [r3, #4]	@ zero_extendqisi2
1249:Generated_Source\PSoC5/cyPm.c ****     CY_PM_WAKEUP_CFG1_REG = cyPmBackup.wakeupCfg1;
 2334              		.loc 1 1249 27 view .LVU760
 2335 00c0 074A     		ldr	r2, .L149+8
 2336 00c2 1170     		strb	r1, [r2]
1250:Generated_Source\PSoC5/cyPm.c ****     CY_PM_WAKEUP_CFG2_REG = cyPmBackup.wakeupCfg2;
 2337              		.loc 1 1250 5 is_stmt 1 view .LVU761
1250:Generated_Source\PSoC5/cyPm.c ****     CY_PM_WAKEUP_CFG2_REG = cyPmBackup.wakeupCfg2;
 2338              		.loc 1 1250 39 is_stmt 0 view .LVU762
 2339 00c4 5979     		ldrb	r1, [r3, #5]	@ zero_extendqisi2
1250:Generated_Source\PSoC5/cyPm.c ****     CY_PM_WAKEUP_CFG2_REG = cyPmBackup.wakeupCfg2;
 2340              		.loc 1 1250 27 view .LVU763
 2341 00c6 0132     		adds	r2, r2, #1
 2342 00c8 1170     		strb	r1, [r2]
ARM GAS  C:\Users\jens-\AppData\Local\Temp\ccih1T9a.s 			page 85


1251:Generated_Source\PSoC5/cyPm.c **** 
 2343              		.loc 1 1251 5 is_stmt 1 view .LVU764
1251:Generated_Source\PSoC5/cyPm.c **** 
 2344              		.loc 1 1251 39 is_stmt 0 view .LVU765
 2345 00ca 9A79     		ldrb	r2, [r3, #6]	@ zero_extendqisi2
1251:Generated_Source\PSoC5/cyPm.c **** 
 2346              		.loc 1 1251 27 view .LVU766
 2347 00cc 084B     		ldr	r3, .L149+24
 2348 00ce 1A70     		strb	r2, [r3]
1254:Generated_Source\PSoC5/cyPm.c **** }
 2349              		.loc 1 1254 5 is_stmt 1 view .LVU767
 2350 00d0 2846     		mov	r0, r5
 2351 00d2 FFF7FEFF 		bl	CyExitCriticalSection
 2352              	.LVL90:
 2353              	.L140:
1255:Generated_Source\PSoC5/cyPm.c **** 
 2354              		.loc 1 1255 1 is_stmt 0 view .LVU768
 2355 00d6 38BD     		pop	{r3, r4, r5, pc}
 2356              	.L150:
 2357              		.align	2
 2358              	.L149:
 2359 00d8 93430040 		.word	1073759123
 2360 00dc 83460040 		.word	1073759875
 2361 00e0 98430040 		.word	1073759128
 2362 00e4 00000000 		.word	.LANCHOR0
 2363 00e8 99430040 		.word	1073759129
 2364 00ec 00420040 		.word	1073758720
 2365 00f0 9A430040 		.word	1073759130
 2366              		.cfi_endproc
 2367              	.LFE5:
 2368              		.size	CyPmHibernateEx, .-CyPmHibernateEx
 2369              		.section	.text.CyPmHibernate,"ax",%progbits
 2370              		.align	1
 2371              		.global	CyPmHibernate
 2372              		.syntax unified
 2373              		.thumb
 2374              		.thumb_func
 2375              		.fpu softvfp
 2376              		.type	CyPmHibernate, %function
 2377              	CyPmHibernate:
 2378              	.LFB4:
1096:Generated_Source\PSoC5/cyPm.c ****     CyPmHibernateEx(CY_PM_HIB_SRC_PICU);
 2379              		.loc 1 1096 1 is_stmt 1 view -0
 2380              		.cfi_startproc
 2381              		@ args = 0, pretend = 0, frame = 0
 2382              		@ frame_needed = 0, uses_anonymous_args = 0
 2383 0000 08B5     		push	{r3, lr}
 2384              		.cfi_def_cfa_offset 8
 2385              		.cfi_offset 3, -8
 2386              		.cfi_offset 14, -4
1097:Generated_Source\PSoC5/cyPm.c **** }
 2387              		.loc 1 1097 5 view .LVU770
 2388 0002 4020     		movs	r0, #64
 2389 0004 FFF7FEFF 		bl	CyPmHibernateEx
 2390              	.LVL91:
1098:Generated_Source\PSoC5/cyPm.c **** 
 2391              		.loc 1 1098 1 is_stmt 0 view .LVU771
ARM GAS  C:\Users\jens-\AppData\Local\Temp\ccih1T9a.s 			page 86


 2392 0008 08BD     		pop	{r3, pc}
 2393              		.cfi_endproc
 2394              	.LFE4:
 2395              		.size	CyPmHibernate, .-CyPmHibernate
 2396              		.section	.text.CyPmReadStatus,"ax",%progbits
 2397              		.align	1
 2398              		.global	CyPmReadStatus
 2399              		.syntax unified
 2400              		.thumb
 2401              		.thumb_func
 2402              		.fpu softvfp
 2403              		.type	CyPmReadStatus, %function
 2404              	CyPmReadStatus:
 2405              	.LVL92:
 2406              	.LFB6:
1286:Generated_Source\PSoC5/cyPm.c ****     static uint8 interruptStatus;
 2407              		.loc 1 1286 1 is_stmt 1 view -0
 2408              		.cfi_startproc
 2409              		@ args = 0, pretend = 0, frame = 0
 2410              		@ frame_needed = 0, uses_anonymous_args = 0
1286:Generated_Source\PSoC5/cyPm.c ****     static uint8 interruptStatus;
 2411              		.loc 1 1286 1 is_stmt 0 view .LVU773
 2412 0000 38B5     		push	{r3, r4, r5, lr}
 2413              		.cfi_def_cfa_offset 16
 2414              		.cfi_offset 3, -16
 2415              		.cfi_offset 4, -12
 2416              		.cfi_offset 5, -8
 2417              		.cfi_offset 14, -4
 2418 0002 0446     		mov	r4, r0
1287:Generated_Source\PSoC5/cyPm.c ****     uint8 interruptState;
 2419              		.loc 1 1287 5 is_stmt 1 view .LVU774
1288:Generated_Source\PSoC5/cyPm.c ****     uint8 tmpStatus;
 2420              		.loc 1 1288 5 view .LVU775
1289:Generated_Source\PSoC5/cyPm.c **** 
 2421              		.loc 1 1289 5 view .LVU776
1292:Generated_Source\PSoC5/cyPm.c **** 
 2422              		.loc 1 1292 5 view .LVU777
1292:Generated_Source\PSoC5/cyPm.c **** 
 2423              		.loc 1 1292 22 is_stmt 0 view .LVU778
 2424 0004 FFF7FEFF 		bl	CyEnterCriticalSection
 2425              	.LVL93:
1295:Generated_Source\PSoC5/cyPm.c ****     tmpStatus = interruptStatus & (CY_PM_FTW_INT | CY_PM_CTW_INT | CY_PM_ONEPPS_INT);
 2426              		.loc 1 1295 5 is_stmt 1 view .LVU779
1295:Generated_Source\PSoC5/cyPm.c ****     tmpStatus = interruptStatus & (CY_PM_FTW_INT | CY_PM_CTW_INT | CY_PM_ONEPPS_INT);
 2427              		.loc 1 1295 24 is_stmt 0 view .LVU780
 2428 0008 074B     		ldr	r3, .L155
 2429 000a 1B78     		ldrb	r3, [r3]	@ zero_extendqisi2
1295:Generated_Source\PSoC5/cyPm.c ****     tmpStatus = interruptStatus & (CY_PM_FTW_INT | CY_PM_CTW_INT | CY_PM_ONEPPS_INT);
 2430              		.loc 1 1295 21 view .LVU781
 2431 000c 074A     		ldr	r2, .L155+4
 2432 000e 92F84210 		ldrb	r1, [r2, #66]	@ zero_extendqisi2
 2433 0012 0B43     		orrs	r3, r3, r1
1296:Generated_Source\PSoC5/cyPm.c ****     interruptStatus &= ((uint8)(~mask));
 2434              		.loc 1 1296 5 is_stmt 1 view .LVU782
1296:Generated_Source\PSoC5/cyPm.c ****     interruptStatus &= ((uint8)(~mask));
 2435              		.loc 1 1296 15 is_stmt 0 view .LVU783
 2436 0014 03F00705 		and	r5, r3, #7
ARM GAS  C:\Users\jens-\AppData\Local\Temp\ccih1T9a.s 			page 87


 2437              	.LVL94:
1297:Generated_Source\PSoC5/cyPm.c **** 
 2438              		.loc 1 1297 5 is_stmt 1 view .LVU784
1297:Generated_Source\PSoC5/cyPm.c **** 
 2439              		.loc 1 1297 21 is_stmt 0 view .LVU785
 2440 0018 23EA0403 		bic	r3, r3, r4
 2441 001c 82F84230 		strb	r3, [r2, #66]
1300:Generated_Source\PSoC5/cyPm.c **** 
 2442              		.loc 1 1300 5 is_stmt 1 view .LVU786
 2443 0020 FFF7FEFF 		bl	CyExitCriticalSection
 2444              	.LVL95:
1302:Generated_Source\PSoC5/cyPm.c **** }
 2445              		.loc 1 1302 5 view .LVU787
1303:Generated_Source\PSoC5/cyPm.c **** 
 2446              		.loc 1 1303 1 is_stmt 0 view .LVU788
 2447 0024 2846     		mov	r0, r5
 2448 0026 38BD     		pop	{r3, r4, r5, pc}
 2449              	.LVL96:
 2450              	.L156:
1303:Generated_Source\PSoC5/cyPm.c **** 
 2451              		.loc 1 1303 1 view .LVU789
 2452              		.align	2
 2453              	.L155:
 2454 0028 90430040 		.word	1073759120
 2455 002c 00000000 		.word	.LANCHOR0
 2456              		.cfi_endproc
 2457              	.LFE6:
 2458              		.size	CyPmReadStatus, .-CyPmReadStatus
 2459              		.section	.text.CyPmCtwSetInterval,"ax",%progbits
 2460              		.align	1
 2461              		.global	CyPmCtwSetInterval
 2462              		.syntax unified
 2463              		.thumb
 2464              		.thumb_func
 2465              		.fpu softvfp
 2466              		.type	CyPmCtwSetInterval, %function
 2467              	CyPmCtwSetInterval:
 2468              	.LVL97:
 2469              	.LFB9:
1474:Generated_Source\PSoC5/cyPm.c ****     /* Disable CTW interrupt enable */
 2470              		.loc 1 1474 1 is_stmt 1 view -0
 2471              		.cfi_startproc
 2472              		@ args = 0, pretend = 0, frame = 0
 2473              		@ frame_needed = 0, uses_anonymous_args = 0
1474:Generated_Source\PSoC5/cyPm.c ****     /* Disable CTW interrupt enable */
 2474              		.loc 1 1474 1 is_stmt 0 view .LVU791
 2475 0000 38B5     		push	{r3, r4, r5, lr}
 2476              		.cfi_def_cfa_offset 16
 2477              		.cfi_offset 3, -16
 2478              		.cfi_offset 4, -12
 2479              		.cfi_offset 5, -8
 2480              		.cfi_offset 14, -4
 2481 0002 0446     		mov	r4, r0
1476:Generated_Source\PSoC5/cyPm.c **** 
 2482              		.loc 1 1476 5 is_stmt 1 view .LVU792
1476:Generated_Source\PSoC5/cyPm.c **** 
 2483              		.loc 1 1476 23 is_stmt 0 view .LVU793
ARM GAS  C:\Users\jens-\AppData\Local\Temp\ccih1T9a.s 			page 88


 2484 0004 134D     		ldr	r5, .L162
 2485 0006 2B78     		ldrb	r3, [r5]	@ zero_extendqisi2
 2486 0008 03F0F703 		and	r3, r3, #247
 2487 000c 2B70     		strb	r3, [r5]
1479:Generated_Source\PSoC5/cyPm.c **** 
 2488              		.loc 1 1479 5 is_stmt 1 view .LVU794
 2489 000e FFF7FEFF 		bl	CyILO_Start1K
 2490              	.LVL98:
1482:Generated_Source\PSoC5/cyPm.c ****     {
 2491              		.loc 1 1482 5 view .LVU795
1482:Generated_Source\PSoC5/cyPm.c ****     {
 2492              		.loc 1 1482 15 is_stmt 0 view .LVU796
 2493 0012 2B78     		ldrb	r3, [r5]	@ zero_extendqisi2
1482:Generated_Source\PSoC5/cyPm.c ****     {
 2494              		.loc 1 1482 7 view .LVU797
 2495 0014 13F0040F 		tst	r3, #4
 2496 0018 0FD0     		beq	.L158
1485:Generated_Source\PSoC5/cyPm.c ****         {
 2497              		.loc 1 1485 9 is_stmt 1 view .LVU798
1485:Generated_Source\PSoC5/cyPm.c ****         {
 2498              		.loc 1 1485 12 is_stmt 0 view .LVU799
 2499 001a 0F4B     		ldr	r3, .L162+4
 2500 001c 1B78     		ldrb	r3, [r3]	@ zero_extendqisi2
 2501 001e DBB2     		uxtb	r3, r3
1485:Generated_Source\PSoC5/cyPm.c ****         {
 2502              		.loc 1 1485 11 view .LVU800
 2503 0020 A342     		cmp	r3, r4
 2504 0022 16D0     		beq	.L157
1488:Generated_Source\PSoC5/cyPm.c ****             CY_PM_TW_CFG1_REG = ctwInterval;
 2505              		.loc 1 1488 13 is_stmt 1 view .LVU801
1488:Generated_Source\PSoC5/cyPm.c ****             CY_PM_TW_CFG1_REG = ctwInterval;
 2506              		.loc 1 1488 31 is_stmt 0 view .LVU802
 2507 0024 2A78     		ldrb	r2, [r5]	@ zero_extendqisi2
 2508 0026 02F0FB02 		and	r2, r2, #251
 2509 002a 2A70     		strb	r2, [r5]
1489:Generated_Source\PSoC5/cyPm.c ****             CY_PM_TW_CFG2_REG |= CY_PM_CTW_EN;
 2510              		.loc 1 1489 13 is_stmt 1 view .LVU803
1489:Generated_Source\PSoC5/cyPm.c ****             CY_PM_TW_CFG2_REG |= CY_PM_CTW_EN;
 2511              		.loc 1 1489 31 is_stmt 0 view .LVU804
 2512 002c 0A4A     		ldr	r2, .L162+4
 2513 002e 1470     		strb	r4, [r2]
1490:Generated_Source\PSoC5/cyPm.c ****         }   /* Required interval is already set */
 2514              		.loc 1 1490 13 is_stmt 1 view .LVU805
1490:Generated_Source\PSoC5/cyPm.c ****         }   /* Required interval is already set */
 2515              		.loc 1 1490 31 is_stmt 0 view .LVU806
 2516 0030 2A78     		ldrb	r2, [r5]	@ zero_extendqisi2
 2517 0032 42F00402 		orr	r2, r2, #4
 2518 0036 2A70     		strb	r2, [r5]
 2519 0038 0BE0     		b	.L157
 2520              	.L158:
1496:Generated_Source\PSoC5/cyPm.c ****         {
 2521              		.loc 1 1496 9 is_stmt 1 view .LVU807
1496:Generated_Source\PSoC5/cyPm.c ****         {
 2522              		.loc 1 1496 12 is_stmt 0 view .LVU808
 2523 003a 074B     		ldr	r3, .L162+4
 2524 003c 1B78     		ldrb	r3, [r3]	@ zero_extendqisi2
 2525 003e DBB2     		uxtb	r3, r3
ARM GAS  C:\Users\jens-\AppData\Local\Temp\ccih1T9a.s 			page 89


1496:Generated_Source\PSoC5/cyPm.c ****         {
 2526              		.loc 1 1496 11 view .LVU809
 2527 0040 A342     		cmp	r3, r4
 2528 0042 01D0     		beq	.L160
1499:Generated_Source\PSoC5/cyPm.c ****         }   /* Required interval is already set */
 2529              		.loc 1 1499 13 is_stmt 1 view .LVU810
1499:Generated_Source\PSoC5/cyPm.c ****         }   /* Required interval is already set */
 2530              		.loc 1 1499 31 is_stmt 0 view .LVU811
 2531 0044 044B     		ldr	r3, .L162+4
 2532 0046 1C70     		strb	r4, [r3]
 2533              	.L160:
1503:Generated_Source\PSoC5/cyPm.c ****     }
 2534              		.loc 1 1503 9 is_stmt 1 view .LVU812
1503:Generated_Source\PSoC5/cyPm.c ****     }
 2535              		.loc 1 1503 27 is_stmt 0 view .LVU813
 2536 0048 024A     		ldr	r2, .L162
 2537 004a 1378     		ldrb	r3, [r2]	@ zero_extendqisi2
 2538 004c 43F00403 		orr	r3, r3, #4
 2539 0050 1370     		strb	r3, [r2]
 2540              	.L157:
1505:Generated_Source\PSoC5/cyPm.c **** 
 2541              		.loc 1 1505 1 view .LVU814
 2542 0052 38BD     		pop	{r3, r4, r5, pc}
 2543              	.L163:
 2544              		.align	2
 2545              	.L162:
 2546 0054 82430040 		.word	1073759106
 2547 0058 81430040 		.word	1073759105
 2548              		.cfi_endproc
 2549              	.LFE9:
 2550              		.size	CyPmCtwSetInterval, .-CyPmCtwSetInterval
 2551              		.section	.text.CyPmOppsSet,"ax",%progbits
 2552              		.align	1
 2553              		.global	CyPmOppsSet
 2554              		.syntax unified
 2555              		.thumb
 2556              		.thumb_func
 2557              		.fpu softvfp
 2558              		.type	CyPmOppsSet, %function
 2559              	CyPmOppsSet:
 2560              	.LFB10:
1519:Generated_Source\PSoC5/cyPm.c ****     /* Enable 32kHz XTAL if needed */
 2561              		.loc 1 1519 1 is_stmt 1 view -0
 2562              		.cfi_startproc
 2563              		@ args = 0, pretend = 0, frame = 0
 2564              		@ frame_needed = 0, uses_anonymous_args = 0
 2565 0000 08B5     		push	{r3, lr}
 2566              		.cfi_def_cfa_offset 8
 2567              		.cfi_offset 3, -8
 2568              		.cfi_offset 14, -4
1521:Generated_Source\PSoC5/cyPm.c ****     {
 2569              		.loc 1 1521 5 view .LVU816
1521:Generated_Source\PSoC5/cyPm.c ****     {
 2570              		.loc 1 1521 15 is_stmt 0 view .LVU817
 2571 0002 094B     		ldr	r3, .L168
 2572 0004 1B78     		ldrb	r3, [r3]	@ zero_extendqisi2
1521:Generated_Source\PSoC5/cyPm.c ****     {
ARM GAS  C:\Users\jens-\AppData\Local\Temp\ccih1T9a.s 			page 90


 2573              		.loc 1 1521 7 view .LVU818
 2574 0006 13F0010F 		tst	r3, #1
 2575 000a 09D0     		beq	.L167
 2576              	.L165:
1528:Generated_Source\PSoC5/cyPm.c **** 
 2577              		.loc 1 1528 5 is_stmt 1 view .LVU819
1528:Generated_Source\PSoC5/cyPm.c **** 
 2578              		.loc 1 1528 23 is_stmt 0 view .LVU820
 2579 000c 074B     		ldr	r3, .L168+4
 2580 000e 1A78     		ldrb	r2, [r3]	@ zero_extendqisi2
 2581 0010 02F0DF02 		and	r2, r2, #223
 2582 0014 1A70     		strb	r2, [r3]
1531:Generated_Source\PSoC5/cyPm.c **** }
 2583              		.loc 1 1531 5 is_stmt 1 view .LVU821
1531:Generated_Source\PSoC5/cyPm.c **** }
 2584              		.loc 1 1531 23 is_stmt 0 view .LVU822
 2585 0016 1A78     		ldrb	r2, [r3]	@ zero_extendqisi2
 2586 0018 42F01002 		orr	r2, r2, #16
 2587 001c 1A70     		strb	r2, [r3]
1532:Generated_Source\PSoC5/cyPm.c **** 
 2588              		.loc 1 1532 1 view .LVU823
 2589 001e 08BD     		pop	{r3, pc}
 2590              	.L167:
1524:Generated_Source\PSoC5/cyPm.c ****     }
 2591              		.loc 1 1524 9 is_stmt 1 view .LVU824
 2592 0020 FFF7FEFF 		bl	CyXTAL_32KHZ_Start
 2593              	.LVL99:
 2594 0024 F2E7     		b	.L165
 2595              	.L169:
 2596 0026 00BF     		.align	2
 2597              	.L168:
 2598 0028 08430040 		.word	1073758984
 2599 002c 82430040 		.word	1073759106
 2600              		.cfi_endproc
 2601              	.LFE10:
 2602              		.size	CyPmOppsSet, .-CyPmOppsSet
 2603              		.section	.text.CyPmFtwSetInterval,"ax",%progbits
 2604              		.align	1
 2605              		.global	CyPmFtwSetInterval
 2606              		.syntax unified
 2607              		.thumb
 2608              		.thumb_func
 2609              		.fpu softvfp
 2610              		.type	CyPmFtwSetInterval, %function
 2611              	CyPmFtwSetInterval:
 2612              	.LVL100:
 2613              	.LFB11:
1551:Generated_Source\PSoC5/cyPm.c ****     /* Disable FTW interrupt enable */
 2614              		.loc 1 1551 1 view -0
 2615              		.cfi_startproc
 2616              		@ args = 0, pretend = 0, frame = 0
 2617              		@ frame_needed = 0, uses_anonymous_args = 0
1551:Generated_Source\PSoC5/cyPm.c ****     /* Disable FTW interrupt enable */
 2618              		.loc 1 1551 1 is_stmt 0 view .LVU826
 2619 0000 38B5     		push	{r3, r4, r5, lr}
 2620              		.cfi_def_cfa_offset 16
 2621              		.cfi_offset 3, -16
ARM GAS  C:\Users\jens-\AppData\Local\Temp\ccih1T9a.s 			page 91


 2622              		.cfi_offset 4, -12
 2623              		.cfi_offset 5, -8
 2624              		.cfi_offset 14, -4
 2625 0002 0446     		mov	r4, r0
1553:Generated_Source\PSoC5/cyPm.c **** 
 2626              		.loc 1 1553 5 is_stmt 1 view .LVU827
1553:Generated_Source\PSoC5/cyPm.c **** 
 2627              		.loc 1 1553 23 is_stmt 0 view .LVU828
 2628 0004 134D     		ldr	r5, .L175
 2629 0006 2B78     		ldrb	r3, [r5]	@ zero_extendqisi2
 2630 0008 03F0FD03 		and	r3, r3, #253
 2631 000c 2B70     		strb	r3, [r5]
1556:Generated_Source\PSoC5/cyPm.c **** 
 2632              		.loc 1 1556 5 is_stmt 1 view .LVU829
 2633 000e FFF7FEFF 		bl	CyILO_Start100K
 2634              	.LVL101:
1559:Generated_Source\PSoC5/cyPm.c ****     {
 2635              		.loc 1 1559 5 view .LVU830
1559:Generated_Source\PSoC5/cyPm.c ****     {
 2636              		.loc 1 1559 15 is_stmt 0 view .LVU831
 2637 0012 2B78     		ldrb	r3, [r5]	@ zero_extendqisi2
1559:Generated_Source\PSoC5/cyPm.c ****     {
 2638              		.loc 1 1559 7 view .LVU832
 2639 0014 13F0010F 		tst	r3, #1
 2640 0018 0FD0     		beq	.L171
1562:Generated_Source\PSoC5/cyPm.c ****         {
 2641              		.loc 1 1562 9 is_stmt 1 view .LVU833
1562:Generated_Source\PSoC5/cyPm.c ****         {
 2642              		.loc 1 1562 12 is_stmt 0 view .LVU834
 2643 001a 0F4B     		ldr	r3, .L175+4
 2644 001c 1B78     		ldrb	r3, [r3]	@ zero_extendqisi2
 2645 001e DBB2     		uxtb	r3, r3
1562:Generated_Source\PSoC5/cyPm.c ****         {
 2646              		.loc 1 1562 11 view .LVU835
 2647 0020 A342     		cmp	r3, r4
 2648 0022 16D0     		beq	.L170
1565:Generated_Source\PSoC5/cyPm.c ****             CY_PM_TW_CFG0_REG = ftwInterval;
 2649              		.loc 1 1565 13 is_stmt 1 view .LVU836
1565:Generated_Source\PSoC5/cyPm.c ****             CY_PM_TW_CFG0_REG = ftwInterval;
 2650              		.loc 1 1565 31 is_stmt 0 view .LVU837
 2651 0024 2A78     		ldrb	r2, [r5]	@ zero_extendqisi2
 2652 0026 02F0FE02 		and	r2, r2, #254
 2653 002a 2A70     		strb	r2, [r5]
1566:Generated_Source\PSoC5/cyPm.c ****             CY_PM_TW_CFG2_REG |= CY_PM_FTW_EN;
 2654              		.loc 1 1566 13 is_stmt 1 view .LVU838
1566:Generated_Source\PSoC5/cyPm.c ****             CY_PM_TW_CFG2_REG |= CY_PM_FTW_EN;
 2655              		.loc 1 1566 31 is_stmt 0 view .LVU839
 2656 002c 0A4A     		ldr	r2, .L175+4
 2657 002e 1470     		strb	r4, [r2]
1567:Generated_Source\PSoC5/cyPm.c ****         }   /* Required interval is already set */
 2658              		.loc 1 1567 13 is_stmt 1 view .LVU840
1567:Generated_Source\PSoC5/cyPm.c ****         }   /* Required interval is already set */
 2659              		.loc 1 1567 31 is_stmt 0 view .LVU841
 2660 0030 2A78     		ldrb	r2, [r5]	@ zero_extendqisi2
 2661 0032 42F00102 		orr	r2, r2, #1
 2662 0036 2A70     		strb	r2, [r5]
 2663 0038 0BE0     		b	.L170
ARM GAS  C:\Users\jens-\AppData\Local\Temp\ccih1T9a.s 			page 92


 2664              	.L171:
1573:Generated_Source\PSoC5/cyPm.c ****         {
 2665              		.loc 1 1573 9 is_stmt 1 view .LVU842
1573:Generated_Source\PSoC5/cyPm.c ****         {
 2666              		.loc 1 1573 12 is_stmt 0 view .LVU843
 2667 003a 074B     		ldr	r3, .L175+4
 2668 003c 1B78     		ldrb	r3, [r3]	@ zero_extendqisi2
 2669 003e DBB2     		uxtb	r3, r3
1573:Generated_Source\PSoC5/cyPm.c ****         {
 2670              		.loc 1 1573 11 view .LVU844
 2671 0040 A342     		cmp	r3, r4
 2672 0042 01D0     		beq	.L173
1576:Generated_Source\PSoC5/cyPm.c ****         }   /* Required interval is already set */
 2673              		.loc 1 1576 13 is_stmt 1 view .LVU845
1576:Generated_Source\PSoC5/cyPm.c ****         }   /* Required interval is already set */
 2674              		.loc 1 1576 31 is_stmt 0 view .LVU846
 2675 0044 044B     		ldr	r3, .L175+4
 2676 0046 1C70     		strb	r4, [r3]
 2677              	.L173:
1580:Generated_Source\PSoC5/cyPm.c ****     }
 2678              		.loc 1 1580 9 is_stmt 1 view .LVU847
1580:Generated_Source\PSoC5/cyPm.c ****     }
 2679              		.loc 1 1580 27 is_stmt 0 view .LVU848
 2680 0048 024A     		ldr	r2, .L175
 2681 004a 1378     		ldrb	r3, [r2]	@ zero_extendqisi2
 2682 004c 43F00103 		orr	r3, r3, #1
 2683 0050 1370     		strb	r3, [r2]
 2684              	.L170:
1582:Generated_Source\PSoC5/cyPm.c **** 
 2685              		.loc 1 1582 1 view .LVU849
 2686 0052 38BD     		pop	{r3, r4, r5, pc}
 2687              	.L176:
 2688              		.align	2
 2689              	.L175:
 2690 0054 82430040 		.word	1073759106
 2691 0058 80430040 		.word	1073759104
 2692              		.cfi_endproc
 2693              	.LFE11:
 2694              		.size	CyPmFtwSetInterval, .-CyPmFtwSetInterval
 2695              		.section	.rodata
 2696              		.align	2
 2697              		.set	.LANCHOR1,. + 0
 2698              		.type	cyPmImoFreqReg2Mhz, %object
 2699              		.size	cyPmImoFreqReg2Mhz, 7
 2700              	cyPmImoFreqReg2Mhz:
 2701 0000 0C061803 		.ascii	"\014\006\030\0030>J"
 2701      303E4A
 2702 0007 00       		.space	1
 2703              	.LC0:
 2704 0008 02010300 		.ascii	"\002\001\003\000\004\005\006"
 2704      040506
 2705              		.bss
 2706              		.align	2
 2707              		.set	.LANCHOR0,. + 0
 2708              		.type	cyPmBackup, %object
 2709              		.size	cyPmBackup, 48
 2710              	cyPmBackup:
ARM GAS  C:\Users\jens-\AppData\Local\Temp\ccih1T9a.s 			page 93


 2711 0000 00000000 		.space	48
 2711      00000000 
 2711      00000000 
 2711      00000000 
 2711      00000000 
 2712              		.type	cyPmClockBackup, %object
 2713              		.size	cyPmClockBackup, 18
 2714              	cyPmClockBackup:
 2715 0030 00000000 		.space	18
 2715      00000000 
 2715      00000000 
 2715      00000000 
 2715      0000
 2716              		.type	interruptStatus.5115, %object
 2717              		.size	interruptStatus.5115, 1
 2718              	interruptStatus.5115:
 2719 0042 00       		.space	1
 2720              		.text
 2721              	.Letext0:
 2722              		.file 2 "Generated_Source\\PSoC5\\cytypes.h"
 2723              		.file 3 "c:\\program files (x86)\\cypress\\psoc creator\\4.2\\psoc creator\\import\\gnu\\arm\\5.4.
 2724              		.file 4 "c:\\program files (x86)\\cypress\\psoc creator\\4.2\\psoc creator\\import\\gnu\\arm\\5.4.
 2725              		.file 5 "c:\\program files (x86)\\cypress\\psoc creator\\4.2\\psoc creator\\import\\gnu\\arm\\5.4.
 2726              		.file 6 "c:\\program files (x86)\\cypress\\psoc creator\\4.2\\psoc creator\\import\\gnu\\arm\\5.4.
 2727              		.file 7 "c:\\program files (x86)\\cypress\\psoc creator\\4.2\\psoc creator\\import\\gnu\\arm\\5.4.
 2728              		.file 8 "Generated_Source\\PSoC5\\CyLib.h"
 2729              		.file 9 "Generated_Source\\PSoC5\\CySpc.h"
 2730              		.file 10 "Generated_Source\\PSoC5\\CyFlash.h"
 2731              		.file 11 "Generated_Source\\PSoC5\\cyPm.h"
 2732              		.section	.debug_info,"",%progbits
 2733              	.Ldebug_info0:
 2734 0000 E2130000 		.4byte	0x13e2
 2735 0004 0400     		.2byte	0x4
 2736 0006 00000000 		.4byte	.Ldebug_abbrev0
 2737 000a 04       		.byte	0x4
 2738 000b 01       		.uleb128 0x1
 2739 000c CF040000 		.4byte	.LASF234
 2740 0010 0C       		.byte	0xc
 2741 0011 4D040000 		.4byte	.LASF235
 2742 0015 120B0000 		.4byte	.LASF236
 2743 0019 00000000 		.4byte	.Ldebug_ranges0+0
 2744 001d 00000000 		.4byte	0
 2745 0021 00000000 		.4byte	.Ldebug_line0
 2746 0025 02       		.uleb128 0x2
 2747 0026 01       		.byte	0x1
 2748 0027 06       		.byte	0x6
 2749 0028 7A010000 		.4byte	.LASF0
 2750 002c 02       		.uleb128 0x2
 2751 002d 01       		.byte	0x1
 2752 002e 08       		.byte	0x8
 2753 002f 54070000 		.4byte	.LASF1
 2754 0033 02       		.uleb128 0x2
 2755 0034 02       		.byte	0x2
 2756 0035 05       		.byte	0x5
 2757 0036 99070000 		.4byte	.LASF2
 2758 003a 02       		.uleb128 0x2
 2759 003b 02       		.byte	0x2
ARM GAS  C:\Users\jens-\AppData\Local\Temp\ccih1T9a.s 			page 94


 2760 003c 07       		.byte	0x7
 2761 003d F4030000 		.4byte	.LASF3
 2762 0041 02       		.uleb128 0x2
 2763 0042 04       		.byte	0x4
 2764 0043 05       		.byte	0x5
 2765 0044 E3010000 		.4byte	.LASF4
 2766 0048 02       		.uleb128 0x2
 2767 0049 04       		.byte	0x4
 2768 004a 07       		.byte	0x7
 2769 004b 39030000 		.4byte	.LASF5
 2770 004f 02       		.uleb128 0x2
 2771 0050 08       		.byte	0x8
 2772 0051 05       		.byte	0x5
 2773 0052 6C010000 		.4byte	.LASF6
 2774 0056 02       		.uleb128 0x2
 2775 0057 08       		.byte	0x8
 2776 0058 07       		.byte	0x7
 2777 0059 D0000000 		.4byte	.LASF7
 2778 005d 03       		.uleb128 0x3
 2779 005e 04       		.byte	0x4
 2780 005f 05       		.byte	0x5
 2781 0060 696E7400 		.ascii	"int\000"
 2782 0064 02       		.uleb128 0x2
 2783 0065 04       		.byte	0x4
 2784 0066 07       		.byte	0x7
 2785 0067 15030000 		.4byte	.LASF8
 2786 006b 04       		.uleb128 0x4
 2787 006c 1D020000 		.4byte	.LASF9
 2788 0070 02       		.byte	0x2
 2789 0071 E401     		.2byte	0x1e4
 2790 0073 19       		.byte	0x19
 2791 0074 2C000000 		.4byte	0x2c
 2792 0078 05       		.uleb128 0x5
 2793 0079 6B000000 		.4byte	0x6b
 2794 007d 06       		.uleb128 0x6
 2795 007e 6B000000 		.4byte	0x6b
 2796 0082 04       		.uleb128 0x4
 2797 0083 20000000 		.4byte	.LASF10
 2798 0087 02       		.byte	0x2
 2799 0088 E501     		.2byte	0x1e5
 2800 008a 19       		.byte	0x19
 2801 008b 3A000000 		.4byte	0x3a
 2802 008f 04       		.uleb128 0x4
 2803 0090 63020000 		.4byte	.LASF11
 2804 0094 02       		.byte	0x2
 2805 0095 E601     		.2byte	0x1e6
 2806 0097 19       		.byte	0x19
 2807 0098 48000000 		.4byte	0x48
 2808 009c 02       		.uleb128 0x2
 2809 009d 04       		.byte	0x4
 2810 009e 04       		.byte	0x4
 2811 009f B1060000 		.4byte	.LASF12
 2812 00a3 02       		.uleb128 0x2
 2813 00a4 08       		.byte	0x8
 2814 00a5 04       		.byte	0x4
 2815 00a6 2D020000 		.4byte	.LASF13
 2816 00aa 02       		.uleb128 0x2
ARM GAS  C:\Users\jens-\AppData\Local\Temp\ccih1T9a.s 			page 95


 2817 00ab 01       		.byte	0x1
 2818 00ac 08       		.byte	0x8
 2819 00ad D7080000 		.4byte	.LASF14
 2820 00b1 06       		.uleb128 0x6
 2821 00b2 AA000000 		.4byte	0xaa
 2822 00b6 04       		.uleb128 0x4
 2823 00b7 880A0000 		.4byte	.LASF15
 2824 00bb 02       		.byte	0x2
 2825 00bc 8602     		.2byte	0x286
 2826 00be 1B       		.byte	0x1b
 2827 00bf 48000000 		.4byte	0x48
 2828 00c3 04       		.uleb128 0x4
 2829 00c4 3C070000 		.4byte	.LASF16
 2830 00c8 02       		.byte	0x2
 2831 00c9 8E02     		.2byte	0x28e
 2832 00cb 21       		.byte	0x21
 2833 00cc 78000000 		.4byte	0x78
 2834 00d0 07       		.uleb128 0x7
 2835 00d1 04       		.byte	0x4
 2836 00d2 D6000000 		.4byte	0xd6
 2837 00d6 08       		.uleb128 0x8
 2838 00d7 02       		.uleb128 0x2
 2839 00d8 08       		.byte	0x8
 2840 00d9 04       		.byte	0x4
 2841 00da EA050000 		.4byte	.LASF17
 2842 00de 09       		.uleb128 0x9
 2843 00df 6B040000 		.4byte	.LASF18
 2844 00e3 03       		.byte	0x3
 2845 00e4 22       		.byte	0x22
 2846 00e5 19       		.byte	0x19
 2847 00e6 EA000000 		.4byte	0xea
 2848 00ea 07       		.uleb128 0x7
 2849 00eb 04       		.byte	0x4
 2850 00ec F0000000 		.4byte	0xf0
 2851 00f0 0A       		.uleb128 0xa
 2852 00f1 89080000 		.4byte	.LASF124
 2853 00f5 09       		.uleb128 0x9
 2854 00f6 89060000 		.4byte	.LASF19
 2855 00fa 04       		.byte	0x4
 2856 00fb 2C       		.byte	0x2c
 2857 00fc 0E       		.byte	0xe
 2858 00fd 41000000 		.4byte	0x41
 2859 0101 09       		.uleb128 0x9
 2860 0102 BC080000 		.4byte	.LASF20
 2861 0106 04       		.byte	0x4
 2862 0107 72       		.byte	0x72
 2863 0108 0E       		.byte	0xe
 2864 0109 41000000 		.4byte	0x41
 2865 010d 04       		.uleb128 0x4
 2866 010e 73040000 		.4byte	.LASF21
 2867 0112 05       		.byte	0x5
 2868 0113 5E01     		.2byte	0x15e
 2869 0115 17       		.byte	0x17
 2870 0116 64000000 		.4byte	0x64
 2871 011a 0B       		.uleb128 0xb
 2872 011b 04       		.byte	0x4
 2873 011c 04       		.byte	0x4
ARM GAS  C:\Users\jens-\AppData\Local\Temp\ccih1T9a.s 			page 96


 2874 011d A6       		.byte	0xa6
 2875 011e 03       		.byte	0x3
 2876 011f 3C010000 		.4byte	0x13c
 2877 0123 0C       		.uleb128 0xc
 2878 0124 A6010000 		.4byte	.LASF22
 2879 0128 04       		.byte	0x4
 2880 0129 A8       		.byte	0xa8
 2881 012a 0C       		.byte	0xc
 2882 012b 0D010000 		.4byte	0x10d
 2883 012f 0C       		.uleb128 0xc
 2884 0130 22030000 		.4byte	.LASF23
 2885 0134 04       		.byte	0x4
 2886 0135 A9       		.byte	0xa9
 2887 0136 13       		.byte	0x13
 2888 0137 3C010000 		.4byte	0x13c
 2889 013b 00       		.byte	0
 2890 013c 0D       		.uleb128 0xd
 2891 013d 2C000000 		.4byte	0x2c
 2892 0141 4C010000 		.4byte	0x14c
 2893 0145 0E       		.uleb128 0xe
 2894 0146 64000000 		.4byte	0x64
 2895 014a 03       		.byte	0x3
 2896 014b 00       		.byte	0
 2897 014c 0F       		.uleb128 0xf
 2898 014d 08       		.byte	0x8
 2899 014e 04       		.byte	0x4
 2900 014f A3       		.byte	0xa3
 2901 0150 09       		.byte	0x9
 2902 0151 70010000 		.4byte	0x170
 2903 0155 10       		.uleb128 0x10
 2904 0156 81080000 		.4byte	.LASF24
 2905 015a 04       		.byte	0x4
 2906 015b A5       		.byte	0xa5
 2907 015c 07       		.byte	0x7
 2908 015d 5D000000 		.4byte	0x5d
 2909 0161 00       		.byte	0
 2910 0162 10       		.uleb128 0x10
 2911 0163 90080000 		.4byte	.LASF25
 2912 0167 04       		.byte	0x4
 2913 0168 AA       		.byte	0xaa
 2914 0169 05       		.byte	0x5
 2915 016a 1A010000 		.4byte	0x11a
 2916 016e 04       		.byte	0x4
 2917 016f 00       		.byte	0
 2918 0170 09       		.uleb128 0x9
 2919 0171 D3070000 		.4byte	.LASF26
 2920 0175 04       		.byte	0x4
 2921 0176 AB       		.byte	0xab
 2922 0177 03       		.byte	0x3
 2923 0178 4C010000 		.4byte	0x14c
 2924 017c 09       		.uleb128 0x9
 2925 017d BA020000 		.4byte	.LASF27
 2926 0181 04       		.byte	0x4
 2927 0182 AF       		.byte	0xaf
 2928 0183 1B       		.byte	0x1b
 2929 0184 DE000000 		.4byte	0xde
 2930 0188 11       		.uleb128 0x11
ARM GAS  C:\Users\jens-\AppData\Local\Temp\ccih1T9a.s 			page 97


 2931 0189 04       		.byte	0x4
 2932 018a 07       		.uleb128 0x7
 2933 018b 04       		.byte	0x4
 2934 018c AA000000 		.4byte	0xaa
 2935 0190 09       		.uleb128 0x9
 2936 0191 A9090000 		.4byte	.LASF28
 2937 0195 06       		.byte	0x6
 2938 0196 16       		.byte	0x16
 2939 0197 19       		.byte	0x19
 2940 0198 48000000 		.4byte	0x48
 2941 019c 12       		.uleb128 0x12
 2942 019d CB020000 		.4byte	.LASF33
 2943 01a1 18       		.byte	0x18
 2944 01a2 06       		.byte	0x6
 2945 01a3 2F       		.byte	0x2f
 2946 01a4 08       		.byte	0x8
 2947 01a5 F6010000 		.4byte	0x1f6
 2948 01a9 10       		.uleb128 0x10
 2949 01aa 57090000 		.4byte	.LASF29
 2950 01ae 06       		.byte	0x6
 2951 01af 31       		.byte	0x31
 2952 01b0 13       		.byte	0x13
 2953 01b1 F6010000 		.4byte	0x1f6
 2954 01b5 00       		.byte	0
 2955 01b6 13       		.uleb128 0x13
 2956 01b7 5F6B00   		.ascii	"_k\000"
 2957 01ba 06       		.byte	0x6
 2958 01bb 32       		.byte	0x32
 2959 01bc 07       		.byte	0x7
 2960 01bd 5D000000 		.4byte	0x5d
 2961 01c1 04       		.byte	0x4
 2962 01c2 10       		.uleb128 0x10
 2963 01c3 5D080000 		.4byte	.LASF30
 2964 01c7 06       		.byte	0x6
 2965 01c8 32       		.byte	0x32
 2966 01c9 0B       		.byte	0xb
 2967 01ca 5D000000 		.4byte	0x5d
 2968 01ce 08       		.byte	0x8
 2969 01cf 10       		.uleb128 0x10
 2970 01d0 B4020000 		.4byte	.LASF31
 2971 01d4 06       		.byte	0x6
 2972 01d5 32       		.byte	0x32
 2973 01d6 14       		.byte	0x14
 2974 01d7 5D000000 		.4byte	0x5d
 2975 01db 0C       		.byte	0xc
 2976 01dc 10       		.uleb128 0x10
 2977 01dd 050A0000 		.4byte	.LASF32
 2978 01e1 06       		.byte	0x6
 2979 01e2 32       		.byte	0x32
 2980 01e3 1B       		.byte	0x1b
 2981 01e4 5D000000 		.4byte	0x5d
 2982 01e8 10       		.byte	0x10
 2983 01e9 13       		.uleb128 0x13
 2984 01ea 5F7800   		.ascii	"_x\000"
 2985 01ed 06       		.byte	0x6
 2986 01ee 33       		.byte	0x33
 2987 01ef 0B       		.byte	0xb
ARM GAS  C:\Users\jens-\AppData\Local\Temp\ccih1T9a.s 			page 98


 2988 01f0 FC010000 		.4byte	0x1fc
 2989 01f4 14       		.byte	0x14
 2990 01f5 00       		.byte	0
 2991 01f6 07       		.uleb128 0x7
 2992 01f7 04       		.byte	0x4
 2993 01f8 9C010000 		.4byte	0x19c
 2994 01fc 0D       		.uleb128 0xd
 2995 01fd 90010000 		.4byte	0x190
 2996 0201 0C020000 		.4byte	0x20c
 2997 0205 0E       		.uleb128 0xe
 2998 0206 64000000 		.4byte	0x64
 2999 020a 00       		.byte	0
 3000 020b 00       		.byte	0
 3001 020c 12       		.uleb128 0x12
 3002 020d 10030000 		.4byte	.LASF34
 3003 0211 24       		.byte	0x24
 3004 0212 06       		.byte	0x6
 3005 0213 37       		.byte	0x37
 3006 0214 08       		.byte	0x8
 3007 0215 8F020000 		.4byte	0x28f
 3008 0219 10       		.uleb128 0x10
 3009 021a 56010000 		.4byte	.LASF35
 3010 021e 06       		.byte	0x6
 3011 021f 39       		.byte	0x39
 3012 0220 09       		.byte	0x9
 3013 0221 5D000000 		.4byte	0x5d
 3014 0225 00       		.byte	0
 3015 0226 10       		.uleb128 0x10
 3016 0227 DC080000 		.4byte	.LASF36
 3017 022b 06       		.byte	0x6
 3018 022c 3A       		.byte	0x3a
 3019 022d 09       		.byte	0x9
 3020 022e 5D000000 		.4byte	0x5d
 3021 0232 04       		.byte	0x4
 3022 0233 10       		.uleb128 0x10
 3023 0234 9C010000 		.4byte	.LASF37
 3024 0238 06       		.byte	0x6
 3025 0239 3B       		.byte	0x3b
 3026 023a 09       		.byte	0x9
 3027 023b 5D000000 		.4byte	0x5d
 3028 023f 08       		.byte	0x8
 3029 0240 10       		.uleb128 0x10
 3030 0241 590B0000 		.4byte	.LASF38
 3031 0245 06       		.byte	0x6
 3032 0246 3C       		.byte	0x3c
 3033 0247 09       		.byte	0x9
 3034 0248 5D000000 		.4byte	0x5d
 3035 024c 0C       		.byte	0xc
 3036 024d 10       		.uleb128 0x10
 3037 024e 5F060000 		.4byte	.LASF39
 3038 0252 06       		.byte	0x6
 3039 0253 3D       		.byte	0x3d
 3040 0254 09       		.byte	0x9
 3041 0255 5D000000 		.4byte	0x5d
 3042 0259 10       		.byte	0x10
 3043 025a 10       		.uleb128 0x10
 3044 025b 98050000 		.4byte	.LASF40
ARM GAS  C:\Users\jens-\AppData\Local\Temp\ccih1T9a.s 			page 99


 3045 025f 06       		.byte	0x6
 3046 0260 3E       		.byte	0x3e
 3047 0261 09       		.byte	0x9
 3048 0262 5D000000 		.4byte	0x5d
 3049 0266 14       		.byte	0x14
 3050 0267 10       		.uleb128 0x10
 3051 0268 0A0A0000 		.4byte	.LASF41
 3052 026c 06       		.byte	0x6
 3053 026d 3F       		.byte	0x3f
 3054 026e 09       		.byte	0x9
 3055 026f 5D000000 		.4byte	0x5d
 3056 0273 18       		.byte	0x18
 3057 0274 10       		.uleb128 0x10
 3058 0275 A3070000 		.4byte	.LASF42
 3059 0279 06       		.byte	0x6
 3060 027a 40       		.byte	0x40
 3061 027b 09       		.byte	0x9
 3062 027c 5D000000 		.4byte	0x5d
 3063 0280 1C       		.byte	0x1c
 3064 0281 10       		.uleb128 0x10
 3065 0282 A50A0000 		.4byte	.LASF43
 3066 0286 06       		.byte	0x6
 3067 0287 41       		.byte	0x41
 3068 0288 09       		.byte	0x9
 3069 0289 5D000000 		.4byte	0x5d
 3070 028d 20       		.byte	0x20
 3071 028e 00       		.byte	0
 3072 028f 14       		.uleb128 0x14
 3073 0290 B1010000 		.4byte	.LASF44
 3074 0294 0801     		.2byte	0x108
 3075 0296 06       		.byte	0x6
 3076 0297 4A       		.byte	0x4a
 3077 0298 08       		.byte	0x8
 3078 0299 D4020000 		.4byte	0x2d4
 3079 029d 10       		.uleb128 0x10
 3080 029e 2D000000 		.4byte	.LASF45
 3081 02a2 06       		.byte	0x6
 3082 02a3 4B       		.byte	0x4b
 3083 02a4 0A       		.byte	0xa
 3084 02a5 D4020000 		.4byte	0x2d4
 3085 02a9 00       		.byte	0
 3086 02aa 10       		.uleb128 0x10
 3087 02ab 00000000 		.4byte	.LASF46
 3088 02af 06       		.byte	0x6
 3089 02b0 4C       		.byte	0x4c
 3090 02b1 09       		.byte	0x9
 3091 02b2 D4020000 		.4byte	0x2d4
 3092 02b6 80       		.byte	0x80
 3093 02b7 15       		.uleb128 0x15
 3094 02b8 85090000 		.4byte	.LASF47
 3095 02bc 06       		.byte	0x6
 3096 02bd 4E       		.byte	0x4e
 3097 02be 0A       		.byte	0xa
 3098 02bf 90010000 		.4byte	0x190
 3099 02c3 0001     		.2byte	0x100
 3100 02c5 15       		.uleb128 0x15
 3101 02c6 05020000 		.4byte	.LASF48
ARM GAS  C:\Users\jens-\AppData\Local\Temp\ccih1T9a.s 			page 100


 3102 02ca 06       		.byte	0x6
 3103 02cb 51       		.byte	0x51
 3104 02cc 0A       		.byte	0xa
 3105 02cd 90010000 		.4byte	0x190
 3106 02d1 0401     		.2byte	0x104
 3107 02d3 00       		.byte	0
 3108 02d4 0D       		.uleb128 0xd
 3109 02d5 88010000 		.4byte	0x188
 3110 02d9 E4020000 		.4byte	0x2e4
 3111 02dd 0E       		.uleb128 0xe
 3112 02de 64000000 		.4byte	0x64
 3113 02e2 1F       		.byte	0x1f
 3114 02e3 00       		.byte	0
 3115 02e4 14       		.uleb128 0x14
 3116 02e5 76060000 		.4byte	.LASF49
 3117 02e9 9001     		.2byte	0x190
 3118 02eb 06       		.byte	0x6
 3119 02ec 5D       		.byte	0x5d
 3120 02ed 08       		.byte	0x8
 3121 02ee 27030000 		.4byte	0x327
 3122 02f2 10       		.uleb128 0x10
 3123 02f3 57090000 		.4byte	.LASF29
 3124 02f7 06       		.byte	0x6
 3125 02f8 5E       		.byte	0x5e
 3126 02f9 12       		.byte	0x12
 3127 02fa 27030000 		.4byte	0x327
 3128 02fe 00       		.byte	0
 3129 02ff 10       		.uleb128 0x10
 3130 0300 1A080000 		.4byte	.LASF50
 3131 0304 06       		.byte	0x6
 3132 0305 5F       		.byte	0x5f
 3133 0306 06       		.byte	0x6
 3134 0307 5D000000 		.4byte	0x5d
 3135 030b 04       		.byte	0x4
 3136 030c 10       		.uleb128 0x10
 3137 030d AA020000 		.4byte	.LASF51
 3138 0311 06       		.byte	0x6
 3139 0312 61       		.byte	0x61
 3140 0313 09       		.byte	0x9
 3141 0314 2D030000 		.4byte	0x32d
 3142 0318 08       		.byte	0x8
 3143 0319 10       		.uleb128 0x10
 3144 031a B1010000 		.4byte	.LASF44
 3145 031e 06       		.byte	0x6
 3146 031f 62       		.byte	0x62
 3147 0320 1E       		.byte	0x1e
 3148 0321 8F020000 		.4byte	0x28f
 3149 0325 88       		.byte	0x88
 3150 0326 00       		.byte	0
 3151 0327 07       		.uleb128 0x7
 3152 0328 04       		.byte	0x4
 3153 0329 E4020000 		.4byte	0x2e4
 3154 032d 0D       		.uleb128 0xd
 3155 032e D0000000 		.4byte	0xd0
 3156 0332 3D030000 		.4byte	0x33d
 3157 0336 0E       		.uleb128 0xe
 3158 0337 64000000 		.4byte	0x64
ARM GAS  C:\Users\jens-\AppData\Local\Temp\ccih1T9a.s 			page 101


 3159 033b 1F       		.byte	0x1f
 3160 033c 00       		.byte	0
 3161 033d 12       		.uleb128 0x12
 3162 033e BF070000 		.4byte	.LASF52
 3163 0342 08       		.byte	0x8
 3164 0343 06       		.byte	0x6
 3165 0344 75       		.byte	0x75
 3166 0345 08       		.byte	0x8
 3167 0346 65030000 		.4byte	0x365
 3168 034a 10       		.uleb128 0x10
 3169 034b 96010000 		.4byte	.LASF53
 3170 034f 06       		.byte	0x6
 3171 0350 76       		.byte	0x76
 3172 0351 11       		.byte	0x11
 3173 0352 65030000 		.4byte	0x365
 3174 0356 00       		.byte	0
 3175 0357 10       		.uleb128 0x10
 3176 0358 27000000 		.4byte	.LASF54
 3177 035c 06       		.byte	0x6
 3178 035d 77       		.byte	0x77
 3179 035e 06       		.byte	0x6
 3180 035f 5D000000 		.4byte	0x5d
 3181 0363 04       		.byte	0x4
 3182 0364 00       		.byte	0
 3183 0365 07       		.uleb128 0x7
 3184 0366 04       		.byte	0x4
 3185 0367 2C000000 		.4byte	0x2c
 3186 036b 12       		.uleb128 0x12
 3187 036c DE070000 		.4byte	.LASF55
 3188 0370 68       		.byte	0x68
 3189 0371 06       		.byte	0x6
 3190 0372 B5       		.byte	0xb5
 3191 0373 08       		.byte	0x8
 3192 0374 AE040000 		.4byte	0x4ae
 3193 0378 13       		.uleb128 0x13
 3194 0379 5F7000   		.ascii	"_p\000"
 3195 037c 06       		.byte	0x6
 3196 037d B6       		.byte	0xb6
 3197 037e 12       		.byte	0x12
 3198 037f 65030000 		.4byte	0x365
 3199 0383 00       		.byte	0
 3200 0384 13       		.uleb128 0x13
 3201 0385 5F7200   		.ascii	"_r\000"
 3202 0388 06       		.byte	0x6
 3203 0389 B7       		.byte	0xb7
 3204 038a 07       		.byte	0x7
 3205 038b 5D000000 		.4byte	0x5d
 3206 038f 04       		.byte	0x4
 3207 0390 13       		.uleb128 0x13
 3208 0391 5F7700   		.ascii	"_w\000"
 3209 0394 06       		.byte	0x6
 3210 0395 B8       		.byte	0xb8
 3211 0396 07       		.byte	0x7
 3212 0397 5D000000 		.4byte	0x5d
 3213 039b 08       		.byte	0x8
 3214 039c 10       		.uleb128 0x10
 3215 039d FE010000 		.4byte	.LASF56
ARM GAS  C:\Users\jens-\AppData\Local\Temp\ccih1T9a.s 			page 102


 3216 03a1 06       		.byte	0x6
 3217 03a2 B9       		.byte	0xb9
 3218 03a3 09       		.byte	0x9
 3219 03a4 33000000 		.4byte	0x33
 3220 03a8 0C       		.byte	0xc
 3221 03a9 10       		.uleb128 0x10
 3222 03aa 4B030000 		.4byte	.LASF57
 3223 03ae 06       		.byte	0x6
 3224 03af BA       		.byte	0xba
 3225 03b0 09       		.byte	0x9
 3226 03b1 33000000 		.4byte	0x33
 3227 03b5 0E       		.byte	0xe
 3228 03b6 13       		.uleb128 0x13
 3229 03b7 5F626600 		.ascii	"_bf\000"
 3230 03bb 06       		.byte	0x6
 3231 03bc BB       		.byte	0xbb
 3232 03bd 11       		.byte	0x11
 3233 03be 3D030000 		.4byte	0x33d
 3234 03c2 10       		.byte	0x10
 3235 03c3 10       		.uleb128 0x10
 3236 03c4 E7000000 		.4byte	.LASF58
 3237 03c8 06       		.byte	0x6
 3238 03c9 BC       		.byte	0xbc
 3239 03ca 07       		.byte	0x7
 3240 03cb 5D000000 		.4byte	0x5d
 3241 03cf 18       		.byte	0x18
 3242 03d0 10       		.uleb128 0x10
 3243 03d1 CD010000 		.4byte	.LASF59
 3244 03d5 06       		.byte	0x6
 3245 03d6 C3       		.byte	0xc3
 3246 03d7 0A       		.byte	0xa
 3247 03d8 88010000 		.4byte	0x188
 3248 03dc 1C       		.byte	0x1c
 3249 03dd 10       		.uleb128 0x10
 3250 03de 00030000 		.4byte	.LASF60
 3251 03e2 06       		.byte	0x6
 3252 03e3 C5       		.byte	0xc5
 3253 03e4 1D       		.byte	0x1d
 3254 03e5 20060000 		.4byte	0x620
 3255 03e9 20       		.byte	0x20
 3256 03ea 10       		.uleb128 0x10
 3257 03eb 91050000 		.4byte	.LASF61
 3258 03ef 06       		.byte	0x6
 3259 03f0 C7       		.byte	0xc7
 3260 03f1 1D       		.byte	0x1d
 3261 03f2 4A060000 		.4byte	0x64a
 3262 03f6 24       		.byte	0x24
 3263 03f7 10       		.uleb128 0x10
 3264 03f8 98080000 		.4byte	.LASF62
 3265 03fc 06       		.byte	0x6
 3266 03fd CA       		.byte	0xca
 3267 03fe 0D       		.byte	0xd
 3268 03ff 6E060000 		.4byte	0x66e
 3269 0403 28       		.byte	0x28
 3270 0404 10       		.uleb128 0x10
 3271 0405 BF0A0000 		.4byte	.LASF63
 3272 0409 06       		.byte	0x6
ARM GAS  C:\Users\jens-\AppData\Local\Temp\ccih1T9a.s 			page 103


 3273 040a CB       		.byte	0xcb
 3274 040b 09       		.byte	0x9
 3275 040c 88060000 		.4byte	0x688
 3276 0410 2C       		.byte	0x2c
 3277 0411 13       		.uleb128 0x13
 3278 0412 5F756200 		.ascii	"_ub\000"
 3279 0416 06       		.byte	0x6
 3280 0417 CE       		.byte	0xce
 3281 0418 11       		.byte	0x11
 3282 0419 3D030000 		.4byte	0x33d
 3283 041d 30       		.byte	0x30
 3284 041e 13       		.uleb128 0x13
 3285 041f 5F757000 		.ascii	"_up\000"
 3286 0423 06       		.byte	0x6
 3287 0424 CF       		.byte	0xcf
 3288 0425 12       		.byte	0x12
 3289 0426 65030000 		.4byte	0x365
 3290 042a 38       		.byte	0x38
 3291 042b 13       		.uleb128 0x13
 3292 042c 5F757200 		.ascii	"_ur\000"
 3293 0430 06       		.byte	0x6
 3294 0431 D0       		.byte	0xd0
 3295 0432 07       		.byte	0x7
 3296 0433 5D000000 		.4byte	0x5d
 3297 0437 3C       		.byte	0x3c
 3298 0438 10       		.uleb128 0x10
 3299 0439 90010000 		.4byte	.LASF64
 3300 043d 06       		.byte	0x6
 3301 043e D3       		.byte	0xd3
 3302 043f 11       		.byte	0x11
 3303 0440 8E060000 		.4byte	0x68e
 3304 0444 40       		.byte	0x40
 3305 0445 10       		.uleb128 0x10
 3306 0446 820A0000 		.4byte	.LASF65
 3307 044a 06       		.byte	0x6
 3308 044b D4       		.byte	0xd4
 3309 044c 11       		.byte	0x11
 3310 044d 9E060000 		.4byte	0x69e
 3311 0451 43       		.byte	0x43
 3312 0452 13       		.uleb128 0x13
 3313 0453 5F6C6200 		.ascii	"_lb\000"
 3314 0457 06       		.byte	0x6
 3315 0458 D7       		.byte	0xd7
 3316 0459 11       		.byte	0x11
 3317 045a 3D030000 		.4byte	0x33d
 3318 045e 44       		.byte	0x44
 3319 045f 10       		.uleb128 0x10
 3320 0460 14020000 		.4byte	.LASF66
 3321 0464 06       		.byte	0x6
 3322 0465 DA       		.byte	0xda
 3323 0466 07       		.byte	0x7
 3324 0467 5D000000 		.4byte	0x5d
 3325 046b 4C       		.byte	0x4c
 3326 046c 10       		.uleb128 0x10
 3327 046d 3C020000 		.4byte	.LASF67
 3328 0471 06       		.byte	0x6
 3329 0472 DB       		.byte	0xdb
ARM GAS  C:\Users\jens-\AppData\Local\Temp\ccih1T9a.s 			page 104


 3330 0473 0A       		.byte	0xa
 3331 0474 F5000000 		.4byte	0xf5
 3332 0478 50       		.byte	0x50
 3333 0479 10       		.uleb128 0x10
 3334 047a 8B000000 		.4byte	.LASF68
 3335 047e 06       		.byte	0x6
 3336 047f DE       		.byte	0xde
 3337 0480 12       		.byte	0x12
 3338 0481 CC040000 		.4byte	0x4cc
 3339 0485 54       		.byte	0x54
 3340 0486 10       		.uleb128 0x10
 3341 0487 90040000 		.4byte	.LASF69
 3342 048b 06       		.byte	0x6
 3343 048c E2       		.byte	0xe2
 3344 048d 0C       		.byte	0xc
 3345 048e 7C010000 		.4byte	0x17c
 3346 0492 58       		.byte	0x58
 3347 0493 10       		.uleb128 0x10
 3348 0494 E6070000 		.4byte	.LASF70
 3349 0498 06       		.byte	0x6
 3350 0499 E4       		.byte	0xe4
 3351 049a 0E       		.byte	0xe
 3352 049b 70010000 		.4byte	0x170
 3353 049f 5C       		.byte	0x5c
 3354 04a0 10       		.uleb128 0x10
 3355 04a1 A3040000 		.4byte	.LASF71
 3356 04a5 06       		.byte	0x6
 3357 04a6 E5       		.byte	0xe5
 3358 04a7 09       		.byte	0x9
 3359 04a8 5D000000 		.4byte	0x5d
 3360 04ac 64       		.byte	0x64
 3361 04ad 00       		.byte	0
 3362 04ae 16       		.uleb128 0x16
 3363 04af 5D000000 		.4byte	0x5d
 3364 04b3 CC040000 		.4byte	0x4cc
 3365 04b7 17       		.uleb128 0x17
 3366 04b8 CC040000 		.4byte	0x4cc
 3367 04bc 17       		.uleb128 0x17
 3368 04bd 88010000 		.4byte	0x188
 3369 04c1 17       		.uleb128 0x17
 3370 04c2 8A010000 		.4byte	0x18a
 3371 04c6 17       		.uleb128 0x17
 3372 04c7 5D000000 		.4byte	0x5d
 3373 04cb 00       		.byte	0
 3374 04cc 07       		.uleb128 0x7
 3375 04cd 04       		.byte	0x4
 3376 04ce D7040000 		.4byte	0x4d7
 3377 04d2 06       		.uleb128 0x6
 3378 04d3 CC040000 		.4byte	0x4cc
 3379 04d7 18       		.uleb128 0x18
 3380 04d8 65080000 		.4byte	.LASF72
 3381 04dc 2804     		.2byte	0x428
 3382 04de 06       		.byte	0x6
 3383 04df 6002     		.2byte	0x260
 3384 04e1 08       		.byte	0x8
 3385 04e2 20060000 		.4byte	0x620
 3386 04e6 19       		.uleb128 0x19
ARM GAS  C:\Users\jens-\AppData\Local\Temp\ccih1T9a.s 			page 105


 3387 04e7 D0080000 		.4byte	.LASF73
 3388 04eb 06       		.byte	0x6
 3389 04ec 6202     		.2byte	0x262
 3390 04ee 07       		.byte	0x7
 3391 04ef 5D000000 		.4byte	0x5d
 3392 04f3 00       		.byte	0
 3393 04f4 19       		.uleb128 0x19
 3394 04f5 0D020000 		.4byte	.LASF74
 3395 04f9 06       		.byte	0x6
 3396 04fa 6702     		.2byte	0x267
 3397 04fc 0B       		.byte	0xb
 3398 04fd FA060000 		.4byte	0x6fa
 3399 0501 04       		.byte	0x4
 3400 0502 19       		.uleb128 0x19
 3401 0503 29030000 		.4byte	.LASF75
 3402 0507 06       		.byte	0x6
 3403 0508 6702     		.2byte	0x267
 3404 050a 14       		.byte	0x14
 3405 050b FA060000 		.4byte	0x6fa
 3406 050f 08       		.byte	0x8
 3407 0510 19       		.uleb128 0x19
 3408 0511 C3020000 		.4byte	.LASF76
 3409 0515 06       		.byte	0x6
 3410 0516 6702     		.2byte	0x267
 3411 0518 1E       		.byte	0x1e
 3412 0519 FA060000 		.4byte	0x6fa
 3413 051d 0C       		.byte	0xc
 3414 051e 19       		.uleb128 0x19
 3415 051f 15080000 		.4byte	.LASF77
 3416 0523 06       		.byte	0x6
 3417 0524 6902     		.2byte	0x269
 3418 0526 08       		.byte	0x8
 3419 0527 5D000000 		.4byte	0x5d
 3420 052b 10       		.byte	0x10
 3421 052c 19       		.uleb128 0x19
 3422 052d 4F000000 		.4byte	.LASF78
 3423 0531 06       		.byte	0x6
 3424 0532 6A02     		.2byte	0x26a
 3425 0534 08       		.byte	0x8
 3426 0535 FA080000 		.4byte	0x8fa
 3427 0539 14       		.byte	0x14
 3428 053a 19       		.uleb128 0x19
 3429 053b 44080000 		.4byte	.LASF79
 3430 053f 06       		.byte	0x6
 3431 0540 6D02     		.2byte	0x26d
 3432 0542 07       		.byte	0x7
 3433 0543 5D000000 		.4byte	0x5d
 3434 0547 30       		.byte	0x30
 3435 0548 19       		.uleb128 0x19
 3436 0549 32080000 		.4byte	.LASF80
 3437 054d 06       		.byte	0x6
 3438 054e 6E02     		.2byte	0x26e
 3439 0550 16       		.byte	0x16
 3440 0551 0F090000 		.4byte	0x90f
 3441 0555 34       		.byte	0x34
 3442 0556 19       		.uleb128 0x19
 3443 0557 7E060000 		.4byte	.LASF81
ARM GAS  C:\Users\jens-\AppData\Local\Temp\ccih1T9a.s 			page 106


 3444 055b 06       		.byte	0x6
 3445 055c 7002     		.2byte	0x270
 3446 055e 07       		.byte	0x7
 3447 055f 5D000000 		.4byte	0x5d
 3448 0563 38       		.byte	0x38
 3449 0564 19       		.uleb128 0x19
 3450 0565 3A080000 		.4byte	.LASF82
 3451 0569 06       		.byte	0x6
 3452 056a 7202     		.2byte	0x272
 3453 056c 0A       		.byte	0xa
 3454 056d 20090000 		.4byte	0x920
 3455 0571 3C       		.byte	0x3c
 3456 0572 19       		.uleb128 0x19
 3457 0573 45040000 		.4byte	.LASF83
 3458 0577 06       		.byte	0x6
 3459 0578 7502     		.2byte	0x275
 3460 057a 13       		.byte	0x13
 3461 057b F6010000 		.4byte	0x1f6
 3462 057f 40       		.byte	0x40
 3463 0580 19       		.uleb128 0x19
 3464 0581 06030000 		.4byte	.LASF84
 3465 0585 06       		.byte	0x6
 3466 0586 7602     		.2byte	0x276
 3467 0588 07       		.byte	0x7
 3468 0589 5D000000 		.4byte	0x5d
 3469 058d 44       		.byte	0x44
 3470 058e 19       		.uleb128 0x19
 3471 058f D90A0000 		.4byte	.LASF85
 3472 0593 06       		.byte	0x6
 3473 0594 7702     		.2byte	0x277
 3474 0596 13       		.byte	0x13
 3475 0597 F6010000 		.4byte	0x1f6
 3476 059b 48       		.byte	0x48
 3477 059c 19       		.uleb128 0x19
 3478 059d CD060000 		.4byte	.LASF86
 3479 05a1 06       		.byte	0x6
 3480 05a2 7802     		.2byte	0x278
 3481 05a4 14       		.byte	0x14
 3482 05a5 26090000 		.4byte	0x926
 3483 05a9 4C       		.byte	0x4c
 3484 05aa 19       		.uleb128 0x19
 3485 05ab 31030000 		.4byte	.LASF87
 3486 05af 06       		.byte	0x6
 3487 05b0 7B02     		.2byte	0x27b
 3488 05b2 07       		.byte	0x7
 3489 05b3 5D000000 		.4byte	0x5d
 3490 05b7 50       		.byte	0x50
 3491 05b8 19       		.uleb128 0x19
 3492 05b9 34020000 		.4byte	.LASF88
 3493 05bd 06       		.byte	0x6
 3494 05be 7C02     		.2byte	0x27c
 3495 05c0 09       		.byte	0x9
 3496 05c1 8A010000 		.4byte	0x18a
 3497 05c5 54       		.byte	0x54
 3498 05c6 19       		.uleb128 0x19
 3499 05c7 72070000 		.4byte	.LASF89
 3500 05cb 06       		.byte	0x6
ARM GAS  C:\Users\jens-\AppData\Local\Temp\ccih1T9a.s 			page 107


 3501 05cc 9F02     		.2byte	0x29f
 3502 05ce 07       		.byte	0x7
 3503 05cf D5080000 		.4byte	0x8d5
 3504 05d3 58       		.byte	0x58
 3505 05d4 1A       		.uleb128 0x1a
 3506 05d5 76060000 		.4byte	.LASF49
 3507 05d9 06       		.byte	0x6
 3508 05da A302     		.2byte	0x2a3
 3509 05dc 13       		.byte	0x13
 3510 05dd 27030000 		.4byte	0x327
 3511 05e1 4801     		.2byte	0x148
 3512 05e3 1A       		.uleb128 0x1a
 3513 05e4 07040000 		.4byte	.LASF90
 3514 05e8 06       		.byte	0x6
 3515 05e9 A402     		.2byte	0x2a4
 3516 05eb 12       		.byte	0x12
 3517 05ec E4020000 		.4byte	0x2e4
 3518 05f0 4C01     		.2byte	0x14c
 3519 05f2 1A       		.uleb128 0x1a
 3520 05f3 420A0000 		.4byte	.LASF91
 3521 05f7 06       		.byte	0x6
 3522 05f8 A802     		.2byte	0x2a8
 3523 05fa 0C       		.byte	0xc
 3524 05fb 37090000 		.4byte	0x937
 3525 05ff DC02     		.2byte	0x2dc
 3526 0601 1A       		.uleb128 0x1a
 3527 0602 D5010000 		.4byte	.LASF92
 3528 0606 06       		.byte	0x6
 3529 0607 AD02     		.2byte	0x2ad
 3530 0609 10       		.byte	0x10
 3531 060a BB060000 		.4byte	0x6bb
 3532 060e E002     		.2byte	0x2e0
 3533 0610 1A       		.uleb128 0x1a
 3534 0611 AC010000 		.4byte	.LASF93
 3535 0615 06       		.byte	0x6
 3536 0616 AF02     		.2byte	0x2af
 3537 0618 0A       		.byte	0xa
 3538 0619 43090000 		.4byte	0x943
 3539 061d EC02     		.2byte	0x2ec
 3540 061f 00       		.byte	0
 3541 0620 07       		.uleb128 0x7
 3542 0621 04       		.byte	0x4
 3543 0622 AE040000 		.4byte	0x4ae
 3544 0626 16       		.uleb128 0x16
 3545 0627 5D000000 		.4byte	0x5d
 3546 062b 44060000 		.4byte	0x644
 3547 062f 17       		.uleb128 0x17
 3548 0630 CC040000 		.4byte	0x4cc
 3549 0634 17       		.uleb128 0x17
 3550 0635 88010000 		.4byte	0x188
 3551 0639 17       		.uleb128 0x17
 3552 063a 44060000 		.4byte	0x644
 3553 063e 17       		.uleb128 0x17
 3554 063f 5D000000 		.4byte	0x5d
 3555 0643 00       		.byte	0
 3556 0644 07       		.uleb128 0x7
 3557 0645 04       		.byte	0x4
ARM GAS  C:\Users\jens-\AppData\Local\Temp\ccih1T9a.s 			page 108


 3558 0646 B1000000 		.4byte	0xb1
 3559 064a 07       		.uleb128 0x7
 3560 064b 04       		.byte	0x4
 3561 064c 26060000 		.4byte	0x626
 3562 0650 16       		.uleb128 0x16
 3563 0651 01010000 		.4byte	0x101
 3564 0655 6E060000 		.4byte	0x66e
 3565 0659 17       		.uleb128 0x17
 3566 065a CC040000 		.4byte	0x4cc
 3567 065e 17       		.uleb128 0x17
 3568 065f 88010000 		.4byte	0x188
 3569 0663 17       		.uleb128 0x17
 3570 0664 01010000 		.4byte	0x101
 3571 0668 17       		.uleb128 0x17
 3572 0669 5D000000 		.4byte	0x5d
 3573 066d 00       		.byte	0
 3574 066e 07       		.uleb128 0x7
 3575 066f 04       		.byte	0x4
 3576 0670 50060000 		.4byte	0x650
 3577 0674 16       		.uleb128 0x16
 3578 0675 5D000000 		.4byte	0x5d
 3579 0679 88060000 		.4byte	0x688
 3580 067d 17       		.uleb128 0x17
 3581 067e CC040000 		.4byte	0x4cc
 3582 0682 17       		.uleb128 0x17
 3583 0683 88010000 		.4byte	0x188
 3584 0687 00       		.byte	0
 3585 0688 07       		.uleb128 0x7
 3586 0689 04       		.byte	0x4
 3587 068a 74060000 		.4byte	0x674
 3588 068e 0D       		.uleb128 0xd
 3589 068f 2C000000 		.4byte	0x2c
 3590 0693 9E060000 		.4byte	0x69e
 3591 0697 0E       		.uleb128 0xe
 3592 0698 64000000 		.4byte	0x64
 3593 069c 02       		.byte	0x2
 3594 069d 00       		.byte	0
 3595 069e 0D       		.uleb128 0xd
 3596 069f 2C000000 		.4byte	0x2c
 3597 06a3 AE060000 		.4byte	0x6ae
 3598 06a7 0E       		.uleb128 0xe
 3599 06a8 64000000 		.4byte	0x64
 3600 06ac 00       		.byte	0
 3601 06ad 00       		.byte	0
 3602 06ae 04       		.uleb128 0x4
 3603 06af CC070000 		.4byte	.LASF94
 3604 06b3 06       		.byte	0x6
 3605 06b4 1F01     		.2byte	0x11f
 3606 06b6 1A       		.byte	0x1a
 3607 06b7 6B030000 		.4byte	0x36b
 3608 06bb 1B       		.uleb128 0x1b
 3609 06bc 140A0000 		.4byte	.LASF95
 3610 06c0 0C       		.byte	0xc
 3611 06c1 06       		.byte	0x6
 3612 06c2 2301     		.2byte	0x123
 3613 06c4 08       		.byte	0x8
 3614 06c5 F4060000 		.4byte	0x6f4
ARM GAS  C:\Users\jens-\AppData\Local\Temp\ccih1T9a.s 			page 109


 3615 06c9 19       		.uleb128 0x19
 3616 06ca 57090000 		.4byte	.LASF29
 3617 06ce 06       		.byte	0x6
 3618 06cf 2501     		.2byte	0x125
 3619 06d1 11       		.byte	0x11
 3620 06d2 F4060000 		.4byte	0x6f4
 3621 06d6 00       		.byte	0
 3622 06d7 19       		.uleb128 0x19
 3623 06d8 A4030000 		.4byte	.LASF96
 3624 06dc 06       		.byte	0x6
 3625 06dd 2601     		.2byte	0x126
 3626 06df 07       		.byte	0x7
 3627 06e0 5D000000 		.4byte	0x5d
 3628 06e4 04       		.byte	0x4
 3629 06e5 19       		.uleb128 0x19
 3630 06e6 C6070000 		.4byte	.LASF97
 3631 06ea 06       		.byte	0x6
 3632 06eb 2701     		.2byte	0x127
 3633 06ed 0B       		.byte	0xb
 3634 06ee FA060000 		.4byte	0x6fa
 3635 06f2 08       		.byte	0x8
 3636 06f3 00       		.byte	0
 3637 06f4 07       		.uleb128 0x7
 3638 06f5 04       		.byte	0x4
 3639 06f6 BB060000 		.4byte	0x6bb
 3640 06fa 07       		.uleb128 0x7
 3641 06fb 04       		.byte	0x4
 3642 06fc AE060000 		.4byte	0x6ae
 3643 0700 1B       		.uleb128 0x1b
 3644 0701 47000000 		.4byte	.LASF98
 3645 0705 0E       		.byte	0xe
 3646 0706 06       		.byte	0x6
 3647 0707 3F01     		.2byte	0x13f
 3648 0709 08       		.byte	0x8
 3649 070a 39070000 		.4byte	0x739
 3650 070e 19       		.uleb128 0x19
 3651 070f 6C080000 		.4byte	.LASF99
 3652 0713 06       		.byte	0x6
 3653 0714 4001     		.2byte	0x140
 3654 0716 12       		.byte	0x12
 3655 0717 39070000 		.4byte	0x739
 3656 071b 00       		.byte	0
 3657 071c 19       		.uleb128 0x19
 3658 071d 36090000 		.4byte	.LASF100
 3659 0721 06       		.byte	0x6
 3660 0722 4101     		.2byte	0x141
 3661 0724 12       		.byte	0x12
 3662 0725 39070000 		.4byte	0x739
 3663 0729 06       		.byte	0x6
 3664 072a 19       		.uleb128 0x19
 3665 072b A4090000 		.4byte	.LASF101
 3666 072f 06       		.byte	0x6
 3667 0730 4201     		.2byte	0x142
 3668 0732 12       		.byte	0x12
 3669 0733 3A000000 		.4byte	0x3a
 3670 0737 0C       		.byte	0xc
 3671 0738 00       		.byte	0
ARM GAS  C:\Users\jens-\AppData\Local\Temp\ccih1T9a.s 			page 110


 3672 0739 0D       		.uleb128 0xd
 3673 073a 3A000000 		.4byte	0x3a
 3674 073e 49070000 		.4byte	0x749
 3675 0742 0E       		.uleb128 0xe
 3676 0743 64000000 		.4byte	0x64
 3677 0747 02       		.byte	0x2
 3678 0748 00       		.byte	0
 3679 0749 1C       		.uleb128 0x1c
 3680 074a D0       		.byte	0xd0
 3681 074b 06       		.byte	0x6
 3682 074c 8002     		.2byte	0x280
 3683 074e 07       		.byte	0x7
 3684 074f 5E080000 		.4byte	0x85e
 3685 0753 19       		.uleb128 0x19
 3686 0754 DE090000 		.4byte	.LASF102
 3687 0758 06       		.byte	0x6
 3688 0759 8202     		.2byte	0x282
 3689 075b 18       		.byte	0x18
 3690 075c 64000000 		.4byte	0x64
 3691 0760 00       		.byte	0
 3692 0761 19       		.uleb128 0x19
 3693 0762 69090000 		.4byte	.LASF103
 3694 0766 06       		.byte	0x6
 3695 0767 8302     		.2byte	0x283
 3696 0769 12       		.byte	0x12
 3697 076a 8A010000 		.4byte	0x18a
 3698 076e 04       		.byte	0x4
 3699 076f 19       		.uleb128 0x19
 3700 0770 1C040000 		.4byte	.LASF104
 3701 0774 06       		.byte	0x6
 3702 0775 8402     		.2byte	0x284
 3703 0777 10       		.byte	0x10
 3704 0778 5E080000 		.4byte	0x85e
 3705 077c 08       		.byte	0x8
 3706 077d 19       		.uleb128 0x19
 3707 077e B00A0000 		.4byte	.LASF105
 3708 0782 06       		.byte	0x6
 3709 0783 8502     		.2byte	0x285
 3710 0785 17       		.byte	0x17
 3711 0786 0C020000 		.4byte	0x20c
 3712 078a 24       		.byte	0x24
 3713 078b 19       		.uleb128 0x19
 3714 078c D3020000 		.4byte	.LASF106
 3715 0790 06       		.byte	0x6
 3716 0791 8602     		.2byte	0x286
 3717 0793 0F       		.byte	0xf
 3718 0794 5D000000 		.4byte	0x5d
 3719 0798 48       		.byte	0x48
 3720 0799 19       		.uleb128 0x19
 3721 079a EF070000 		.4byte	.LASF107
 3722 079e 06       		.byte	0x6
 3723 079f 8702     		.2byte	0x287
 3724 07a1 2C       		.byte	0x2c
 3725 07a2 56000000 		.4byte	0x56
 3726 07a6 50       		.byte	0x50
 3727 07a7 19       		.uleb128 0x19
 3728 07a8 C60A0000 		.4byte	.LASF108
ARM GAS  C:\Users\jens-\AppData\Local\Temp\ccih1T9a.s 			page 111


 3729 07ac 06       		.byte	0x6
 3730 07ad 8802     		.2byte	0x288
 3731 07af 1A       		.byte	0x1a
 3732 07b0 00070000 		.4byte	0x700
 3733 07b4 58       		.byte	0x58
 3734 07b5 19       		.uleb128 0x19
 3735 07b6 08080000 		.4byte	.LASF109
 3736 07ba 06       		.byte	0x6
 3737 07bb 8902     		.2byte	0x289
 3738 07bd 16       		.byte	0x16
 3739 07be 70010000 		.4byte	0x170
 3740 07c2 68       		.byte	0x68
 3741 07c3 19       		.uleb128 0x19
 3742 07c4 CB0A0000 		.4byte	.LASF110
 3743 07c8 06       		.byte	0x6
 3744 07c9 8A02     		.2byte	0x28a
 3745 07cb 16       		.byte	0x16
 3746 07cc 70010000 		.4byte	0x170
 3747 07d0 70       		.byte	0x70
 3748 07d1 19       		.uleb128 0x19
 3749 07d2 FF060000 		.4byte	.LASF111
 3750 07d6 06       		.byte	0x6
 3751 07d7 8B02     		.2byte	0x28b
 3752 07d9 16       		.byte	0x16
 3753 07da 70010000 		.4byte	0x170
 3754 07de 78       		.byte	0x78
 3755 07df 19       		.uleb128 0x19
 3756 07e0 230A0000 		.4byte	.LASF112
 3757 07e4 06       		.byte	0x6
 3758 07e5 8C02     		.2byte	0x28c
 3759 07e7 10       		.byte	0x10
 3760 07e8 6E080000 		.4byte	0x86e
 3761 07ec 80       		.byte	0x80
 3762 07ed 19       		.uleb128 0x19
 3763 07ee 10040000 		.4byte	.LASF113
 3764 07f2 06       		.byte	0x6
 3765 07f3 8D02     		.2byte	0x28d
 3766 07f5 10       		.byte	0x10
 3767 07f6 7E080000 		.4byte	0x87e
 3768 07fa 88       		.byte	0x88
 3769 07fb 19       		.uleb128 0x19
 3770 07fc B1090000 		.4byte	.LASF114
 3771 0800 06       		.byte	0x6
 3772 0801 8E02     		.2byte	0x28e
 3773 0803 0F       		.byte	0xf
 3774 0804 5D000000 		.4byte	0x5d
 3775 0808 A0       		.byte	0xa0
 3776 0809 19       		.uleb128 0x19
 3777 080a 55020000 		.4byte	.LASF115
 3778 080e 06       		.byte	0x6
 3779 080f 8F02     		.2byte	0x28f
 3780 0811 16       		.byte	0x16
 3781 0812 70010000 		.4byte	0x170
 3782 0816 A4       		.byte	0xa4
 3783 0817 19       		.uleb128 0x19
 3784 0818 36010000 		.4byte	.LASF116
 3785 081c 06       		.byte	0x6
ARM GAS  C:\Users\jens-\AppData\Local\Temp\ccih1T9a.s 			page 112


 3786 081d 9002     		.2byte	0x290
 3787 081f 16       		.byte	0x16
 3788 0820 70010000 		.4byte	0x170
 3789 0824 AC       		.byte	0xac
 3790 0825 19       		.uleb128 0x19
 3791 0826 44020000 		.4byte	.LASF117
 3792 082a 06       		.byte	0x6
 3793 082b 9102     		.2byte	0x291
 3794 082d 16       		.byte	0x16
 3795 082e 70010000 		.4byte	0x170
 3796 0832 B4       		.byte	0xb4
 3797 0833 19       		.uleb128 0x19
 3798 0834 A5000000 		.4byte	.LASF118
 3799 0838 06       		.byte	0x6
 3800 0839 9202     		.2byte	0x292
 3801 083b 16       		.byte	0x16
 3802 083c 70010000 		.4byte	0x170
 3803 0840 BC       		.byte	0xbc
 3804 0841 19       		.uleb128 0x19
 3805 0842 B4000000 		.4byte	.LASF119
 3806 0846 06       		.byte	0x6
 3807 0847 9302     		.2byte	0x293
 3808 0849 16       		.byte	0x16
 3809 084a 70010000 		.4byte	0x170
 3810 084e C4       		.byte	0xc4
 3811 084f 19       		.uleb128 0x19
 3812 0850 90070000 		.4byte	.LASF120
 3813 0854 06       		.byte	0x6
 3814 0855 9402     		.2byte	0x294
 3815 0857 08       		.byte	0x8
 3816 0858 5D000000 		.4byte	0x5d
 3817 085c CC       		.byte	0xcc
 3818 085d 00       		.byte	0
 3819 085e 0D       		.uleb128 0xd
 3820 085f AA000000 		.4byte	0xaa
 3821 0863 6E080000 		.4byte	0x86e
 3822 0867 0E       		.uleb128 0xe
 3823 0868 64000000 		.4byte	0x64
 3824 086c 19       		.byte	0x19
 3825 086d 00       		.byte	0
 3826 086e 0D       		.uleb128 0xd
 3827 086f AA000000 		.4byte	0xaa
 3828 0873 7E080000 		.4byte	0x87e
 3829 0877 0E       		.uleb128 0xe
 3830 0878 64000000 		.4byte	0x64
 3831 087c 07       		.byte	0x7
 3832 087d 00       		.byte	0
 3833 087e 0D       		.uleb128 0xd
 3834 087f AA000000 		.4byte	0xaa
 3835 0883 8E080000 		.4byte	0x88e
 3836 0887 0E       		.uleb128 0xe
 3837 0888 64000000 		.4byte	0x64
 3838 088c 17       		.byte	0x17
 3839 088d 00       		.byte	0
 3840 088e 1C       		.uleb128 0x1c
 3841 088f F0       		.byte	0xf0
 3842 0890 06       		.byte	0x6
ARM GAS  C:\Users\jens-\AppData\Local\Temp\ccih1T9a.s 			page 113


 3843 0891 9902     		.2byte	0x299
 3844 0893 07       		.byte	0x7
 3845 0894 B5080000 		.4byte	0x8b5
 3846 0898 19       		.uleb128 0x19
 3847 0899 3B060000 		.4byte	.LASF121
 3848 089d 06       		.byte	0x6
 3849 089e 9C02     		.2byte	0x29c
 3850 08a0 1B       		.byte	0x1b
 3851 08a1 B5080000 		.4byte	0x8b5
 3852 08a5 00       		.byte	0
 3853 08a6 19       		.uleb128 0x19
 3854 08a7 1A0A0000 		.4byte	.LASF122
 3855 08ab 06       		.byte	0x6
 3856 08ac 9D02     		.2byte	0x29d
 3857 08ae 18       		.byte	0x18
 3858 08af C5080000 		.4byte	0x8c5
 3859 08b3 78       		.byte	0x78
 3860 08b4 00       		.byte	0
 3861 08b5 0D       		.uleb128 0xd
 3862 08b6 65030000 		.4byte	0x365
 3863 08ba C5080000 		.4byte	0x8c5
 3864 08be 0E       		.uleb128 0xe
 3865 08bf 64000000 		.4byte	0x64
 3866 08c3 1D       		.byte	0x1d
 3867 08c4 00       		.byte	0
 3868 08c5 0D       		.uleb128 0xd
 3869 08c6 64000000 		.4byte	0x64
 3870 08ca D5080000 		.4byte	0x8d5
 3871 08ce 0E       		.uleb128 0xe
 3872 08cf 64000000 		.4byte	0x64
 3873 08d3 1D       		.byte	0x1d
 3874 08d4 00       		.byte	0
 3875 08d5 1D       		.uleb128 0x1d
 3876 08d6 F0       		.byte	0xf0
 3877 08d7 06       		.byte	0x6
 3878 08d8 7E02     		.2byte	0x27e
 3879 08da 03       		.byte	0x3
 3880 08db FA080000 		.4byte	0x8fa
 3881 08df 1E       		.uleb128 0x1e
 3882 08e0 65080000 		.4byte	.LASF72
 3883 08e4 06       		.byte	0x6
 3884 08e5 9502     		.2byte	0x295
 3885 08e7 0B       		.byte	0xb
 3886 08e8 49070000 		.4byte	0x749
 3887 08ec 1E       		.uleb128 0x1e
 3888 08ed 18010000 		.4byte	.LASF123
 3889 08f1 06       		.byte	0x6
 3890 08f2 9E02     		.2byte	0x29e
 3891 08f4 0B       		.byte	0xb
 3892 08f5 8E080000 		.4byte	0x88e
 3893 08f9 00       		.byte	0
 3894 08fa 0D       		.uleb128 0xd
 3895 08fb AA000000 		.4byte	0xaa
 3896 08ff 0A090000 		.4byte	0x90a
 3897 0903 0E       		.uleb128 0xe
 3898 0904 64000000 		.4byte	0x64
 3899 0908 18       		.byte	0x18
ARM GAS  C:\Users\jens-\AppData\Local\Temp\ccih1T9a.s 			page 114


 3900 0909 00       		.byte	0
 3901 090a 0A       		.uleb128 0xa
 3902 090b 0D010000 		.4byte	.LASF125
 3903 090f 07       		.uleb128 0x7
 3904 0910 04       		.byte	0x4
 3905 0911 0A090000 		.4byte	0x90a
 3906 0915 1F       		.uleb128 0x1f
 3907 0916 20090000 		.4byte	0x920
 3908 091a 17       		.uleb128 0x17
 3909 091b CC040000 		.4byte	0x4cc
 3910 091f 00       		.byte	0
 3911 0920 07       		.uleb128 0x7
 3912 0921 04       		.byte	0x4
 3913 0922 15090000 		.4byte	0x915
 3914 0926 07       		.uleb128 0x7
 3915 0927 04       		.byte	0x4
 3916 0928 F6010000 		.4byte	0x1f6
 3917 092c 1F       		.uleb128 0x1f
 3918 092d 37090000 		.4byte	0x937
 3919 0931 17       		.uleb128 0x17
 3920 0932 5D000000 		.4byte	0x5d
 3921 0936 00       		.byte	0
 3922 0937 07       		.uleb128 0x7
 3923 0938 04       		.byte	0x4
 3924 0939 3D090000 		.4byte	0x93d
 3925 093d 07       		.uleb128 0x7
 3926 093e 04       		.byte	0x4
 3927 093f 2C090000 		.4byte	0x92c
 3928 0943 0D       		.uleb128 0xd
 3929 0944 AE060000 		.4byte	0x6ae
 3930 0948 53090000 		.4byte	0x953
 3931 094c 0E       		.uleb128 0xe
 3932 094d 64000000 		.4byte	0x64
 3933 0951 02       		.byte	0x2
 3934 0952 00       		.byte	0
 3935 0953 20       		.uleb128 0x20
 3936 0954 9E080000 		.4byte	.LASF126
 3937 0958 06       		.byte	0x6
 3938 0959 2E03     		.2byte	0x32e
 3939 095b 17       		.byte	0x17
 3940 095c CC040000 		.4byte	0x4cc
 3941 0960 20       		.uleb128 0x20
 3942 0961 BE090000 		.4byte	.LASF127
 3943 0965 06       		.byte	0x6
 3944 0966 2F03     		.2byte	0x32f
 3945 0968 1D       		.byte	0x1d
 3946 0969 D2040000 		.4byte	0x4d2
 3947 096d 0D       		.uleb128 0xd
 3948 096e B1000000 		.4byte	0xb1
 3949 0972 78090000 		.4byte	0x978
 3950 0976 21       		.uleb128 0x21
 3951 0977 00       		.byte	0
 3952 0978 06       		.uleb128 0x6
 3953 0979 6D090000 		.4byte	0x96d
 3954 097d 22       		.uleb128 0x22
 3955 097e 20090000 		.4byte	.LASF128
 3956 0982 07       		.byte	0x7
ARM GAS  C:\Users\jens-\AppData\Local\Temp\ccih1T9a.s 			page 115


 3957 0983 AE       		.byte	0xae
 3958 0984 1C       		.byte	0x1c
 3959 0985 78090000 		.4byte	0x978
 3960 0989 22       		.uleb128 0x22
 3961 098a 68060000 		.4byte	.LASF129
 3962 098e 08       		.byte	0x8
 3963 098f 2C       		.byte	0x2c
 3964 0990 16       		.byte	0x16
 3965 0991 6B000000 		.4byte	0x6b
 3966 0995 22       		.uleb128 0x22
 3967 0996 18070000 		.4byte	.LASF130
 3968 099a 08       		.byte	0x8
 3969 099b 38       		.byte	0x38
 3970 099c 0F       		.byte	0xf
 3971 099d 8F000000 		.4byte	0x8f
 3972 09a1 22       		.uleb128 0x22
 3973 09a2 C1050000 		.4byte	.LASF131
 3974 09a6 08       		.byte	0x8
 3975 09a7 39       		.byte	0x39
 3976 09a8 0F       		.byte	0xf
 3977 09a9 8F000000 		.4byte	0x8f
 3978 09ad 22       		.uleb128 0x22
 3979 09ae 45010000 		.4byte	.LASF132
 3980 09b2 08       		.byte	0x8
 3981 09b3 3A       		.byte	0x3a
 3982 09b4 0F       		.byte	0xf
 3983 09b5 6B000000 		.4byte	0x6b
 3984 09b9 22       		.uleb128 0x22
 3985 09ba 72080000 		.4byte	.LASF133
 3986 09be 08       		.byte	0x8
 3987 09bf 3B       		.byte	0x3b
 3988 09c0 0F       		.byte	0xf
 3989 09c1 8F000000 		.4byte	0x8f
 3990 09c5 22       		.uleb128 0x22
 3991 09c6 83070000 		.4byte	.LASF134
 3992 09ca 09       		.byte	0x9
 3993 09cb 1C       		.byte	0x1c
 3994 09cc 0E       		.byte	0xe
 3995 09cd 6B000000 		.4byte	0x6b
 3996 09d1 0D       		.uleb128 0xd
 3997 09d2 6B000000 		.4byte	0x6b
 3998 09d6 E1090000 		.4byte	0x9e1
 3999 09da 0E       		.uleb128 0xe
 4000 09db 64000000 		.4byte	0x64
 4001 09df 01       		.byte	0x1
 4002 09e0 00       		.byte	0
 4003 09e1 22       		.uleb128 0x22
 4004 09e2 27010000 		.4byte	.LASF135
 4005 09e6 0A       		.byte	0xa
 4006 09e7 1C       		.byte	0x1c
 4007 09e8 0E       		.byte	0xe
 4008 09e9 D1090000 		.4byte	0x9d1
 4009 09ed 12       		.uleb128 0x12
 4010 09ee 77030000 		.4byte	.LASF136
 4011 09f2 12       		.byte	0x12
 4012 09f3 0B       		.byte	0xb
 4013 09f4 F8       		.byte	0xf8
ARM GAS  C:\Users\jens-\AppData\Local\Temp\ccih1T9a.s 			page 116


 4014 09f5 10       		.byte	0x10
 4015 09f6 C80A0000 		.4byte	0xac8
 4016 09fa 10       		.uleb128 0x10
 4017 09fb 2D060000 		.4byte	.LASF137
 4018 09ff 0B       		.byte	0xb
 4019 0a00 FB       		.byte	0xfb
 4020 0a01 0C       		.byte	0xc
 4021 0a02 6B000000 		.4byte	0x6b
 4022 0a06 00       		.byte	0
 4023 0a07 10       		.uleb128 0x10
 4024 0a08 34060000 		.4byte	.LASF138
 4025 0a0c 0B       		.byte	0xb
 4026 0a0d FC       		.byte	0xfc
 4027 0a0e 0C       		.byte	0xc
 4028 0a0f 6B000000 		.4byte	0x6b
 4029 0a13 01       		.byte	0x1
 4030 0a14 10       		.uleb128 0x10
 4031 0a15 7E000000 		.4byte	.LASF139
 4032 0a19 0B       		.byte	0xb
 4033 0a1a FD       		.byte	0xfd
 4034 0a1b 0C       		.byte	0xc
 4035 0a1c 6B000000 		.4byte	0x6b
 4036 0a20 02       		.byte	0x2
 4037 0a21 10       		.uleb128 0x10
 4038 0a22 D2050000 		.4byte	.LASF140
 4039 0a26 0B       		.byte	0xb
 4040 0a27 FE       		.byte	0xfe
 4041 0a28 0C       		.byte	0xc
 4042 0a29 6B000000 		.4byte	0x6b
 4043 0a2d 03       		.byte	0x3
 4044 0a2e 10       		.uleb128 0x10
 4045 0a2f 03010000 		.4byte	.LASF141
 4046 0a33 0B       		.byte	0xb
 4047 0a34 FF       		.byte	0xff
 4048 0a35 0C       		.byte	0xc
 4049 0a36 6B000000 		.4byte	0x6b
 4050 0a3a 04       		.byte	0x4
 4051 0a3b 19       		.uleb128 0x19
 4052 0a3c 35040000 		.4byte	.LASF142
 4053 0a40 0B       		.byte	0xb
 4054 0a41 0001     		.2byte	0x100
 4055 0a43 0C       		.byte	0xc
 4056 0a44 6B000000 		.4byte	0x6b
 4057 0a48 05       		.byte	0x5
 4058 0a49 19       		.uleb128 0x19
 4059 0a4a 630B0000 		.4byte	.LASF143
 4060 0a4e 0B       		.byte	0xb
 4061 0a4f 0101     		.2byte	0x101
 4062 0a51 0C       		.byte	0xc
 4063 0a52 6B000000 		.4byte	0x6b
 4064 0a56 06       		.byte	0x6
 4065 0a57 19       		.uleb128 0x19
 4066 0a58 A7060000 		.4byte	.LASF144
 4067 0a5c 0B       		.byte	0xb
 4068 0a5d 0201     		.2byte	0x102
 4069 0a5f 0C       		.byte	0xc
 4070 0a60 6B000000 		.4byte	0x6b
ARM GAS  C:\Users\jens-\AppData\Local\Temp\ccih1T9a.s 			page 117


 4071 0a64 07       		.byte	0x7
 4072 0a65 19       		.uleb128 0x19
 4073 0a66 B6040000 		.4byte	.LASF145
 4074 0a6a 0B       		.byte	0xb
 4075 0a6b 0301     		.2byte	0x103
 4076 0a6d 0C       		.byte	0xc
 4077 0a6e 6B000000 		.4byte	0x6b
 4078 0a72 08       		.byte	0x8
 4079 0a73 19       		.uleb128 0x19
 4080 0a74 DD010000 		.4byte	.LASF146
 4081 0a78 0B       		.byte	0xb
 4082 0a79 0401     		.2byte	0x104
 4083 0a7b 0C       		.byte	0xc
 4084 0a7c 6B000000 		.4byte	0x6b
 4085 0a80 09       		.byte	0x9
 4086 0a81 19       		.uleb128 0x19
 4087 0a82 C5000000 		.4byte	.LASF147
 4088 0a86 0B       		.byte	0xb
 4089 0a87 0501     		.2byte	0x105
 4090 0a89 0C       		.byte	0xc
 4091 0a8a 6B000000 		.4byte	0x6b
 4092 0a8e 0A       		.byte	0xa
 4093 0a8f 19       		.uleb128 0x19
 4094 0a90 86010000 		.4byte	.LASF148
 4095 0a94 0B       		.byte	0xb
 4096 0a95 0601     		.2byte	0x106
 4097 0a97 0C       		.byte	0xc
 4098 0a98 82000000 		.4byte	0x82
 4099 0a9c 0C       		.byte	0xc
 4100 0a9d 19       		.uleb128 0x19
 4101 0a9e 3C090000 		.4byte	.LASF149
 4102 0aa2 0B       		.byte	0xb
 4103 0aa3 0701     		.2byte	0x107
 4104 0aa5 0C       		.byte	0xc
 4105 0aa6 6B000000 		.4byte	0x6b
 4106 0aaa 0E       		.byte	0xe
 4107 0aab 19       		.uleb128 0x19
 4108 0aac 6A020000 		.4byte	.LASF150
 4109 0ab0 0B       		.byte	0xb
 4110 0ab1 0801     		.2byte	0x108
 4111 0ab3 0C       		.byte	0xc
 4112 0ab4 6B000000 		.4byte	0x6b
 4113 0ab8 0F       		.byte	0xf
 4114 0ab9 19       		.uleb128 0x19
 4115 0aba D1090000 		.4byte	.LASF151
 4116 0abe 0B       		.byte	0xb
 4117 0abf 0901     		.2byte	0x109
 4118 0ac1 0C       		.byte	0xc
 4119 0ac2 6B000000 		.4byte	0x6b
 4120 0ac6 10       		.byte	0x10
 4121 0ac7 00       		.byte	0
 4122 0ac8 04       		.uleb128 0x4
 4123 0ac9 DA030000 		.4byte	.LASF152
 4124 0acd 0B       		.byte	0xb
 4125 0ace 0B01     		.2byte	0x10b
 4126 0ad0 03       		.byte	0x3
 4127 0ad1 ED090000 		.4byte	0x9ed
ARM GAS  C:\Users\jens-\AppData\Local\Temp\ccih1T9a.s 			page 118


 4128 0ad5 1B       		.uleb128 0x1b
 4129 0ad6 AB030000 		.4byte	.LASF153
 4130 0ada 30       		.byte	0x30
 4131 0adb 0B       		.byte	0xb
 4132 0adc 0E01     		.2byte	0x10e
 4133 0ade 10       		.byte	0x10
 4134 0adf 0A0C0000 		.4byte	0xc0a
 4135 0ae3 19       		.uleb128 0x19
 4136 0ae4 5F010000 		.4byte	.LASF154
 4137 0ae8 0B       		.byte	0xb
 4138 0ae9 1001     		.2byte	0x110
 4139 0aeb 0B       		.byte	0xb
 4140 0aec 6B000000 		.4byte	0x6b
 4141 0af0 00       		.byte	0
 4142 0af1 19       		.uleb128 0x19
 4143 0af2 77070000 		.4byte	.LASF155
 4144 0af6 0B       		.byte	0xb
 4145 0af7 1101     		.2byte	0x111
 4146 0af9 0B       		.byte	0xb
 4147 0afa 6B000000 		.4byte	0x6b
 4148 0afe 01       		.byte	0x1
 4149 0aff 19       		.uleb128 0x19
 4150 0b00 FA070000 		.4byte	.LASF156
 4151 0b04 0B       		.byte	0xb
 4152 0b05 1201     		.2byte	0x112
 4153 0b07 0B       		.byte	0xb
 4154 0b08 6B000000 		.4byte	0x6b
 4155 0b0c 02       		.byte	0x2
 4156 0b0d 19       		.uleb128 0x19
 4157 0b0e 4B090000 		.4byte	.LASF157
 4158 0b12 0B       		.byte	0xb
 4159 0b13 1401     		.2byte	0x114
 4160 0b15 0B       		.byte	0xb
 4161 0b16 6B000000 		.4byte	0x6b
 4162 0b1a 03       		.byte	0x3
 4163 0b1b 19       		.uleb128 0x19
 4164 0b1c 7A040000 		.4byte	.LASF158
 4165 0b20 0B       		.byte	0xb
 4166 0b21 1E01     		.2byte	0x11e
 4167 0b23 0B       		.byte	0xb
 4168 0b24 6B000000 		.4byte	0x6b
 4169 0b28 04       		.byte	0x4
 4170 0b29 19       		.uleb128 0x19
 4171 0b2a 85040000 		.4byte	.LASF159
 4172 0b2e 0B       		.byte	0xb
 4173 0b2f 1F01     		.2byte	0x11f
 4174 0b31 0B       		.byte	0xb
 4175 0b32 6B000000 		.4byte	0x6b
 4176 0b36 05       		.byte	0x5
 4177 0b37 19       		.uleb128 0x19
 4178 0b38 AB040000 		.4byte	.LASF160
 4179 0b3c 0B       		.byte	0xb
 4180 0b3d 2001     		.2byte	0x120
 4181 0b3f 0B       		.byte	0xb
 4182 0b40 6B000000 		.4byte	0x6b
 4183 0b44 06       		.byte	0x6
 4184 0b45 19       		.uleb128 0x19
ARM GAS  C:\Users\jens-\AppData\Local\Temp\ccih1T9a.s 			page 119


 4185 0b46 5A000000 		.4byte	.LASF161
 4186 0b4a 0B       		.byte	0xb
 4187 0b4b 2201     		.2byte	0x122
 4188 0b4d 0B       		.byte	0xb
 4189 0b4e 6B000000 		.4byte	0x6b
 4190 0b52 07       		.byte	0x7
 4191 0b53 19       		.uleb128 0x19
 4192 0b54 66000000 		.4byte	.LASF162
 4193 0b58 0B       		.byte	0xb
 4194 0b59 2301     		.2byte	0x123
 4195 0b5b 0B       		.byte	0xb
 4196 0b5c 6B000000 		.4byte	0x6b
 4197 0b60 08       		.byte	0x8
 4198 0b61 19       		.uleb128 0x19
 4199 0b62 72000000 		.4byte	.LASF163
 4200 0b66 0B       		.byte	0xb
 4201 0b67 2701     		.2byte	0x127
 4202 0b69 0F       		.byte	0xf
 4203 0b6a 6B000000 		.4byte	0x6b
 4204 0b6e 09       		.byte	0x9
 4205 0b6f 19       		.uleb128 0x19
 4206 0b70 790A0000 		.4byte	.LASF164
 4207 0b74 0B       		.byte	0xb
 4208 0b75 2B01     		.2byte	0x12b
 4209 0b77 0B       		.byte	0xb
 4210 0b78 0A0C0000 		.4byte	0xc0a
 4211 0b7c 0A       		.byte	0xa
 4212 0b7d 19       		.uleb128 0x19
 4213 0b7e 70030000 		.4byte	.LASF165
 4214 0b82 0B       		.byte	0xb
 4215 0b83 2E01     		.2byte	0x12e
 4216 0b85 0B       		.byte	0xb
 4217 0b86 6B000000 		.4byte	0x6b
 4218 0b8a 26       		.byte	0x26
 4219 0b8b 19       		.uleb128 0x19
 4220 0b8c 500B0000 		.4byte	.LASF166
 4221 0b90 0B       		.byte	0xb
 4222 0b91 2F01     		.2byte	0x12f
 4223 0b93 0B       		.byte	0xb
 4224 0b94 6B000000 		.4byte	0x6b
 4225 0b98 27       		.byte	0x27
 4226 0b99 19       		.uleb128 0x19
 4227 0b9a 2D0A0000 		.4byte	.LASF167
 4228 0b9e 0B       		.byte	0xb
 4229 0b9f 3001     		.2byte	0x130
 4230 0ba1 0B       		.byte	0xb
 4231 0ba2 6B000000 		.4byte	0x6b
 4232 0ba6 28       		.byte	0x28
 4233 0ba7 19       		.uleb128 0x19
 4234 0ba8 FA000000 		.4byte	.LASF168
 4235 0bac 0B       		.byte	0xb
 4236 0bad 3101     		.2byte	0x131
 4237 0baf 0B       		.byte	0xb
 4238 0bb0 6B000000 		.4byte	0x6b
 4239 0bb4 29       		.byte	0x29
 4240 0bb5 19       		.uleb128 0x19
 4241 0bb6 20010000 		.4byte	.LASF169
ARM GAS  C:\Users\jens-\AppData\Local\Temp\ccih1T9a.s 			page 120


 4242 0bba 0B       		.byte	0xb
 4243 0bbb 3201     		.2byte	0x132
 4244 0bbd 0B       		.byte	0xb
 4245 0bbe 6B000000 		.4byte	0x6b
 4246 0bc2 2A       		.byte	0x2a
 4247 0bc3 19       		.uleb128 0x19
 4248 0bc4 E1060000 		.4byte	.LASF170
 4249 0bc8 0B       		.byte	0xb
 4250 0bc9 3301     		.2byte	0x133
 4251 0bcb 0B       		.byte	0xb
 4252 0bcc 6B000000 		.4byte	0x6b
 4253 0bd0 2B       		.byte	0x2b
 4254 0bd1 19       		.uleb128 0x19
 4255 0bd2 18090000 		.4byte	.LASF171
 4256 0bd6 0B       		.byte	0xb
 4257 0bd7 3401     		.2byte	0x134
 4258 0bd9 0B       		.byte	0xb
 4259 0bda 6B000000 		.4byte	0x6b
 4260 0bde 2C       		.byte	0x2c
 4261 0bdf 19       		.uleb128 0x19
 4262 0be0 F5020000 		.4byte	.LASF172
 4263 0be4 0B       		.byte	0xb
 4264 0be5 3601     		.2byte	0x136
 4265 0be7 0B       		.byte	0xb
 4266 0be8 6B000000 		.4byte	0x6b
 4267 0bec 2D       		.byte	0x2d
 4268 0bed 19       		.uleb128 0x19
 4269 0bee 08090000 		.4byte	.LASF173
 4270 0bf2 0B       		.byte	0xb
 4271 0bf3 3701     		.2byte	0x137
 4272 0bf5 0B       		.byte	0xb
 4273 0bf6 6B000000 		.4byte	0x6b
 4274 0bfa 2E       		.byte	0x2e
 4275 0bfb 19       		.uleb128 0x19
 4276 0bfc C4080000 		.4byte	.LASF174
 4277 0c00 0B       		.byte	0xb
 4278 0c01 3901     		.2byte	0x139
 4279 0c03 0B       		.byte	0xb
 4280 0c04 6B000000 		.4byte	0x6b
 4281 0c08 2F       		.byte	0x2f
 4282 0c09 00       		.byte	0
 4283 0c0a 0D       		.uleb128 0xd
 4284 0c0b 6B000000 		.4byte	0x6b
 4285 0c0f 1A0C0000 		.4byte	0xc1a
 4286 0c13 0E       		.uleb128 0xe
 4287 0c14 64000000 		.4byte	0x64
 4288 0c18 1B       		.byte	0x1b
 4289 0c19 00       		.byte	0
 4290 0c1a 04       		.uleb128 0x4
 4291 0c1b 91000000 		.4byte	.LASF175
 4292 0c1f 0B       		.byte	0xb
 4293 0c20 3B01     		.2byte	0x13b
 4294 0c22 03       		.byte	0x3
 4295 0c23 D50A0000 		.4byte	0xad5
 4296 0c27 23       		.uleb128 0x23
 4297 0c28 B6050000 		.4byte	.LASF176
 4298 0c2c 01       		.byte	0x1
ARM GAS  C:\Users\jens-\AppData\Local\Temp\ccih1T9a.s 			page 121


 4299 0c2d 1F       		.byte	0x1f
 4300 0c2e 25       		.byte	0x25
 4301 0c2f 1A0C0000 		.4byte	0xc1a
 4302 0c33 05       		.uleb128 0x5
 4303 0c34 03       		.byte	0x3
 4304 0c35 00000000 		.4byte	cyPmBackup
 4305 0c39 23       		.uleb128 0x23
 4306 0c3a 62070000 		.4byte	.LASF177
 4307 0c3e 01       		.byte	0x1
 4308 0c3f 20       		.byte	0x20
 4309 0c40 25       		.byte	0x25
 4310 0c41 C80A0000 		.4byte	0xac8
 4311 0c45 05       		.uleb128 0x5
 4312 0c46 03       		.byte	0x3
 4313 0c47 30000000 		.4byte	cyPmClockBackup
 4314 0c4b 0D       		.uleb128 0xd
 4315 0c4c 7D000000 		.4byte	0x7d
 4316 0c50 5B0C0000 		.4byte	0xc5b
 4317 0c54 0E       		.uleb128 0xe
 4318 0c55 64000000 		.4byte	0x64
 4319 0c59 06       		.byte	0x6
 4320 0c5a 00       		.byte	0
 4321 0c5b 06       		.uleb128 0x6
 4322 0c5c 4B0C0000 		.4byte	0xc4b
 4323 0c60 23       		.uleb128 0x23
 4324 0c61 1F080000 		.4byte	.LASF178
 4325 0c65 01       		.byte	0x1
 4326 0c66 23       		.byte	0x23
 4327 0c67 1B       		.byte	0x1b
 4328 0c68 5B0C0000 		.4byte	0xc5b
 4329 0c6c 05       		.uleb128 0x5
 4330 0c6d 03       		.byte	0x3
 4331 0c6e 00000000 		.4byte	cyPmImoFreqReg2Mhz
 4332 0c72 24       		.uleb128 0x24
 4333 0c73 EC010000 		.4byte	.LASF179
 4334 0c77 01       		.byte	0x1
 4335 0c78 3A07     		.2byte	0x73a
 4336 0c7a 0D       		.byte	0xd
 4337 0c7b 00000000 		.4byte	.LFB15
 4338 0c7f 4C000000 		.4byte	.LFE15-.LFB15
 4339 0c83 01       		.uleb128 0x1
 4340 0c84 9C       		.byte	0x9c
 4341 0c85 A50C0000 		.4byte	0xca5
 4342 0c89 25       		.uleb128 0x25
 4343 0c8a 30000000 		.4byte	.LVL6
 4344 0c8e 89120000 		.4byte	0x1289
 4345 0c92 25       		.uleb128 0x25
 4346 0c93 40000000 		.4byte	.LVL7
 4347 0c97 95120000 		.4byte	0x1295
 4348 0c9b 25       		.uleb128 0x25
 4349 0c9c 46000000 		.4byte	.LVL8
 4350 0ca0 A1120000 		.4byte	0x12a1
 4351 0ca4 00       		.byte	0
 4352 0ca5 24       		.uleb128 0x24
 4353 0ca6 DE0A0000 		.4byte	.LASF180
 4354 0caa 01       		.byte	0x1
 4355 0cab 0207     		.2byte	0x702
ARM GAS  C:\Users\jens-\AppData\Local\Temp\ccih1T9a.s 			page 122


 4356 0cad 0D       		.byte	0xd
 4357 0cae 00000000 		.4byte	.LFB14
 4358 0cb2 A0000000 		.4byte	.LFE14-.LFB14
 4359 0cb6 01       		.uleb128 0x1
 4360 0cb7 9C       		.byte	0x9c
 4361 0cb8 D80C0000 		.4byte	0xcd8
 4362 0cbc 25       		.uleb128 0x25
 4363 0cbd 5E000000 		.4byte	.LVL0
 4364 0cc1 AD120000 		.4byte	0x12ad
 4365 0cc5 25       		.uleb128 0x25
 4366 0cc6 80000000 		.4byte	.LVL1
 4367 0cca B9120000 		.4byte	0x12b9
 4368 0cce 25       		.uleb128 0x25
 4369 0ccf 8E000000 		.4byte	.LVL2
 4370 0cd3 C5120000 		.4byte	0x12c5
 4371 0cd7 00       		.byte	0
 4372 0cd8 26       		.uleb128 0x26
 4373 0cd9 35000000 		.4byte	.LASF181
 4374 0cdd 01       		.byte	0x1
 4375 0cde BC06     		.2byte	0x6bc
 4376 0ce0 0D       		.byte	0xd
 4377 0ce1 00000000 		.4byte	.LFB13
 4378 0ce5 D8000000 		.4byte	.LFE13-.LFB13
 4379 0ce9 01       		.uleb128 0x1
 4380 0cea 9C       		.byte	0x9c
 4381 0ceb 26       		.uleb128 0x26
 4382 0cec AD070000 		.4byte	.LASF182
 4383 0cf0 01       		.byte	0x1
 4384 0cf1 4006     		.2byte	0x640
 4385 0cf3 0D       		.byte	0xd
 4386 0cf4 00000000 		.4byte	.LFB12
 4387 0cf8 A4010000 		.4byte	.LFE12-.LFB12
 4388 0cfc 01       		.uleb128 0x1
 4389 0cfd 9C       		.byte	0x9c
 4390 0cfe 27       		.uleb128 0x27
 4391 0cff 7D0B0000 		.4byte	.LASF183
 4392 0d03 01       		.byte	0x1
 4393 0d04 0E06     		.2byte	0x60e
 4394 0d06 06       		.byte	0x6
 4395 0d07 00000000 		.4byte	.LFB11
 4396 0d0b 5C000000 		.4byte	.LFE11-.LFB11
 4397 0d0f 01       		.uleb128 0x1
 4398 0d10 9C       		.byte	0x9c
 4399 0d11 340D0000 		.4byte	0xd34
 4400 0d15 28       		.uleb128 0x28
 4401 0d16 5D090000 		.4byte	.LASF186
 4402 0d1a 01       		.byte	0x1
 4403 0d1b 0E06     		.2byte	0x60e
 4404 0d1d 1F       		.byte	0x1f
 4405 0d1e 6B000000 		.4byte	0x6b
 4406 0d22 04000000 		.4byte	.LLST14
 4407 0d26 00000000 		.4byte	.LVUS14
 4408 0d2a 25       		.uleb128 0x25
 4409 0d2b 12000000 		.4byte	.LVL101
 4410 0d2f D1120000 		.4byte	0x12d1
 4411 0d33 00       		.byte	0
 4412 0d34 27       		.uleb128 0x27
ARM GAS  C:\Users\jens-\AppData\Local\Temp\ccih1T9a.s 			page 123


 4413 0d35 48070000 		.4byte	.LASF184
 4414 0d39 01       		.byte	0x1
 4415 0d3a EE05     		.2byte	0x5ee
 4416 0d3c 06       		.byte	0x6
 4417 0d3d 00000000 		.4byte	.LFB10
 4418 0d41 30000000 		.4byte	.LFE10-.LFB10
 4419 0d45 01       		.uleb128 0x1
 4420 0d46 9C       		.byte	0x9c
 4421 0d47 550D0000 		.4byte	0xd55
 4422 0d4b 25       		.uleb128 0x25
 4423 0d4c 24000000 		.4byte	.LVL99
 4424 0d50 DD120000 		.4byte	0x12dd
 4425 0d54 00       		.byte	0
 4426 0d55 27       		.uleb128 0x27
 4427 0d56 EB090000 		.4byte	.LASF185
 4428 0d5a 01       		.byte	0x1
 4429 0d5b C105     		.2byte	0x5c1
 4430 0d5d 06       		.byte	0x6
 4431 0d5e 00000000 		.4byte	.LFB9
 4432 0d62 5C000000 		.4byte	.LFE9-.LFB9
 4433 0d66 01       		.uleb128 0x1
 4434 0d67 9C       		.byte	0x9c
 4435 0d68 8B0D0000 		.4byte	0xd8b
 4436 0d6c 28       		.uleb128 0x28
 4437 0d6d 29040000 		.4byte	.LASF187
 4438 0d71 01       		.byte	0x1
 4439 0d72 C105     		.2byte	0x5c1
 4440 0d74 1F       		.byte	0x1f
 4441 0d75 6B000000 		.4byte	0x6b
 4442 0d79 29000000 		.4byte	.LLST13
 4443 0d7d 25000000 		.4byte	.LVUS13
 4444 0d81 25       		.uleb128 0x25
 4445 0d82 12000000 		.4byte	.LVL98
 4446 0d86 E9120000 		.4byte	0x12e9
 4447 0d8a 00       		.byte	0
 4448 0d8b 24       		.uleb128 0x24
 4449 0d8c 9B020000 		.4byte	.LASF188
 4450 0d90 01       		.byte	0x1
 4451 0d91 8505     		.2byte	0x585
 4452 0d93 0D       		.byte	0xd
 4453 0d94 00000000 		.4byte	.LFB8
 4454 0d98 64000000 		.4byte	.LFE8-.LFB8
 4455 0d9c 01       		.uleb128 0x1
 4456 0d9d 9C       		.byte	0x9c
 4457 0d9e D00D0000 		.4byte	0xdd0
 4458 0da2 25       		.uleb128 0x25
 4459 0da3 06000000 		.4byte	.LVL9
 4460 0da7 720C0000 		.4byte	0xc72
 4461 0dab 25       		.uleb128 0x25
 4462 0dac 0A000000 		.4byte	.LVL10
 4463 0db0 D80C0000 		.4byte	0xcd8
 4464 0db4 25       		.uleb128 0x25
 4465 0db5 22000000 		.4byte	.LVL11
 4466 0db9 F5120000 		.4byte	0x12f5
 4467 0dbd 25       		.uleb128 0x25
 4468 0dbe 4A000000 		.4byte	.LVL12
 4469 0dc2 E9120000 		.4byte	0x12e9
ARM GAS  C:\Users\jens-\AppData\Local\Temp\ccih1T9a.s 			page 124


 4470 0dc6 25       		.uleb128 0x25
 4471 0dc7 50000000 		.4byte	.LVL13
 4472 0dcb D1120000 		.4byte	0x12d1
 4473 0dcf 00       		.byte	0
 4474 0dd0 24       		.uleb128 0x24
 4475 0dd1 4C0A0000 		.4byte	.LASF189
 4476 0dd5 01       		.byte	0x1
 4477 0dd6 2A05     		.2byte	0x52a
 4478 0dd8 0D       		.byte	0xd
 4479 0dd9 00000000 		.4byte	.LFB7
 4480 0ddd 98000000 		.4byte	.LFE7-.LFB7
 4481 0de1 01       		.uleb128 0x1
 4482 0de2 9C       		.byte	0x9c
 4483 0de3 0D0E0000 		.4byte	0xe0d
 4484 0de7 29       		.uleb128 0x29
 4485 0de8 1C000000 		.4byte	.LVL3
 4486 0dec F5120000 		.4byte	0x12f5
 4487 0df0 FA0D0000 		.4byte	0xdfa
 4488 0df4 2A       		.uleb128 0x2a
 4489 0df5 01       		.uleb128 0x1
 4490 0df6 50       		.byte	0x50
 4491 0df7 01       		.uleb128 0x1
 4492 0df8 31       		.byte	0x31
 4493 0df9 00       		.byte	0
 4494 0dfa 25       		.uleb128 0x25
 4495 0dfb 50000000 		.4byte	.LVL4
 4496 0dff A50C0000 		.4byte	0xca5
 4497 0e03 25       		.uleb128 0x25
 4498 0e04 54000000 		.4byte	.LVL5
 4499 0e08 EB0C0000 		.4byte	0xceb
 4500 0e0c 00       		.byte	0
 4501 0e0d 2B       		.uleb128 0x2b
 4502 0e0e 76090000 		.4byte	.LASF237
 4503 0e12 01       		.byte	0x1
 4504 0e13 0505     		.2byte	0x505
 4505 0e15 07       		.byte	0x7
 4506 0e16 6B000000 		.4byte	0x6b
 4507 0e1a 00000000 		.4byte	.LFB6
 4508 0e1e 30000000 		.4byte	.LFE6-.LFB6
 4509 0e22 01       		.uleb128 0x1
 4510 0e23 9C       		.byte	0x9c
 4511 0e24 8D0E0000 		.4byte	0xe8d
 4512 0e28 28       		.uleb128 0x28
 4513 0e29 AF020000 		.4byte	.LASF190
 4514 0e2d 01       		.byte	0x1
 4515 0e2e 0505     		.2byte	0x505
 4516 0e30 1C       		.byte	0x1c
 4517 0e31 6B000000 		.4byte	0x6b
 4518 0e35 4E000000 		.4byte	.LLST10
 4519 0e39 4A000000 		.4byte	.LVUS10
 4520 0e3d 2C       		.uleb128 0x2c
 4521 0e3e 6D0B0000 		.4byte	.LASF191
 4522 0e42 01       		.byte	0x1
 4523 0e43 0705     		.2byte	0x507
 4524 0e45 12       		.byte	0x12
 4525 0e46 6B000000 		.4byte	0x6b
 4526 0e4a 05       		.uleb128 0x5
ARM GAS  C:\Users\jens-\AppData\Local\Temp\ccih1T9a.s 			page 125


 4527 0e4b 03       		.byte	0x3
 4528 0e4c 42000000 		.4byte	interruptStatus.5115
 4529 0e50 2D       		.uleb128 0x2d
 4530 0e51 61030000 		.4byte	.LASF192
 4531 0e55 01       		.byte	0x1
 4532 0e56 0805     		.2byte	0x508
 4533 0e58 0B       		.byte	0xb
 4534 0e59 6B000000 		.4byte	0x6b
 4535 0e5d 71000000 		.4byte	.LLST11
 4536 0e61 6F000000 		.4byte	.LVUS11
 4537 0e65 2D       		.uleb128 0x2d
 4538 0e66 F0000000 		.4byte	.LASF193
 4539 0e6a 01       		.byte	0x1
 4540 0e6b 0905     		.2byte	0x509
 4541 0e6d 0B       		.byte	0xb
 4542 0e6e 6B000000 		.4byte	0x6b
 4543 0e72 88000000 		.4byte	.LLST12
 4544 0e76 84000000 		.4byte	.LVUS12
 4545 0e7a 25       		.uleb128 0x25
 4546 0e7b 08000000 		.4byte	.LVL93
 4547 0e7f 01130000 		.4byte	0x1301
 4548 0e83 25       		.uleb128 0x25
 4549 0e84 24000000 		.4byte	.LVL95
 4550 0e88 0D130000 		.4byte	0x130d
 4551 0e8c 00       		.byte	0
 4552 0e8d 27       		.uleb128 0x27
 4553 0e8e DA050000 		.4byte	.LASF194
 4554 0e92 01       		.byte	0x1
 4555 0e93 8404     		.2byte	0x484
 4556 0e95 06       		.byte	0x6
 4557 0e96 00000000 		.4byte	.LFB5
 4558 0e9a F4000000 		.4byte	.LFE5-.LFB5
 4559 0e9e 01       		.uleb128 0x1
 4560 0e9f 9C       		.byte	0x9c
 4561 0ea0 030F0000 		.4byte	0xf03
 4562 0ea4 28       		.uleb128 0x28
 4563 0ea5 52060000 		.4byte	.LASF195
 4564 0ea9 01       		.byte	0x1
 4565 0eaa 8404     		.2byte	0x484
 4566 0eac 1D       		.byte	0x1d
 4567 0ead 82000000 		.4byte	0x82
 4568 0eb1 AA000000 		.4byte	.LLST8
 4569 0eb5 A6000000 		.4byte	.LVUS8
 4570 0eb9 2D       		.uleb128 0x2d
 4571 0eba 61030000 		.4byte	.LASF192
 4572 0ebe 01       		.byte	0x1
 4573 0ebf 8604     		.2byte	0x486
 4574 0ec1 0B       		.byte	0xb
 4575 0ec2 6B000000 		.4byte	0x6b
 4576 0ec6 CF000000 		.4byte	.LLST9
 4577 0eca CB000000 		.4byte	.LVUS9
 4578 0ece 25       		.uleb128 0x25
 4579 0ecf 08000000 		.4byte	.LVL84
 4580 0ed3 01130000 		.4byte	0x1301
 4581 0ed7 25       		.uleb128 0x25
 4582 0ed8 22000000 		.4byte	.LVL86
 4583 0edc D00D0000 		.4byte	0xdd0
ARM GAS  C:\Users\jens-\AppData\Local\Temp\ccih1T9a.s 			page 126


 4584 0ee0 25       		.uleb128 0x25
 4585 0ee1 76000000 		.4byte	.LVL88
 4586 0ee5 0D130000 		.4byte	0x130d
 4587 0ee9 25       		.uleb128 0x25
 4588 0eea BC000000 		.4byte	.LVL89
 4589 0eee 8B0D0000 		.4byte	0xd8b
 4590 0ef2 2E       		.uleb128 0x2e
 4591 0ef3 D6000000 		.4byte	.LVL90
 4592 0ef7 0D130000 		.4byte	0x130d
 4593 0efb 2A       		.uleb128 0x2a
 4594 0efc 01       		.uleb128 0x1
 4595 0efd 50       		.byte	0x50
 4596 0efe 02       		.uleb128 0x2
 4597 0eff 75       		.byte	0x75
 4598 0f00 00       		.sleb128 0
 4599 0f01 00       		.byte	0
 4600 0f02 00       		.byte	0
 4601 0f03 27       		.uleb128 0x27
 4602 0f04 28090000 		.4byte	.LASF196
 4603 0f08 01       		.byte	0x1
 4604 0f09 4704     		.2byte	0x447
 4605 0f0b 06       		.byte	0x6
 4606 0f0c 00000000 		.4byte	.LFB4
 4607 0f10 0A000000 		.4byte	.LFE4-.LFB4
 4608 0f14 01       		.uleb128 0x1
 4609 0f15 9C       		.byte	0x9c
 4610 0f16 2B0F0000 		.4byte	0xf2b
 4611 0f1a 2E       		.uleb128 0x2e
 4612 0f1b 08000000 		.4byte	.LVL91
 4613 0f1f 8D0E0000 		.4byte	0xe8d
 4614 0f23 2A       		.uleb128 0x2a
 4615 0f24 01       		.uleb128 0x1
 4616 0f25 50       		.byte	0x50
 4617 0f26 02       		.uleb128 0x2
 4618 0f27 08       		.byte	0x8
 4619 0f28 40       		.byte	0x40
 4620 0f29 00       		.byte	0
 4621 0f2a 00       		.byte	0
 4622 0f2b 27       		.uleb128 0x27
 4623 0f2c D7060000 		.4byte	.LASF197
 4624 0f30 01       		.byte	0x1
 4625 0f31 3803     		.2byte	0x338
 4626 0f33 06       		.byte	0x6
 4627 0f34 00000000 		.4byte	.LFB3
 4628 0f38 FC000000 		.4byte	.LFE3-.LFB3
 4629 0f3c 01       		.uleb128 0x1
 4630 0f3d 9C       		.byte	0x9c
 4631 0f3e C90F0000 		.4byte	0xfc9
 4632 0f42 28       		.uleb128 0x28
 4633 0f43 5B0A0000 		.4byte	.LASF198
 4634 0f47 01       		.byte	0x1
 4635 0f48 3803     		.2byte	0x338
 4636 0f4a 16       		.byte	0x16
 4637 0f4b 6B000000 		.4byte	0x6b
 4638 0f4f F1000000 		.4byte	.LLST5
 4639 0f53 ED000000 		.4byte	.LVUS5
 4640 0f57 28       		.uleb128 0x28
ARM GAS  C:\Users\jens-\AppData\Local\Temp\ccih1T9a.s 			page 127


 4641 0f58 52060000 		.4byte	.LASF195
 4642 0f5c 01       		.byte	0x1
 4643 0f5d 3803     		.2byte	0x338
 4644 0f5f 29       		.byte	0x29
 4645 0f60 82000000 		.4byte	0x82
 4646 0f64 16010000 		.4byte	.LLST6
 4647 0f68 12010000 		.4byte	.LVUS6
 4648 0f6c 2D       		.uleb128 0x2d
 4649 0f6d 61030000 		.4byte	.LASF192
 4650 0f71 01       		.byte	0x1
 4651 0f72 3A03     		.2byte	0x33a
 4652 0f74 0B       		.byte	0xb
 4653 0f75 6B000000 		.4byte	0x6b
 4654 0f79 3D010000 		.4byte	.LLST7
 4655 0f7d 37010000 		.4byte	.LVUS7
 4656 0f81 25       		.uleb128 0x25
 4657 0f82 0A000000 		.4byte	.LVL72
 4658 0f86 01130000 		.4byte	0x1301
 4659 0f8a 25       		.uleb128 0x25
 4660 0f8b 28000000 		.4byte	.LVL75
 4661 0f8f EB0C0000 		.4byte	0xceb
 4662 0f93 25       		.uleb128 0x25
 4663 0f94 9C000000 		.4byte	.LVL76
 4664 0f98 D80C0000 		.4byte	0xcd8
 4665 0f9c 29       		.uleb128 0x29
 4666 0f9d B6000000 		.4byte	.LVL77
 4667 0fa1 0D130000 		.4byte	0x130d
 4668 0fa5 B00F0000 		.4byte	0xfb0
 4669 0fa9 2A       		.uleb128 0x2a
 4670 0faa 01       		.uleb128 0x1
 4671 0fab 50       		.byte	0x50
 4672 0fac 02       		.uleb128 0x2
 4673 0fad 75       		.byte	0x75
 4674 0fae 00       		.sleb128 0
 4675 0faf 00       		.byte	0
 4676 0fb0 25       		.uleb128 0x25
 4677 0fb1 BC000000 		.4byte	.LVL79
 4678 0fb5 0D130000 		.4byte	0x130d
 4679 0fb9 2E       		.uleb128 0x2e
 4680 0fba C4000000 		.4byte	.LVL82
 4681 0fbe 19130000 		.4byte	0x1319
 4682 0fc2 2A       		.uleb128 0x2a
 4683 0fc3 01       		.uleb128 0x1
 4684 0fc4 50       		.byte	0x50
 4685 0fc5 01       		.uleb128 0x1
 4686 0fc6 30       		.byte	0x30
 4687 0fc7 00       		.byte	0
 4688 0fc8 00       		.byte	0
 4689 0fc9 27       		.uleb128 0x27
 4690 0fca 0D070000 		.4byte	.LASF199
 4691 0fce 01       		.byte	0x1
 4692 0fcf 7102     		.2byte	0x271
 4693 0fd1 06       		.byte	0x6
 4694 0fd2 00000000 		.4byte	.LFB2
 4695 0fd6 6C000000 		.4byte	.LFE2-.LFB2
 4696 0fda 01       		.uleb128 0x1
 4697 0fdb 9C       		.byte	0x9c
ARM GAS  C:\Users\jens-\AppData\Local\Temp\ccih1T9a.s 			page 128


 4698 0fdc 1A100000 		.4byte	0x101a
 4699 0fe0 28       		.uleb128 0x28
 4700 0fe1 5B0A0000 		.4byte	.LASF198
 4701 0fe5 01       		.byte	0x1
 4702 0fe6 7102     		.2byte	0x271
 4703 0fe8 18       		.byte	0x18
 4704 0fe9 82000000 		.4byte	0x82
 4705 0fed 6E010000 		.4byte	.LLST3
 4706 0ff1 66010000 		.4byte	.LVUS3
 4707 0ff5 28       		.uleb128 0x28
 4708 0ff6 52060000 		.4byte	.LASF195
 4709 0ffa 01       		.byte	0x1
 4710 0ffb 7102     		.2byte	0x271
 4711 0ffd 2B       		.byte	0x2b
 4712 0ffe 82000000 		.4byte	0x82
 4713 1002 B0010000 		.4byte	.LLST4
 4714 1006 A8010000 		.4byte	.LVUS4
 4715 100a 2E       		.uleb128 0x2e
 4716 100b 56000000 		.4byte	.LVL70
 4717 100f 19130000 		.4byte	0x1319
 4718 1013 2A       		.uleb128 0x2a
 4719 1014 01       		.uleb128 0x1
 4720 1015 50       		.byte	0x50
 4721 1016 01       		.uleb128 0x1
 4722 1017 30       		.byte	0x30
 4723 1018 00       		.byte	0
 4724 1019 00       		.byte	0
 4725 101a 27       		.uleb128 0x27
 4726 101b AA080000 		.4byte	.LASF200
 4727 101f 01       		.byte	0x1
 4728 1020 0C01     		.2byte	0x10c
 4729 1022 06       		.byte	0x6
 4730 1023 00000000 		.4byte	.LFB1
 4731 1027 84020000 		.4byte	.LFE1-.LFB1
 4732 102b 01       		.uleb128 0x1
 4733 102c 9C       		.byte	0x9c
 4734 102d 69110000 		.4byte	0x1169
 4735 1031 2D       		.uleb128 0x2d
 4736 1032 FE090000 		.4byte	.LASF201
 4737 1036 01       		.byte	0x1
 4738 1037 0E01     		.2byte	0x10e
 4739 1039 0E       		.byte	0xe
 4740 103a B6000000 		.4byte	0xb6
 4741 103e F0010000 		.4byte	.LLST0
 4742 1042 EA010000 		.4byte	.LVUS0
 4743 1046 2F       		.uleb128 0x2f
 4744 1047 6900     		.ascii	"i\000"
 4745 1049 01       		.byte	0x1
 4746 104a 0F01     		.2byte	0x10f
 4747 104c 0C       		.byte	0xc
 4748 104d 82000000 		.4byte	0x82
 4749 1051 28020000 		.4byte	.LLST1
 4750 1055 1C020000 		.4byte	.LVUS1
 4751 1059 2D       		.uleb128 0x2d
 4752 105a 96040000 		.4byte	.LASF202
 4753 105e 01       		.byte	0x1
 4754 105f 1001     		.2byte	0x110
ARM GAS  C:\Users\jens-\AppData\Local\Temp\ccih1T9a.s 			page 129


 4755 1061 0C       		.byte	0xc
 4756 1062 82000000 		.4byte	0x82
 4757 1066 7B020000 		.4byte	.LLST2
 4758 106a 75020000 		.4byte	.LVUS2
 4759 106e 2C       		.uleb128 0x2c
 4760 106f F6050000 		.4byte	.LASF203
 4761 1073 01       		.byte	0x1
 4762 1074 1401     		.2byte	0x114
 4763 1076 18       		.byte	0x18
 4764 1077 5B0C0000 		.4byte	0xc5b
 4765 107b 02       		.uleb128 0x2
 4766 107c 91       		.byte	0x91
 4767 107d 70       		.sleb128 -16
 4768 107e 29       		.uleb128 0x29
 4769 107f 34000000 		.4byte	.LVL32
 4770 1083 25130000 		.4byte	0x1325
 4771 1087 92100000 		.4byte	0x1092
 4772 108b 2A       		.uleb128 0x2a
 4773 108c 01       		.uleb128 0x1
 4774 108d 50       		.byte	0x50
 4775 108e 02       		.uleb128 0x2
 4776 108f 08       		.byte	0x8
 4777 1090 37       		.byte	0x37
 4778 1091 00       		.byte	0
 4779 1092 25       		.uleb128 0x25
 4780 1093 76000000 		.4byte	.LVL33
 4781 1097 31130000 		.4byte	0x1331
 4782 109b 25       		.uleb128 0x25
 4783 109c A2000000 		.4byte	.LVL34
 4784 10a0 3D130000 		.4byte	0x133d
 4785 10a4 25       		.uleb128 0x25
 4786 10a5 54010000 		.4byte	.LVL39
 4787 10a9 49130000 		.4byte	0x1349
 4788 10ad 29       		.uleb128 0x29
 4789 10ae 66010000 		.4byte	.LVL40
 4790 10b2 55130000 		.4byte	0x1355
 4791 10b6 C0100000 		.4byte	0x10c0
 4792 10ba 2A       		.uleb128 0x2a
 4793 10bb 01       		.uleb128 0x1
 4794 10bc 50       		.byte	0x50
 4795 10bd 01       		.uleb128 0x1
 4796 10be 30       		.byte	0x30
 4797 10bf 00       		.byte	0
 4798 10c0 25       		.uleb128 0x25
 4799 10c1 88010000 		.4byte	.LVL43
 4800 10c5 49130000 		.4byte	0x1349
 4801 10c9 25       		.uleb128 0x25
 4802 10ca B4010000 		.4byte	.LVL47
 4803 10ce 61130000 		.4byte	0x1361
 4804 10d2 25       		.uleb128 0x25
 4805 10d3 BA010000 		.4byte	.LVL48
 4806 10d7 6D130000 		.4byte	0x136d
 4807 10db 29       		.uleb128 0x29
 4808 10dc C2010000 		.4byte	.LVL49
 4809 10e0 31130000 		.4byte	0x1331
 4810 10e4 EE100000 		.4byte	0x10ee
 4811 10e8 2A       		.uleb128 0x2a
ARM GAS  C:\Users\jens-\AppData\Local\Temp\ccih1T9a.s 			page 130


 4812 10e9 01       		.uleb128 0x1
 4813 10ea 50       		.byte	0x50
 4814 10eb 01       		.uleb128 0x1
 4815 10ec 38       		.byte	0x38
 4816 10ed 00       		.byte	0
 4817 10ee 29       		.uleb128 0x29
 4818 10ef E2010000 		.4byte	.LVL50
 4819 10f3 79130000 		.4byte	0x1379
 4820 10f7 01110000 		.4byte	0x1101
 4821 10fb 2A       		.uleb128 0x2a
 4822 10fc 01       		.uleb128 0x1
 4823 10fd 50       		.byte	0x50
 4824 10fe 01       		.uleb128 0x1
 4825 10ff 30       		.byte	0x30
 4826 1100 00       		.byte	0
 4827 1101 25       		.uleb128 0x25
 4828 1102 E8010000 		.4byte	.LVL51
 4829 1106 85130000 		.4byte	0x1385
 4830 110a 29       		.uleb128 0x29
 4831 110b F0010000 		.4byte	.LVL53
 4832 110f 91130000 		.4byte	0x1391
 4833 1113 1D110000 		.4byte	0x111d
 4834 1117 2A       		.uleb128 0x2a
 4835 1118 01       		.uleb128 0x1
 4836 1119 50       		.byte	0x50
 4837 111a 01       		.uleb128 0x1
 4838 111b 30       		.byte	0x30
 4839 111c 00       		.byte	0
 4840 111d 29       		.uleb128 0x29
 4841 111e F6010000 		.4byte	.LVL54
 4842 1122 9D130000 		.4byte	0x139d
 4843 1126 31110000 		.4byte	0x1131
 4844 112a 2A       		.uleb128 0x2a
 4845 112b 01       		.uleb128 0x1
 4846 112c 50       		.byte	0x50
 4847 112d 02       		.uleb128 0x2
 4848 112e 08       		.byte	0x8
 4849 112f 50       		.byte	0x50
 4850 1130 00       		.byte	0
 4851 1131 29       		.uleb128 0x29
 4852 1132 0E020000 		.4byte	.LVL59
 4853 1136 9D130000 		.4byte	0x139d
 4854 113a 44110000 		.4byte	0x1144
 4855 113e 2A       		.uleb128 0x2a
 4856 113f 01       		.uleb128 0x1
 4857 1140 50       		.byte	0x50
 4858 1141 01       		.uleb128 0x1
 4859 1142 31       		.byte	0x31
 4860 1143 00       		.byte	0
 4861 1144 25       		.uleb128 0x25
 4862 1145 3E020000 		.4byte	.LVL61
 4863 1149 61130000 		.4byte	0x1361
 4864 114d 25       		.uleb128 0x25
 4865 114e 44020000 		.4byte	.LVL62
 4866 1152 6D130000 		.4byte	0x136d
 4867 1156 25       		.uleb128 0x25
 4868 1157 4A020000 		.4byte	.LVL63
ARM GAS  C:\Users\jens-\AppData\Local\Temp\ccih1T9a.s 			page 131


 4869 115b A9130000 		.4byte	0x13a9
 4870 115f 25       		.uleb128 0x25
 4871 1160 50020000 		.4byte	.LVL65
 4872 1164 B5130000 		.4byte	0x13b5
 4873 1168 00       		.byte	0
 4874 1169 30       		.uleb128 0x30
 4875 116a C0040000 		.4byte	.LASF204
 4876 116e 01       		.byte	0x1
 4877 116f 49       		.byte	0x49
 4878 1170 06       		.byte	0x6
 4879 1171 00000000 		.4byte	.LFB0
 4880 1175 2C020000 		.4byte	.LFE0-.LFB0
 4881 1179 01       		.uleb128 0x1
 4882 117a 9C       		.byte	0x9c
 4883 117b 89120000 		.4byte	0x1289
 4884 117f 29       		.uleb128 0x29
 4885 1180 3A000000 		.4byte	.LVL14
 4886 1184 25130000 		.4byte	0x1325
 4887 1188 93110000 		.4byte	0x1193
 4888 118c 2A       		.uleb128 0x2a
 4889 118d 01       		.uleb128 0x1
 4890 118e 50       		.byte	0x50
 4891 118f 02       		.uleb128 0x2
 4892 1190 08       		.byte	0x8
 4893 1191 37       		.byte	0x37
 4894 1192 00       		.byte	0
 4895 1193 29       		.uleb128 0x29
 4896 1194 8A000000 		.4byte	.LVL15
 4897 1198 31130000 		.4byte	0x1331
 4898 119c A6110000 		.4byte	0x11a6
 4899 11a0 2A       		.uleb128 0x2a
 4900 11a1 01       		.uleb128 0x1
 4901 11a2 50       		.byte	0x50
 4902 11a3 01       		.uleb128 0x1
 4903 11a4 34       		.byte	0x34
 4904 11a5 00       		.byte	0
 4905 11a6 29       		.uleb128 0x29
 4906 11a7 C4000000 		.4byte	.LVL16
 4907 11ab 3D130000 		.4byte	0x133d
 4908 11af B9110000 		.4byte	0x11b9
 4909 11b3 2A       		.uleb128 0x2a
 4910 11b4 01       		.uleb128 0x1
 4911 11b5 50       		.byte	0x50
 4912 11b6 01       		.uleb128 0x1
 4913 11b7 30       		.byte	0x30
 4914 11b8 00       		.byte	0
 4915 11b9 25       		.uleb128 0x25
 4916 11ba 2C010000 		.4byte	.LVL17
 4917 11be 25130000 		.4byte	0x1325
 4918 11c2 29       		.uleb128 0x29
 4919 11c3 76010000 		.4byte	.LVL18
 4920 11c7 19130000 		.4byte	0x1319
 4921 11cb D5110000 		.4byte	0x11d5
 4922 11cf 2A       		.uleb128 0x2a
 4923 11d0 01       		.uleb128 0x1
 4924 11d1 50       		.byte	0x50
 4925 11d2 01       		.uleb128 0x1
ARM GAS  C:\Users\jens-\AppData\Local\Temp\ccih1T9a.s 			page 132


 4926 11d3 30       		.byte	0x30
 4927 11d4 00       		.byte	0
 4928 11d5 29       		.uleb128 0x29
 4929 11d6 7E010000 		.4byte	.LVL19
 4930 11da 61130000 		.4byte	0x1361
 4931 11de E8110000 		.4byte	0x11e8
 4932 11e2 2A       		.uleb128 0x2a
 4933 11e3 01       		.uleb128 0x1
 4934 11e4 50       		.byte	0x50
 4935 11e5 01       		.uleb128 0x1
 4936 11e6 30       		.byte	0x30
 4937 11e7 00       		.byte	0
 4938 11e8 29       		.uleb128 0x29
 4939 11e9 86010000 		.4byte	.LVL20
 4940 11ed 61130000 		.4byte	0x1361
 4941 11f1 FB110000 		.4byte	0x11fb
 4942 11f5 2A       		.uleb128 0x2a
 4943 11f6 01       		.uleb128 0x1
 4944 11f7 50       		.byte	0x50
 4945 11f8 01       		.uleb128 0x1
 4946 11f9 32       		.byte	0x32
 4947 11fa 00       		.byte	0
 4948 11fb 29       		.uleb128 0x29
 4949 11fc 8E010000 		.4byte	.LVL21
 4950 1200 61130000 		.4byte	0x1361
 4951 1204 0E120000 		.4byte	0x120e
 4952 1208 2A       		.uleb128 0x2a
 4953 1209 01       		.uleb128 0x1
 4954 120a 50       		.byte	0x50
 4955 120b 01       		.uleb128 0x1
 4956 120c 33       		.byte	0x33
 4957 120d 00       		.byte	0
 4958 120e 25       		.uleb128 0x25
 4959 120f 9C010000 		.4byte	.LVL22
 4960 1213 C1130000 		.4byte	0x13c1
 4961 1217 29       		.uleb128 0x29
 4962 1218 AA010000 		.4byte	.LVL23
 4963 121c 79130000 		.4byte	0x1379
 4964 1220 2A120000 		.4byte	0x122a
 4965 1224 2A       		.uleb128 0x2a
 4966 1225 01       		.uleb128 0x1
 4967 1226 50       		.byte	0x50
 4968 1227 01       		.uleb128 0x1
 4969 1228 30       		.byte	0x30
 4970 1229 00       		.byte	0
 4971 122a 29       		.uleb128 0x29
 4972 122b B0010000 		.4byte	.LVL24
 4973 122f 9D130000 		.4byte	0x139d
 4974 1233 3D120000 		.4byte	0x123d
 4975 1237 2A       		.uleb128 0x2a
 4976 1238 01       		.uleb128 0x1
 4977 1239 50       		.byte	0x50
 4978 123a 01       		.uleb128 0x1
 4979 123b 36       		.byte	0x36
 4980 123c 00       		.byte	0
 4981 123d 25       		.uleb128 0x25
 4982 123e C4010000 		.4byte	.LVL25
ARM GAS  C:\Users\jens-\AppData\Local\Temp\ccih1T9a.s 			page 133


 4983 1242 CD130000 		.4byte	0x13cd
 4984 1246 29       		.uleb128 0x29
 4985 1247 CC010000 		.4byte	.LVL26
 4986 124b 6D130000 		.4byte	0x136d
 4987 124f 59120000 		.4byte	0x1259
 4988 1253 2A       		.uleb128 0x2a
 4989 1254 01       		.uleb128 0x1
 4990 1255 50       		.byte	0x50
 4991 1256 01       		.uleb128 0x1
 4992 1257 30       		.byte	0x30
 4993 1258 00       		.byte	0
 4994 1259 29       		.uleb128 0x29
 4995 125a D4010000 		.4byte	.LVL27
 4996 125e 61130000 		.4byte	0x1361
 4997 1262 6C120000 		.4byte	0x126c
 4998 1266 2A       		.uleb128 0x2a
 4999 1267 01       		.uleb128 0x1
 5000 1268 50       		.byte	0x50
 5001 1269 01       		.uleb128 0x1
 5002 126a 30       		.byte	0x30
 5003 126b 00       		.byte	0
 5004 126c 29       		.uleb128 0x29
 5005 126d DC010000 		.4byte	.LVL28
 5006 1271 B5130000 		.4byte	0x13b5
 5007 1275 7F120000 		.4byte	0x127f
 5008 1279 2A       		.uleb128 0x2a
 5009 127a 01       		.uleb128 0x1
 5010 127b 50       		.byte	0x50
 5011 127c 01       		.uleb128 0x1
 5012 127d 30       		.byte	0x30
 5013 127e 00       		.byte	0
 5014 127f 25       		.uleb128 0x25
 5015 1280 EA010000 		.4byte	.LVL29
 5016 1284 D9130000 		.4byte	0x13d9
 5017 1288 00       		.byte	0
 5018 1289 31       		.uleb128 0x31
 5019 128a F40A0000 		.4byte	.LASF205
 5020 128e F40A0000 		.4byte	.LASF205
 5021 1292 08       		.byte	0x8
 5022 1293 9A       		.byte	0x9a
 5023 1294 06       		.byte	0x6
 5024 1295 31       		.uleb128 0x31
 5025 1296 660A0000 		.4byte	.LASF206
 5026 129a 660A0000 		.4byte	.LASF206
 5027 129e 08       		.byte	0x8
 5028 129f 9B       		.byte	0x9b
 5029 12a0 06       		.byte	0x6
 5030 12a1 31       		.uleb128 0x31
 5031 12a2 E2020000 		.4byte	.LASF207
 5032 12a6 E2020000 		.4byte	.LASF207
 5033 12aa 08       		.byte	0x8
 5034 12ab 9E       		.byte	0x9e
 5035 12ac 06       		.byte	0x6
 5036 12ad 31       		.uleb128 0x31
 5037 12ae F5080000 		.4byte	.LASF208
 5038 12b2 F5080000 		.4byte	.LASF208
 5039 12b6 08       		.byte	0x8
ARM GAS  C:\Users\jens-\AppData\Local\Temp\ccih1T9a.s 			page 134


 5040 12b7 9C       		.byte	0x9c
 5041 12b8 06       		.byte	0x6
 5042 12b9 31       		.uleb128 0x31
 5043 12ba 0C000000 		.4byte	.LASF209
 5044 12be 0C000000 		.4byte	.LASF209
 5045 12c2 08       		.byte	0x8
 5046 12c3 9D       		.byte	0x9d
 5047 12c4 06       		.byte	0x6
 5048 12c5 31       		.uleb128 0x31
 5049 12c6 A2050000 		.4byte	.LASF210
 5050 12ca A2050000 		.4byte	.LASF210
 5051 12ce 08       		.byte	0x8
 5052 12cf 9F       		.byte	0x9f
 5053 12d0 06       		.byte	0x6
 5054 12d1 31       		.uleb128 0x31
 5055 12d2 42060000 		.4byte	.LASF211
 5056 12d6 42060000 		.4byte	.LASF211
 5057 12da 08       		.byte	0x8
 5058 12db 59       		.byte	0x59
 5059 12dc 07       		.byte	0x7
 5060 12dd 31       		.uleb128 0x31
 5061 12de 7A020000 		.4byte	.LASF212
 5062 12e2 7A020000 		.4byte	.LASF212
 5063 12e6 08       		.byte	0x8
 5064 12e7 62       		.byte	0x62
 5065 12e8 07       		.byte	0x7
 5066 12e9 31       		.uleb128 0x31
 5067 12ea BF010000 		.4byte	.LASF213
 5068 12ee BF010000 		.4byte	.LASF213
 5069 12f2 08       		.byte	0x8
 5070 12f3 57       		.byte	0x57
 5071 12f4 07       		.byte	0x7
 5072 12f5 31       		.uleb128 0x31
 5073 12f6 BC030000 		.4byte	.LASF214
 5074 12fa BC030000 		.4byte	.LASF214
 5075 12fe 08       		.byte	0x8
 5076 12ff 5E       		.byte	0x5e
 5077 1300 07       		.byte	0x7
 5078 1301 31       		.uleb128 0x31
 5079 1302 8D030000 		.4byte	.LASF215
 5080 1306 8D030000 		.4byte	.LASF215
 5081 130a 08       		.byte	0x8
 5082 130b 7D       		.byte	0x7d
 5083 130c 07       		.byte	0x7
 5084 130d 31       		.uleb128 0x31
 5085 130e B7060000 		.4byte	.LASF216
 5086 1312 B7060000 		.4byte	.LASF216
 5087 1316 08       		.byte	0x8
 5088 1317 7E       		.byte	0x7e
 5089 1318 06       		.byte	0x6
 5090 1319 31       		.uleb128 0x31
 5091 131a 41070000 		.4byte	.LASF217
 5092 131e 41070000 		.4byte	.LASF217
 5093 1322 08       		.byte	0x8
 5094 1323 7F       		.byte	0x7f
 5095 1324 06       		.byte	0x6
 5096 1325 31       		.uleb128 0x31
ARM GAS  C:\Users\jens-\AppData\Local\Temp\ccih1T9a.s 			page 135


 5097 1326 E9060000 		.4byte	.LASF218
 5098 132a E9060000 		.4byte	.LASF218
 5099 132e 0A       		.byte	0xa
 5100 132f 52       		.byte	0x52
 5101 1330 06       		.byte	0x6
 5102 1331 31       		.uleb128 0x31
 5103 1332 340A0000 		.4byte	.LASF219
 5104 1336 340A0000 		.4byte	.LASF219
 5105 133a 08       		.byte	0x8
 5106 133b 48       		.byte	0x48
 5107 133c 07       		.byte	0x7
 5108 133d 31       		.uleb128 0x31
 5109 133e 51030000 		.4byte	.LASF220
 5110 1342 51030000 		.4byte	.LASF220
 5111 1346 08       		.byte	0x8
 5112 1347 49       		.byte	0x49
 5113 1348 07       		.byte	0x7
 5114 1349 31       		.uleb128 0x31
 5115 134a 8D020000 		.4byte	.LASF221
 5116 134e 8D020000 		.4byte	.LASF221
 5117 1352 08       		.byte	0x8
 5118 1353 79       		.byte	0x79
 5119 1354 06       		.byte	0x6
 5120 1355 31       		.uleb128 0x31
 5121 1356 84050000 		.4byte	.LASF222
 5122 135a 84050000 		.4byte	.LASF222
 5123 135e 08       		.byte	0x8
 5124 135f 65       		.byte	0x65
 5125 1360 0A       		.byte	0xa
 5126 1361 31       		.uleb128 0x31
 5127 1362 8E090000 		.4byte	.LASF223
 5128 1366 8E090000 		.4byte	.LASF223
 5129 136a 08       		.byte	0x8
 5130 136b 4D       		.byte	0x4d
 5131 136c 07       		.byte	0x7
 5132 136d 31       		.uleb128 0x31
 5133 136e 90060000 		.4byte	.LASF224
 5134 1372 90060000 		.4byte	.LASF224
 5135 1376 08       		.byte	0x8
 5136 1377 4E       		.byte	0x4e
 5137 1378 07       		.byte	0x7
 5138 1379 31       		.uleb128 0x31
 5139 137a 78050000 		.4byte	.LASF225
 5140 137e 78050000 		.4byte	.LASF225
 5141 1382 08       		.byte	0x8
 5142 1383 46       		.byte	0x46
 5143 1384 07       		.byte	0x7
 5144 1385 31       		.uleb128 0x31
 5145 1386 28070000 		.4byte	.LASF226
 5146 138a 28070000 		.4byte	.LASF226
 5147 138e 08       		.byte	0x8
 5148 138f 4A       		.byte	0x4a
 5149 1390 07       		.byte	0x7
 5150 1391 31       		.uleb128 0x31
 5151 1392 E5080000 		.4byte	.LASF227
 5152 1396 E5080000 		.4byte	.LASF227
 5153 139a 08       		.byte	0x8
ARM GAS  C:\Users\jens-\AppData\Local\Temp\ccih1T9a.s 			page 136


 5154 139b 41       		.byte	0x41
 5155 139c 0A       		.byte	0xa
 5156 139d 31       		.uleb128 0x31
 5157 139e 23020000 		.4byte	.LASF228
 5158 13a2 23020000 		.4byte	.LASF228
 5159 13a6 08       		.byte	0x8
 5160 13a7 77       		.byte	0x77
 5161 13a8 06       		.byte	0x6
 5162 13a9 31       		.uleb128 0x31
 5163 13aa CF030000 		.4byte	.LASF229
 5164 13ae CF030000 		.4byte	.LASF229
 5165 13b2 08       		.byte	0x8
 5166 13b3 47       		.byte	0x47
 5167 13b4 07       		.byte	0x7
 5168 13b5 31       		.uleb128 0x31
 5169 13b6 910A0000 		.4byte	.LASF230
 5170 13ba 910A0000 		.4byte	.LASF230
 5171 13be 08       		.byte	0x8
 5172 13bf 4F       		.byte	0x4f
 5173 13c0 07       		.byte	0x7
 5174 13c1 31       		.uleb128 0x31
 5175 13c2 1E060000 		.4byte	.LASF231
 5176 13c6 1E060000 		.4byte	.LASF231
 5177 13ca 08       		.byte	0x8
 5178 13cb 42       		.byte	0x42
 5179 13cc 07       		.byte	0x7
 5180 13cd 31       		.uleb128 0x31
 5181 13ce 09060000 		.4byte	.LASF232
 5182 13d2 09060000 		.4byte	.LASF232
 5183 13d6 08       		.byte	0x8
 5184 13d7 4B       		.byte	0x4b
 5185 13d8 07       		.byte	0x7
 5186 13d9 31       		.uleb128 0x31
 5187 13da 060B0000 		.4byte	.LASF233
 5188 13de 060B0000 		.4byte	.LASF233
 5189 13e2 08       		.byte	0x8
 5190 13e3 66       		.byte	0x66
 5191 13e4 07       		.byte	0x7
 5192 13e5 00       		.byte	0
 5193              		.section	.debug_abbrev,"",%progbits
 5194              	.Ldebug_abbrev0:
 5195 0000 01       		.uleb128 0x1
 5196 0001 11       		.uleb128 0x11
 5197 0002 01       		.byte	0x1
 5198 0003 25       		.uleb128 0x25
 5199 0004 0E       		.uleb128 0xe
 5200 0005 13       		.uleb128 0x13
 5201 0006 0B       		.uleb128 0xb
 5202 0007 03       		.uleb128 0x3
 5203 0008 0E       		.uleb128 0xe
 5204 0009 1B       		.uleb128 0x1b
 5205 000a 0E       		.uleb128 0xe
 5206 000b 55       		.uleb128 0x55
 5207 000c 17       		.uleb128 0x17
 5208 000d 11       		.uleb128 0x11
 5209 000e 01       		.uleb128 0x1
 5210 000f 10       		.uleb128 0x10
ARM GAS  C:\Users\jens-\AppData\Local\Temp\ccih1T9a.s 			page 137


 5211 0010 17       		.uleb128 0x17
 5212 0011 00       		.byte	0
 5213 0012 00       		.byte	0
 5214 0013 02       		.uleb128 0x2
 5215 0014 24       		.uleb128 0x24
 5216 0015 00       		.byte	0
 5217 0016 0B       		.uleb128 0xb
 5218 0017 0B       		.uleb128 0xb
 5219 0018 3E       		.uleb128 0x3e
 5220 0019 0B       		.uleb128 0xb
 5221 001a 03       		.uleb128 0x3
 5222 001b 0E       		.uleb128 0xe
 5223 001c 00       		.byte	0
 5224 001d 00       		.byte	0
 5225 001e 03       		.uleb128 0x3
 5226 001f 24       		.uleb128 0x24
 5227 0020 00       		.byte	0
 5228 0021 0B       		.uleb128 0xb
 5229 0022 0B       		.uleb128 0xb
 5230 0023 3E       		.uleb128 0x3e
 5231 0024 0B       		.uleb128 0xb
 5232 0025 03       		.uleb128 0x3
 5233 0026 08       		.uleb128 0x8
 5234 0027 00       		.byte	0
 5235 0028 00       		.byte	0
 5236 0029 04       		.uleb128 0x4
 5237 002a 16       		.uleb128 0x16
 5238 002b 00       		.byte	0
 5239 002c 03       		.uleb128 0x3
 5240 002d 0E       		.uleb128 0xe
 5241 002e 3A       		.uleb128 0x3a
 5242 002f 0B       		.uleb128 0xb
 5243 0030 3B       		.uleb128 0x3b
 5244 0031 05       		.uleb128 0x5
 5245 0032 39       		.uleb128 0x39
 5246 0033 0B       		.uleb128 0xb
 5247 0034 49       		.uleb128 0x49
 5248 0035 13       		.uleb128 0x13
 5249 0036 00       		.byte	0
 5250 0037 00       		.byte	0
 5251 0038 05       		.uleb128 0x5
 5252 0039 35       		.uleb128 0x35
 5253 003a 00       		.byte	0
 5254 003b 49       		.uleb128 0x49
 5255 003c 13       		.uleb128 0x13
 5256 003d 00       		.byte	0
 5257 003e 00       		.byte	0
 5258 003f 06       		.uleb128 0x6
 5259 0040 26       		.uleb128 0x26
 5260 0041 00       		.byte	0
 5261 0042 49       		.uleb128 0x49
 5262 0043 13       		.uleb128 0x13
 5263 0044 00       		.byte	0
 5264 0045 00       		.byte	0
 5265 0046 07       		.uleb128 0x7
 5266 0047 0F       		.uleb128 0xf
 5267 0048 00       		.byte	0
ARM GAS  C:\Users\jens-\AppData\Local\Temp\ccih1T9a.s 			page 138


 5268 0049 0B       		.uleb128 0xb
 5269 004a 0B       		.uleb128 0xb
 5270 004b 49       		.uleb128 0x49
 5271 004c 13       		.uleb128 0x13
 5272 004d 00       		.byte	0
 5273 004e 00       		.byte	0
 5274 004f 08       		.uleb128 0x8
 5275 0050 15       		.uleb128 0x15
 5276 0051 00       		.byte	0
 5277 0052 27       		.uleb128 0x27
 5278 0053 19       		.uleb128 0x19
 5279 0054 00       		.byte	0
 5280 0055 00       		.byte	0
 5281 0056 09       		.uleb128 0x9
 5282 0057 16       		.uleb128 0x16
 5283 0058 00       		.byte	0
 5284 0059 03       		.uleb128 0x3
 5285 005a 0E       		.uleb128 0xe
 5286 005b 3A       		.uleb128 0x3a
 5287 005c 0B       		.uleb128 0xb
 5288 005d 3B       		.uleb128 0x3b
 5289 005e 0B       		.uleb128 0xb
 5290 005f 39       		.uleb128 0x39
 5291 0060 0B       		.uleb128 0xb
 5292 0061 49       		.uleb128 0x49
 5293 0062 13       		.uleb128 0x13
 5294 0063 00       		.byte	0
 5295 0064 00       		.byte	0
 5296 0065 0A       		.uleb128 0xa
 5297 0066 13       		.uleb128 0x13
 5298 0067 00       		.byte	0
 5299 0068 03       		.uleb128 0x3
 5300 0069 0E       		.uleb128 0xe
 5301 006a 3C       		.uleb128 0x3c
 5302 006b 19       		.uleb128 0x19
 5303 006c 00       		.byte	0
 5304 006d 00       		.byte	0
 5305 006e 0B       		.uleb128 0xb
 5306 006f 17       		.uleb128 0x17
 5307 0070 01       		.byte	0x1
 5308 0071 0B       		.uleb128 0xb
 5309 0072 0B       		.uleb128 0xb
 5310 0073 3A       		.uleb128 0x3a
 5311 0074 0B       		.uleb128 0xb
 5312 0075 3B       		.uleb128 0x3b
 5313 0076 0B       		.uleb128 0xb
 5314 0077 39       		.uleb128 0x39
 5315 0078 0B       		.uleb128 0xb
 5316 0079 01       		.uleb128 0x1
 5317 007a 13       		.uleb128 0x13
 5318 007b 00       		.byte	0
 5319 007c 00       		.byte	0
 5320 007d 0C       		.uleb128 0xc
 5321 007e 0D       		.uleb128 0xd
 5322 007f 00       		.byte	0
 5323 0080 03       		.uleb128 0x3
 5324 0081 0E       		.uleb128 0xe
ARM GAS  C:\Users\jens-\AppData\Local\Temp\ccih1T9a.s 			page 139


 5325 0082 3A       		.uleb128 0x3a
 5326 0083 0B       		.uleb128 0xb
 5327 0084 3B       		.uleb128 0x3b
 5328 0085 0B       		.uleb128 0xb
 5329 0086 39       		.uleb128 0x39
 5330 0087 0B       		.uleb128 0xb
 5331 0088 49       		.uleb128 0x49
 5332 0089 13       		.uleb128 0x13
 5333 008a 00       		.byte	0
 5334 008b 00       		.byte	0
 5335 008c 0D       		.uleb128 0xd
 5336 008d 01       		.uleb128 0x1
 5337 008e 01       		.byte	0x1
 5338 008f 49       		.uleb128 0x49
 5339 0090 13       		.uleb128 0x13
 5340 0091 01       		.uleb128 0x1
 5341 0092 13       		.uleb128 0x13
 5342 0093 00       		.byte	0
 5343 0094 00       		.byte	0
 5344 0095 0E       		.uleb128 0xe
 5345 0096 21       		.uleb128 0x21
 5346 0097 00       		.byte	0
 5347 0098 49       		.uleb128 0x49
 5348 0099 13       		.uleb128 0x13
 5349 009a 2F       		.uleb128 0x2f
 5350 009b 0B       		.uleb128 0xb
 5351 009c 00       		.byte	0
 5352 009d 00       		.byte	0
 5353 009e 0F       		.uleb128 0xf
 5354 009f 13       		.uleb128 0x13
 5355 00a0 01       		.byte	0x1
 5356 00a1 0B       		.uleb128 0xb
 5357 00a2 0B       		.uleb128 0xb
 5358 00a3 3A       		.uleb128 0x3a
 5359 00a4 0B       		.uleb128 0xb
 5360 00a5 3B       		.uleb128 0x3b
 5361 00a6 0B       		.uleb128 0xb
 5362 00a7 39       		.uleb128 0x39
 5363 00a8 0B       		.uleb128 0xb
 5364 00a9 01       		.uleb128 0x1
 5365 00aa 13       		.uleb128 0x13
 5366 00ab 00       		.byte	0
 5367 00ac 00       		.byte	0
 5368 00ad 10       		.uleb128 0x10
 5369 00ae 0D       		.uleb128 0xd
 5370 00af 00       		.byte	0
 5371 00b0 03       		.uleb128 0x3
 5372 00b1 0E       		.uleb128 0xe
 5373 00b2 3A       		.uleb128 0x3a
 5374 00b3 0B       		.uleb128 0xb
 5375 00b4 3B       		.uleb128 0x3b
 5376 00b5 0B       		.uleb128 0xb
 5377 00b6 39       		.uleb128 0x39
 5378 00b7 0B       		.uleb128 0xb
 5379 00b8 49       		.uleb128 0x49
 5380 00b9 13       		.uleb128 0x13
 5381 00ba 38       		.uleb128 0x38
ARM GAS  C:\Users\jens-\AppData\Local\Temp\ccih1T9a.s 			page 140


 5382 00bb 0B       		.uleb128 0xb
 5383 00bc 00       		.byte	0
 5384 00bd 00       		.byte	0
 5385 00be 11       		.uleb128 0x11
 5386 00bf 0F       		.uleb128 0xf
 5387 00c0 00       		.byte	0
 5388 00c1 0B       		.uleb128 0xb
 5389 00c2 0B       		.uleb128 0xb
 5390 00c3 00       		.byte	0
 5391 00c4 00       		.byte	0
 5392 00c5 12       		.uleb128 0x12
 5393 00c6 13       		.uleb128 0x13
 5394 00c7 01       		.byte	0x1
 5395 00c8 03       		.uleb128 0x3
 5396 00c9 0E       		.uleb128 0xe
 5397 00ca 0B       		.uleb128 0xb
 5398 00cb 0B       		.uleb128 0xb
 5399 00cc 3A       		.uleb128 0x3a
 5400 00cd 0B       		.uleb128 0xb
 5401 00ce 3B       		.uleb128 0x3b
 5402 00cf 0B       		.uleb128 0xb
 5403 00d0 39       		.uleb128 0x39
 5404 00d1 0B       		.uleb128 0xb
 5405 00d2 01       		.uleb128 0x1
 5406 00d3 13       		.uleb128 0x13
 5407 00d4 00       		.byte	0
 5408 00d5 00       		.byte	0
 5409 00d6 13       		.uleb128 0x13
 5410 00d7 0D       		.uleb128 0xd
 5411 00d8 00       		.byte	0
 5412 00d9 03       		.uleb128 0x3
 5413 00da 08       		.uleb128 0x8
 5414 00db 3A       		.uleb128 0x3a
 5415 00dc 0B       		.uleb128 0xb
 5416 00dd 3B       		.uleb128 0x3b
 5417 00de 0B       		.uleb128 0xb
 5418 00df 39       		.uleb128 0x39
 5419 00e0 0B       		.uleb128 0xb
 5420 00e1 49       		.uleb128 0x49
 5421 00e2 13       		.uleb128 0x13
 5422 00e3 38       		.uleb128 0x38
 5423 00e4 0B       		.uleb128 0xb
 5424 00e5 00       		.byte	0
 5425 00e6 00       		.byte	0
 5426 00e7 14       		.uleb128 0x14
 5427 00e8 13       		.uleb128 0x13
 5428 00e9 01       		.byte	0x1
 5429 00ea 03       		.uleb128 0x3
 5430 00eb 0E       		.uleb128 0xe
 5431 00ec 0B       		.uleb128 0xb
 5432 00ed 05       		.uleb128 0x5
 5433 00ee 3A       		.uleb128 0x3a
 5434 00ef 0B       		.uleb128 0xb
 5435 00f0 3B       		.uleb128 0x3b
 5436 00f1 0B       		.uleb128 0xb
 5437 00f2 39       		.uleb128 0x39
 5438 00f3 0B       		.uleb128 0xb
ARM GAS  C:\Users\jens-\AppData\Local\Temp\ccih1T9a.s 			page 141


 5439 00f4 01       		.uleb128 0x1
 5440 00f5 13       		.uleb128 0x13
 5441 00f6 00       		.byte	0
 5442 00f7 00       		.byte	0
 5443 00f8 15       		.uleb128 0x15
 5444 00f9 0D       		.uleb128 0xd
 5445 00fa 00       		.byte	0
 5446 00fb 03       		.uleb128 0x3
 5447 00fc 0E       		.uleb128 0xe
 5448 00fd 3A       		.uleb128 0x3a
 5449 00fe 0B       		.uleb128 0xb
 5450 00ff 3B       		.uleb128 0x3b
 5451 0100 0B       		.uleb128 0xb
 5452 0101 39       		.uleb128 0x39
 5453 0102 0B       		.uleb128 0xb
 5454 0103 49       		.uleb128 0x49
 5455 0104 13       		.uleb128 0x13
 5456 0105 38       		.uleb128 0x38
 5457 0106 05       		.uleb128 0x5
 5458 0107 00       		.byte	0
 5459 0108 00       		.byte	0
 5460 0109 16       		.uleb128 0x16
 5461 010a 15       		.uleb128 0x15
 5462 010b 01       		.byte	0x1
 5463 010c 27       		.uleb128 0x27
 5464 010d 19       		.uleb128 0x19
 5465 010e 49       		.uleb128 0x49
 5466 010f 13       		.uleb128 0x13
 5467 0110 01       		.uleb128 0x1
 5468 0111 13       		.uleb128 0x13
 5469 0112 00       		.byte	0
 5470 0113 00       		.byte	0
 5471 0114 17       		.uleb128 0x17
 5472 0115 05       		.uleb128 0x5
 5473 0116 00       		.byte	0
 5474 0117 49       		.uleb128 0x49
 5475 0118 13       		.uleb128 0x13
 5476 0119 00       		.byte	0
 5477 011a 00       		.byte	0
 5478 011b 18       		.uleb128 0x18
 5479 011c 13       		.uleb128 0x13
 5480 011d 01       		.byte	0x1
 5481 011e 03       		.uleb128 0x3
 5482 011f 0E       		.uleb128 0xe
 5483 0120 0B       		.uleb128 0xb
 5484 0121 05       		.uleb128 0x5
 5485 0122 3A       		.uleb128 0x3a
 5486 0123 0B       		.uleb128 0xb
 5487 0124 3B       		.uleb128 0x3b
 5488 0125 05       		.uleb128 0x5
 5489 0126 39       		.uleb128 0x39
 5490 0127 0B       		.uleb128 0xb
 5491 0128 01       		.uleb128 0x1
 5492 0129 13       		.uleb128 0x13
 5493 012a 00       		.byte	0
 5494 012b 00       		.byte	0
 5495 012c 19       		.uleb128 0x19
ARM GAS  C:\Users\jens-\AppData\Local\Temp\ccih1T9a.s 			page 142


 5496 012d 0D       		.uleb128 0xd
 5497 012e 00       		.byte	0
 5498 012f 03       		.uleb128 0x3
 5499 0130 0E       		.uleb128 0xe
 5500 0131 3A       		.uleb128 0x3a
 5501 0132 0B       		.uleb128 0xb
 5502 0133 3B       		.uleb128 0x3b
 5503 0134 05       		.uleb128 0x5
 5504 0135 39       		.uleb128 0x39
 5505 0136 0B       		.uleb128 0xb
 5506 0137 49       		.uleb128 0x49
 5507 0138 13       		.uleb128 0x13
 5508 0139 38       		.uleb128 0x38
 5509 013a 0B       		.uleb128 0xb
 5510 013b 00       		.byte	0
 5511 013c 00       		.byte	0
 5512 013d 1A       		.uleb128 0x1a
 5513 013e 0D       		.uleb128 0xd
 5514 013f 00       		.byte	0
 5515 0140 03       		.uleb128 0x3
 5516 0141 0E       		.uleb128 0xe
 5517 0142 3A       		.uleb128 0x3a
 5518 0143 0B       		.uleb128 0xb
 5519 0144 3B       		.uleb128 0x3b
 5520 0145 05       		.uleb128 0x5
 5521 0146 39       		.uleb128 0x39
 5522 0147 0B       		.uleb128 0xb
 5523 0148 49       		.uleb128 0x49
 5524 0149 13       		.uleb128 0x13
 5525 014a 38       		.uleb128 0x38
 5526 014b 05       		.uleb128 0x5
 5527 014c 00       		.byte	0
 5528 014d 00       		.byte	0
 5529 014e 1B       		.uleb128 0x1b
 5530 014f 13       		.uleb128 0x13
 5531 0150 01       		.byte	0x1
 5532 0151 03       		.uleb128 0x3
 5533 0152 0E       		.uleb128 0xe
 5534 0153 0B       		.uleb128 0xb
 5535 0154 0B       		.uleb128 0xb
 5536 0155 3A       		.uleb128 0x3a
 5537 0156 0B       		.uleb128 0xb
 5538 0157 3B       		.uleb128 0x3b
 5539 0158 05       		.uleb128 0x5
 5540 0159 39       		.uleb128 0x39
 5541 015a 0B       		.uleb128 0xb
 5542 015b 01       		.uleb128 0x1
 5543 015c 13       		.uleb128 0x13
 5544 015d 00       		.byte	0
 5545 015e 00       		.byte	0
 5546 015f 1C       		.uleb128 0x1c
 5547 0160 13       		.uleb128 0x13
 5548 0161 01       		.byte	0x1
 5549 0162 0B       		.uleb128 0xb
 5550 0163 0B       		.uleb128 0xb
 5551 0164 3A       		.uleb128 0x3a
 5552 0165 0B       		.uleb128 0xb
ARM GAS  C:\Users\jens-\AppData\Local\Temp\ccih1T9a.s 			page 143


 5553 0166 3B       		.uleb128 0x3b
 5554 0167 05       		.uleb128 0x5
 5555 0168 39       		.uleb128 0x39
 5556 0169 0B       		.uleb128 0xb
 5557 016a 01       		.uleb128 0x1
 5558 016b 13       		.uleb128 0x13
 5559 016c 00       		.byte	0
 5560 016d 00       		.byte	0
 5561 016e 1D       		.uleb128 0x1d
 5562 016f 17       		.uleb128 0x17
 5563 0170 01       		.byte	0x1
 5564 0171 0B       		.uleb128 0xb
 5565 0172 0B       		.uleb128 0xb
 5566 0173 3A       		.uleb128 0x3a
 5567 0174 0B       		.uleb128 0xb
 5568 0175 3B       		.uleb128 0x3b
 5569 0176 05       		.uleb128 0x5
 5570 0177 39       		.uleb128 0x39
 5571 0178 0B       		.uleb128 0xb
 5572 0179 01       		.uleb128 0x1
 5573 017a 13       		.uleb128 0x13
 5574 017b 00       		.byte	0
 5575 017c 00       		.byte	0
 5576 017d 1E       		.uleb128 0x1e
 5577 017e 0D       		.uleb128 0xd
 5578 017f 00       		.byte	0
 5579 0180 03       		.uleb128 0x3
 5580 0181 0E       		.uleb128 0xe
 5581 0182 3A       		.uleb128 0x3a
 5582 0183 0B       		.uleb128 0xb
 5583 0184 3B       		.uleb128 0x3b
 5584 0185 05       		.uleb128 0x5
 5585 0186 39       		.uleb128 0x39
 5586 0187 0B       		.uleb128 0xb
 5587 0188 49       		.uleb128 0x49
 5588 0189 13       		.uleb128 0x13
 5589 018a 00       		.byte	0
 5590 018b 00       		.byte	0
 5591 018c 1F       		.uleb128 0x1f
 5592 018d 15       		.uleb128 0x15
 5593 018e 01       		.byte	0x1
 5594 018f 27       		.uleb128 0x27
 5595 0190 19       		.uleb128 0x19
 5596 0191 01       		.uleb128 0x1
 5597 0192 13       		.uleb128 0x13
 5598 0193 00       		.byte	0
 5599 0194 00       		.byte	0
 5600 0195 20       		.uleb128 0x20
 5601 0196 34       		.uleb128 0x34
 5602 0197 00       		.byte	0
 5603 0198 03       		.uleb128 0x3
 5604 0199 0E       		.uleb128 0xe
 5605 019a 3A       		.uleb128 0x3a
 5606 019b 0B       		.uleb128 0xb
 5607 019c 3B       		.uleb128 0x3b
 5608 019d 05       		.uleb128 0x5
 5609 019e 39       		.uleb128 0x39
ARM GAS  C:\Users\jens-\AppData\Local\Temp\ccih1T9a.s 			page 144


 5610 019f 0B       		.uleb128 0xb
 5611 01a0 49       		.uleb128 0x49
 5612 01a1 13       		.uleb128 0x13
 5613 01a2 3F       		.uleb128 0x3f
 5614 01a3 19       		.uleb128 0x19
 5615 01a4 3C       		.uleb128 0x3c
 5616 01a5 19       		.uleb128 0x19
 5617 01a6 00       		.byte	0
 5618 01a7 00       		.byte	0
 5619 01a8 21       		.uleb128 0x21
 5620 01a9 21       		.uleb128 0x21
 5621 01aa 00       		.byte	0
 5622 01ab 00       		.byte	0
 5623 01ac 00       		.byte	0
 5624 01ad 22       		.uleb128 0x22
 5625 01ae 34       		.uleb128 0x34
 5626 01af 00       		.byte	0
 5627 01b0 03       		.uleb128 0x3
 5628 01b1 0E       		.uleb128 0xe
 5629 01b2 3A       		.uleb128 0x3a
 5630 01b3 0B       		.uleb128 0xb
 5631 01b4 3B       		.uleb128 0x3b
 5632 01b5 0B       		.uleb128 0xb
 5633 01b6 39       		.uleb128 0x39
 5634 01b7 0B       		.uleb128 0xb
 5635 01b8 49       		.uleb128 0x49
 5636 01b9 13       		.uleb128 0x13
 5637 01ba 3F       		.uleb128 0x3f
 5638 01bb 19       		.uleb128 0x19
 5639 01bc 3C       		.uleb128 0x3c
 5640 01bd 19       		.uleb128 0x19
 5641 01be 00       		.byte	0
 5642 01bf 00       		.byte	0
 5643 01c0 23       		.uleb128 0x23
 5644 01c1 34       		.uleb128 0x34
 5645 01c2 00       		.byte	0
 5646 01c3 03       		.uleb128 0x3
 5647 01c4 0E       		.uleb128 0xe
 5648 01c5 3A       		.uleb128 0x3a
 5649 01c6 0B       		.uleb128 0xb
 5650 01c7 3B       		.uleb128 0x3b
 5651 01c8 0B       		.uleb128 0xb
 5652 01c9 39       		.uleb128 0x39
 5653 01ca 0B       		.uleb128 0xb
 5654 01cb 49       		.uleb128 0x49
 5655 01cc 13       		.uleb128 0x13
 5656 01cd 02       		.uleb128 0x2
 5657 01ce 18       		.uleb128 0x18
 5658 01cf 00       		.byte	0
 5659 01d0 00       		.byte	0
 5660 01d1 24       		.uleb128 0x24
 5661 01d2 2E       		.uleb128 0x2e
 5662 01d3 01       		.byte	0x1
 5663 01d4 03       		.uleb128 0x3
 5664 01d5 0E       		.uleb128 0xe
 5665 01d6 3A       		.uleb128 0x3a
 5666 01d7 0B       		.uleb128 0xb
ARM GAS  C:\Users\jens-\AppData\Local\Temp\ccih1T9a.s 			page 145


 5667 01d8 3B       		.uleb128 0x3b
 5668 01d9 05       		.uleb128 0x5
 5669 01da 39       		.uleb128 0x39
 5670 01db 0B       		.uleb128 0xb
 5671 01dc 27       		.uleb128 0x27
 5672 01dd 19       		.uleb128 0x19
 5673 01de 11       		.uleb128 0x11
 5674 01df 01       		.uleb128 0x1
 5675 01e0 12       		.uleb128 0x12
 5676 01e1 06       		.uleb128 0x6
 5677 01e2 40       		.uleb128 0x40
 5678 01e3 18       		.uleb128 0x18
 5679 01e4 9742     		.uleb128 0x2117
 5680 01e6 19       		.uleb128 0x19
 5681 01e7 01       		.uleb128 0x1
 5682 01e8 13       		.uleb128 0x13
 5683 01e9 00       		.byte	0
 5684 01ea 00       		.byte	0
 5685 01eb 25       		.uleb128 0x25
 5686 01ec 898201   		.uleb128 0x4109
 5687 01ef 00       		.byte	0
 5688 01f0 11       		.uleb128 0x11
 5689 01f1 01       		.uleb128 0x1
 5690 01f2 31       		.uleb128 0x31
 5691 01f3 13       		.uleb128 0x13
 5692 01f4 00       		.byte	0
 5693 01f5 00       		.byte	0
 5694 01f6 26       		.uleb128 0x26
 5695 01f7 2E       		.uleb128 0x2e
 5696 01f8 00       		.byte	0
 5697 01f9 03       		.uleb128 0x3
 5698 01fa 0E       		.uleb128 0xe
 5699 01fb 3A       		.uleb128 0x3a
 5700 01fc 0B       		.uleb128 0xb
 5701 01fd 3B       		.uleb128 0x3b
 5702 01fe 05       		.uleb128 0x5
 5703 01ff 39       		.uleb128 0x39
 5704 0200 0B       		.uleb128 0xb
 5705 0201 27       		.uleb128 0x27
 5706 0202 19       		.uleb128 0x19
 5707 0203 11       		.uleb128 0x11
 5708 0204 01       		.uleb128 0x1
 5709 0205 12       		.uleb128 0x12
 5710 0206 06       		.uleb128 0x6
 5711 0207 40       		.uleb128 0x40
 5712 0208 18       		.uleb128 0x18
 5713 0209 9742     		.uleb128 0x2117
 5714 020b 19       		.uleb128 0x19
 5715 020c 00       		.byte	0
 5716 020d 00       		.byte	0
 5717 020e 27       		.uleb128 0x27
 5718 020f 2E       		.uleb128 0x2e
 5719 0210 01       		.byte	0x1
 5720 0211 3F       		.uleb128 0x3f
 5721 0212 19       		.uleb128 0x19
 5722 0213 03       		.uleb128 0x3
 5723 0214 0E       		.uleb128 0xe
ARM GAS  C:\Users\jens-\AppData\Local\Temp\ccih1T9a.s 			page 146


 5724 0215 3A       		.uleb128 0x3a
 5725 0216 0B       		.uleb128 0xb
 5726 0217 3B       		.uleb128 0x3b
 5727 0218 05       		.uleb128 0x5
 5728 0219 39       		.uleb128 0x39
 5729 021a 0B       		.uleb128 0xb
 5730 021b 27       		.uleb128 0x27
 5731 021c 19       		.uleb128 0x19
 5732 021d 11       		.uleb128 0x11
 5733 021e 01       		.uleb128 0x1
 5734 021f 12       		.uleb128 0x12
 5735 0220 06       		.uleb128 0x6
 5736 0221 40       		.uleb128 0x40
 5737 0222 18       		.uleb128 0x18
 5738 0223 9742     		.uleb128 0x2117
 5739 0225 19       		.uleb128 0x19
 5740 0226 01       		.uleb128 0x1
 5741 0227 13       		.uleb128 0x13
 5742 0228 00       		.byte	0
 5743 0229 00       		.byte	0
 5744 022a 28       		.uleb128 0x28
 5745 022b 05       		.uleb128 0x5
 5746 022c 00       		.byte	0
 5747 022d 03       		.uleb128 0x3
 5748 022e 0E       		.uleb128 0xe
 5749 022f 3A       		.uleb128 0x3a
 5750 0230 0B       		.uleb128 0xb
 5751 0231 3B       		.uleb128 0x3b
 5752 0232 05       		.uleb128 0x5
 5753 0233 39       		.uleb128 0x39
 5754 0234 0B       		.uleb128 0xb
 5755 0235 49       		.uleb128 0x49
 5756 0236 13       		.uleb128 0x13
 5757 0237 02       		.uleb128 0x2
 5758 0238 17       		.uleb128 0x17
 5759 0239 B742     		.uleb128 0x2137
 5760 023b 17       		.uleb128 0x17
 5761 023c 00       		.byte	0
 5762 023d 00       		.byte	0
 5763 023e 29       		.uleb128 0x29
 5764 023f 898201   		.uleb128 0x4109
 5765 0242 01       		.byte	0x1
 5766 0243 11       		.uleb128 0x11
 5767 0244 01       		.uleb128 0x1
 5768 0245 31       		.uleb128 0x31
 5769 0246 13       		.uleb128 0x13
 5770 0247 01       		.uleb128 0x1
 5771 0248 13       		.uleb128 0x13
 5772 0249 00       		.byte	0
 5773 024a 00       		.byte	0
 5774 024b 2A       		.uleb128 0x2a
 5775 024c 8A8201   		.uleb128 0x410a
 5776 024f 00       		.byte	0
 5777 0250 02       		.uleb128 0x2
 5778 0251 18       		.uleb128 0x18
 5779 0252 9142     		.uleb128 0x2111
 5780 0254 18       		.uleb128 0x18
ARM GAS  C:\Users\jens-\AppData\Local\Temp\ccih1T9a.s 			page 147


 5781 0255 00       		.byte	0
 5782 0256 00       		.byte	0
 5783 0257 2B       		.uleb128 0x2b
 5784 0258 2E       		.uleb128 0x2e
 5785 0259 01       		.byte	0x1
 5786 025a 3F       		.uleb128 0x3f
 5787 025b 19       		.uleb128 0x19
 5788 025c 03       		.uleb128 0x3
 5789 025d 0E       		.uleb128 0xe
 5790 025e 3A       		.uleb128 0x3a
 5791 025f 0B       		.uleb128 0xb
 5792 0260 3B       		.uleb128 0x3b
 5793 0261 05       		.uleb128 0x5
 5794 0262 39       		.uleb128 0x39
 5795 0263 0B       		.uleb128 0xb
 5796 0264 27       		.uleb128 0x27
 5797 0265 19       		.uleb128 0x19
 5798 0266 49       		.uleb128 0x49
 5799 0267 13       		.uleb128 0x13
 5800 0268 11       		.uleb128 0x11
 5801 0269 01       		.uleb128 0x1
 5802 026a 12       		.uleb128 0x12
 5803 026b 06       		.uleb128 0x6
 5804 026c 40       		.uleb128 0x40
 5805 026d 18       		.uleb128 0x18
 5806 026e 9742     		.uleb128 0x2117
 5807 0270 19       		.uleb128 0x19
 5808 0271 01       		.uleb128 0x1
 5809 0272 13       		.uleb128 0x13
 5810 0273 00       		.byte	0
 5811 0274 00       		.byte	0
 5812 0275 2C       		.uleb128 0x2c
 5813 0276 34       		.uleb128 0x34
 5814 0277 00       		.byte	0
 5815 0278 03       		.uleb128 0x3
 5816 0279 0E       		.uleb128 0xe
 5817 027a 3A       		.uleb128 0x3a
 5818 027b 0B       		.uleb128 0xb
 5819 027c 3B       		.uleb128 0x3b
 5820 027d 05       		.uleb128 0x5
 5821 027e 39       		.uleb128 0x39
 5822 027f 0B       		.uleb128 0xb
 5823 0280 49       		.uleb128 0x49
 5824 0281 13       		.uleb128 0x13
 5825 0282 02       		.uleb128 0x2
 5826 0283 18       		.uleb128 0x18
 5827 0284 00       		.byte	0
 5828 0285 00       		.byte	0
 5829 0286 2D       		.uleb128 0x2d
 5830 0287 34       		.uleb128 0x34
 5831 0288 00       		.byte	0
 5832 0289 03       		.uleb128 0x3
 5833 028a 0E       		.uleb128 0xe
 5834 028b 3A       		.uleb128 0x3a
 5835 028c 0B       		.uleb128 0xb
 5836 028d 3B       		.uleb128 0x3b
 5837 028e 05       		.uleb128 0x5
ARM GAS  C:\Users\jens-\AppData\Local\Temp\ccih1T9a.s 			page 148


 5838 028f 39       		.uleb128 0x39
 5839 0290 0B       		.uleb128 0xb
 5840 0291 49       		.uleb128 0x49
 5841 0292 13       		.uleb128 0x13
 5842 0293 02       		.uleb128 0x2
 5843 0294 17       		.uleb128 0x17
 5844 0295 B742     		.uleb128 0x2137
 5845 0297 17       		.uleb128 0x17
 5846 0298 00       		.byte	0
 5847 0299 00       		.byte	0
 5848 029a 2E       		.uleb128 0x2e
 5849 029b 898201   		.uleb128 0x4109
 5850 029e 01       		.byte	0x1
 5851 029f 11       		.uleb128 0x11
 5852 02a0 01       		.uleb128 0x1
 5853 02a1 31       		.uleb128 0x31
 5854 02a2 13       		.uleb128 0x13
 5855 02a3 00       		.byte	0
 5856 02a4 00       		.byte	0
 5857 02a5 2F       		.uleb128 0x2f
 5858 02a6 34       		.uleb128 0x34
 5859 02a7 00       		.byte	0
 5860 02a8 03       		.uleb128 0x3
 5861 02a9 08       		.uleb128 0x8
 5862 02aa 3A       		.uleb128 0x3a
 5863 02ab 0B       		.uleb128 0xb
 5864 02ac 3B       		.uleb128 0x3b
 5865 02ad 05       		.uleb128 0x5
 5866 02ae 39       		.uleb128 0x39
 5867 02af 0B       		.uleb128 0xb
 5868 02b0 49       		.uleb128 0x49
 5869 02b1 13       		.uleb128 0x13
 5870 02b2 02       		.uleb128 0x2
 5871 02b3 17       		.uleb128 0x17
 5872 02b4 B742     		.uleb128 0x2137
 5873 02b6 17       		.uleb128 0x17
 5874 02b7 00       		.byte	0
 5875 02b8 00       		.byte	0
 5876 02b9 30       		.uleb128 0x30
 5877 02ba 2E       		.uleb128 0x2e
 5878 02bb 01       		.byte	0x1
 5879 02bc 3F       		.uleb128 0x3f
 5880 02bd 19       		.uleb128 0x19
 5881 02be 03       		.uleb128 0x3
 5882 02bf 0E       		.uleb128 0xe
 5883 02c0 3A       		.uleb128 0x3a
 5884 02c1 0B       		.uleb128 0xb
 5885 02c2 3B       		.uleb128 0x3b
 5886 02c3 0B       		.uleb128 0xb
 5887 02c4 39       		.uleb128 0x39
 5888 02c5 0B       		.uleb128 0xb
 5889 02c6 27       		.uleb128 0x27
 5890 02c7 19       		.uleb128 0x19
 5891 02c8 11       		.uleb128 0x11
 5892 02c9 01       		.uleb128 0x1
 5893 02ca 12       		.uleb128 0x12
 5894 02cb 06       		.uleb128 0x6
ARM GAS  C:\Users\jens-\AppData\Local\Temp\ccih1T9a.s 			page 149


 5895 02cc 40       		.uleb128 0x40
 5896 02cd 18       		.uleb128 0x18
 5897 02ce 9742     		.uleb128 0x2117
 5898 02d0 19       		.uleb128 0x19
 5899 02d1 01       		.uleb128 0x1
 5900 02d2 13       		.uleb128 0x13
 5901 02d3 00       		.byte	0
 5902 02d4 00       		.byte	0
 5903 02d5 31       		.uleb128 0x31
 5904 02d6 2E       		.uleb128 0x2e
 5905 02d7 00       		.byte	0
 5906 02d8 3F       		.uleb128 0x3f
 5907 02d9 19       		.uleb128 0x19
 5908 02da 3C       		.uleb128 0x3c
 5909 02db 19       		.uleb128 0x19
 5910 02dc 6E       		.uleb128 0x6e
 5911 02dd 0E       		.uleb128 0xe
 5912 02de 03       		.uleb128 0x3
 5913 02df 0E       		.uleb128 0xe
 5914 02e0 3A       		.uleb128 0x3a
 5915 02e1 0B       		.uleb128 0xb
 5916 02e2 3B       		.uleb128 0x3b
 5917 02e3 0B       		.uleb128 0xb
 5918 02e4 39       		.uleb128 0x39
 5919 02e5 0B       		.uleb128 0xb
 5920 02e6 00       		.byte	0
 5921 02e7 00       		.byte	0
 5922 02e8 00       		.byte	0
 5923              		.section	.debug_loc,"",%progbits
 5924              	.Ldebug_loc0:
 5925              	.LVUS14:
 5926 0000 00       		.uleb128 0
 5927 0001 00       		.uleb128 .LVU830
 5928 0002 00       		.uleb128 .LVU830
 5929 0003 00       		.uleb128 0
 5930              	.LLST14:
 5931 0004 00000000 		.4byte	.LVL100
 5932 0008 11000000 		.4byte	.LVL101-1
 5933 000c 0100     		.2byte	0x1
 5934 000e 50       		.byte	0x50
 5935 000f 11000000 		.4byte	.LVL101-1
 5936 0013 5C000000 		.4byte	.LFE11
 5937 0017 0400     		.2byte	0x4
 5938 0019 F3       		.byte	0xf3
 5939 001a 01       		.uleb128 0x1
 5940 001b 50       		.byte	0x50
 5941 001c 9F       		.byte	0x9f
 5942 001d 00000000 		.4byte	0
 5943 0021 00000000 		.4byte	0
 5944              	.LVUS13:
 5945 0025 00       		.uleb128 0
 5946 0026 00       		.uleb128 .LVU795
 5947 0027 00       		.uleb128 .LVU795
 5948 0028 00       		.uleb128 0
 5949              	.LLST13:
 5950 0029 00000000 		.4byte	.LVL97
 5951 002d 11000000 		.4byte	.LVL98-1
ARM GAS  C:\Users\jens-\AppData\Local\Temp\ccih1T9a.s 			page 150


 5952 0031 0100     		.2byte	0x1
 5953 0033 50       		.byte	0x50
 5954 0034 11000000 		.4byte	.LVL98-1
 5955 0038 5C000000 		.4byte	.LFE9
 5956 003c 0400     		.2byte	0x4
 5957 003e F3       		.byte	0xf3
 5958 003f 01       		.uleb128 0x1
 5959 0040 50       		.byte	0x50
 5960 0041 9F       		.byte	0x9f
 5961 0042 00000000 		.4byte	0
 5962 0046 00000000 		.4byte	0
 5963              	.LVUS10:
 5964 004a 00       		.uleb128 0
 5965 004b 00       		.uleb128 .LVU779
 5966 004c 00       		.uleb128 .LVU779
 5967 004d 00       		.uleb128 0
 5968              	.LLST10:
 5969 004e 00000000 		.4byte	.LVL92
 5970 0052 07000000 		.4byte	.LVL93-1
 5971 0056 0100     		.2byte	0x1
 5972 0058 50       		.byte	0x50
 5973 0059 07000000 		.4byte	.LVL93-1
 5974 005d 30000000 		.4byte	.LFE6
 5975 0061 0400     		.2byte	0x4
 5976 0063 F3       		.byte	0xf3
 5977 0064 01       		.uleb128 0x1
 5978 0065 50       		.byte	0x50
 5979 0066 9F       		.byte	0x9f
 5980 0067 00000000 		.4byte	0
 5981 006b 00000000 		.4byte	0
 5982              	.LVUS11:
 5983 006f 00       		.uleb128 .LVU779
 5984 0070 00       		.uleb128 .LVU787
 5985              	.LLST11:
 5986 0071 08000000 		.4byte	.LVL93
 5987 0075 23000000 		.4byte	.LVL95-1
 5988 0079 0100     		.2byte	0x1
 5989 007b 50       		.byte	0x50
 5990 007c 00000000 		.4byte	0
 5991 0080 00000000 		.4byte	0
 5992              	.LVUS12:
 5993 0084 00       		.uleb128 .LVU784
 5994 0085 00       		.uleb128 .LVU789
 5995 0086 00       		.uleb128 .LVU789
 5996 0087 00       		.uleb128 0
 5997              	.LLST12:
 5998 0088 18000000 		.4byte	.LVL94
 5999 008c 28000000 		.4byte	.LVL96
 6000 0090 0100     		.2byte	0x1
 6001 0092 55       		.byte	0x55
 6002 0093 28000000 		.4byte	.LVL96
 6003 0097 30000000 		.4byte	.LFE6
 6004 009b 0100     		.2byte	0x1
 6005 009d 50       		.byte	0x50
 6006 009e 00000000 		.4byte	0
 6007 00a2 00000000 		.4byte	0
 6008              	.LVUS8:
ARM GAS  C:\Users\jens-\AppData\Local\Temp\ccih1T9a.s 			page 151


 6009 00a6 00       		.uleb128 0
 6010 00a7 00       		.uleb128 .LVU699
 6011 00a8 00       		.uleb128 .LVU699
 6012 00a9 00       		.uleb128 0
 6013              	.LLST8:
 6014 00aa 00000000 		.4byte	.LVL83
 6015 00ae 07000000 		.4byte	.LVL84-1
 6016 00b2 0100     		.2byte	0x1
 6017 00b4 50       		.byte	0x50
 6018 00b5 07000000 		.4byte	.LVL84-1
 6019 00b9 F4000000 		.4byte	.LFE5
 6020 00bd 0400     		.2byte	0x4
 6021 00bf F3       		.byte	0xf3
 6022 00c0 01       		.uleb128 0x1
 6023 00c1 50       		.byte	0x50
 6024 00c2 9F       		.byte	0x9f
 6025 00c3 00000000 		.4byte	0
 6026 00c7 00000000 		.4byte	0
 6027              	.LVUS9:
 6028 00cb 00       		.uleb128 .LVU700
 6029 00cc 00       		.uleb128 .LVU706
 6030 00cd 00       		.uleb128 .LVU735
 6031 00ce 00       		.uleb128 .LVU736
 6032              	.LLST9:
 6033 00cf 0A000000 		.4byte	.LVL85
 6034 00d3 21000000 		.4byte	.LVL86-1
 6035 00d7 0100     		.2byte	0x1
 6036 00d9 50       		.byte	0x50
 6037 00da 72000000 		.4byte	.LVL87
 6038 00de 75000000 		.4byte	.LVL88-1
 6039 00e2 0100     		.2byte	0x1
 6040 00e4 50       		.byte	0x50
 6041 00e5 00000000 		.4byte	0
 6042 00e9 00000000 		.4byte	0
 6043              	.LVUS5:
 6044 00ed 00       		.uleb128 0
 6045 00ee 00       		.uleb128 .LVU618
 6046 00ef 00       		.uleb128 .LVU618
 6047 00f0 00       		.uleb128 0
 6048              	.LLST5:
 6049 00f1 00000000 		.4byte	.LVL71
 6050 00f5 09000000 		.4byte	.LVL72-1
 6051 00f9 0100     		.2byte	0x1
 6052 00fb 50       		.byte	0x50
 6053 00fc 09000000 		.4byte	.LVL72-1
 6054 0100 FC000000 		.4byte	.LFE3
 6055 0104 0400     		.2byte	0x4
 6056 0106 F3       		.byte	0xf3
 6057 0107 01       		.uleb128 0x1
 6058 0108 50       		.byte	0x50
 6059 0109 9F       		.byte	0x9f
 6060 010a 00000000 		.4byte	0
 6061 010e 00000000 		.4byte	0
 6062              	.LVUS6:
 6063 0112 00       		.uleb128 0
 6064 0113 00       		.uleb128 .LVU618
 6065 0114 00       		.uleb128 .LVU618
ARM GAS  C:\Users\jens-\AppData\Local\Temp\ccih1T9a.s 			page 152


 6066 0115 00       		.uleb128 0
 6067              	.LLST6:
 6068 0116 00000000 		.4byte	.LVL71
 6069 011a 09000000 		.4byte	.LVL72-1
 6070 011e 0100     		.2byte	0x1
 6071 0120 51       		.byte	0x51
 6072 0121 09000000 		.4byte	.LVL72-1
 6073 0125 FC000000 		.4byte	.LFE3
 6074 0129 0400     		.2byte	0x4
 6075 012b F3       		.byte	0xf3
 6076 012c 01       		.uleb128 0x1
 6077 012d 51       		.byte	0x51
 6078 012e 9F       		.byte	0x9f
 6079 012f 00000000 		.4byte	0
 6080 0133 00000000 		.4byte	0
 6081              	.LVUS7:
 6082 0137 00       		.uleb128 .LVU619
 6083 0138 00       		.uleb128 .LVU625
 6084 0139 00       		.uleb128 .LVU682
 6085 013a 00       		.uleb128 .LVU683
 6086 013b 00       		.uleb128 .LVU684
 6087 013c 00       		.uleb128 .LVU685
 6088              	.LLST7:
 6089 013d 0C000000 		.4byte	.LVL73
 6090 0141 24000000 		.4byte	.LVL74
 6091 0145 0100     		.2byte	0x1
 6092 0147 50       		.byte	0x50
 6093 0148 B8000000 		.4byte	.LVL78
 6094 014c BB000000 		.4byte	.LVL79-1
 6095 0150 0100     		.2byte	0x1
 6096 0152 50       		.byte	0x50
 6097 0153 BE000000 		.4byte	.LVL80
 6098 0157 C0000000 		.4byte	.LVL81
 6099 015b 0100     		.2byte	0x1
 6100 015d 50       		.byte	0x50
 6101 015e 00000000 		.4byte	0
 6102 0162 00000000 		.4byte	0
 6103              	.LVUS3:
 6104 0166 00       		.uleb128 0
 6105 0167 00       		.uleb128 .LVU570
 6106 0168 00       		.uleb128 .LVU570
 6107 0169 00       		.uleb128 .LVU610
 6108 016a 00       		.uleb128 .LVU610
 6109 016b 00       		.uleb128 .LVU611
 6110 016c 00       		.uleb128 .LVU611
 6111 016d 00       		.uleb128 0
 6112              	.LLST3:
 6113 016e 00000000 		.4byte	.LVL66
 6114 0172 06000000 		.4byte	.LVL67
 6115 0176 0100     		.2byte	0x1
 6116 0178 50       		.byte	0x50
 6117 0179 06000000 		.4byte	.LVL67
 6118 017d 50000000 		.4byte	.LVL68
 6119 0181 0400     		.2byte	0x4
 6120 0183 F3       		.byte	0xf3
 6121 0184 01       		.uleb128 0x1
 6122 0185 50       		.byte	0x50
ARM GAS  C:\Users\jens-\AppData\Local\Temp\ccih1T9a.s 			page 153


 6123 0186 9F       		.byte	0x9f
 6124 0187 50000000 		.4byte	.LVL68
 6125 018b 52000000 		.4byte	.LVL69
 6126 018f 0100     		.2byte	0x1
 6127 0191 50       		.byte	0x50
 6128 0192 52000000 		.4byte	.LVL69
 6129 0196 6C000000 		.4byte	.LFE2
 6130 019a 0400     		.2byte	0x4
 6131 019c F3       		.byte	0xf3
 6132 019d 01       		.uleb128 0x1
 6133 019e 50       		.byte	0x50
 6134 019f 9F       		.byte	0x9f
 6135 01a0 00000000 		.4byte	0
 6136 01a4 00000000 		.4byte	0
 6137              	.LVUS4:
 6138 01a8 00       		.uleb128 0
 6139 01a9 00       		.uleb128 .LVU570
 6140 01aa 00       		.uleb128 .LVU570
 6141 01ab 00       		.uleb128 .LVU610
 6142 01ac 00       		.uleb128 .LVU610
 6143 01ad 00       		.uleb128 .LVU612
 6144 01ae 00       		.uleb128 .LVU612
 6145 01af 00       		.uleb128 0
 6146              	.LLST4:
 6147 01b0 00000000 		.4byte	.LVL66
 6148 01b4 06000000 		.4byte	.LVL67
 6149 01b8 0100     		.2byte	0x1
 6150 01ba 51       		.byte	0x51
 6151 01bb 06000000 		.4byte	.LVL67
 6152 01bf 50000000 		.4byte	.LVL68
 6153 01c3 0400     		.2byte	0x4
 6154 01c5 F3       		.byte	0xf3
 6155 01c6 01       		.uleb128 0x1
 6156 01c7 51       		.byte	0x51
 6157 01c8 9F       		.byte	0x9f
 6158 01c9 50000000 		.4byte	.LVL68
 6159 01cd 55000000 		.4byte	.LVL70-1
 6160 01d1 0100     		.2byte	0x1
 6161 01d3 51       		.byte	0x51
 6162 01d4 55000000 		.4byte	.LVL70-1
 6163 01d8 6C000000 		.4byte	.LFE2
 6164 01dc 0400     		.2byte	0x4
 6165 01de F3       		.byte	0xf3
 6166 01df 01       		.uleb128 0x1
 6167 01e0 51       		.byte	0x51
 6168 01e1 9F       		.byte	0x9f
 6169 01e2 00000000 		.4byte	0
 6170 01e6 00000000 		.4byte	0
 6171              	.LVUS0:
 6172 01ea 01       		.uleb128 .LVU424
 6173 01eb 00       		.uleb128 .LVU434
 6174 01ec 00       		.uleb128 .LVU504
 6175 01ed 00       		.uleb128 .LVU526
 6176 01ee 01       		.uleb128 .LVU540
 6177 01ef 00       		.uleb128 .LVU558
 6178              	.LLST0:
 6179 01f0 04000000 		.4byte	.LVL30
ARM GAS  C:\Users\jens-\AppData\Local\Temp\ccih1T9a.s 			page 154


 6180 01f4 2E000000 		.4byte	.LVL31
 6181 01f8 0200     		.2byte	0x2
 6182 01fa 40       		.byte	0x40
 6183 01fb 9F       		.byte	0x9f
 6184 01fc 3C010000 		.4byte	.LVL38
 6185 0200 9A010000 		.4byte	.LVL46
 6186 0204 0200     		.2byte	0x2
 6187 0206 40       		.byte	0x40
 6188 0207 9F       		.byte	0x9f
 6189 0208 EA010000 		.4byte	.LVL52
 6190 020c 24020000 		.4byte	.LVL60
 6191 0210 0200     		.2byte	0x2
 6192 0212 40       		.byte	0x40
 6193 0213 9F       		.byte	0x9f
 6194 0214 00000000 		.4byte	0
 6195 0218 00000000 		.4byte	0
 6196              	.LVUS1:
 6197 021c 01       		.uleb128 .LVU513
 6198 021d 00       		.uleb128 .LVU514
 6199 021e 00       		.uleb128 .LVU514
 6200 021f 00       		.uleb128 .LVU524
 6201 0220 00       		.uleb128 .LVU525
 6202 0221 00       		.uleb128 .LVU526
 6203 0222 01       		.uleb128 .LVU545
 6204 0223 00       		.uleb128 .LVU547
 6205 0224 00       		.uleb128 .LVU547
 6206 0225 00       		.uleb128 .LVU549
 6207 0226 00       		.uleb128 .LVU550
 6208 0227 00       		.uleb128 .LVU558
 6209              	.LLST1:
 6210 0228 6A010000 		.4byte	.LVL41
 6211 022c 6C010000 		.4byte	.LVL42
 6212 0230 0200     		.2byte	0x2
 6213 0232 35       		.byte	0x35
 6214 0233 9F       		.byte	0x9f
 6215 0234 6C010000 		.4byte	.LVL42
 6216 0238 96010000 		.4byte	.LVL44
 6217 023c 0100     		.2byte	0x1
 6218 023e 54       		.byte	0x54
 6219 023f 98010000 		.4byte	.LVL45
 6220 0243 9A010000 		.4byte	.LVL46
 6221 0247 0100     		.2byte	0x1
 6222 0249 54       		.byte	0x54
 6223 024a FA010000 		.4byte	.LVL55
 6224 024e FE010000 		.4byte	.LVL56
 6225 0252 0300     		.2byte	0x3
 6226 0254 08       		.byte	0x8
 6227 0255 AB       		.byte	0xab
 6228 0256 9F       		.byte	0x9f
 6229 0257 FE010000 		.4byte	.LVL56
 6230 025b 00020000 		.4byte	.LVL57
 6231 025f 0100     		.2byte	0x1
 6232 0261 54       		.byte	0x54
 6233 0262 02020000 		.4byte	.LVL58
 6234 0266 24020000 		.4byte	.LVL60
 6235 026a 0100     		.2byte	0x1
 6236 026c 54       		.byte	0x54
ARM GAS  C:\Users\jens-\AppData\Local\Temp\ccih1T9a.s 			page 155


 6237 026d 00000000 		.4byte	0
 6238 0271 00000000 		.4byte	0
 6239              	.LVUS2:
 6240 0275 00       		.uleb128 .LVU485
 6241 0276 00       		.uleb128 .LVU488
 6242 0277 00       		.uleb128 .LVU488
 6243 0278 00       		.uleb128 .LVU491
 6244 0279 00       		.uleb128 .LVU565
 6245 027a 00       		.uleb128 .LVU566
 6246              	.LLST2:
 6247 027b 02010000 		.4byte	.LVL35
 6248 027f 0A010000 		.4byte	.LVL36
 6249 0283 0500     		.2byte	0x5
 6250 0285 72       		.byte	0x72
 6251 0286 00       		.sleb128 0
 6252 0287 38       		.byte	0x38
 6253 0288 24       		.byte	0x24
 6254 0289 9F       		.byte	0x9f
 6255 028a 0A010000 		.4byte	.LVL36
 6256 028e 14010000 		.4byte	.LVL37
 6257 0292 0100     		.2byte	0x1
 6258 0294 53       		.byte	0x53
 6259 0295 4C020000 		.4byte	.LVL64
 6260 0299 4F020000 		.4byte	.LVL65-1
 6261 029d 0100     		.2byte	0x1
 6262 029f 53       		.byte	0x53
 6263 02a0 00000000 		.4byte	0
 6264 02a4 00000000 		.4byte	0
 6265              		.section	.debug_aranges,"",%progbits
 6266 0000 94000000 		.4byte	0x94
 6267 0004 0200     		.2byte	0x2
 6268 0006 00000000 		.4byte	.Ldebug_info0
 6269 000a 04       		.byte	0x4
 6270 000b 00       		.byte	0
 6271 000c 0000     		.2byte	0
 6272 000e 0000     		.2byte	0
 6273 0010 00000000 		.4byte	.LFB12
 6274 0014 A4010000 		.4byte	.LFE12-.LFB12
 6275 0018 00000000 		.4byte	.LFB13
 6276 001c D8000000 		.4byte	.LFE13-.LFB13
 6277 0020 00000000 		.4byte	.LFB14
 6278 0024 A0000000 		.4byte	.LFE14-.LFB14
 6279 0028 00000000 		.4byte	.LFB7
 6280 002c 98000000 		.4byte	.LFE7-.LFB7
 6281 0030 00000000 		.4byte	.LFB15
 6282 0034 4C000000 		.4byte	.LFE15-.LFB15
 6283 0038 00000000 		.4byte	.LFB8
 6284 003c 64000000 		.4byte	.LFE8-.LFB8
 6285 0040 00000000 		.4byte	.LFB0
 6286 0044 2C020000 		.4byte	.LFE0-.LFB0
 6287 0048 00000000 		.4byte	.LFB1
 6288 004c 84020000 		.4byte	.LFE1-.LFB1
 6289 0050 00000000 		.4byte	.LFB2
 6290 0054 6C000000 		.4byte	.LFE2-.LFB2
 6291 0058 00000000 		.4byte	.LFB3
 6292 005c FC000000 		.4byte	.LFE3-.LFB3
 6293 0060 00000000 		.4byte	.LFB5
ARM GAS  C:\Users\jens-\AppData\Local\Temp\ccih1T9a.s 			page 156


 6294 0064 F4000000 		.4byte	.LFE5-.LFB5
 6295 0068 00000000 		.4byte	.LFB4
 6296 006c 0A000000 		.4byte	.LFE4-.LFB4
 6297 0070 00000000 		.4byte	.LFB6
 6298 0074 30000000 		.4byte	.LFE6-.LFB6
 6299 0078 00000000 		.4byte	.LFB9
 6300 007c 5C000000 		.4byte	.LFE9-.LFB9
 6301 0080 00000000 		.4byte	.LFB10
 6302 0084 30000000 		.4byte	.LFE10-.LFB10
 6303 0088 00000000 		.4byte	.LFB11
 6304 008c 5C000000 		.4byte	.LFE11-.LFB11
 6305 0090 00000000 		.4byte	0
 6306 0094 00000000 		.4byte	0
 6307              		.section	.debug_ranges,"",%progbits
 6308              	.Ldebug_ranges0:
 6309 0000 00000000 		.4byte	.LFB12
 6310 0004 A4010000 		.4byte	.LFE12
 6311 0008 00000000 		.4byte	.LFB13
 6312 000c D8000000 		.4byte	.LFE13
 6313 0010 00000000 		.4byte	.LFB14
 6314 0014 A0000000 		.4byte	.LFE14
 6315 0018 00000000 		.4byte	.LFB7
 6316 001c 98000000 		.4byte	.LFE7
 6317 0020 00000000 		.4byte	.LFB15
 6318 0024 4C000000 		.4byte	.LFE15
 6319 0028 00000000 		.4byte	.LFB8
 6320 002c 64000000 		.4byte	.LFE8
 6321 0030 00000000 		.4byte	.LFB0
 6322 0034 2C020000 		.4byte	.LFE0
 6323 0038 00000000 		.4byte	.LFB1
 6324 003c 84020000 		.4byte	.LFE1
 6325 0040 00000000 		.4byte	.LFB2
 6326 0044 6C000000 		.4byte	.LFE2
 6327 0048 00000000 		.4byte	.LFB3
 6328 004c FC000000 		.4byte	.LFE3
 6329 0050 00000000 		.4byte	.LFB5
 6330 0054 F4000000 		.4byte	.LFE5
 6331 0058 00000000 		.4byte	.LFB4
 6332 005c 0A000000 		.4byte	.LFE4
 6333 0060 00000000 		.4byte	.LFB6
 6334 0064 30000000 		.4byte	.LFE6
 6335 0068 00000000 		.4byte	.LFB9
 6336 006c 5C000000 		.4byte	.LFE9
 6337 0070 00000000 		.4byte	.LFB10
 6338 0074 30000000 		.4byte	.LFE10
 6339 0078 00000000 		.4byte	.LFB11
 6340 007c 5C000000 		.4byte	.LFE11
 6341 0080 00000000 		.4byte	0
 6342 0084 00000000 		.4byte	0
 6343              		.section	.debug_line,"",%progbits
 6344              	.Ldebug_line0:
 6345 0000 8A0E0000 		.section	.debug_str,"MS",%progbits,1
 6345      0300F001 
 6345      00000201 
 6345      FB0E0D00 
 6345      01010101 
 6346              	.LASF46:
ARM GAS  C:\Users\jens-\AppData\Local\Temp\ccih1T9a.s 			page 157


 6347 0000 5F64736F 		.ascii	"_dso_handle\000"
 6347      5F68616E 
 6347      646C6500 
 6348              	.LASF209:
 6349 000c 43795664 		.ascii	"CyVdLvAnalogDisable\000"
 6349      4C76416E 
 6349      616C6F67 
 6349      44697361 
 6349      626C6500 
 6350              	.LASF10:
 6351 0020 75696E74 		.ascii	"uint16\000"
 6351      313600
 6352              	.LASF54:
 6353 0027 5F73697A 		.ascii	"_size\000"
 6353      6500
 6354              	.LASF45:
 6355 002d 5F666E61 		.ascii	"_fnargs\000"
 6355      72677300 
 6356              	.LASF181:
 6357 0035 4379506D 		.ascii	"CyPmHibSlpRestore\000"
 6357      48696253 
 6357      6C705265 
 6357      73746F72 
 6357      6500
 6358              	.LASF98:
 6359 0047 5F72616E 		.ascii	"_rand48\000"
 6359      64343800 
 6360              	.LASF78:
 6361 004f 5F656D65 		.ascii	"_emergency\000"
 6361      7267656E 
 6361      637900
 6362              	.LASF161:
 6363 005a 77616B65 		.ascii	"wakeupTrim0\000"
 6363      75705472 
 6363      696D3000 
 6364              	.LASF162:
 6365 0066 77616B65 		.ascii	"wakeupTrim1\000"
 6365      75705472 
 6365      696D3100 
 6366              	.LASF163:
 6367 0072 77616B65 		.ascii	"wakeupTrim3\000"
 6367      75705472 
 6367      696D3300 
 6368              	.LASF139:
 6369 007e 6D617374 		.ascii	"masterClkSrc\000"
 6369      6572436C 
 6369      6B537263 
 6369      00
 6370              	.LASF68:
 6371 008b 5F646174 		.ascii	"_data\000"
 6371      6100
 6372              	.LASF175:
 6373 0091 43595F50 		.ascii	"CY_PM_BACKUP_STRUCT\000"
 6373      4D5F4241 
 6373      434B5550 
 6373      5F535452 
 6373      55435400 
ARM GAS  C:\Users\jens-\AppData\Local\Temp\ccih1T9a.s 			page 158


 6374              	.LASF118:
 6375 00a5 5F776372 		.ascii	"_wcrtomb_state\000"
 6375      746F6D62 
 6375      5F737461 
 6375      746500
 6376              	.LASF119:
 6377 00b4 5F776373 		.ascii	"_wcsrtombs_state\000"
 6377      72746F6D 
 6377      62735F73 
 6377      74617465 
 6377      00
 6378              	.LASF147:
 6379 00c5 636C6B53 		.ascii	"clkSyncDiv\000"
 6379      796E6344 
 6379      697600
 6380              	.LASF7:
 6381 00d0 6C6F6E67 		.ascii	"long long unsigned int\000"
 6381      206C6F6E 
 6381      6720756E 
 6381      7369676E 
 6381      65642069 
 6382              	.LASF58:
 6383 00e7 5F6C6266 		.ascii	"_lbfsize\000"
 6383      73697A65 
 6383      00
 6384              	.LASF193:
 6385 00f0 746D7053 		.ascii	"tmpStatus\000"
 6385      74617475 
 6385      7300
 6386              	.LASF168:
 6387 00fa 6C766961 		.ascii	"lviaTrip\000"
 6387      54726970 
 6387      00
 6388              	.LASF141:
 6389 0103 696D6F55 		.ascii	"imoUsbClk\000"
 6389      7362436C 
 6389      6B00
 6390              	.LASF125:
 6391 010d 5F5F6C6F 		.ascii	"__locale_t\000"
 6391      63616C65 
 6391      5F7400
 6392              	.LASF123:
 6393 0118 5F756E75 		.ascii	"_unused\000"
 6393      73656400 
 6394              	.LASF169:
 6395 0120 68766961 		.ascii	"hviaEn\000"
 6395      456E00
 6396              	.LASF135:
 6397 0127 64696554 		.ascii	"dieTemperature\000"
 6397      656D7065 
 6397      72617475 
 6397      726500
 6398              	.LASF116:
 6399 0136 5F6D6272 		.ascii	"_mbrtowc_state\000"
 6399      746F7763 
 6399      5F737461 
 6399      746500
ARM GAS  C:\Users\jens-\AppData\Local\Temp\ccih1T9a.s 			page 159


 6400              	.LASF132:
 6401 0145 63796465 		.ascii	"cydelay_freq_mhz\000"
 6401      6C61795F 
 6401      66726571 
 6401      5F6D687A 
 6401      00
 6402              	.LASF35:
 6403 0156 5F5F746D 		.ascii	"__tm_sec\000"
 6403      5F736563 
 6403      00
 6404              	.LASF154:
 6405 015f 696C6F50 		.ascii	"iloPowerMode\000"
 6405      6F776572 
 6405      4D6F6465 
 6405      00
 6406              	.LASF6:
 6407 016c 6C6F6E67 		.ascii	"long long int\000"
 6407      206C6F6E 
 6407      6720696E 
 6407      7400
 6408              	.LASF0:
 6409 017a 7369676E 		.ascii	"signed char\000"
 6409      65642063 
 6409      68617200 
 6410              	.LASF148:
 6411 0186 636C6B42 		.ascii	"clkBusDiv\000"
 6411      75734469 
 6411      7600
 6412              	.LASF64:
 6413 0190 5F756275 		.ascii	"_ubuf\000"
 6413      6600
 6414              	.LASF53:
 6415 0196 5F626173 		.ascii	"_base\000"
 6415      6500
 6416              	.LASF37:
 6417 019c 5F5F746D 		.ascii	"__tm_hour\000"
 6417      5F686F75 
 6417      7200
 6418              	.LASF22:
 6419 01a6 5F5F7763 		.ascii	"__wch\000"
 6419      6800
 6420              	.LASF93:
 6421 01ac 5F5F7366 		.ascii	"__sf\000"
 6421      00
 6422              	.LASF44:
 6423 01b1 5F6F6E5F 		.ascii	"_on_exit_args\000"
 6423      65786974 
 6423      5F617267 
 6423      7300
 6424              	.LASF213:
 6425 01bf 4379494C 		.ascii	"CyILO_Start1K\000"
 6425      4F5F5374 
 6425      61727431 
 6425      4B00
 6426              	.LASF59:
 6427 01cd 5F636F6F 		.ascii	"_cookie\000"
 6427      6B696500 
ARM GAS  C:\Users\jens-\AppData\Local\Temp\ccih1T9a.s 			page 160


 6428              	.LASF92:
 6429 01d5 5F5F7367 		.ascii	"__sglue\000"
 6429      6C756500 
 6430              	.LASF146:
 6431 01dd 696D6F32 		.ascii	"imo2x\000"
 6431      7800
 6432              	.LASF4:
 6433 01e3 6C6F6E67 		.ascii	"long int\000"
 6433      20696E74 
 6433      00
 6434              	.LASF179:
 6435 01ec 4379506D 		.ascii	"CyPmHviLviRestore\000"
 6435      4876694C 
 6435      76695265 
 6435      73746F72 
 6435      6500
 6436              	.LASF56:
 6437 01fe 5F666C61 		.ascii	"_flags\000"
 6437      677300
 6438              	.LASF48:
 6439 0205 5F69735F 		.ascii	"_is_cxa\000"
 6439      63786100 
 6440              	.LASF74:
 6441 020d 5F737464 		.ascii	"_stdin\000"
 6441      696E00
 6442              	.LASF66:
 6443 0214 5F626C6B 		.ascii	"_blksize\000"
 6443      73697A65 
 6443      00
 6444              	.LASF9:
 6445 021d 75696E74 		.ascii	"uint8\000"
 6445      3800
 6446              	.LASF228:
 6447 0223 43794465 		.ascii	"CyDelayUs\000"
 6447      6C617955 
 6447      7300
 6448              	.LASF13:
 6449 022d 646F7562 		.ascii	"double\000"
 6449      6C6500
 6450              	.LASF88:
 6451 0234 5F637674 		.ascii	"_cvtbuf\000"
 6451      62756600 
 6452              	.LASF67:
 6453 023c 5F6F6666 		.ascii	"_offset\000"
 6453      73657400 
 6454              	.LASF117:
 6455 0244 5F6D6273 		.ascii	"_mbsrtowcs_state\000"
 6455      72746F77 
 6455      63735F73 
 6455      74617465 
 6455      00
 6456              	.LASF115:
 6457 0255 5F6D6272 		.ascii	"_mbrlen_state\000"
 6457      6C656E5F 
 6457      73746174 
 6457      6500
 6458              	.LASF11:
ARM GAS  C:\Users\jens-\AppData\Local\Temp\ccih1T9a.s 			page 161


 6459 0263 75696E74 		.ascii	"uint32\000"
 6459      333200
 6460              	.LASF150:
 6461 026a 786D687A 		.ascii	"xmhzEnableState\000"
 6461      456E6162 
 6461      6C655374 
 6461      61746500 
 6462              	.LASF212:
 6463 027a 43795854 		.ascii	"CyXTAL_32KHZ_Start\000"
 6463      414C5F33 
 6463      324B485A 
 6463      5F537461 
 6463      727400
 6464              	.LASF221:
 6465 028d 43794465 		.ascii	"CyDelayCycles\000"
 6465      6C617943 
 6465      79636C65 
 6465      7300
 6466              	.LASF188:
 6467 029b 4379506D 		.ascii	"CyPmHibRestore\000"
 6467      48696252 
 6467      6573746F 
 6467      726500
 6468              	.LASF51:
 6469 02aa 5F666E73 		.ascii	"_fns\000"
 6469      00
 6470              	.LASF190:
 6471 02af 6D61736B 		.ascii	"mask\000"
 6471      00
 6472              	.LASF31:
 6473 02b4 5F736967 		.ascii	"_sign\000"
 6473      6E00
 6474              	.LASF27:
 6475 02ba 5F666C6F 		.ascii	"_flock_t\000"
 6475      636B5F74 
 6475      00
 6476              	.LASF76:
 6477 02c3 5F737464 		.ascii	"_stderr\000"
 6477      65727200 
 6478              	.LASF33:
 6479 02cb 5F426967 		.ascii	"_Bigint\000"
 6479      696E7400 
 6480              	.LASF106:
 6481 02d3 5F67616D 		.ascii	"_gamma_signgam\000"
 6481      6D615F73 
 6481      69676E67 
 6481      616D00
 6482              	.LASF207:
 6483 02e2 43795664 		.ascii	"CyVdHvAnalogEnable\000"
 6483      4876416E 
 6483      616C6F67 
 6483      456E6162 
 6483      6C6500
 6484              	.LASF172:
 6485 02f5 696D6F41 		.ascii	"imoActFreq\000"
 6485      63744672 
 6485      657100
ARM GAS  C:\Users\jens-\AppData\Local\Temp\ccih1T9a.s 			page 162


 6486              	.LASF60:
 6487 0300 5F726561 		.ascii	"_read\000"
 6487      6400
 6488              	.LASF84:
 6489 0306 5F726573 		.ascii	"_result_k\000"
 6489      756C745F 
 6489      6B00
 6490              	.LASF34:
 6491 0310 5F5F746D 		.ascii	"__tm\000"
 6491      00
 6492              	.LASF8:
 6493 0315 756E7369 		.ascii	"unsigned int\000"
 6493      676E6564 
 6493      20696E74 
 6493      00
 6494              	.LASF23:
 6495 0322 5F5F7763 		.ascii	"__wchb\000"
 6495      686200
 6496              	.LASF75:
 6497 0329 5F737464 		.ascii	"_stdout\000"
 6497      6F757400 
 6498              	.LASF87:
 6499 0331 5F637674 		.ascii	"_cvtlen\000"
 6499      6C656E00 
 6500              	.LASF5:
 6501 0339 6C6F6E67 		.ascii	"long unsigned int\000"
 6501      20756E73 
 6501      69676E65 
 6501      6420696E 
 6501      7400
 6502              	.LASF57:
 6503 034b 5F66696C 		.ascii	"_file\000"
 6503      6500
 6504              	.LASF220:
 6505 0351 4379494D 		.ascii	"CyIMO_SetSource\000"
 6505      4F5F5365 
 6505      74536F75 
 6505      72636500 
 6506              	.LASF192:
 6507 0361 696E7465 		.ascii	"interruptState\000"
 6507      72727570 
 6507      74537461 
 6507      746500
 6508              	.LASF165:
 6509 0370 6C766964 		.ascii	"lvidEn\000"
 6509      456E00
 6510              	.LASF136:
 6511 0377 6379506D 		.ascii	"cyPmClockBackupStruct\000"
 6511      436C6F63 
 6511      6B426163 
 6511      6B757053 
 6511      74727563 
 6512              	.LASF215:
 6513 038d 4379456E 		.ascii	"CyEnterCriticalSection\000"
 6513      74657243 
 6513      72697469 
 6513      63616C53 
ARM GAS  C:\Users\jens-\AppData\Local\Temp\ccih1T9a.s 			page 163


 6513      65637469 
 6514              	.LASF96:
 6515 03a4 5F6E696F 		.ascii	"_niobs\000"
 6515      627300
 6516              	.LASF153:
 6517 03ab 6379506D 		.ascii	"cyPmBackupStruct\000"
 6517      4261636B 
 6517      75705374 
 6517      72756374 
 6517      00
 6518              	.LASF214:
 6519 03bc 4379494C 		.ascii	"CyILO_SetPowerMode\000"
 6519      4F5F5365 
 6519      74506F77 
 6519      65724D6F 
 6519      646500
 6520              	.LASF229:
 6521 03cf 4379494D 		.ascii	"CyIMO_Stop\000"
 6521      4F5F5374 
 6521      6F7000
 6522              	.LASF152:
 6523 03da 43595F50 		.ascii	"CY_PM_CLOCK_BACKUP_STRUCT\000"
 6523      4D5F434C 
 6523      4F434B5F 
 6523      4241434B 
 6523      55505F53 
 6524              	.LASF3:
 6525 03f4 73686F72 		.ascii	"short unsigned int\000"
 6525      7420756E 
 6525      7369676E 
 6525      65642069 
 6525      6E7400
 6526              	.LASF90:
 6527 0407 5F617465 		.ascii	"_atexit0\000"
 6527      78697430 
 6527      00
 6528              	.LASF113:
 6529 0410 5F736967 		.ascii	"_signal_buf\000"
 6529      6E616C5F 
 6529      62756600 
 6530              	.LASF104:
 6531 041c 5F617363 		.ascii	"_asctime_buf\000"
 6531      74696D65 
 6531      5F627566 
 6531      00
 6532              	.LASF187:
 6533 0429 63747749 		.ascii	"ctwInterval\000"
 6533      6E746572 
 6533      76616C00 
 6534              	.LASF142:
 6535 0435 666C6173 		.ascii	"flashWaitCycles\000"
 6535      68576169 
 6535      74437963 
 6535      6C657300 
 6536              	.LASF83:
 6537 0445 5F726573 		.ascii	"_result\000"
 6537      756C7400 
ARM GAS  C:\Users\jens-\AppData\Local\Temp\ccih1T9a.s 			page 164


 6538              	.LASF235:
 6539 044d 47656E65 		.ascii	"Generated_Source\\PSoC5\\cyPm.c\000"
 6539      72617465 
 6539      645F536F 
 6539      75726365 
 6539      5C50536F 
 6540              	.LASF18:
 6541 046b 5F4C4F43 		.ascii	"_LOCK_T\000"
 6541      4B5F5400 
 6542              	.LASF21:
 6543 0473 77696E74 		.ascii	"wint_t\000"
 6543      5F7400
 6544              	.LASF158:
 6545 047a 77616B65 		.ascii	"wakeupCfg0\000"
 6545      75704366 
 6545      673000
 6546              	.LASF159:
 6547 0485 77616B65 		.ascii	"wakeupCfg1\000"
 6547      75704366 
 6547      673100
 6548              	.LASF69:
 6549 0490 5F6C6F63 		.ascii	"_lock\000"
 6549      6B00
 6550              	.LASF202:
 6551 0496 636C6B42 		.ascii	"clkBusDivTmp\000"
 6551      75734469 
 6551      76546D70 
 6551      00
 6552              	.LASF71:
 6553 04a3 5F666C61 		.ascii	"_flags2\000"
 6553      67733200 
 6554              	.LASF160:
 6555 04ab 77616B65 		.ascii	"wakeupCfg2\000"
 6555      75704366 
 6555      673200
 6556              	.LASF145:
 6557 04b6 636C6B49 		.ascii	"clkImoSrc\000"
 6557      6D6F5372 
 6557      6300
 6558              	.LASF204:
 6559 04c0 4379506D 		.ascii	"CyPmSaveClocks\000"
 6559      53617665 
 6559      436C6F63 
 6559      6B7300
 6560              	.LASF234:
 6561 04cf 474E5520 		.ascii	"GNU C17 9.2.1 20191025 (release) [ARM/arm-9-branch "
 6561      43313720 
 6561      392E322E 
 6561      31203230 
 6561      31393130 
 6562 0502 72657669 		.ascii	"revision 277599] -mcpu=cortex-m3 -mthumb -mfloat-ab"
 6562      73696F6E 
 6562      20323737 
 6562      3539395D 
 6562      202D6D63 
 6563 0535 693D736F 		.ascii	"i=soft -march=armv7-m -g -Og -ffunction-sections -f"
 6563      6674202D 
ARM GAS  C:\Users\jens-\AppData\Local\Temp\ccih1T9a.s 			page 165


 6563      6D617263 
 6563      683D6172 
 6563      6D76372D 
 6564 0568 6661742D 		.ascii	"fat-lto-objects\000"
 6564      6C746F2D 
 6564      6F626A65 
 6564      63747300 
 6565              	.LASF225:
 6566 0578 4379494D 		.ascii	"CyIMO_Start\000"
 6566      4F5F5374 
 6566      61727400 
 6567              	.LASF222:
 6568 0584 43795854 		.ascii	"CyXTAL_Start\000"
 6568      414C5F53 
 6568      74617274 
 6568      00
 6569              	.LASF61:
 6570 0591 5F777269 		.ascii	"_write\000"
 6570      746500
 6571              	.LASF40:
 6572 0598 5F5F746D 		.ascii	"__tm_year\000"
 6572      5F796561 
 6572      7200
 6573              	.LASF210:
 6574 05a2 43795664 		.ascii	"CyVdHvAnalogDisable\000"
 6574      4876416E 
 6574      616C6F67 
 6574      44697361 
 6574      626C6500 
 6575              	.LASF176:
 6576 05b6 6379506D 		.ascii	"cyPmBackup\000"
 6576      4261636B 
 6576      757000
 6577              	.LASF131:
 6578 05c1 63796465 		.ascii	"cydelay_freq_khz\000"
 6578      6C61795F 
 6578      66726571 
 6578      5F6B687A 
 6578      00
 6579              	.LASF140:
 6580 05d2 696D6F46 		.ascii	"imoFreq\000"
 6580      72657100 
 6581              	.LASF194:
 6582 05da 4379506D 		.ascii	"CyPmHibernateEx\000"
 6582      48696265 
 6582      726E6174 
 6582      65457800 
 6583              	.LASF17:
 6584 05ea 6C6F6E67 		.ascii	"long double\000"
 6584      20646F75 
 6584      626C6500 
 6585              	.LASF203:
 6586 05f6 6379506D 		.ascii	"cyPmImoFreqMhz2Reg\000"
 6586      496D6F46 
 6586      7265714D 
 6586      687A3252 
 6586      656700
ARM GAS  C:\Users\jens-\AppData\Local\Temp\ccih1T9a.s 			page 166


 6587              	.LASF232:
 6588 0609 4379494D 		.ascii	"CyIMO_DisableDoubler\000"
 6588      4F5F4469 
 6588      7361626C 
 6588      65446F75 
 6588      626C6572 
 6589              	.LASF231:
 6590 061e 4379504C 		.ascii	"CyPLL_OUT_Stop\000"
 6590      4C5F4F55 
 6590      545F5374 
 6590      6F7000
 6591              	.LASF137:
 6592 062d 656E436C 		.ascii	"enClkA\000"
 6592      6B4100
 6593              	.LASF138:
 6594 0634 656E436C 		.ascii	"enClkD\000"
 6594      6B4400
 6595              	.LASF121:
 6596 063b 5F6E6578 		.ascii	"_nextf\000"
 6596      746600
 6597              	.LASF211:
 6598 0642 4379494C 		.ascii	"CyILO_Start100K\000"
 6598      4F5F5374 
 6598      61727431 
 6598      30304B00 
 6599              	.LASF195:
 6600 0652 77616B65 		.ascii	"wakeupSource\000"
 6600      7570536F 
 6600      75726365 
 6600      00
 6601              	.LASF39:
 6602 065f 5F5F746D 		.ascii	"__tm_mon\000"
 6602      5F6D6F6E 
 6602      00
 6603              	.LASF129:
 6604 0668 43795265 		.ascii	"CyResetStatus\000"
 6604      73657453 
 6604      74617475 
 6604      7300
 6605              	.LASF49:
 6606 0676 5F617465 		.ascii	"_atexit\000"
 6606      78697400 
 6607              	.LASF81:
 6608 067e 5F5F7364 		.ascii	"__sdidinit\000"
 6608      6964696E 
 6608      697400
 6609              	.LASF19:
 6610 0689 5F6F6666 		.ascii	"_off_t\000"
 6610      5F7400
 6611              	.LASF224:
 6612 0690 43794D61 		.ascii	"CyMasterClk_SetDivider\000"
 6612      73746572 
 6612      436C6B5F 
 6612      53657444 
 6612      69766964 
 6613              	.LASF144:
 6614 06a7 696D6F43 		.ascii	"imoClkSrc\000"
ARM GAS  C:\Users\jens-\AppData\Local\Temp\ccih1T9a.s 			page 167


 6614      6C6B5372 
 6614      6300
 6615              	.LASF12:
 6616 06b1 666C6F61 		.ascii	"float\000"
 6616      7400
 6617              	.LASF216:
 6618 06b7 43794578 		.ascii	"CyExitCriticalSection\000"
 6618      69744372 
 6618      69746963 
 6618      616C5365 
 6618      6374696F 
 6619              	.LASF86:
 6620 06cd 5F667265 		.ascii	"_freelist\000"
 6620      656C6973 
 6620      7400
 6621              	.LASF197:
 6622 06d7 4379506D 		.ascii	"CyPmSleep\000"
 6622      536C6565 
 6622      7000
 6623              	.LASF170:
 6624 06e1 6C766964 		.ascii	"lvidRst\000"
 6624      52737400 
 6625              	.LASF218:
 6626 06e9 4379466C 		.ascii	"CyFlash_SetWaitCycles\000"
 6626      6173685F 
 6626      53657457 
 6626      61697443 
 6626      79636C65 
 6627              	.LASF111:
 6628 06ff 5F776374 		.ascii	"_wctomb_state\000"
 6628      6F6D625F 
 6628      73746174 
 6628      6500
 6629              	.LASF199:
 6630 070d 4379506D 		.ascii	"CyPmAltAct\000"
 6630      416C7441 
 6630      637400
 6631              	.LASF130:
 6632 0718 63796465 		.ascii	"cydelay_freq_hz\000"
 6632      6C61795F 
 6632      66726571 
 6632      5F687A00 
 6633              	.LASF226:
 6634 0728 4379494D 		.ascii	"CyIMO_EnableDoubler\000"
 6634      4F5F456E 
 6634      61626C65 
 6634      446F7562 
 6634      6C657200 
 6635              	.LASF16:
 6636 073c 72656738 		.ascii	"reg8\000"
 6636      00
 6637              	.LASF217:
 6638 0741 43794861 		.ascii	"CyHalt\000"
 6638      6C7400
 6639              	.LASF184:
 6640 0748 4379506D 		.ascii	"CyPmOppsSet\000"
 6640      4F707073 
ARM GAS  C:\Users\jens-\AppData\Local\Temp\ccih1T9a.s 			page 168


 6640      53657400 
 6641              	.LASF1:
 6642 0754 756E7369 		.ascii	"unsigned char\000"
 6642      676E6564 
 6642      20636861 
 6642      7200
 6643              	.LASF177:
 6644 0762 6379506D 		.ascii	"cyPmClockBackup\000"
 6644      436C6F63 
 6644      6B426163 
 6644      6B757000 
 6645              	.LASF89:
 6646 0772 5F6E6577 		.ascii	"_new\000"
 6646      00
 6647              	.LASF155:
 6648 0777 696C6F31 		.ascii	"ilo1kEnable\000"
 6648      6B456E61 
 6648      626C6500 
 6649              	.LASF134:
 6650 0783 5370634C 		.ascii	"SpcLockState\000"
 6650      6F636B53 
 6650      74617465 
 6650      00
 6651              	.LASF120:
 6652 0790 5F685F65 		.ascii	"_h_errno\000"
 6652      72726E6F 
 6652      00
 6653              	.LASF2:
 6654 0799 73686F72 		.ascii	"short int\000"
 6654      7420696E 
 6654      7400
 6655              	.LASF42:
 6656 07a3 5F5F746D 		.ascii	"__tm_yday\000"
 6656      5F796461 
 6656      7900
 6657              	.LASF182:
 6658 07ad 4379506D 		.ascii	"CyPmHibSlpSaveSet\000"
 6658      48696253 
 6658      6C705361 
 6658      76655365 
 6658      7400
 6659              	.LASF52:
 6660 07bf 5F5F7362 		.ascii	"__sbuf\000"
 6660      756600
 6661              	.LASF97:
 6662 07c6 5F696F62 		.ascii	"_iobs\000"
 6662      7300
 6663              	.LASF94:
 6664 07cc 5F5F4649 		.ascii	"__FILE\000"
 6664      4C4500
 6665              	.LASF26:
 6666 07d3 5F6D6273 		.ascii	"_mbstate_t\000"
 6666      74617465 
 6666      5F7400
 6667              	.LASF55:
 6668 07de 5F5F7346 		.ascii	"__sFILE\000"
 6668      494C4500 
ARM GAS  C:\Users\jens-\AppData\Local\Temp\ccih1T9a.s 			page 169


 6669              	.LASF70:
 6670 07e6 5F6D6273 		.ascii	"_mbstate\000"
 6670      74617465 
 6670      00
 6671              	.LASF107:
 6672 07ef 5F72616E 		.ascii	"_rand_next\000"
 6672      645F6E65 
 6672      787400
 6673              	.LASF156:
 6674 07fa 696C6F31 		.ascii	"ilo100kEnable\000"
 6674      30306B45 
 6674      6E61626C 
 6674      6500
 6675              	.LASF109:
 6676 0808 5F6D626C 		.ascii	"_mblen_state\000"
 6676      656E5F73 
 6676      74617465 
 6676      00
 6677              	.LASF77:
 6678 0815 5F696E63 		.ascii	"_inc\000"
 6678      00
 6679              	.LASF50:
 6680 081a 5F696E64 		.ascii	"_ind\000"
 6680      00
 6681              	.LASF178:
 6682 081f 6379506D 		.ascii	"cyPmImoFreqReg2Mhz\000"
 6682      496D6F46 
 6682      72657152 
 6682      6567324D 
 6682      687A00
 6683              	.LASF80:
 6684 0832 5F6C6F63 		.ascii	"_locale\000"
 6684      616C6500 
 6685              	.LASF82:
 6686 083a 5F5F636C 		.ascii	"__cleanup\000"
 6686      65616E75 
 6686      7000
 6687              	.LASF79:
 6688 0844 5F756E73 		.ascii	"_unspecified_locale_info\000"
 6688      70656369 
 6688      66696564 
 6688      5F6C6F63 
 6688      616C655F 
 6689              	.LASF30:
 6690 085d 5F6D6178 		.ascii	"_maxwds\000"
 6690      77647300 
 6691              	.LASF72:
 6692 0865 5F726565 		.ascii	"_reent\000"
 6692      6E7400
 6693              	.LASF99:
 6694 086c 5F736565 		.ascii	"_seed\000"
 6694      6400
 6695              	.LASF133:
 6696 0872 63796465 		.ascii	"cydelay_32k_ms\000"
 6696      6C61795F 
 6696      33326B5F 
 6696      6D7300
ARM GAS  C:\Users\jens-\AppData\Local\Temp\ccih1T9a.s 			page 170


 6697              	.LASF24:
 6698 0881 5F5F636F 		.ascii	"__count\000"
 6698      756E7400 
 6699              	.LASF124:
 6700 0889 5F5F6C6F 		.ascii	"__lock\000"
 6700      636B00
 6701              	.LASF25:
 6702 0890 5F5F7661 		.ascii	"__value\000"
 6702      6C756500 
 6703              	.LASF62:
 6704 0898 5F736565 		.ascii	"_seek\000"
 6704      6B00
 6705              	.LASF126:
 6706 089e 5F696D70 		.ascii	"_impure_ptr\000"
 6706      7572655F 
 6706      70747200 
 6707              	.LASF200:
 6708 08aa 4379506D 		.ascii	"CyPmRestoreClocks\000"
 6708      52657374 
 6708      6F726543 
 6708      6C6F636B 
 6708      7300
 6709              	.LASF20:
 6710 08bc 5F66706F 		.ascii	"_fpos_t\000"
 6710      735F7400 
 6711              	.LASF174:
 6712 08c4 626F6F73 		.ascii	"boostRefExt\000"
 6712      74526566 
 6712      45787400 
 6713              	.LASF73:
 6714 08d0 5F657272 		.ascii	"_errno\000"
 6714      6E6F00
 6715              	.LASF14:
 6716 08d7 63686172 		.ascii	"char\000"
 6716      00
 6717              	.LASF36:
 6718 08dc 5F5F746D 		.ascii	"__tm_min\000"
 6718      5F6D696E 
 6718      00
 6719              	.LASF227:
 6720 08e5 4379504C 		.ascii	"CyPLL_OUT_Start\000"
 6720      4C5F4F55 
 6720      545F5374 
 6720      61727400 
 6721              	.LASF208:
 6722 08f5 43795664 		.ascii	"CyVdLvDigitDisable\000"
 6722      4C764469 
 6722      67697444 
 6722      69736162 
 6722      6C6500
 6723              	.LASF173:
 6724 0908 696D6F41 		.ascii	"imoActFreq12Mhz\000"
 6724      63744672 
 6724      65713132 
 6724      4D687A00 
 6725              	.LASF171:
 6726 0918 6C766961 		.ascii	"lviaRst\000"
ARM GAS  C:\Users\jens-\AppData\Local\Temp\ccih1T9a.s 			page 171


 6726      52737400 
 6727              	.LASF128:
 6728 0920 5F637479 		.ascii	"_ctype_\000"
 6728      70655F00 
 6729              	.LASF196:
 6730 0928 4379506D 		.ascii	"CyPmHibernate\000"
 6730      48696265 
 6730      726E6174 
 6730      6500
 6731              	.LASF100:
 6732 0936 5F6D756C 		.ascii	"_mult\000"
 6732      7400
 6733              	.LASF149:
 6734 093c 706C6C45 		.ascii	"pllEnableState\000"
 6734      6E61626C 
 6734      65537461 
 6734      746500
 6735              	.LASF157:
 6736 094b 736C7054 		.ascii	"slpTrBypass\000"
 6736      72427970 
 6736      61737300 
 6737              	.LASF29:
 6738 0957 5F6E6578 		.ascii	"_next\000"
 6738      7400
 6739              	.LASF186:
 6740 095d 66747749 		.ascii	"ftwInterval\000"
 6740      6E746572 
 6740      76616C00 
 6741              	.LASF103:
 6742 0969 5F737472 		.ascii	"_strtok_last\000"
 6742      746F6B5F 
 6742      6C617374 
 6742      00
 6743              	.LASF237:
 6744 0976 4379506D 		.ascii	"CyPmReadStatus\000"
 6744      52656164 
 6744      53746174 
 6744      757300
 6745              	.LASF47:
 6746 0985 5F666E74 		.ascii	"_fntypes\000"
 6746      79706573 
 6746      00
 6747              	.LASF223:
 6748 098e 43794D61 		.ascii	"CyMasterClk_SetSource\000"
 6748      73746572 
 6748      436C6B5F 
 6748      53657453 
 6748      6F757263 
 6749              	.LASF101:
 6750 09a4 5F616464 		.ascii	"_add\000"
 6750      00
 6751              	.LASF28:
 6752 09a9 5F5F554C 		.ascii	"__ULong\000"
 6752      6F6E6700 
 6753              	.LASF114:
 6754 09b1 5F676574 		.ascii	"_getdate_err\000"
 6754      64617465 
ARM GAS  C:\Users\jens-\AppData\Local\Temp\ccih1T9a.s 			page 172


 6754      5F657272 
 6754      00
 6755              	.LASF127:
 6756 09be 5F676C6F 		.ascii	"_global_impure_ptr\000"
 6756      62616C5F 
 6756      696D7075 
 6756      72655F70 
 6756      747200
 6757              	.LASF151:
 6758 09d1 636C6B44 		.ascii	"clkDistDelay\000"
 6758      69737444 
 6758      656C6179 
 6758      00
 6759              	.LASF102:
 6760 09de 5F756E75 		.ascii	"_unused_rand\000"
 6760      7365645F 
 6760      72616E64 
 6760      00
 6761              	.LASF185:
 6762 09eb 4379506D 		.ascii	"CyPmCtwSetInterval\000"
 6762      43747753 
 6762      6574496E 
 6762      74657276 
 6762      616C00
 6763              	.LASF201:
 6764 09fe 73746174 		.ascii	"status\000"
 6764      757300
 6765              	.LASF32:
 6766 0a05 5F776473 		.ascii	"_wds\000"
 6766      00
 6767              	.LASF41:
 6768 0a0a 5F5F746D 		.ascii	"__tm_wday\000"
 6768      5F776461 
 6768      7900
 6769              	.LASF95:
 6770 0a14 5F676C75 		.ascii	"_glue\000"
 6770      6500
 6771              	.LASF122:
 6772 0a1a 5F6E6D61 		.ascii	"_nmalloc\000"
 6772      6C6C6F63 
 6772      00
 6773              	.LASF112:
 6774 0a23 5F6C3634 		.ascii	"_l64a_buf\000"
 6774      615F6275 
 6774      6600
 6775              	.LASF167:
 6776 0a2d 6C766961 		.ascii	"lviaEn\000"
 6776      456E00
 6777              	.LASF219:
 6778 0a34 4379494D 		.ascii	"CyIMO_SetFreq\000"
 6778      4F5F5365 
 6778      74467265 
 6778      7100
 6779              	.LASF91:
 6780 0a42 5F736967 		.ascii	"_sig_func\000"
 6780      5F66756E 
 6780      6300
ARM GAS  C:\Users\jens-\AppData\Local\Temp\ccih1T9a.s 			page 173


 6781              	.LASF189:
 6782 0a4c 4379506D 		.ascii	"CyPmHibSaveSet\000"
 6782      48696253 
 6782      61766553 
 6782      657400
 6783              	.LASF198:
 6784 0a5b 77616B65 		.ascii	"wakeupTime\000"
 6784      75705469 
 6784      6D6500
 6785              	.LASF206:
 6786 0a66 43795664 		.ascii	"CyVdLvAnalogEnable\000"
 6786      4C76416E 
 6786      616C6F67 
 6786      456E6162 
 6786      6C6500
 6787              	.LASF164:
 6788 0a79 73636374 		.ascii	"scctData\000"
 6788      44617461 
 6788      00
 6789              	.LASF65:
 6790 0a82 5F6E6275 		.ascii	"_nbuf\000"
 6790      6600
 6791              	.LASF15:
 6792 0a88 63797374 		.ascii	"cystatus\000"
 6792      61747573 
 6792      00
 6793              	.LASF230:
 6794 0a91 43794275 		.ascii	"CyBusClk_SetDivider\000"
 6794      73436C6B 
 6794      5F536574 
 6794      44697669 
 6794      64657200 
 6795              	.LASF43:
 6796 0aa5 5F5F746D 		.ascii	"__tm_isdst\000"
 6796      5F697364 
 6796      737400
 6797              	.LASF105:
 6798 0ab0 5F6C6F63 		.ascii	"_localtime_buf\000"
 6798      616C7469 
 6798      6D655F62 
 6798      756600
 6799              	.LASF63:
 6800 0abf 5F636C6F 		.ascii	"_close\000"
 6800      736500
 6801              	.LASF108:
 6802 0ac6 5F723438 		.ascii	"_r48\000"
 6802      00
 6803              	.LASF110:
 6804 0acb 5F6D6274 		.ascii	"_mbtowc_state\000"
 6804      6F77635F 
 6804      73746174 
 6804      6500
 6805              	.LASF85:
 6806 0ad9 5F703573 		.ascii	"_p5s\000"
 6806      00
 6807              	.LASF180:
 6808 0ade 4379506D 		.ascii	"CyPmHviLviSaveDisable\000"
ARM GAS  C:\Users\jens-\AppData\Local\Temp\ccih1T9a.s 			page 174


 6808      4876694C 
 6808      76695361 
 6808      76654469 
 6808      7361626C 
 6809              	.LASF205:
 6810 0af4 43795664 		.ascii	"CyVdLvDigitEnable\000"
 6810      4C764469 
 6810      67697445 
 6810      6E61626C 
 6810      6500
 6811              	.LASF233:
 6812 0b06 43795854 		.ascii	"CyXTAL_Stop\000"
 6812      414C5F53 
 6812      746F7000 
 6813              	.LASF236:
 6814 0b12 433A5C55 		.ascii	"C:\\Users\\jens-\\3.Projekt\\Projekt3\\Proj3_PSOC_C"
 6814      73657273 
 6814      5C6A656E 
 6814      732D5C33 
 6814      2E50726F 
 6815 0b40 5C446573 		.ascii	"\\Design01.cydsn\000"
 6815      69676E30 
 6815      312E6379 
 6815      64736E00 
 6816              	.LASF166:
 6817 0b50 6C766964 		.ascii	"lvidTrip\000"
 6817      54726970 
 6817      00
 6818              	.LASF38:
 6819 0b59 5F5F746D 		.ascii	"__tm_mday\000"
 6819      5F6D6461 
 6819      7900
 6820              	.LASF143:
 6821 0b63 696D6F45 		.ascii	"imoEnable\000"
 6821      6E61626C 
 6821      6500
 6822              	.LASF191:
 6823 0b6d 696E7465 		.ascii	"interruptStatus\000"
 6823      72727570 
 6823      74537461 
 6823      74757300 
 6824              	.LASF183:
 6825 0b7d 4379506D 		.ascii	"CyPmFtwSetInterval\000"
 6825      46747753 
 6825      6574496E 
 6825      74657276 
 6825      616C00
 6826              		.ident	"GCC: (GNU Tools for Arm Embedded Processors 9-2019-q4-major) 9.2.1 20191025 (release) [ARM
