ARM GAS  C:\Users\jens-\AppData\Local\Temp\ccCtgRll.s 			page 1


   1              		.cpu cortex-m3
   2              		.eabi_attribute 20, 1
   3              		.eabi_attribute 21, 1
   4              		.eabi_attribute 23, 3
   5              		.eabi_attribute 24, 1
   6              		.eabi_attribute 25, 1
   7              		.eabi_attribute 26, 1
   8              		.eabi_attribute 30, 1
   9              		.eabi_attribute 34, 1
  10              		.eabi_attribute 18, 4
  11              		.file	"DispenserIF.c"
  12              		.text
  13              	.Ltext0:
  14              		.cfi_sections	.debug_frame
  15              		.section	.text.half,"ax",%progbits
  16              		.align	1
  17              		.arch armv7-m
  18              		.syntax unified
  19              		.thumb
  20              		.thumb_func
  21              		.fpu softvfp
  22              		.type	half, %function
  23              	half:
  24              	.LVL0:
  25              	.LFB70:
  26              		.file 1 "DispenserIF.c"
   1:DispenserIF.c **** /* ========================================
   2:DispenserIF.c ****  *
   3:DispenserIF.c ****  * Copyright YOUR COMPANY, THE YEAR
   4:DispenserIF.c ****  * All Rights Reserved
   5:DispenserIF.c ****  * UNPUBLISHED, LICENSED SOFTWARE.
   6:DispenserIF.c ****  *
   7:DispenserIF.c ****  * CONFIDENTIAL AND PROPRIETARY INFORMATION
   8:DispenserIF.c ****  * WHICH IS THE PROPERTY OF your company.
   9:DispenserIF.c ****  *
  10:DispenserIF.c ****  * ========================================
  11:DispenserIF.c **** */
  12:DispenserIF.c **** #include "DispenserIF.h"
  13:DispenserIF.c **** #include "project.h"
  14:DispenserIF.c **** 
  15:DispenserIF.c **** 
  16:DispenserIF.c **** //private functions:
  17:DispenserIF.c **** static int rotatePlatform(DispenserIF *this,enum PilleType type);
  18:DispenserIF.c **** static void pushPill(DispenserIF *this);
  19:DispenserIF.c **** static void calibratePlatform(DispenserIF *this);
  20:DispenserIF.c **** static void rotateTo(DispenserIF *this, PLATPOS position);
  21:DispenserIF.c **** static int detekterPillebeholdning(DispenserIF *this);
  22:DispenserIF.c **** static int vejefunktion(DispenserIF *this);
  23:DispenserIF.c **** 
  24:DispenserIF.c **** //new type to store current state.
  25:DispenserIF.c **** typedef enum
  26:DispenserIF.c **** {
  27:DispenserIF.c ****     HALF1,
  28:DispenserIF.c ****     HALF2,
  29:DispenserIF.c ****     HALF3,
  30:DispenserIF.c ****     HALF4,
  31:DispenserIF.c ****     HALF5,
ARM GAS  C:\Users\jens-\AppData\Local\Temp\ccCtgRll.s 			page 2


  32:DispenserIF.c ****     HALF6,
  33:DispenserIF.c ****     HALF7,
  34:DispenserIF.c ****     HALF8
  35:DispenserIF.c ****     
  36:DispenserIF.c **** }HALF_STATE;
  37:DispenserIF.c **** static HALF_STATE halfState=HALF1;
  38:DispenserIF.c **** typedef enum
  39:DispenserIF.c **** {
  40:DispenserIF.c ****     FULL1,
  41:DispenserIF.c ****     FULL2,
  42:DispenserIF.c ****     FULL3,
  43:DispenserIF.c ****     FULL4
  44:DispenserIF.c ****     
  45:DispenserIF.c **** }FULL_STATE;
  46:DispenserIF.c **** static FULL_STATE fullState=FULL1;
  47:DispenserIF.c **** 
  48:DispenserIF.c **** //Help functions:
  49:DispenserIF.c **** //roterer i trin i retning
  50:DispenserIF.c **** static void rotateRight(int i);
  51:DispenserIF.c **** static void rotateLeft(int i);
  52:DispenserIF.c **** //roterer i tin i retning direction
  53:DispenserIF.c **** static void rotate(int i, enum DIRECTION direction);
  54:DispenserIF.c **** //roterer 1 trin i retning direction
  55:DispenserIF.c **** static void half(enum DIRECTION direction);
  56:DispenserIF.c **** static void full(enum DIRECTION direction);
  57:DispenserIF.c **** 
  58:DispenserIF.c **** 
  59:DispenserIF.c **** 
  60:DispenserIF.c **** void DispenserIF_Init(DispenserIF *this, Tester* testPtr)
  61:DispenserIF.c **** {
  62:DispenserIF.c ****    
  63:DispenserIF.c ****     //opsæt og kalibrer stepper-motorer.
  64:DispenserIF.c ****      this->platpos=UNKNOWN;
  65:DispenserIF.c ****     this->testPtr=testPtr;
  66:DispenserIF.c ****     calibratePlatform(this);
  67:DispenserIF.c ****     
  68:DispenserIF.c ****     
  69:DispenserIF.c **** }
  70:DispenserIF.c **** 
  71:DispenserIF.c **** //returnerer 0 ved succesful dispensering, returnerer 1 ved vejefejl
  72:DispenserIF.c **** //returnerer -1 ved tom beholder
  73:DispenserIF.c **** int dispense(DispenserIF *this,enum PilleType type)
  74:DispenserIF.c **** {
  75:DispenserIF.c ****     //roter platformen
  76:DispenserIF.c ****     rotatePlatform(this,type);
  77:DispenserIF.c ****     
  78:DispenserIF.c ****     //detekter pillebeholdning
  79:DispenserIF.c ****     //hvis pillebeholdning OK
  80:DispenserIF.c ****     //{
  81:DispenserIF.c ****     //stempel-funktion (skub en pille ud)
  82:DispenserIF.c ****     //Hvis sensor er high = der er piller.
  83:DispenserIF.c ****     if(detekterPillebeholdning(this))
  84:DispenserIF.c ****     {
  85:DispenserIF.c ****         pushPill(this);
  86:DispenserIF.c ****     }
  87:DispenserIF.c ****     else
  88:DispenserIF.c ****     {
ARM GAS  C:\Users\jens-\AppData\Local\Temp\ccCtgRll.s 			page 3


  89:DispenserIF.c ****         writeTester(this->testPtr,"Pill conatiner empty\r\n");
  90:DispenserIF.c ****         return -1;
  91:DispenserIF.c ****     }
  92:DispenserIF.c ****     
  93:DispenserIF.c ****     
  94:DispenserIF.c ****     //vejefunktion
  95:DispenserIF.c ****     //returner succes eller fejlmelding
  96:DispenserIF.c ****     
  97:DispenserIF.c ****     if(vejefunktion(this)==0)
  98:DispenserIF.c ****     {
  99:DispenserIF.c ****         writeTester(this->testPtr,"Pill was dispensed\r\n");
 100:DispenserIF.c ****         return 0;
 101:DispenserIF.c ****     }   
 102:DispenserIF.c ****     //ellers: fejlhåndtering
 103:DispenserIF.c ****     else
 104:DispenserIF.c ****     {
 105:DispenserIF.c ****         writeTester(this->testPtr,"Pill was not dispensed\r\n");
 106:DispenserIF.c ****         //fejlhåndtering manlger
 107:DispenserIF.c ****         return 1;
 108:DispenserIF.c ****     }
 109:DispenserIF.c ****     
 110:DispenserIF.c **** }
 111:DispenserIF.c **** static int rotatePlatform(DispenserIF *this,enum PilleType type)
 112:DispenserIF.c **** {
 113:DispenserIF.c ****     //roter platform i korrekt position baseret på pilletyppe
 114:DispenserIF.c ****     switch(type)
 115:DispenserIF.c ****     {
 116:DispenserIF.c ****         case A:
 117:DispenserIF.c ****             writeTester(this->testPtr,"Rotating platform to A\r\n");
 118:DispenserIF.c ****             rotateTo(this,FIRST);
 119:DispenserIF.c ****         break;
 120:DispenserIF.c ****         case B:
 121:DispenserIF.c ****             writeTester(this->testPtr,"Rotating platform to B\r\n");
 122:DispenserIF.c ****             rotateTo(this,SECOND);
 123:DispenserIF.c ****         break;
 124:DispenserIF.c ****         case C:
 125:DispenserIF.c ****             writeTester(this->testPtr,"Rotating platform to C\r\n");
 126:DispenserIF.c ****             rotateTo(this,THIRD);
 127:DispenserIF.c ****         break;
 128:DispenserIF.c ****         default:
 129:DispenserIF.c ****         break;
 130:DispenserIF.c ****     }
 131:DispenserIF.c ****     //evt. fejlcheck og fejlbesked som returværdi
 132:DispenserIF.c ****     return 0;
 133:DispenserIF.c ****     
 134:DispenserIF.c **** }
 135:DispenserIF.c **** 
 136:DispenserIF.c **** static void pushPill(DispenserIF *this)
 137:DispenserIF.c **** {
 138:DispenserIF.c ****     writeTester(this->testPtr,"Pushing pill\r\n");
 139:DispenserIF.c ****     //1,8 grader pr. step *100 = 180 grader
 140:DispenserIF.c ****     for(int i=0;i<100;i++)
 141:DispenserIF.c ****     {
 142:DispenserIF.c ****         full(LEFT);
 143:DispenserIF.c ****     }
 144:DispenserIF.c ****     //tilbage igen
 145:DispenserIF.c ****      for(int i=0;i<180;i++)
ARM GAS  C:\Users\jens-\AppData\Local\Temp\ccCtgRll.s 			page 4


 146:DispenserIF.c ****     {
 147:DispenserIF.c ****         full(RIGHT);
 148:DispenserIF.c ****     }
 149:DispenserIF.c ****     //få stempel til at køre frem og tilbage igen
 150:DispenserIF.c **** }
 151:DispenserIF.c **** void full(enum DIRECTION direction)
 152:DispenserIF.c **** {
 153:DispenserIF.c ****     // denne switch case koeres hvis programmet er i full mode
 154:DispenserIF.c ****     switch(fullState)
 155:DispenserIF.c ****     {
 156:DispenserIF.c ****         case FULL1:
 157:DispenserIF.c ****         {
 158:DispenserIF.c ****             Pin_C1_Write(1);
 159:DispenserIF.c ****             Pin_C2_Write(1);
 160:DispenserIF.c ****             Pin_D1_Write(0);
 161:DispenserIF.c ****             Pin_D2_Write(0);
 162:DispenserIF.c ****            if(direction==RIGHT)     // der tjekkes i hver state hvilken retning motoren skal koere
 163:DispenserIF.c ****             {
 164:DispenserIF.c ****                 fullState=FULL2;
 165:DispenserIF.c ****             }
 166:DispenserIF.c ****             else
 167:DispenserIF.c ****             {
 168:DispenserIF.c ****                 fullState=FULL4;
 169:DispenserIF.c ****             }
 170:DispenserIF.c ****         }
 171:DispenserIF.c ****         break;
 172:DispenserIF.c ****         case FULL2:
 173:DispenserIF.c ****         {
 174:DispenserIF.c ****             Pin_C1_Write(0);
 175:DispenserIF.c ****             Pin_C2_Write(1);
 176:DispenserIF.c ****             Pin_D1_Write(1);
 177:DispenserIF.c ****             Pin_D2_Write(0);
 178:DispenserIF.c ****             if(direction==RIGHT)
 179:DispenserIF.c ****             {
 180:DispenserIF.c ****                 fullState=FULL3;
 181:DispenserIF.c ****             }
 182:DispenserIF.c ****             else
 183:DispenserIF.c ****             {
 184:DispenserIF.c ****                 fullState=FULL1;
 185:DispenserIF.c ****             }
 186:DispenserIF.c ****         }
 187:DispenserIF.c ****         break;
 188:DispenserIF.c ****         case FULL3:
 189:DispenserIF.c ****         {
 190:DispenserIF.c ****             Pin_C1_Write(0);
 191:DispenserIF.c ****             Pin_C2_Write(0);
 192:DispenserIF.c ****             Pin_D1_Write(1);
 193:DispenserIF.c ****             Pin_D2_Write(1);
 194:DispenserIF.c ****             if(direction==RIGHT)
 195:DispenserIF.c ****             {
 196:DispenserIF.c ****                 fullState=FULL4;
 197:DispenserIF.c ****             }
 198:DispenserIF.c ****             else
 199:DispenserIF.c ****             {
 200:DispenserIF.c ****                 fullState=FULL2;
 201:DispenserIF.c ****             }
 202:DispenserIF.c ****         }
ARM GAS  C:\Users\jens-\AppData\Local\Temp\ccCtgRll.s 			page 5


 203:DispenserIF.c ****         break;
 204:DispenserIF.c ****         case FULL4:
 205:DispenserIF.c ****         {
 206:DispenserIF.c ****             Pin_C1_Write(1);
 207:DispenserIF.c ****             Pin_C2_Write(0);
 208:DispenserIF.c ****             Pin_D1_Write(0);
 209:DispenserIF.c ****             Pin_D2_Write(1);
 210:DispenserIF.c ****             if(direction==RIGHT)
 211:DispenserIF.c ****             {
 212:DispenserIF.c ****                 fullState=FULL1;
 213:DispenserIF.c ****             }
 214:DispenserIF.c ****             else
 215:DispenserIF.c ****             {
 216:DispenserIF.c ****                 fullState=FULL3;
 217:DispenserIF.c ****             }
 218:DispenserIF.c ****         }
 219:DispenserIF.c ****         break;
 220:DispenserIF.c ****         default:
 221:DispenserIF.c ****         break;
 222:DispenserIF.c ****     }
 223:DispenserIF.c **** }
 224:DispenserIF.c **** //returnerer 0 ved dispenseret pille, og 1 ved fejl
 225:DispenserIF.c **** static int vejefunktion(DispenserIF *this)
 226:DispenserIF.c **** {
 227:DispenserIF.c ****     float tmpweight = GenADCInput(this->testPtr);
 228:DispenserIF.c ****     if (this->weight+0.5> tmpweight)//med fejlmargin
 229:DispenserIF.c ****     {
 230:DispenserIF.c ****         // pille vægten er uændret, hysterese...
 231:DispenserIF.c ****         this->weight=tmpweight;
 232:DispenserIF.c ****         return 1;
 233:DispenserIF.c ****     }else
 234:DispenserIF.c ****     {
 235:DispenserIF.c ****         // pille er dispenseret
 236:DispenserIF.c ****         this->weight=tmpweight;
 237:DispenserIF.c ****         return 0;
 238:DispenserIF.c ****     }
 239:DispenserIF.c ****     // opdateret this->weight
 240:DispenserIF.c ****     //thist->weight=tmpweight;
 241:DispenserIF.c ****     //return status
 242:DispenserIF.c ****     
 243:DispenserIF.c **** }
 244:DispenserIF.c **** 
 245:DispenserIF.c **** static int detekterPillebeholdning(DispenserIF* this)
 246:DispenserIF.c **** {
 247:DispenserIF.c ****     //Check refleksbrikdetektor
 248:DispenserIF.c ****     //returner 1 hvis der er piller, returner 0 hvis der ikke er
 249:DispenserIF.c ****     GenConSensorInput(this->testPtr);
 250:DispenserIF.c ****     return Pill_Container_Sensor_Read();
 251:DispenserIF.c **** }
 252:DispenserIF.c **** 
 253:DispenserIF.c **** 
 254:DispenserIF.c **** //Taget fra GFV øvelse
 255:DispenserIF.c **** static void half(enum DIRECTION direction)
 256:DispenserIF.c **** {
  27              		.loc 1 256 1 view -0
  28              		.cfi_startproc
  29              		@ args = 0, pretend = 0, frame = 0
ARM GAS  C:\Users\jens-\AppData\Local\Temp\ccCtgRll.s 			page 6


  30              		@ frame_needed = 0, uses_anonymous_args = 0
  31              		.loc 1 256 1 is_stmt 0 view .LVU1
  32 0000 10B5     		push	{r4, lr}
  33              		.cfi_def_cfa_offset 8
  34              		.cfi_offset 4, -8
  35              		.cfi_offset 14, -4
  36 0002 0446     		mov	r4, r0
 257:DispenserIF.c ****     // denne switch case koeres hvis programmet er i half mode
 258:DispenserIF.c ****     switch(halfState)
  37              		.loc 1 258 5 is_stmt 1 view .LVU2
  38 0004 5C4B     		ldr	r3, .L29
  39 0006 1B78     		ldrb	r3, [r3]	@ zero_extendqisi2
  40 0008 072B     		cmp	r3, #7
  41 000a 16D8     		bhi	.L1
  42 000c DFE803F0 		tbb	[pc, r3]
  43              	.L4:
  44 0010 04       		.byte	(.L11-.L4)/2
  45 0011 1A       		.byte	(.L10-.L4)/2
  46 0012 30       		.byte	(.L9-.L4)/2
  47 0013 46       		.byte	(.L8-.L4)/2
  48 0014 5C       		.byte	(.L7-.L4)/2
  49 0015 72       		.byte	(.L6-.L4)/2
  50 0016 88       		.byte	(.L5-.L4)/2
  51 0017 9E       		.byte	(.L3-.L4)/2
  52              		.p2align 1
  53              	.L11:
 259:DispenserIF.c ****     {
 260:DispenserIF.c ****     case HALF1:
 261:DispenserIF.c ****     {
 262:DispenserIF.c ****             Pin_A1_Write(1);
  54              		.loc 1 262 13 view .LVU3
  55 0018 0120     		movs	r0, #1
  56              	.LVL1:
  57              		.loc 1 262 13 is_stmt 0 view .LVU4
  58 001a FFF7FEFF 		bl	Pin_A1_Write
  59              	.LVL2:
 263:DispenserIF.c ****             Pin_A2_Write(0);
  60              		.loc 1 263 13 is_stmt 1 view .LVU5
  61 001e 0020     		movs	r0, #0
  62 0020 FFF7FEFF 		bl	Pin_A2_Write
  63              	.LVL3:
 264:DispenserIF.c ****             Pin_B1_Write(0);
  64              		.loc 1 264 13 view .LVU6
  65 0024 0020     		movs	r0, #0
  66 0026 FFF7FEFF 		bl	Pin_B1_Write
  67              	.LVL4:
 265:DispenserIF.c ****             Pin_B2_Write(0);
  68              		.loc 1 265 13 view .LVU7
  69 002a 0020     		movs	r0, #0
  70 002c FFF7FEFF 		bl	Pin_B2_Write
  71              	.LVL5:
 266:DispenserIF.c ****             if(direction==RIGHT)     // der tjekkes i hver state hvilken retning motoren skal koere
  72              		.loc 1 266 13 view .LVU8
  73              		.loc 1 266 15 is_stmt 0 view .LVU9
  74 0030 012C     		cmp	r4, #1
  75 0032 03D0     		beq	.L21
 267:DispenserIF.c ****             {
ARM GAS  C:\Users\jens-\AppData\Local\Temp\ccCtgRll.s 			page 7


 268:DispenserIF.c ****                 halfState=HALF2;
 269:DispenserIF.c ****             }
 270:DispenserIF.c ****             else
 271:DispenserIF.c ****             {
 272:DispenserIF.c ****                 halfState=HALF8;
  76              		.loc 1 272 17 is_stmt 1 view .LVU10
  77              		.loc 1 272 26 is_stmt 0 view .LVU11
  78 0034 504B     		ldr	r3, .L29
  79 0036 0722     		movs	r2, #7
  80 0038 1A70     		strb	r2, [r3]
  81              	.L1:
 273:DispenserIF.c ****             }
 274:DispenserIF.c ****                      
 275:DispenserIF.c ****     }
 276:DispenserIF.c ****     break;
 277:DispenserIF.c ****     case HALF2:
 278:DispenserIF.c ****     {
 279:DispenserIF.c ****             Pin_A1_Write(1);
 280:DispenserIF.c ****             Pin_A2_Write(1);
 281:DispenserIF.c ****             Pin_B1_Write(0);
 282:DispenserIF.c ****             Pin_B2_Write(0);
 283:DispenserIF.c ****             if(direction==RIGHT)
 284:DispenserIF.c ****             {
 285:DispenserIF.c ****                 halfState=HALF3;
 286:DispenserIF.c ****             }
 287:DispenserIF.c ****             else
 288:DispenserIF.c ****             {
 289:DispenserIF.c ****                 halfState=HALF1;
 290:DispenserIF.c ****             }           
 291:DispenserIF.c ****     }
 292:DispenserIF.c ****     break;
 293:DispenserIF.c ****     case HALF3:
 294:DispenserIF.c ****     {
 295:DispenserIF.c ****             Pin_A1_Write(0);
 296:DispenserIF.c ****             Pin_A2_Write(1);
 297:DispenserIF.c ****             Pin_B1_Write(0);
 298:DispenserIF.c ****             Pin_B2_Write(0);
 299:DispenserIF.c ****             if(direction==RIGHT)
 300:DispenserIF.c ****             {
 301:DispenserIF.c ****                 halfState=HALF4;
 302:DispenserIF.c ****             }
 303:DispenserIF.c ****             else
 304:DispenserIF.c ****             {
 305:DispenserIF.c ****                 halfState=HALF2;
 306:DispenserIF.c ****             }            
 307:DispenserIF.c ****     }
 308:DispenserIF.c ****     break;
 309:DispenserIF.c ****     case HALF4:
 310:DispenserIF.c ****     {
 311:DispenserIF.c ****             Pin_A1_Write(0);
 312:DispenserIF.c ****             Pin_A2_Write(1);
 313:DispenserIF.c ****             Pin_B1_Write(1);
 314:DispenserIF.c ****             Pin_B2_Write(0);
 315:DispenserIF.c ****             if(direction==RIGHT)
 316:DispenserIF.c ****             {
 317:DispenserIF.c ****                 halfState=HALF5;
 318:DispenserIF.c ****             }
ARM GAS  C:\Users\jens-\AppData\Local\Temp\ccCtgRll.s 			page 8


 319:DispenserIF.c ****             else
 320:DispenserIF.c ****             {
 321:DispenserIF.c ****                 halfState=HALF3;
 322:DispenserIF.c ****             }            
 323:DispenserIF.c ****     }
 324:DispenserIF.c ****     break;
 325:DispenserIF.c ****     case HALF5:
 326:DispenserIF.c ****     {
 327:DispenserIF.c ****             Pin_A1_Write(0);
 328:DispenserIF.c ****             Pin_A2_Write(0);
 329:DispenserIF.c ****             Pin_B1_Write(1);
 330:DispenserIF.c ****             Pin_B2_Write(0);
 331:DispenserIF.c ****             if(direction==RIGHT)
 332:DispenserIF.c ****             {
 333:DispenserIF.c ****                 halfState=HALF6;
 334:DispenserIF.c ****             }
 335:DispenserIF.c ****             else
 336:DispenserIF.c ****             {
 337:DispenserIF.c ****                 halfState=HALF4;
 338:DispenserIF.c ****             }            
 339:DispenserIF.c ****     }
 340:DispenserIF.c ****     break;
 341:DispenserIF.c ****     case HALF6:
 342:DispenserIF.c ****     {
 343:DispenserIF.c ****             Pin_A1_Write(0);
 344:DispenserIF.c ****             Pin_A2_Write(0);
 345:DispenserIF.c ****             Pin_B1_Write(1);
 346:DispenserIF.c ****             Pin_B2_Write(1);
 347:DispenserIF.c ****             if(direction==RIGHT)
 348:DispenserIF.c ****             {
 349:DispenserIF.c ****                 halfState=HALF7;
 350:DispenserIF.c ****             }
 351:DispenserIF.c ****             else
 352:DispenserIF.c ****             {
 353:DispenserIF.c ****                 halfState=HALF5;
 354:DispenserIF.c ****             }           
 355:DispenserIF.c ****     }
 356:DispenserIF.c ****     break;
 357:DispenserIF.c ****     case HALF7:
 358:DispenserIF.c ****     {
 359:DispenserIF.c ****             Pin_A1_Write(0);
 360:DispenserIF.c ****             Pin_A2_Write(0);
 361:DispenserIF.c ****             Pin_B1_Write(0);
 362:DispenserIF.c ****             Pin_B2_Write(1);
 363:DispenserIF.c ****             if(direction==RIGHT)
 364:DispenserIF.c ****             {
 365:DispenserIF.c ****                 halfState=HALF8;
 366:DispenserIF.c ****             }
 367:DispenserIF.c ****             else
 368:DispenserIF.c ****             {
 369:DispenserIF.c ****                 halfState=HALF6;
 370:DispenserIF.c ****             }            
 371:DispenserIF.c ****     }
 372:DispenserIF.c ****     break;
 373:DispenserIF.c ****     case HALF8:
 374:DispenserIF.c ****     {
 375:DispenserIF.c ****             Pin_A1_Write(1);
ARM GAS  C:\Users\jens-\AppData\Local\Temp\ccCtgRll.s 			page 9


 376:DispenserIF.c ****             Pin_A2_Write(0);
 377:DispenserIF.c ****             Pin_B1_Write(0);
 378:DispenserIF.c ****             Pin_B2_Write(1);
 379:DispenserIF.c ****             if(direction==RIGHT)
 380:DispenserIF.c ****             {
 381:DispenserIF.c ****                 halfState=HALF1;
 382:DispenserIF.c ****             }
 383:DispenserIF.c ****             else
 384:DispenserIF.c ****             {
 385:DispenserIF.c ****                 halfState=HALF7;
 386:DispenserIF.c ****             }            
 387:DispenserIF.c ****     }
 388:DispenserIF.c ****     break;
 389:DispenserIF.c ****     default:
 390:DispenserIF.c ****     break;
 391:DispenserIF.c ****     }
 392:DispenserIF.c **** }
  82              		.loc 1 392 1 view .LVU12
  83 003a 10BD     		pop	{r4, pc}
  84              	.L21:
 268:DispenserIF.c ****             }
  85              		.loc 1 268 17 is_stmt 1 view .LVU13
 268:DispenserIF.c ****             }
  86              		.loc 1 268 26 is_stmt 0 view .LVU14
  87 003c 4E4B     		ldr	r3, .L29
  88 003e 0122     		movs	r2, #1
  89 0040 1A70     		strb	r2, [r3]
  90 0042 FAE7     		b	.L1
  91              	.LVL6:
  92              	.L10:
 279:DispenserIF.c ****             Pin_A2_Write(1);
  93              		.loc 1 279 13 is_stmt 1 view .LVU15
  94 0044 0120     		movs	r0, #1
  95              	.LVL7:
 279:DispenserIF.c ****             Pin_A2_Write(1);
  96              		.loc 1 279 13 is_stmt 0 view .LVU16
  97 0046 FFF7FEFF 		bl	Pin_A1_Write
  98              	.LVL8:
 280:DispenserIF.c ****             Pin_B1_Write(0);
  99              		.loc 1 280 13 is_stmt 1 view .LVU17
 100 004a 0120     		movs	r0, #1
 101 004c FFF7FEFF 		bl	Pin_A2_Write
 102              	.LVL9:
 281:DispenserIF.c ****             Pin_B2_Write(0);
 103              		.loc 1 281 13 view .LVU18
 104 0050 0020     		movs	r0, #0
 105 0052 FFF7FEFF 		bl	Pin_B1_Write
 106              	.LVL10:
 282:DispenserIF.c ****             if(direction==RIGHT)
 107              		.loc 1 282 13 view .LVU19
 108 0056 0020     		movs	r0, #0
 109 0058 FFF7FEFF 		bl	Pin_B2_Write
 110              	.LVL11:
 283:DispenserIF.c ****             {
 111              		.loc 1 283 13 view .LVU20
 283:DispenserIF.c ****             {
 112              		.loc 1 283 15 is_stmt 0 view .LVU21
ARM GAS  C:\Users\jens-\AppData\Local\Temp\ccCtgRll.s 			page 10


 113 005c 012C     		cmp	r4, #1
 114 005e 03D0     		beq	.L22
 289:DispenserIF.c ****             }           
 115              		.loc 1 289 17 is_stmt 1 view .LVU22
 289:DispenserIF.c ****             }           
 116              		.loc 1 289 26 is_stmt 0 view .LVU23
 117 0060 454B     		ldr	r3, .L29
 118 0062 0022     		movs	r2, #0
 119 0064 1A70     		strb	r2, [r3]
 120 0066 E8E7     		b	.L1
 121              	.L22:
 285:DispenserIF.c ****             }
 122              		.loc 1 285 17 is_stmt 1 view .LVU24
 285:DispenserIF.c ****             }
 123              		.loc 1 285 26 is_stmt 0 view .LVU25
 124 0068 434B     		ldr	r3, .L29
 125 006a 0222     		movs	r2, #2
 126 006c 1A70     		strb	r2, [r3]
 127 006e E4E7     		b	.L1
 128              	.LVL12:
 129              	.L9:
 295:DispenserIF.c ****             Pin_A2_Write(1);
 130              		.loc 1 295 13 is_stmt 1 view .LVU26
 131 0070 0020     		movs	r0, #0
 132              	.LVL13:
 295:DispenserIF.c ****             Pin_A2_Write(1);
 133              		.loc 1 295 13 is_stmt 0 view .LVU27
 134 0072 FFF7FEFF 		bl	Pin_A1_Write
 135              	.LVL14:
 296:DispenserIF.c ****             Pin_B1_Write(0);
 136              		.loc 1 296 13 is_stmt 1 view .LVU28
 137 0076 0120     		movs	r0, #1
 138 0078 FFF7FEFF 		bl	Pin_A2_Write
 139              	.LVL15:
 297:DispenserIF.c ****             Pin_B2_Write(0);
 140              		.loc 1 297 13 view .LVU29
 141 007c 0020     		movs	r0, #0
 142 007e FFF7FEFF 		bl	Pin_B1_Write
 143              	.LVL16:
 298:DispenserIF.c ****             if(direction==RIGHT)
 144              		.loc 1 298 13 view .LVU30
 145 0082 0020     		movs	r0, #0
 146 0084 FFF7FEFF 		bl	Pin_B2_Write
 147              	.LVL17:
 299:DispenserIF.c ****             {
 148              		.loc 1 299 13 view .LVU31
 299:DispenserIF.c ****             {
 149              		.loc 1 299 15 is_stmt 0 view .LVU32
 150 0088 012C     		cmp	r4, #1
 151 008a 03D0     		beq	.L23
 305:DispenserIF.c ****             }            
 152              		.loc 1 305 17 is_stmt 1 view .LVU33
 305:DispenserIF.c ****             }            
 153              		.loc 1 305 26 is_stmt 0 view .LVU34
 154 008c 3A4B     		ldr	r3, .L29
 155 008e 0122     		movs	r2, #1
 156 0090 1A70     		strb	r2, [r3]
ARM GAS  C:\Users\jens-\AppData\Local\Temp\ccCtgRll.s 			page 11


 157 0092 D2E7     		b	.L1
 158              	.L23:
 301:DispenserIF.c ****             }
 159              		.loc 1 301 17 is_stmt 1 view .LVU35
 301:DispenserIF.c ****             }
 160              		.loc 1 301 26 is_stmt 0 view .LVU36
 161 0094 384B     		ldr	r3, .L29
 162 0096 0322     		movs	r2, #3
 163 0098 1A70     		strb	r2, [r3]
 164 009a CEE7     		b	.L1
 165              	.LVL18:
 166              	.L8:
 311:DispenserIF.c ****             Pin_A2_Write(1);
 167              		.loc 1 311 13 is_stmt 1 view .LVU37
 168 009c 0020     		movs	r0, #0
 169              	.LVL19:
 311:DispenserIF.c ****             Pin_A2_Write(1);
 170              		.loc 1 311 13 is_stmt 0 view .LVU38
 171 009e FFF7FEFF 		bl	Pin_A1_Write
 172              	.LVL20:
 312:DispenserIF.c ****             Pin_B1_Write(1);
 173              		.loc 1 312 13 is_stmt 1 view .LVU39
 174 00a2 0120     		movs	r0, #1
 175 00a4 FFF7FEFF 		bl	Pin_A2_Write
 176              	.LVL21:
 313:DispenserIF.c ****             Pin_B2_Write(0);
 177              		.loc 1 313 13 view .LVU40
 178 00a8 0120     		movs	r0, #1
 179 00aa FFF7FEFF 		bl	Pin_B1_Write
 180              	.LVL22:
 314:DispenserIF.c ****             if(direction==RIGHT)
 181              		.loc 1 314 13 view .LVU41
 182 00ae 0020     		movs	r0, #0
 183 00b0 FFF7FEFF 		bl	Pin_B2_Write
 184              	.LVL23:
 315:DispenserIF.c ****             {
 185              		.loc 1 315 13 view .LVU42
 315:DispenserIF.c ****             {
 186              		.loc 1 315 15 is_stmt 0 view .LVU43
 187 00b4 012C     		cmp	r4, #1
 188 00b6 03D0     		beq	.L24
 321:DispenserIF.c ****             }            
 189              		.loc 1 321 17 is_stmt 1 view .LVU44
 321:DispenserIF.c ****             }            
 190              		.loc 1 321 26 is_stmt 0 view .LVU45
 191 00b8 2F4B     		ldr	r3, .L29
 192 00ba 0222     		movs	r2, #2
 193 00bc 1A70     		strb	r2, [r3]
 194 00be BCE7     		b	.L1
 195              	.L24:
 317:DispenserIF.c ****             }
 196              		.loc 1 317 17 is_stmt 1 view .LVU46
 317:DispenserIF.c ****             }
 197              		.loc 1 317 26 is_stmt 0 view .LVU47
 198 00c0 2D4B     		ldr	r3, .L29
 199 00c2 0422     		movs	r2, #4
 200 00c4 1A70     		strb	r2, [r3]
ARM GAS  C:\Users\jens-\AppData\Local\Temp\ccCtgRll.s 			page 12


 201 00c6 B8E7     		b	.L1
 202              	.LVL24:
 203              	.L7:
 327:DispenserIF.c ****             Pin_A2_Write(0);
 204              		.loc 1 327 13 is_stmt 1 view .LVU48
 205 00c8 0020     		movs	r0, #0
 206              	.LVL25:
 327:DispenserIF.c ****             Pin_A2_Write(0);
 207              		.loc 1 327 13 is_stmt 0 view .LVU49
 208 00ca FFF7FEFF 		bl	Pin_A1_Write
 209              	.LVL26:
 328:DispenserIF.c ****             Pin_B1_Write(1);
 210              		.loc 1 328 13 is_stmt 1 view .LVU50
 211 00ce 0020     		movs	r0, #0
 212 00d0 FFF7FEFF 		bl	Pin_A2_Write
 213              	.LVL27:
 329:DispenserIF.c ****             Pin_B2_Write(0);
 214              		.loc 1 329 13 view .LVU51
 215 00d4 0120     		movs	r0, #1
 216 00d6 FFF7FEFF 		bl	Pin_B1_Write
 217              	.LVL28:
 330:DispenserIF.c ****             if(direction==RIGHT)
 218              		.loc 1 330 13 view .LVU52
 219 00da 0020     		movs	r0, #0
 220 00dc FFF7FEFF 		bl	Pin_B2_Write
 221              	.LVL29:
 331:DispenserIF.c ****             {
 222              		.loc 1 331 13 view .LVU53
 331:DispenserIF.c ****             {
 223              		.loc 1 331 15 is_stmt 0 view .LVU54
 224 00e0 012C     		cmp	r4, #1
 225 00e2 03D0     		beq	.L25
 337:DispenserIF.c ****             }            
 226              		.loc 1 337 17 is_stmt 1 view .LVU55
 337:DispenserIF.c ****             }            
 227              		.loc 1 337 26 is_stmt 0 view .LVU56
 228 00e4 244B     		ldr	r3, .L29
 229 00e6 0322     		movs	r2, #3
 230 00e8 1A70     		strb	r2, [r3]
 231 00ea A6E7     		b	.L1
 232              	.L25:
 333:DispenserIF.c ****             }
 233              		.loc 1 333 17 is_stmt 1 view .LVU57
 333:DispenserIF.c ****             }
 234              		.loc 1 333 26 is_stmt 0 view .LVU58
 235 00ec 224B     		ldr	r3, .L29
 236 00ee 0522     		movs	r2, #5
 237 00f0 1A70     		strb	r2, [r3]
 238 00f2 A2E7     		b	.L1
 239              	.LVL30:
 240              	.L6:
 343:DispenserIF.c ****             Pin_A2_Write(0);
 241              		.loc 1 343 13 is_stmt 1 view .LVU59
 242 00f4 0020     		movs	r0, #0
 243              	.LVL31:
 343:DispenserIF.c ****             Pin_A2_Write(0);
 244              		.loc 1 343 13 is_stmt 0 view .LVU60
ARM GAS  C:\Users\jens-\AppData\Local\Temp\ccCtgRll.s 			page 13


 245 00f6 FFF7FEFF 		bl	Pin_A1_Write
 246              	.LVL32:
 344:DispenserIF.c ****             Pin_B1_Write(1);
 247              		.loc 1 344 13 is_stmt 1 view .LVU61
 248 00fa 0020     		movs	r0, #0
 249 00fc FFF7FEFF 		bl	Pin_A2_Write
 250              	.LVL33:
 345:DispenserIF.c ****             Pin_B2_Write(1);
 251              		.loc 1 345 13 view .LVU62
 252 0100 0120     		movs	r0, #1
 253 0102 FFF7FEFF 		bl	Pin_B1_Write
 254              	.LVL34:
 346:DispenserIF.c ****             if(direction==RIGHT)
 255              		.loc 1 346 13 view .LVU63
 256 0106 0120     		movs	r0, #1
 257 0108 FFF7FEFF 		bl	Pin_B2_Write
 258              	.LVL35:
 347:DispenserIF.c ****             {
 259              		.loc 1 347 13 view .LVU64
 347:DispenserIF.c ****             {
 260              		.loc 1 347 15 is_stmt 0 view .LVU65
 261 010c 012C     		cmp	r4, #1
 262 010e 03D0     		beq	.L26
 353:DispenserIF.c ****             }           
 263              		.loc 1 353 17 is_stmt 1 view .LVU66
 353:DispenserIF.c ****             }           
 264              		.loc 1 353 26 is_stmt 0 view .LVU67
 265 0110 194B     		ldr	r3, .L29
 266 0112 0422     		movs	r2, #4
 267 0114 1A70     		strb	r2, [r3]
 268 0116 90E7     		b	.L1
 269              	.L26:
 349:DispenserIF.c ****             }
 270              		.loc 1 349 17 is_stmt 1 view .LVU68
 349:DispenserIF.c ****             }
 271              		.loc 1 349 26 is_stmt 0 view .LVU69
 272 0118 174B     		ldr	r3, .L29
 273 011a 0622     		movs	r2, #6
 274 011c 1A70     		strb	r2, [r3]
 275 011e 8CE7     		b	.L1
 276              	.LVL36:
 277              	.L5:
 359:DispenserIF.c ****             Pin_A2_Write(0);
 278              		.loc 1 359 13 is_stmt 1 view .LVU70
 279 0120 0020     		movs	r0, #0
 280              	.LVL37:
 359:DispenserIF.c ****             Pin_A2_Write(0);
 281              		.loc 1 359 13 is_stmt 0 view .LVU71
 282 0122 FFF7FEFF 		bl	Pin_A1_Write
 283              	.LVL38:
 360:DispenserIF.c ****             Pin_B1_Write(0);
 284              		.loc 1 360 13 is_stmt 1 view .LVU72
 285 0126 0020     		movs	r0, #0
 286 0128 FFF7FEFF 		bl	Pin_A2_Write
 287              	.LVL39:
 361:DispenserIF.c ****             Pin_B2_Write(1);
 288              		.loc 1 361 13 view .LVU73
ARM GAS  C:\Users\jens-\AppData\Local\Temp\ccCtgRll.s 			page 14


 289 012c 0020     		movs	r0, #0
 290 012e FFF7FEFF 		bl	Pin_B1_Write
 291              	.LVL40:
 362:DispenserIF.c ****             if(direction==RIGHT)
 292              		.loc 1 362 13 view .LVU74
 293 0132 0120     		movs	r0, #1
 294 0134 FFF7FEFF 		bl	Pin_B2_Write
 295              	.LVL41:
 363:DispenserIF.c ****             {
 296              		.loc 1 363 13 view .LVU75
 363:DispenserIF.c ****             {
 297              		.loc 1 363 15 is_stmt 0 view .LVU76
 298 0138 012C     		cmp	r4, #1
 299 013a 03D0     		beq	.L27
 369:DispenserIF.c ****             }            
 300              		.loc 1 369 17 is_stmt 1 view .LVU77
 369:DispenserIF.c ****             }            
 301              		.loc 1 369 26 is_stmt 0 view .LVU78
 302 013c 0E4B     		ldr	r3, .L29
 303 013e 0522     		movs	r2, #5
 304 0140 1A70     		strb	r2, [r3]
 305 0142 7AE7     		b	.L1
 306              	.L27:
 365:DispenserIF.c ****             }
 307              		.loc 1 365 17 is_stmt 1 view .LVU79
 365:DispenserIF.c ****             }
 308              		.loc 1 365 26 is_stmt 0 view .LVU80
 309 0144 0C4B     		ldr	r3, .L29
 310 0146 0722     		movs	r2, #7
 311 0148 1A70     		strb	r2, [r3]
 312 014a 76E7     		b	.L1
 313              	.LVL42:
 314              	.L3:
 375:DispenserIF.c ****             Pin_A2_Write(0);
 315              		.loc 1 375 13 is_stmt 1 view .LVU81
 316 014c 0120     		movs	r0, #1
 317              	.LVL43:
 375:DispenserIF.c ****             Pin_A2_Write(0);
 318              		.loc 1 375 13 is_stmt 0 view .LVU82
 319 014e FFF7FEFF 		bl	Pin_A1_Write
 320              	.LVL44:
 376:DispenserIF.c ****             Pin_B1_Write(0);
 321              		.loc 1 376 13 is_stmt 1 view .LVU83
 322 0152 0020     		movs	r0, #0
 323 0154 FFF7FEFF 		bl	Pin_A2_Write
 324              	.LVL45:
 377:DispenserIF.c ****             Pin_B2_Write(1);
 325              		.loc 1 377 13 view .LVU84
 326 0158 0020     		movs	r0, #0
 327 015a FFF7FEFF 		bl	Pin_B1_Write
 328              	.LVL46:
 378:DispenserIF.c ****             if(direction==RIGHT)
 329              		.loc 1 378 13 view .LVU85
 330 015e 0120     		movs	r0, #1
 331 0160 FFF7FEFF 		bl	Pin_B2_Write
 332              	.LVL47:
 379:DispenserIF.c ****             {
ARM GAS  C:\Users\jens-\AppData\Local\Temp\ccCtgRll.s 			page 15


 333              		.loc 1 379 13 view .LVU86
 379:DispenserIF.c ****             {
 334              		.loc 1 379 15 is_stmt 0 view .LVU87
 335 0164 012C     		cmp	r4, #1
 336 0166 03D0     		beq	.L28
 385:DispenserIF.c ****             }            
 337              		.loc 1 385 17 is_stmt 1 view .LVU88
 385:DispenserIF.c ****             }            
 338              		.loc 1 385 26 is_stmt 0 view .LVU89
 339 0168 034B     		ldr	r3, .L29
 340 016a 0622     		movs	r2, #6
 341 016c 1A70     		strb	r2, [r3]
 342              		.loc 1 392 1 view .LVU90
 343 016e 64E7     		b	.L1
 344              	.L28:
 381:DispenserIF.c ****             }
 345              		.loc 1 381 17 is_stmt 1 view .LVU91
 381:DispenserIF.c ****             }
 346              		.loc 1 381 26 is_stmt 0 view .LVU92
 347 0170 014B     		ldr	r3, .L29
 348 0172 0022     		movs	r2, #0
 349 0174 1A70     		strb	r2, [r3]
 350 0176 60E7     		b	.L1
 351              	.L30:
 352              		.align	2
 353              	.L29:
 354 0178 00000000 		.word	.LANCHOR0
 355              		.cfi_endproc
 356              	.LFE70:
 357              		.size	half, .-half
 358              		.section	.text.rotate,"ax",%progbits
 359              		.align	1
 360              		.syntax unified
 361              		.thumb
 362              		.thumb_func
 363              		.fpu softvfp
 364              		.type	rotate, %function
 365              	rotate:
 366              	.LVL48:
 367              	.LFB71:
 393:DispenserIF.c **** static void rotate(int i, enum DIRECTION direction)
 394:DispenserIF.c **** {
 368              		.loc 1 394 1 is_stmt 1 view -0
 369              		.cfi_startproc
 370              		@ args = 0, pretend = 0, frame = 0
 371              		@ frame_needed = 0, uses_anonymous_args = 0
 372              		.loc 1 394 1 is_stmt 0 view .LVU94
 373 0000 70B5     		push	{r4, r5, r6, lr}
 374              		.cfi_def_cfa_offset 16
 375              		.cfi_offset 4, -16
 376              		.cfi_offset 5, -12
 377              		.cfi_offset 6, -8
 378              		.cfi_offset 14, -4
 379 0002 0546     		mov	r5, r0
 380 0004 0E46     		mov	r6, r1
 395:DispenserIF.c ****     //iterer i gange gennem for lykke.
 396:DispenserIF.c ****     for(int j=0;j<i;++j)
ARM GAS  C:\Users\jens-\AppData\Local\Temp\ccCtgRll.s 			page 16


 381              		.loc 1 396 5 is_stmt 1 view .LVU95
 382              	.LBB2:
 383              		.loc 1 396 9 view .LVU96
 384              	.LVL49:
 385              		.loc 1 396 13 is_stmt 0 view .LVU97
 386 0006 0024     		movs	r4, #0
 387              	.LVL50:
 388              	.L32:
 389              		.loc 1 396 17 is_stmt 1 discriminator 1 view .LVU98
 390              		.loc 1 396 5 is_stmt 0 discriminator 1 view .LVU99
 391 0008 AC42     		cmp	r4, r5
 392 000a 07DA     		bge	.L35
 397:DispenserIF.c ****     {
 398:DispenserIF.c ****     //roter 1 trin i angiven retning.
 399:DispenserIF.c ****     half(direction);
 393              		.loc 1 399 5 is_stmt 1 discriminator 3 view .LVU100
 394 000c 3046     		mov	r0, r6
 395 000e FFF7FEFF 		bl	half
 396              	.LVL51:
 400:DispenserIF.c ****     //delay mellem steps: 2 milisekunder
 401:DispenserIF.c ****     CyDelay(2);
 397              		.loc 1 401 5 discriminator 3 view .LVU101
 398 0012 0220     		movs	r0, #2
 399 0014 FFF7FEFF 		bl	CyDelay
 400              	.LVL52:
 396:DispenserIF.c ****     {
 401              		.loc 1 396 21 discriminator 3 view .LVU102
 402 0018 0134     		adds	r4, r4, #1
 403              	.LVL53:
 396:DispenserIF.c ****     {
 404              		.loc 1 396 21 is_stmt 0 discriminator 3 view .LVU103
 405 001a F5E7     		b	.L32
 406              	.L35:
 396:DispenserIF.c ****     {
 407              		.loc 1 396 21 discriminator 3 view .LVU104
 408              	.LBE2:
 402:DispenserIF.c ****     }
 403:DispenserIF.c **** }
 409              		.loc 1 403 1 view .LVU105
 410 001c 70BD     		pop	{r4, r5, r6, pc}
 411              		.loc 1 403 1 view .LVU106
 412              		.cfi_endproc
 413              	.LFE71:
 414              		.size	rotate, .-rotate
 415              		.section	.text.rotateRight,"ax",%progbits
 416              		.align	1
 417              		.syntax unified
 418              		.thumb
 419              		.thumb_func
 420              		.fpu softvfp
 421              		.type	rotateRight, %function
 422              	rotateRight:
 423              	.LVL54:
 424              	.LFB72:
 404:DispenserIF.c **** static void rotateRight(int i)
 405:DispenserIF.c **** {
 425              		.loc 1 405 1 is_stmt 1 view -0
ARM GAS  C:\Users\jens-\AppData\Local\Temp\ccCtgRll.s 			page 17


 426              		.cfi_startproc
 427              		@ args = 0, pretend = 0, frame = 0
 428              		@ frame_needed = 0, uses_anonymous_args = 0
 429              		.loc 1 405 1 is_stmt 0 view .LVU108
 430 0000 08B5     		push	{r3, lr}
 431              		.cfi_def_cfa_offset 8
 432              		.cfi_offset 3, -8
 433              		.cfi_offset 14, -4
 406:DispenserIF.c ****     rotate(i,RIGHT);
 434              		.loc 1 406 5 is_stmt 1 view .LVU109
 435 0002 0121     		movs	r1, #1
 436 0004 FFF7FEFF 		bl	rotate
 437              	.LVL55:
 407:DispenserIF.c **** }
 438              		.loc 1 407 1 is_stmt 0 view .LVU110
 439 0008 08BD     		pop	{r3, pc}
 440              		.cfi_endproc
 441              	.LFE72:
 442              		.size	rotateRight, .-rotateRight
 443              		.section	.text.calibratePlatform,"ax",%progbits
 444              		.align	1
 445              		.syntax unified
 446              		.thumb
 447              		.thumb_func
 448              		.fpu softvfp
 449              		.type	calibratePlatform, %function
 450              	calibratePlatform:
 451              	.LVL56:
 452              	.LFB74:
 408:DispenserIF.c **** static void rotateLeft(int i)
 409:DispenserIF.c **** {
 410:DispenserIF.c ****     rotate(i,LEFT);
 411:DispenserIF.c **** }
 412:DispenserIF.c **** 
 413:DispenserIF.c **** static void calibratePlatform(DispenserIF *this)
 414:DispenserIF.c **** {
 453              		.loc 1 414 1 is_stmt 1 view -0
 454              		.cfi_startproc
 455              		@ args = 0, pretend = 0, frame = 0
 456              		@ frame_needed = 0, uses_anonymous_args = 0
 457              		.loc 1 414 1 is_stmt 0 view .LVU112
 458 0000 10B5     		push	{r4, lr}
 459              		.cfi_def_cfa_offset 8
 460              		.cfi_offset 4, -8
 461              		.cfi_offset 14, -4
 462 0002 0446     		mov	r4, r0
 415:DispenserIF.c ****     //Iterer indtil Motor_Calibration_Sensor==1
 416:DispenserIF.c ****     while(Motor_Calibration_Sensor_Read()!=1)
 463              		.loc 1 416 5 is_stmt 1 view .LVU113
 464              	.LVL57:
 465              	.L39:
 466              		.loc 1 416 10 view .LVU114
 467              		.loc 1 416 11 is_stmt 0 view .LVU115
 468 0004 FFF7FEFF 		bl	Motor_Calibration_Sensor_Read
 469              	.LVL58:
 470              		.loc 1 416 10 view .LVU116
 471 0008 0128     		cmp	r0, #1
ARM GAS  C:\Users\jens-\AppData\Local\Temp\ccCtgRll.s 			page 18


 472 000a 06D0     		beq	.L42
 417:DispenserIF.c ****     {
 418:DispenserIF.c ****         //et trin af gangen, så refleksbrikken ikke bliver misset. Delay mellem steps er indbygget
 419:DispenserIF.c ****         rotateRight(1);
 473              		.loc 1 419 9 is_stmt 1 view .LVU117
 474 000c 0120     		movs	r0, #1
 475 000e FFF7FEFF 		bl	rotateRight
 476              	.LVL59:
 420:DispenserIF.c ****         GenPlatSensorInput(this->testPtr);
 477              		.loc 1 420 9 view .LVU118
 478 0012 2068     		ldr	r0, [r4]
 479 0014 FFF7FEFF 		bl	GenPlatSensorInput
 480              	.LVL60:
 481 0018 F4E7     		b	.L39
 482              	.L42:
 421:DispenserIF.c ****     }
 422:DispenserIF.c ****     this->platpos=FIRST;
 483              		.loc 1 422 5 view .LVU119
 484              		.loc 1 422 18 is_stmt 0 view .LVU120
 485 001a 0023     		movs	r3, #0
 486 001c 2371     		strb	r3, [r4, #4]
 423:DispenserIF.c **** }
 487              		.loc 1 423 1 view .LVU121
 488 001e 10BD     		pop	{r4, pc}
 489              		.loc 1 423 1 view .LVU122
 490              		.cfi_endproc
 491              	.LFE74:
 492              		.size	calibratePlatform, .-calibratePlatform
 493              		.section	.text.rotateLeft,"ax",%progbits
 494              		.align	1
 495              		.syntax unified
 496              		.thumb
 497              		.thumb_func
 498              		.fpu softvfp
 499              		.type	rotateLeft, %function
 500              	rotateLeft:
 501              	.LVL61:
 502              	.LFB73:
 409:DispenserIF.c ****     rotate(i,LEFT);
 503              		.loc 1 409 1 is_stmt 1 view -0
 504              		.cfi_startproc
 505              		@ args = 0, pretend = 0, frame = 0
 506              		@ frame_needed = 0, uses_anonymous_args = 0
 409:DispenserIF.c ****     rotate(i,LEFT);
 507              		.loc 1 409 1 is_stmt 0 view .LVU124
 508 0000 08B5     		push	{r3, lr}
 509              		.cfi_def_cfa_offset 8
 510              		.cfi_offset 3, -8
 511              		.cfi_offset 14, -4
 410:DispenserIF.c **** }
 512              		.loc 1 410 5 is_stmt 1 view .LVU125
 513 0002 0021     		movs	r1, #0
 514 0004 FFF7FEFF 		bl	rotate
 515              	.LVL62:
 411:DispenserIF.c **** 
 516              		.loc 1 411 1 is_stmt 0 view .LVU126
 517 0008 08BD     		pop	{r3, pc}
ARM GAS  C:\Users\jens-\AppData\Local\Temp\ccCtgRll.s 			page 19


 518              		.cfi_endproc
 519              	.LFE73:
 520              		.size	rotateLeft, .-rotateLeft
 521              		.section	.text.rotateTo,"ax",%progbits
 522              		.align	1
 523              		.syntax unified
 524              		.thumb
 525              		.thumb_func
 526              		.fpu softvfp
 527              		.type	rotateTo, %function
 528              	rotateTo:
 529              	.LVL63:
 530              	.LFB75:
 424:DispenserIF.c **** static void rotateTo(DispenserIF *this, PLATPOS position)
 425:DispenserIF.c **** {
 531              		.loc 1 425 1 is_stmt 1 view -0
 532              		.cfi_startproc
 533              		@ args = 0, pretend = 0, frame = 0
 534              		@ frame_needed = 0, uses_anonymous_args = 0
 535              		.loc 1 425 1 is_stmt 0 view .LVU128
 536 0000 08B5     		push	{r3, lr}
 537              		.cfi_def_cfa_offset 8
 538              		.cfi_offset 3, -8
 539              		.cfi_offset 14, -4
 426:DispenserIF.c ****     switch(position)
 540              		.loc 1 426 5 is_stmt 1 view .LVU129
 541 0002 0129     		cmp	r1, #1
 542 0004 10D0     		beq	.L46
 543 0006 0229     		cmp	r1, #2
 544 0008 1AD0     		beq	.L47
 545 000a 01B1     		cbz	r1, .L56
 546              	.LVL64:
 547              	.L45:
 427:DispenserIF.c ****     {
 428:DispenserIF.c ****         case FIRST:
 429:DispenserIF.c ****             switch(this->platpos)
 430:DispenserIF.c ****             {
 431:DispenserIF.c ****                 case FIRST:
 432:DispenserIF.c ****                 break;
 433:DispenserIF.c ****                 case SECOND:
 434:DispenserIF.c ****                 //45 deg. right:
 435:DispenserIF.c ****                 //45/0.9=50
 436:DispenserIF.c ****                 rotateRight(50);
 437:DispenserIF.c ****                 break;
 438:DispenserIF.c ****                 case THIRD:
 439:DispenserIF.c ****                 //90 deg. right:
 440:DispenserIF.c ****                 //90/0.9=100
 441:DispenserIF.c ****                 rotateRight(100);
 442:DispenserIF.c ****                 break;
 443:DispenserIF.c ****                 default:
 444:DispenserIF.c ****                 break;
 445:DispenserIF.c ****             }
 446:DispenserIF.c ****         break;
 447:DispenserIF.c ****         case SECOND:
 448:DispenserIF.c ****             switch(this->platpos)
 449:DispenserIF.c ****             {
 450:DispenserIF.c ****                 case FIRST:
ARM GAS  C:\Users\jens-\AppData\Local\Temp\ccCtgRll.s 			page 20


 451:DispenserIF.c ****                 //45 deg. left:
 452:DispenserIF.c ****                 //45/0.9=50
 453:DispenserIF.c ****                 rotateLeft(50);
 454:DispenserIF.c ****                 break;
 455:DispenserIF.c ****                 case SECOND:
 456:DispenserIF.c ****                 break;
 457:DispenserIF.c ****                 case THIRD:
 458:DispenserIF.c ****                 //45 deg. right:
 459:DispenserIF.c ****                 //45/0.9=50
 460:DispenserIF.c ****                 rotateRight(50);
 461:DispenserIF.c ****                 break;
 462:DispenserIF.c ****                 default:
 463:DispenserIF.c ****                 break;
 464:DispenserIF.c ****             }
 465:DispenserIF.c ****         break;
 466:DispenserIF.c ****         case THIRD:
 467:DispenserIF.c ****             switch(this->platpos)
 468:DispenserIF.c ****             {
 469:DispenserIF.c ****                 case FIRST:
 470:DispenserIF.c ****                 //90 deg. left:
 471:DispenserIF.c ****                 //90/0.9=100
 472:DispenserIF.c ****                 rotateLeft(100);
 473:DispenserIF.c ****                 break;
 474:DispenserIF.c ****                 case SECOND:
 475:DispenserIF.c ****                 //45 deg. left:
 476:DispenserIF.c ****                 //45/0.9=40
 477:DispenserIF.c ****                 rotateLeft(50);
 478:DispenserIF.c ****                 break;
 479:DispenserIF.c ****                 case THIRD:
 480:DispenserIF.c ****                 break;
 481:DispenserIF.c ****                 default:
 482:DispenserIF.c ****                 break;
 483:DispenserIF.c ****             }
 484:DispenserIF.c ****         break;
 485:DispenserIF.c ****         default:
 486:DispenserIF.c ****         break;
 487:DispenserIF.c ****     }
 488:DispenserIF.c **** }...
 548              		.loc 1 488 1 is_stmt 0 view .LVU130
 549 000c 08BD     		pop	{r3, pc}
 550              	.LVL65:
 551              	.L56:
 429:DispenserIF.c ****             switch(this->platpos)
 552              		.loc 1 429 13 is_stmt 1 view .LVU131
 429:DispenserIF.c ****             switch(this->platpos)
 553              		.loc 1 429 24 is_stmt 0 view .LVU132
 554 000e 0379     		ldrb	r3, [r0, #4]	@ zero_extendqisi2
 555 0010 012B     		cmp	r3, #1
 556 0012 05D0     		beq	.L49
 557 0014 022B     		cmp	r3, #2
 558 0016 F9D1     		bne	.L45
 441:DispenserIF.c ****                 rotateRight(100);
 559              		.loc 1 441 17 is_stmt 1 view .LVU133
 560 0018 6420     		movs	r0, #100
 561              	.LVL66:
 441:DispenserIF.c ****                 rotateRight(100);
 562              		.loc 1 441 17 is_stmt 0 view .LVU134
ARM GAS  C:\Users\jens-\AppData\Local\Temp\ccCtgRll.s 			page 21


 563 001a FFF7FEFF 		bl	rotateRight
 564              	.LVL67:
 442:DispenserIF.c ****                 break;
 565              		.loc 1 442 17 is_stmt 1 view .LVU135
 566 001e F5E7     		b	.L45
 567              	.LVL68:
 568              	.L49:
 436:DispenserIF.c ****                 rotateRight(50);
 569              		.loc 1 436 17 view .LVU136
 570 0020 3220     		movs	r0, #50
 571              	.LVL69:
 436:DispenserIF.c ****                 rotateRight(50);
 572              		.loc 1 436 17 is_stmt 0 view .LVU137
 573 0022 FFF7FEFF 		bl	rotateRight
 574              	.LVL70:
 437:DispenserIF.c ****                 break;
 575              		.loc 1 437 17 is_stmt 1 view .LVU138
 576 0026 F1E7     		b	.L45
 577              	.LVL71:
 578              	.L46:
 448:DispenserIF.c ****             switch(this->platpos)
 579              		.loc 1 448 13 view .LVU139
 448:DispenserIF.c ****             switch(this->platpos)
 580              		.loc 1 448 24 is_stmt 0 view .LVU140
 581 0028 0379     		ldrb	r3, [r0, #4]	@ zero_extendqisi2
 582 002a 2BB1     		cbz	r3, .L51
 583 002c 022B     		cmp	r3, #2
 584 002e EDD1     		bne	.L45
 460:DispenserIF.c ****                 rotateRight(50);
 585              		.loc 1 460 17 is_stmt 1 view .LVU141
 586 0030 3220     		movs	r0, #50
 587              	.LVL72:
 460:DispenserIF.c ****                 rotateRight(50);
 588              		.loc 1 460 17 is_stmt 0 view .LVU142
 589 0032 FFF7FEFF 		bl	rotateRight
 590              	.LVL73:
 461:DispenserIF.c ****                 break;
 591              		.loc 1 461 17 is_stmt 1 view .LVU143
 592 0036 E9E7     		b	.L45
 593              	.LVL74:
 594              	.L51:
 453:DispenserIF.c ****                 rotateLeft(50);
 595              		.loc 1 453 17 view .LVU144
 596 0038 3220     		movs	r0, #50
 597              	.LVL75:
 453:DispenserIF.c ****                 rotateLeft(50);
 598              		.loc 1 453 17 is_stmt 0 view .LVU145
 599 003a FFF7FEFF 		bl	rotateLeft
 600              	.LVL76:
 454:DispenserIF.c ****                 break;
 601              		.loc 1 454 17 is_stmt 1 view .LVU146
 602 003e E5E7     		b	.L45
 603              	.LVL77:
 604              	.L47:
 467:DispenserIF.c ****             switch(this->platpos)
 605              		.loc 1 467 13 view .LVU147
 467:DispenserIF.c ****             switch(this->platpos)
ARM GAS  C:\Users\jens-\AppData\Local\Temp\ccCtgRll.s 			page 22


 606              		.loc 1 467 24 is_stmt 0 view .LVU148
 607 0040 0379     		ldrb	r3, [r0, #4]	@ zero_extendqisi2
 608 0042 2BB1     		cbz	r3, .L53
 609 0044 012B     		cmp	r3, #1
 610 0046 E1D1     		bne	.L45
 477:DispenserIF.c ****                 rotateLeft(50);
 611              		.loc 1 477 17 is_stmt 1 view .LVU149
 612 0048 3220     		movs	r0, #50
 613              	.LVL78:
 477:DispenserIF.c ****                 rotateLeft(50);
 614              		.loc 1 477 17 is_stmt 0 view .LVU150
 615 004a FFF7FEFF 		bl	rotateLeft
 616              	.LVL79:
 478:DispenserIF.c ****                 break;
 617              		.loc 1 478 17 is_stmt 1 view .LVU151
 618              		.loc 1 488 1 is_stmt 0 view .LVU152
 619 004e DDE7     		b	.L45
 620              	.LVL80:
 621              	.L53:
 472:DispenserIF.c ****                 rotateLeft(100);
 622              		.loc 1 472 17 is_stmt 1 view .LVU153
 623 0050 6420     		movs	r0, #100
 624              	.LVL81:
 472:DispenserIF.c ****                 rotateLeft(100);
 625              		.loc 1 472 17 is_stmt 0 view .LVU154
 626 0052 FFF7FEFF 		bl	rotateLeft
 627              	.LVL82:
 473:DispenserIF.c ****                 break;
 628              		.loc 1 473 17 is_stmt 1 view .LVU155
 629 0056 D9E7     		b	.L45
 630              		.cfi_endproc
 631              	.LFE75:
 632              		.size	rotateTo, .-rotateTo
 633              		.section	.rodata.str1.4,"aMS",%progbits,1
 634              		.align	2
 635              	.LC0:
 636 0000 526F7461 		.ascii	"Rotating platform to A\015\012\000"
 636      74696E67 
 636      20706C61 
 636      74666F72 
 636      6D20746F 
 637 0019 000000   		.align	2
 638              	.LC1:
 639 001c 526F7461 		.ascii	"Rotating platform to B\015\012\000"
 639      74696E67 
 639      20706C61 
 639      74666F72 
 639      6D20746F 
 640 0035 000000   		.align	2
 641              	.LC2:
 642 0038 526F7461 		.ascii	"Rotating platform to C\015\012\000"
 642      74696E67 
 642      20706C61 
 642      74666F72 
 642      6D20746F 
 643              		.section	.text.rotatePlatform,"ax",%progbits
 644              		.align	1
ARM GAS  C:\Users\jens-\AppData\Local\Temp\ccCtgRll.s 			page 23


 645              		.syntax unified
 646              		.thumb
 647              		.thumb_func
 648              		.fpu softvfp
 649              		.type	rotatePlatform, %function
 650              	rotatePlatform:
 651              	.LVL83:
 652              	.LFB65:
 112:DispenserIF.c **** {
 653              		.loc 1 112 1 view -0
 654              		.cfi_startproc
 655              		@ args = 0, pretend = 0, frame = 0
 656              		@ frame_needed = 0, uses_anonymous_args = 0
 112:DispenserIF.c **** {
 657              		.loc 1 112 1 is_stmt 0 view .LVU157
 658 0000 10B5     		push	{r4, lr}
 659              		.cfi_def_cfa_offset 8
 660              		.cfi_offset 4, -8
 661              		.cfi_offset 14, -4
 662 0002 0446     		mov	r4, r0
 114:DispenserIF.c ****     switch(type)
 663              		.loc 1 114 5 is_stmt 1 view .LVU158
 664 0004 0129     		cmp	r1, #1
 665 0006 0DD0     		beq	.L58
 666 0008 0229     		cmp	r1, #2
 667 000a 14D0     		beq	.L59
 668 000c 09B1     		cbz	r1, .L62
 669              	.LVL84:
 670              	.L60:
 132:DispenserIF.c ****     return 0;
 671              		.loc 1 132 5 view .LVU159
 134:DispenserIF.c **** }
 672              		.loc 1 134 1 is_stmt 0 view .LVU160
 673 000e 0020     		movs	r0, #0
 674 0010 10BD     		pop	{r4, pc}
 675              	.LVL85:
 676              	.L62:
 117:DispenserIF.c ****             writeTester(this->testPtr,"Rotating platform to A\r\n");
 677              		.loc 1 117 13 is_stmt 1 view .LVU161
 678 0012 0D49     		ldr	r1, .L63
 679              	.LVL86:
 117:DispenserIF.c ****             writeTester(this->testPtr,"Rotating platform to A\r\n");
 680              		.loc 1 117 13 is_stmt 0 view .LVU162
 681 0014 0068     		ldr	r0, [r0]
 682              	.LVL87:
 117:DispenserIF.c ****             writeTester(this->testPtr,"Rotating platform to A\r\n");
 683              		.loc 1 117 13 view .LVU163
 684 0016 FFF7FEFF 		bl	writeTester
 685              	.LVL88:
 118:DispenserIF.c ****             rotateTo(this,FIRST);
 686              		.loc 1 118 13 is_stmt 1 view .LVU164
 687 001a 0021     		movs	r1, #0
 688 001c 2046     		mov	r0, r4
 689 001e FFF7FEFF 		bl	rotateTo
 690              	.LVL89:
 119:DispenserIF.c ****         break;
 691              		.loc 1 119 9 view .LVU165
ARM GAS  C:\Users\jens-\AppData\Local\Temp\ccCtgRll.s 			page 24


 692 0022 F4E7     		b	.L60
 693              	.LVL90:
 694              	.L58:
 121:DispenserIF.c ****             writeTester(this->testPtr,"Rotating platform to B\r\n");
 695              		.loc 1 121 13 view .LVU166
 696 0024 0949     		ldr	r1, .L63+4
 697              	.LVL91:
 121:DispenserIF.c ****             writeTester(this->testPtr,"Rotating platform to B\r\n");
 698              		.loc 1 121 13 is_stmt 0 view .LVU167
 699 0026 0068     		ldr	r0, [r0]
 700              	.LVL92:
 121:DispenserIF.c ****             writeTester(this->testPtr,"Rotating platform to B\r\n");
 701              		.loc 1 121 13 view .LVU168
 702 0028 FFF7FEFF 		bl	writeTester
 703              	.LVL93:
 122:DispenserIF.c ****             rotateTo(this,SECOND);
 704              		.loc 1 122 13 is_stmt 1 view .LVU169
 705 002c 0121     		movs	r1, #1
 706 002e 2046     		mov	r0, r4
 707 0030 FFF7FEFF 		bl	rotateTo
 708              	.LVL94:
 123:DispenserIF.c ****         break;
 709              		.loc 1 123 9 view .LVU170
 710 0034 EBE7     		b	.L60
 711              	.LVL95:
 712              	.L59:
 125:DispenserIF.c ****             writeTester(this->testPtr,"Rotating platform to C\r\n");
 713              		.loc 1 125 13 view .LVU171
 714 0036 0649     		ldr	r1, .L63+8
 715              	.LVL96:
 125:DispenserIF.c ****             writeTester(this->testPtr,"Rotating platform to C\r\n");
 716              		.loc 1 125 13 is_stmt 0 view .LVU172
 717 0038 0068     		ldr	r0, [r0]
 718              	.LVL97:
 125:DispenserIF.c ****             writeTester(this->testPtr,"Rotating platform to C\r\n");
 719              		.loc 1 125 13 view .LVU173
 720 003a FFF7FEFF 		bl	writeTester
 721              	.LVL98:
 126:DispenserIF.c ****             rotateTo(this,THIRD);
 722              		.loc 1 126 13 is_stmt 1 view .LVU174
 723 003e 0221     		movs	r1, #2
 724 0040 2046     		mov	r0, r4
 725 0042 FFF7FEFF 		bl	rotateTo
 726              	.LVL99:
 127:DispenserIF.c ****         break;
 727              		.loc 1 127 9 view .LVU175
 728 0046 E2E7     		b	.L60
 729              	.L64:
 730              		.align	2
 731              	.L63:
 732 0048 00000000 		.word	.LC0
 733 004c 1C000000 		.word	.LC1
 734 0050 38000000 		.word	.LC2
 735              		.cfi_endproc
 736              	.LFE65:
 737              		.size	rotatePlatform, .-rotatePlatform
 738              		.section	.text.detekterPillebeholdning,"ax",%progbits
ARM GAS  C:\Users\jens-\AppData\Local\Temp\ccCtgRll.s 			page 25


 739              		.align	1
 740              		.syntax unified
 741              		.thumb
 742              		.thumb_func
 743              		.fpu softvfp
 744              		.type	detekterPillebeholdning, %function
 745              	detekterPillebeholdning:
 746              	.LVL100:
 747              	.LFB69:
 246:DispenserIF.c **** {
 748              		.loc 1 246 1 view -0
 749              		.cfi_startproc
 750              		@ args = 0, pretend = 0, frame = 0
 751              		@ frame_needed = 0, uses_anonymous_args = 0
 246:DispenserIF.c **** {
 752              		.loc 1 246 1 is_stmt 0 view .LVU177
 753 0000 08B5     		push	{r3, lr}
 754              		.cfi_def_cfa_offset 8
 755              		.cfi_offset 3, -8
 756              		.cfi_offset 14, -4
 249:DispenserIF.c ****     GenConSensorInput(this->testPtr);
 757              		.loc 1 249 5 is_stmt 1 view .LVU178
 758 0002 0068     		ldr	r0, [r0]
 759              	.LVL101:
 249:DispenserIF.c ****     GenConSensorInput(this->testPtr);
 760              		.loc 1 249 5 is_stmt 0 view .LVU179
 761 0004 FFF7FEFF 		bl	GenConSensorInput
 762              	.LVL102:
 250:DispenserIF.c ****     return Pill_Container_Sensor_Read();
 763              		.loc 1 250 5 is_stmt 1 view .LVU180
 250:DispenserIF.c ****     return Pill_Container_Sensor_Read();
 764              		.loc 1 250 12 is_stmt 0 view .LVU181
 765 0008 FFF7FEFF 		bl	Pill_Container_Sensor_Read
 766              	.LVL103:
 251:DispenserIF.c **** }
 767              		.loc 1 251 1 view .LVU182
 768 000c 08BD     		pop	{r3, pc}
 769              		.cfi_endproc
 770              	.LFE69:
 771              		.size	detekterPillebeholdning, .-detekterPillebeholdning
 772              		.section	.text.full,"ax",%progbits
 773              		.align	1
 774              		.syntax unified
 775              		.thumb
 776              		.thumb_func
 777              		.fpu softvfp
 778              		.type	full, %function
 779              	full:
 780              	.LVL104:
 781              	.LFB67:
 152:DispenserIF.c **** {
 782              		.loc 1 152 1 is_stmt 1 view -0
 783              		.cfi_startproc
 784              		@ args = 0, pretend = 0, frame = 0
 785              		@ frame_needed = 0, uses_anonymous_args = 0
 152:DispenserIF.c **** {
 786              		.loc 1 152 1 is_stmt 0 view .LVU184
ARM GAS  C:\Users\jens-\AppData\Local\Temp\ccCtgRll.s 			page 26


 787 0000 10B5     		push	{r4, lr}
 788              		.cfi_def_cfa_offset 8
 789              		.cfi_offset 4, -8
 790              		.cfi_offset 14, -4
 791 0002 0446     		mov	r4, r0
 154:DispenserIF.c ****     switch(fullState)
 792              		.loc 1 154 5 is_stmt 1 view .LVU185
 793 0004 2F4B     		ldr	r3, .L83
 794 0006 5B78     		ldrb	r3, [r3, #1]	@ zero_extendqisi2
 795 0008 032B     		cmp	r3, #3
 796 000a 14D8     		bhi	.L67
 797 000c DFE803F0 		tbb	[pc, r3]
 798              	.L70:
 799 0010 02       		.byte	(.L73-.L70)/2
 800 0011 18       		.byte	(.L72-.L70)/2
 801 0012 2E       		.byte	(.L71-.L70)/2
 802 0013 44       		.byte	(.L69-.L70)/2
 803              		.p2align 1
 804              	.L73:
 158:DispenserIF.c ****             Pin_C1_Write(1);
 805              		.loc 1 158 13 view .LVU186
 806 0014 0120     		movs	r0, #1
 807              	.LVL105:
 158:DispenserIF.c ****             Pin_C1_Write(1);
 808              		.loc 1 158 13 is_stmt 0 view .LVU187
 809 0016 FFF7FEFF 		bl	Pin_C1_Write
 810              	.LVL106:
 159:DispenserIF.c ****             Pin_C2_Write(1);
 811              		.loc 1 159 13 is_stmt 1 view .LVU188
 812 001a 0120     		movs	r0, #1
 813 001c FFF7FEFF 		bl	Pin_C2_Write
 814              	.LVL107:
 160:DispenserIF.c ****             Pin_D1_Write(0);
 815              		.loc 1 160 13 view .LVU189
 816 0020 0020     		movs	r0, #0
 817 0022 FFF7FEFF 		bl	Pin_D1_Write
 818              	.LVL108:
 161:DispenserIF.c ****             Pin_D2_Write(0);
 819              		.loc 1 161 13 view .LVU190
 820 0026 0020     		movs	r0, #0
 821 0028 FFF7FEFF 		bl	Pin_D2_Write
 822              	.LVL109:
 162:DispenserIF.c ****            if(direction==RIGHT)     // der tjekkes i hver state hvilken retning motoren skal koere
 823              		.loc 1 162 12 view .LVU191
 162:DispenserIF.c ****            if(direction==RIGHT)     // der tjekkes i hver state hvilken retning motoren skal koere
 824              		.loc 1 162 14 is_stmt 0 view .LVU192
 825 002c 012C     		cmp	r4, #1
 826 002e 03D0     		beq	.L79
 168:DispenserIF.c ****                 fullState=FULL4;
 827              		.loc 1 168 17 is_stmt 1 view .LVU193
 168:DispenserIF.c ****                 fullState=FULL4;
 828              		.loc 1 168 26 is_stmt 0 view .LVU194
 829 0030 244B     		ldr	r3, .L83
 830 0032 0322     		movs	r2, #3
 831 0034 5A70     		strb	r2, [r3, #1]
 832              	.L67:
 223:DispenserIF.c **** }
ARM GAS  C:\Users\jens-\AppData\Local\Temp\ccCtgRll.s 			page 27


 833              		.loc 1 223 1 view .LVU195
 834 0036 10BD     		pop	{r4, pc}
 835              	.L79:
 164:DispenserIF.c ****                 fullState=FULL2;
 836              		.loc 1 164 17 is_stmt 1 view .LVU196
 164:DispenserIF.c ****                 fullState=FULL2;
 837              		.loc 1 164 26 is_stmt 0 view .LVU197
 838 0038 224B     		ldr	r3, .L83
 839 003a 0122     		movs	r2, #1
 840 003c 5A70     		strb	r2, [r3, #1]
 841 003e FAE7     		b	.L67
 842              	.LVL110:
 843              	.L72:
 174:DispenserIF.c ****             Pin_C1_Write(0);
 844              		.loc 1 174 13 is_stmt 1 view .LVU198
 845 0040 0020     		movs	r0, #0
 846              	.LVL111:
 174:DispenserIF.c ****             Pin_C1_Write(0);
 847              		.loc 1 174 13 is_stmt 0 view .LVU199
 848 0042 FFF7FEFF 		bl	Pin_C1_Write
 849              	.LVL112:
 175:DispenserIF.c ****             Pin_C2_Write(1);
 850              		.loc 1 175 13 is_stmt 1 view .LVU200
 851 0046 0120     		movs	r0, #1
 852 0048 FFF7FEFF 		bl	Pin_C2_Write
 853              	.LVL113:
 176:DispenserIF.c ****             Pin_D1_Write(1);
 854              		.loc 1 176 13 view .LVU201
 855 004c 0120     		movs	r0, #1
 856 004e FFF7FEFF 		bl	Pin_D1_Write
 857              	.LVL114:
 177:DispenserIF.c ****             Pin_D2_Write(0);
 858              		.loc 1 177 13 view .LVU202
 859 0052 0020     		movs	r0, #0
 860 0054 FFF7FEFF 		bl	Pin_D2_Write
 861              	.LVL115:
 178:DispenserIF.c ****             if(direction==RIGHT)
 862              		.loc 1 178 13 view .LVU203
 178:DispenserIF.c ****             if(direction==RIGHT)
 863              		.loc 1 178 15 is_stmt 0 view .LVU204
 864 0058 012C     		cmp	r4, #1
 865 005a 03D0     		beq	.L80
 184:DispenserIF.c ****                 fullState=FULL1;
 866              		.loc 1 184 17 is_stmt 1 view .LVU205
 184:DispenserIF.c ****                 fullState=FULL1;
 867              		.loc 1 184 26 is_stmt 0 view .LVU206
 868 005c 194B     		ldr	r3, .L83
 869 005e 0022     		movs	r2, #0
 870 0060 5A70     		strb	r2, [r3, #1]
 871 0062 E8E7     		b	.L67
 872              	.L80:
 180:DispenserIF.c ****                 fullState=FULL3;
 873              		.loc 1 180 17 is_stmt 1 view .LVU207
 180:DispenserIF.c ****                 fullState=FULL3;
 874              		.loc 1 180 26 is_stmt 0 view .LVU208
 875 0064 174B     		ldr	r3, .L83
 876 0066 0222     		movs	r2, #2
ARM GAS  C:\Users\jens-\AppData\Local\Temp\ccCtgRll.s 			page 28


 877 0068 5A70     		strb	r2, [r3, #1]
 878 006a E4E7     		b	.L67
 879              	.LVL116:
 880              	.L71:
 190:DispenserIF.c ****             Pin_C1_Write(0);
 881              		.loc 1 190 13 is_stmt 1 view .LVU209
 882 006c 0020     		movs	r0, #0
 883              	.LVL117:
 190:DispenserIF.c ****             Pin_C1_Write(0);
 884              		.loc 1 190 13 is_stmt 0 view .LVU210
 885 006e FFF7FEFF 		bl	Pin_C1_Write
 886              	.LVL118:
 191:DispenserIF.c ****             Pin_C2_Write(0);
 887              		.loc 1 191 13 is_stmt 1 view .LVU211
 888 0072 0020     		movs	r0, #0
 889 0074 FFF7FEFF 		bl	Pin_C2_Write
 890              	.LVL119:
 192:DispenserIF.c ****             Pin_D1_Write(1);
 891              		.loc 1 192 13 view .LVU212
 892 0078 0120     		movs	r0, #1
 893 007a FFF7FEFF 		bl	Pin_D1_Write
 894              	.LVL120:
 193:DispenserIF.c ****             Pin_D2_Write(1);
 895              		.loc 1 193 13 view .LVU213
 896 007e 0120     		movs	r0, #1
 897 0080 FFF7FEFF 		bl	Pin_D2_Write
 898              	.LVL121:
 194:DispenserIF.c ****             if(direction==RIGHT)
 899              		.loc 1 194 13 view .LVU214
 194:DispenserIF.c ****             if(direction==RIGHT)
 900              		.loc 1 194 15 is_stmt 0 view .LVU215
 901 0084 012C     		cmp	r4, #1
 902 0086 03D0     		beq	.L81
 200:DispenserIF.c ****                 fullState=FULL2;
 903              		.loc 1 200 17 is_stmt 1 view .LVU216
 200:DispenserIF.c ****                 fullState=FULL2;
 904              		.loc 1 200 26 is_stmt 0 view .LVU217
 905 0088 0E4B     		ldr	r3, .L83
 906 008a 0122     		movs	r2, #1
 907 008c 5A70     		strb	r2, [r3, #1]
 908 008e D2E7     		b	.L67
 909              	.L81:
 196:DispenserIF.c ****                 fullState=FULL4;
 910              		.loc 1 196 17 is_stmt 1 view .LVU218
 196:DispenserIF.c ****                 fullState=FULL4;
 911              		.loc 1 196 26 is_stmt 0 view .LVU219
 912 0090 0C4B     		ldr	r3, .L83
 913 0092 0322     		movs	r2, #3
 914 0094 5A70     		strb	r2, [r3, #1]
 915 0096 CEE7     		b	.L67
 916              	.LVL122:
 917              	.L69:
 206:DispenserIF.c ****             Pin_C1_Write(1);
 918              		.loc 1 206 13 is_stmt 1 view .LVU220
 919 0098 0120     		movs	r0, #1
 920              	.LVL123:
 206:DispenserIF.c ****             Pin_C1_Write(1);
ARM GAS  C:\Users\jens-\AppData\Local\Temp\ccCtgRll.s 			page 29


 921              		.loc 1 206 13 is_stmt 0 view .LVU221
 922 009a FFF7FEFF 		bl	Pin_C1_Write
 923              	.LVL124:
 207:DispenserIF.c ****             Pin_C2_Write(0);
 924              		.loc 1 207 13 is_stmt 1 view .LVU222
 925 009e 0020     		movs	r0, #0
 926 00a0 FFF7FEFF 		bl	Pin_C2_Write
 927              	.LVL125:
 208:DispenserIF.c ****             Pin_D1_Write(0);
 928              		.loc 1 208 13 view .LVU223
 929 00a4 0020     		movs	r0, #0
 930 00a6 FFF7FEFF 		bl	Pin_D1_Write
 931              	.LVL126:
 209:DispenserIF.c ****             Pin_D2_Write(1);
 932              		.loc 1 209 13 view .LVU224
 933 00aa 0120     		movs	r0, #1
 934 00ac FFF7FEFF 		bl	Pin_D2_Write
 935              	.LVL127:
 210:DispenserIF.c ****             if(direction==RIGHT)
 936              		.loc 1 210 13 view .LVU225
 210:DispenserIF.c ****             if(direction==RIGHT)
 937              		.loc 1 210 15 is_stmt 0 view .LVU226
 938 00b0 012C     		cmp	r4, #1
 939 00b2 03D0     		beq	.L82
 216:DispenserIF.c ****                 fullState=FULL3;
 940              		.loc 1 216 17 is_stmt 1 view .LVU227
 216:DispenserIF.c ****                 fullState=FULL3;
 941              		.loc 1 216 26 is_stmt 0 view .LVU228
 942 00b4 034B     		ldr	r3, .L83
 943 00b6 0222     		movs	r2, #2
 944 00b8 5A70     		strb	r2, [r3, #1]
 223:DispenserIF.c **** }
 945              		.loc 1 223 1 view .LVU229
 946 00ba BCE7     		b	.L67
 947              	.L82:
 212:DispenserIF.c ****                 fullState=FULL1;
 948              		.loc 1 212 17 is_stmt 1 view .LVU230
 212:DispenserIF.c ****                 fullState=FULL1;
 949              		.loc 1 212 26 is_stmt 0 view .LVU231
 950 00bc 014B     		ldr	r3, .L83
 951 00be 0022     		movs	r2, #0
 952 00c0 5A70     		strb	r2, [r3, #1]
 953 00c2 B8E7     		b	.L67
 954              	.L84:
 955              		.align	2
 956              	.L83:
 957 00c4 00000000 		.word	.LANCHOR0
 958              		.cfi_endproc
 959              	.LFE67:
 960              		.size	full, .-full
 961              		.section	.rodata.str1.4
 962 0051 000000   		.align	2
 963              	.LC3:
 964 0054 50757368 		.ascii	"Pushing pill\015\012\000"
 964      696E6720 
 964      70696C6C 
 964      0D0A00
ARM GAS  C:\Users\jens-\AppData\Local\Temp\ccCtgRll.s 			page 30


 965              		.section	.text.pushPill,"ax",%progbits
 966              		.align	1
 967              		.syntax unified
 968              		.thumb
 969              		.thumb_func
 970              		.fpu softvfp
 971              		.type	pushPill, %function
 972              	pushPill:
 973              	.LVL128:
 974              	.LFB66:
 137:DispenserIF.c **** {
 975              		.loc 1 137 1 is_stmt 1 view -0
 976              		.cfi_startproc
 977              		@ args = 0, pretend = 0, frame = 0
 978              		@ frame_needed = 0, uses_anonymous_args = 0
 137:DispenserIF.c **** {
 979              		.loc 1 137 1 is_stmt 0 view .LVU233
 980 0000 10B5     		push	{r4, lr}
 981              		.cfi_def_cfa_offset 8
 982              		.cfi_offset 4, -8
 983              		.cfi_offset 14, -4
 138:DispenserIF.c ****     writeTester(this->testPtr,"Pushing pill\r\n");
 984              		.loc 1 138 5 is_stmt 1 view .LVU234
 985 0002 0A49     		ldr	r1, .L93
 986 0004 0068     		ldr	r0, [r0]
 987              	.LVL129:
 138:DispenserIF.c ****     writeTester(this->testPtr,"Pushing pill\r\n");
 988              		.loc 1 138 5 is_stmt 0 view .LVU235
 989 0006 FFF7FEFF 		bl	writeTester
 990              	.LVL130:
 140:DispenserIF.c ****     for(int i=0;i<100;i++)
 991              		.loc 1 140 5 is_stmt 1 view .LVU236
 992              	.LBB3:
 140:DispenserIF.c ****     for(int i=0;i<100;i++)
 993              		.loc 1 140 9 view .LVU237
 140:DispenserIF.c ****     for(int i=0;i<100;i++)
 994              		.loc 1 140 13 is_stmt 0 view .LVU238
 995 000a 0024     		movs	r4, #0
 996              	.LVL131:
 997              	.L86:
 140:DispenserIF.c ****     for(int i=0;i<100;i++)
 998              		.loc 1 140 17 is_stmt 1 discriminator 1 view .LVU239
 140:DispenserIF.c ****     for(int i=0;i<100;i++)
 999              		.loc 1 140 5 is_stmt 0 discriminator 1 view .LVU240
 1000 000c 632C     		cmp	r4, #99
 1001 000e 04DC     		bgt	.L91
 142:DispenserIF.c ****         full(LEFT);
 1002              		.loc 1 142 9 is_stmt 1 discriminator 3 view .LVU241
 1003 0010 0020     		movs	r0, #0
 1004 0012 FFF7FEFF 		bl	full
 1005              	.LVL132:
 140:DispenserIF.c ****     for(int i=0;i<100;i++)
 1006              		.loc 1 140 23 discriminator 3 view .LVU242
 140:DispenserIF.c ****     for(int i=0;i<100;i++)
 1007              		.loc 1 140 24 is_stmt 0 discriminator 3 view .LVU243
 1008 0016 0134     		adds	r4, r4, #1
 1009              	.LVL133:
ARM GAS  C:\Users\jens-\AppData\Local\Temp\ccCtgRll.s 			page 31


 140:DispenserIF.c ****     for(int i=0;i<100;i++)
 1010              		.loc 1 140 24 discriminator 3 view .LVU244
 1011 0018 F8E7     		b	.L86
 1012              	.L91:
 140:DispenserIF.c ****     for(int i=0;i<100;i++)
 1013              		.loc 1 140 24 discriminator 3 view .LVU245
 1014              	.LBE3:
 1015              	.LBB4:
 145:DispenserIF.c ****      for(int i=0;i<180;i++)
 1016              		.loc 1 145 14 view .LVU246
 1017 001a 0024     		movs	r4, #0
 1018              	.LVL134:
 1019              	.L88:
 145:DispenserIF.c ****      for(int i=0;i<180;i++)
 1020              		.loc 1 145 18 is_stmt 1 discriminator 1 view .LVU247
 145:DispenserIF.c ****      for(int i=0;i<180;i++)
 1021              		.loc 1 145 6 is_stmt 0 discriminator 1 view .LVU248
 1022 001c B32C     		cmp	r4, #179
 1023 001e 04DC     		bgt	.L92
 147:DispenserIF.c ****         full(RIGHT);
 1024              		.loc 1 147 9 is_stmt 1 discriminator 3 view .LVU249
 1025 0020 0120     		movs	r0, #1
 1026 0022 FFF7FEFF 		bl	full
 1027              	.LVL135:
 145:DispenserIF.c ****      for(int i=0;i<180;i++)
 1028              		.loc 1 145 24 discriminator 3 view .LVU250
 145:DispenserIF.c ****      for(int i=0;i<180;i++)
 1029              		.loc 1 145 25 is_stmt 0 discriminator 3 view .LVU251
 1030 0026 0134     		adds	r4, r4, #1
 1031              	.LVL136:
 145:DispenserIF.c ****      for(int i=0;i<180;i++)
 1032              		.loc 1 145 25 discriminator 3 view .LVU252
 1033 0028 F8E7     		b	.L88
 1034              	.L92:
 145:DispenserIF.c ****      for(int i=0;i<180;i++)
 1035              		.loc 1 145 25 discriminator 3 view .LVU253
 1036              	.LBE4:
 150:DispenserIF.c **** }
 1037              		.loc 1 150 1 view .LVU254
 1038 002a 10BD     		pop	{r4, pc}
 1039              	.LVL137:
 1040              	.L94:
 150:DispenserIF.c **** }
 1041              		.loc 1 150 1 view .LVU255
 1042              		.align	2
 1043              	.L93:
 1044 002c 54000000 		.word	.LC3
 1045              		.cfi_endproc
 1046              	.LFE66:
 1047              		.size	pushPill, .-pushPill
 1048              		.global	__aeabi_f2d
 1049              		.global	__aeabi_dadd
 1050              		.global	__aeabi_dcmpgt
 1051              		.section	.text.vejefunktion,"ax",%progbits
 1052              		.align	1
 1053              		.syntax unified
 1054              		.thumb
ARM GAS  C:\Users\jens-\AppData\Local\Temp\ccCtgRll.s 			page 32


 1055              		.thumb_func
 1056              		.fpu softvfp
 1057              		.type	vejefunktion, %function
 1058              	vejefunktion:
 1059              	.LVL138:
 1060              	.LFB68:
 226:DispenserIF.c **** {
 1061              		.loc 1 226 1 is_stmt 1 view -0
 1062              		.cfi_startproc
 1063              		@ args = 0, pretend = 0, frame = 0
 1064              		@ frame_needed = 0, uses_anonymous_args = 0
 226:DispenserIF.c **** {
 1065              		.loc 1 226 1 is_stmt 0 view .LVU257
 1066 0000 F8B5     		push	{r3, r4, r5, r6, r7, lr}
 1067              		.cfi_def_cfa_offset 24
 1068              		.cfi_offset 3, -24
 1069              		.cfi_offset 4, -20
 1070              		.cfi_offset 5, -16
 1071              		.cfi_offset 6, -12
 1072              		.cfi_offset 7, -8
 1073              		.cfi_offset 14, -4
 1074 0002 0446     		mov	r4, r0
 227:DispenserIF.c ****     float tmpweight = GenADCInput(this->testPtr);
 1075              		.loc 1 227 5 is_stmt 1 view .LVU258
 227:DispenserIF.c ****     float tmpweight = GenADCInput(this->testPtr);
 1076              		.loc 1 227 23 is_stmt 0 view .LVU259
 1077 0004 0068     		ldr	r0, [r0]
 1078              	.LVL139:
 227:DispenserIF.c ****     float tmpweight = GenADCInput(this->testPtr);
 1079              		.loc 1 227 23 view .LVU260
 1080 0006 FFF7FEFF 		bl	GenADCInput
 1081              	.LVL140:
 1082 000a 0546     		mov	r5, r0
 1083              	.LVL141:
 228:DispenserIF.c ****     if (this->weight+0.5> tmpweight)//med fejlmargin
 1084              		.loc 1 228 5 is_stmt 1 view .LVU261
 228:DispenserIF.c ****     if (this->weight+0.5> tmpweight)//med fejlmargin
 1085              		.loc 1 228 13 is_stmt 0 view .LVU262
 1086 000c A068     		ldr	r0, [r4, #8]	@ float
 1087              	.LVL142:
 228:DispenserIF.c ****     if (this->weight+0.5> tmpweight)//med fejlmargin
 1088              		.loc 1 228 13 view .LVU263
 1089 000e FFF7FEFF 		bl	__aeabi_f2d
 1090              	.LVL143:
 228:DispenserIF.c ****     if (this->weight+0.5> tmpweight)//med fejlmargin
 1091              		.loc 1 228 21 view .LVU264
 1092 0012 0022     		movs	r2, #0
 1093 0014 0A4B     		ldr	r3, .L102
 1094 0016 FFF7FEFF 		bl	__aeabi_dadd
 1095              	.LVL144:
 1096 001a 0646     		mov	r6, r0
 1097 001c 0F46     		mov	r7, r1
 228:DispenserIF.c ****     if (this->weight+0.5> tmpweight)//med fejlmargin
 1098              		.loc 1 228 25 view .LVU265
 1099 001e 2846     		mov	r0, r5
 1100 0020 FFF7FEFF 		bl	__aeabi_f2d
 1101              	.LVL145:
ARM GAS  C:\Users\jens-\AppData\Local\Temp\ccCtgRll.s 			page 33


 1102 0024 0246     		mov	r2, r0
 1103 0026 0B46     		mov	r3, r1
 228:DispenserIF.c ****     if (this->weight+0.5> tmpweight)//med fejlmargin
 1104              		.loc 1 228 8 view .LVU266
 1105 0028 3046     		mov	r0, r6
 1106 002a 3946     		mov	r1, r7
 1107 002c FFF7FEFF 		bl	__aeabi_dcmpgt
 1108              	.LVL146:
 1109 0030 10B1     		cbz	r0, .L100
 231:DispenserIF.c ****         this->weight=tmpweight;
 1110              		.loc 1 231 9 is_stmt 1 view .LVU267
 231:DispenserIF.c ****         this->weight=tmpweight;
 1111              		.loc 1 231 21 is_stmt 0 view .LVU268
 1112 0032 A560     		str	r5, [r4, #8]	@ float
 232:DispenserIF.c ****         return 1;
 1113              		.loc 1 232 9 is_stmt 1 view .LVU269
 232:DispenserIF.c ****         return 1;
 1114              		.loc 1 232 16 is_stmt 0 view .LVU270
 1115 0034 0120     		movs	r0, #1
 1116              	.L95:
 243:DispenserIF.c **** }
 1117              		.loc 1 243 1 view .LVU271
 1118 0036 F8BD     		pop	{r3, r4, r5, r6, r7, pc}
 1119              	.LVL147:
 1120              	.L100:
 236:DispenserIF.c ****         this->weight=tmpweight;
 1121              		.loc 1 236 9 is_stmt 1 view .LVU272
 236:DispenserIF.c ****         this->weight=tmpweight;
 1122              		.loc 1 236 21 is_stmt 0 view .LVU273
 1123 0038 A560     		str	r5, [r4, #8]	@ float
 237:DispenserIF.c ****         return 0;
 1124              		.loc 1 237 9 is_stmt 1 view .LVU274
 237:DispenserIF.c ****         return 0;
 1125              		.loc 1 237 16 is_stmt 0 view .LVU275
 1126 003a 0020     		movs	r0, #0
 1127 003c FBE7     		b	.L95
 1128              	.L103:
 1129 003e 00BF     		.align	2
 1130              	.L102:
 1131 0040 0000E03F 		.word	1071644672
 1132              		.cfi_endproc
 1133              	.LFE68:
 1134              		.size	vejefunktion, .-vejefunktion
 1135              		.section	.text.DispenserIF_Init,"ax",%progbits
 1136              		.align	1
 1137              		.global	DispenserIF_Init
 1138              		.syntax unified
 1139              		.thumb
 1140              		.thumb_func
 1141              		.fpu softvfp
 1142              		.type	DispenserIF_Init, %function
 1143              	DispenserIF_Init:
 1144              	.LVL148:
 1145              	.LFB63:
  61:DispenserIF.c **** {
 1146              		.loc 1 61 1 is_stmt 1 view -0
 1147              		.cfi_startproc
ARM GAS  C:\Users\jens-\AppData\Local\Temp\ccCtgRll.s 			page 34


 1148              		@ args = 0, pretend = 0, frame = 0
 1149              		@ frame_needed = 0, uses_anonymous_args = 0
  61:DispenserIF.c **** {
 1150              		.loc 1 61 1 is_stmt 0 view .LVU277
 1151 0000 08B5     		push	{r3, lr}
 1152              		.cfi_def_cfa_offset 8
 1153              		.cfi_offset 3, -8
 1154              		.cfi_offset 14, -4
  64:DispenserIF.c ****      this->platpos=UNKNOWN;
 1155              		.loc 1 64 6 is_stmt 1 view .LVU278
  64:DispenserIF.c ****      this->platpos=UNKNOWN;
 1156              		.loc 1 64 19 is_stmt 0 view .LVU279
 1157 0002 0322     		movs	r2, #3
 1158 0004 0271     		strb	r2, [r0, #4]
  65:DispenserIF.c ****     this->testPtr=testPtr;
 1159              		.loc 1 65 5 is_stmt 1 view .LVU280
  65:DispenserIF.c ****     this->testPtr=testPtr;
 1160              		.loc 1 65 18 is_stmt 0 view .LVU281
 1161 0006 0160     		str	r1, [r0]
  66:DispenserIF.c ****     calibratePlatform(this);
 1162              		.loc 1 66 5 is_stmt 1 view .LVU282
 1163 0008 FFF7FEFF 		bl	calibratePlatform
 1164              	.LVL149:
  69:DispenserIF.c **** }
 1165              		.loc 1 69 1 is_stmt 0 view .LVU283
 1166 000c 08BD     		pop	{r3, pc}
 1167              		.cfi_endproc
 1168              	.LFE63:
 1169              		.size	DispenserIF_Init, .-DispenserIF_Init
 1170              		.section	.rodata.str1.4
 1171 0063 00       		.align	2
 1172              	.LC4:
 1173 0064 50696C6C 		.ascii	"Pill conatiner empty\015\012\000"
 1173      20636F6E 
 1173      6174696E 
 1173      65722065 
 1173      6D707479 
 1174 007b 00       		.align	2
 1175              	.LC5:
 1176 007c 50696C6C 		.ascii	"Pill was dispensed\015\012\000"
 1176      20776173 
 1176      20646973 
 1176      70656E73 
 1176      65640D0A 
 1177 0091 000000   		.align	2
 1178              	.LC6:
 1179 0094 50696C6C 		.ascii	"Pill was not dispensed\015\012\000"
 1179      20776173 
 1179      206E6F74 
 1179      20646973 
 1179      70656E73 
 1180              		.section	.text.dispense,"ax",%progbits
 1181              		.align	1
 1182              		.global	dispense
 1183              		.syntax unified
 1184              		.thumb
 1185              		.thumb_func
ARM GAS  C:\Users\jens-\AppData\Local\Temp\ccCtgRll.s 			page 35


 1186              		.fpu softvfp
 1187              		.type	dispense, %function
 1188              	dispense:
 1189              	.LVL150:
 1190              	.LFB64:
  74:DispenserIF.c **** {
 1191              		.loc 1 74 1 is_stmt 1 view -0
 1192              		.cfi_startproc
 1193              		@ args = 0, pretend = 0, frame = 0
 1194              		@ frame_needed = 0, uses_anonymous_args = 0
  74:DispenserIF.c **** {
 1195              		.loc 1 74 1 is_stmt 0 view .LVU285
 1196 0000 38B5     		push	{r3, r4, r5, lr}
 1197              		.cfi_def_cfa_offset 16
 1198              		.cfi_offset 3, -16
 1199              		.cfi_offset 4, -12
 1200              		.cfi_offset 5, -8
 1201              		.cfi_offset 14, -4
 1202 0002 0446     		mov	r4, r0
  76:DispenserIF.c ****     rotatePlatform(this,type);
 1203              		.loc 1 76 5 is_stmt 1 view .LVU286
 1204 0004 FFF7FEFF 		bl	rotatePlatform
 1205              	.LVL151:
  83:DispenserIF.c ****     if(detekterPillebeholdning(this))
 1206              		.loc 1 83 5 view .LVU287
  83:DispenserIF.c ****     if(detekterPillebeholdning(this))
 1207              		.loc 1 83 8 is_stmt 0 view .LVU288
 1208 0008 2046     		mov	r0, r4
 1209 000a FFF7FEFF 		bl	detekterPillebeholdning
 1210              	.LVL152:
  83:DispenserIF.c ****     if(detekterPillebeholdning(this))
 1211              		.loc 1 83 7 view .LVU289
 1212 000e 68B1     		cbz	r0, .L107
  85:DispenserIF.c ****         pushPill(this);
 1213              		.loc 1 85 9 is_stmt 1 view .LVU290
 1214 0010 2046     		mov	r0, r4
 1215 0012 FFF7FEFF 		bl	pushPill
 1216              	.LVL153:
  97:DispenserIF.c ****     if(vejefunktion(this)==0)
 1217              		.loc 1 97 5 view .LVU291
  97:DispenserIF.c ****     if(vejefunktion(this)==0)
 1218              		.loc 1 97 8 is_stmt 0 view .LVU292
 1219 0016 2046     		mov	r0, r4
 1220 0018 FFF7FEFF 		bl	vejefunktion
 1221              	.LVL154:
  97:DispenserIF.c ****     if(vejefunktion(this)==0)
 1222              		.loc 1 97 7 view .LVU293
 1223 001c 0546     		mov	r5, r0
 1224 001e 68B1     		cbz	r0, .L108
 105:DispenserIF.c ****         writeTester(this->testPtr,"Pill was not dispensed\r\n");
 1225              		.loc 1 105 9 is_stmt 1 view .LVU294
 1226 0020 0949     		ldr	r1, .L113
 1227 0022 2068     		ldr	r0, [r4]
 1228 0024 FFF7FEFF 		bl	writeTester
 1229              	.LVL155:
 107:DispenserIF.c ****         return 1;
 1230              		.loc 1 107 9 view .LVU295
ARM GAS  C:\Users\jens-\AppData\Local\Temp\ccCtgRll.s 			page 36


 107:DispenserIF.c ****         return 1;
 1231              		.loc 1 107 16 is_stmt 0 view .LVU296
 1232 0028 0125     		movs	r5, #1
 1233 002a 05E0     		b	.L106
 1234              	.L107:
  89:DispenserIF.c ****         writeTester(this->testPtr,"Pill conatiner empty\r\n");
 1235              		.loc 1 89 9 is_stmt 1 view .LVU297
 1236 002c 0749     		ldr	r1, .L113+4
 1237 002e 2068     		ldr	r0, [r4]
 1238 0030 FFF7FEFF 		bl	writeTester
 1239              	.LVL156:
  90:DispenserIF.c ****         return -1;
 1240              		.loc 1 90 9 view .LVU298
  90:DispenserIF.c ****         return -1;
 1241              		.loc 1 90 16 is_stmt 0 view .LVU299
 1242 0034 4FF0FF35 		mov	r5, #-1
 1243              	.L106:
 110:DispenserIF.c **** }
 1244              		.loc 1 110 1 view .LVU300
 1245 0038 2846     		mov	r0, r5
 1246 003a 38BD     		pop	{r3, r4, r5, pc}
 1247              	.LVL157:
 1248              	.L108:
  99:DispenserIF.c ****         writeTester(this->testPtr,"Pill was dispensed\r\n");
 1249              		.loc 1 99 9 is_stmt 1 view .LVU301
 1250 003c 0449     		ldr	r1, .L113+8
 1251 003e 2068     		ldr	r0, [r4]
 1252 0040 FFF7FEFF 		bl	writeTester
 1253              	.LVL158:
 100:DispenserIF.c ****         return 0;
 1254              		.loc 1 100 9 view .LVU302
 100:DispenserIF.c ****         return 0;
 1255              		.loc 1 100 16 is_stmt 0 view .LVU303
 1256 0044 F8E7     		b	.L106
 1257              	.L114:
 1258 0046 00BF     		.align	2
 1259              	.L113:
 1260 0048 94000000 		.word	.LC6
 1261 004c 64000000 		.word	.LC4
 1262 0050 7C000000 		.word	.LC5
 1263              		.cfi_endproc
 1264              	.LFE64:
 1265              		.size	dispense, .-dispense
 1266              		.bss
 1267              		.set	.LANCHOR0,. + 0
 1268              		.type	halfState, %object
 1269              		.size	halfState, 1
 1270              	halfState:
 1271 0000 00       		.space	1
 1272              		.type	fullState, %object
 1273              		.size	fullState, 1
 1274              	fullState:
 1275 0001 00       		.space	1
 1276              		.text
 1277              	.Letext0:
 1278              		.file 2 "c:\\program files (x86)\\cypress\\psoc creator\\4.2\\psoc creator\\import\\gnu\\arm\\5.4.
 1279              		.file 3 "c:\\program files (x86)\\cypress\\psoc creator\\4.2\\psoc creator\\import\\gnu\\arm\\5.4.
ARM GAS  C:\Users\jens-\AppData\Local\Temp\ccCtgRll.s 			page 37


 1280              		.file 4 "Tester.h"
 1281              		.file 5 "DispenserIF.h"
 1282              		.file 6 "Generated_Source\\PSoC5/cytypes.h"
 1283              		.file 7 "c:\\program files (x86)\\cypress\\psoc creator\\4.2\\psoc creator\\import\\gnu\\arm\\5.4.
 1284              		.file 8 "c:\\program files (x86)\\cypress\\psoc creator\\4.2\\psoc creator\\import\\gnu\\arm\\5.4.
 1285              		.file 9 "c:\\program files (x86)\\cypress\\psoc creator\\4.2\\psoc creator\\import\\gnu\\arm\\5.4.
 1286              		.file 10 "c:\\program files (x86)\\cypress\\psoc creator\\4.2\\psoc creator\\import\\gnu\\arm\\5.4
 1287              		.file 11 "c:\\program files (x86)\\cypress\\psoc creator\\4.2\\psoc creator\\import\\gnu\\arm\\5.4
 1288              		.file 12 "Generated_Source\\PSoC5/CySpc.h"
 1289              		.file 13 "Generated_Source\\PSoC5/CyFlash.h"
 1290              		.file 14 "Generated_Source\\PSoC5/CyLib.h"
 1291              		.file 15 "Generated_Source\\PSoC5/UART_tester.h"
 1292              		.file 16 "Generated_Source\\PSoC5/SPIS_1.h"
 1293              		.file 17 "Generated_Source\\PSoC5/SPIS_1_PVT.h"
 1294              		.file 18 "Generated_Source\\PSoC5/core_cm3.h"
 1295              		.file 19 "Generated_Source\\PSoC5/Motor_Calibration_Sensor.h"
 1296              		.file 20 "Generated_Source\\PSoC5/Pin_A1.h"
 1297              		.file 21 "Generated_Source\\PSoC5/Pin_A2.h"
 1298              		.file 22 "Generated_Source\\PSoC5/Pin_B1.h"
 1299              		.file 23 "Generated_Source\\PSoC5/Pin_B2.h"
 1300              		.file 24 "Generated_Source\\PSoC5/Pill_Container_Sensor.h"
 1301              		.file 25 "Generated_Source\\PSoC5/Pin_C1.h"
 1302              		.file 26 "Generated_Source\\PSoC5/Pin_C2.h"
 1303              		.file 27 "Generated_Source\\PSoC5/Pin_D1.h"
 1304              		.file 28 "Generated_Source\\PSoC5/Pin_D2.h"