ARM GAS  C:\Users\jens-\AppData\Local\Temp\ccXos67h.s 			page 1


   1              		.cpu cortex-m3
   2              		.eabi_attribute 20, 1
   3              		.eabi_attribute 21, 1
   4              		.eabi_attribute 23, 3
   5              		.eabi_attribute 24, 1
   6              		.eabi_attribute 25, 1
   7              		.eabi_attribute 26, 1
   8              		.eabi_attribute 30, 1
   9              		.eabi_attribute 34, 1
  10              		.eabi_attribute 18, 4
  11              		.file	"I2C_1_SLAVE.c"
  12              		.text
  13              	.Ltext0:
  14              		.cfi_sections	.debug_frame
  15              		.section	.text.I2C_1_SlaveStatus,"ax",%progbits
  16              		.align	1
  17              		.global	I2C_1_SlaveStatus
  18              		.arch armv7-m
  19              		.syntax unified
  20              		.thumb
  21              		.thumb_func
  22              		.fpu softvfp
  23              		.type	I2C_1_SlaveStatus, %function
  24              	I2C_1_SlaveStatus:
  25              	.LFB0:
  26              		.file 1 "Generated_Source\\PSoC5\\I2C_1_SLAVE.c"
   1:Generated_Source\PSoC5/I2C_1_SLAVE.c **** /*******************************************************************************
   2:Generated_Source\PSoC5/I2C_1_SLAVE.c **** * File Name: I2C_1_SLAVE.c
   3:Generated_Source\PSoC5/I2C_1_SLAVE.c **** * Version 3.50
   4:Generated_Source\PSoC5/I2C_1_SLAVE.c **** *
   5:Generated_Source\PSoC5/I2C_1_SLAVE.c **** * Description:
   6:Generated_Source\PSoC5/I2C_1_SLAVE.c **** *  This file provides the source code of APIs for the I2C component Slave mode.
   7:Generated_Source\PSoC5/I2C_1_SLAVE.c **** *
   8:Generated_Source\PSoC5/I2C_1_SLAVE.c **** * Note:
   9:Generated_Source\PSoC5/I2C_1_SLAVE.c **** *
  10:Generated_Source\PSoC5/I2C_1_SLAVE.c **** *******************************************************************************
  11:Generated_Source\PSoC5/I2C_1_SLAVE.c **** * Copyright 2012-2015, Cypress Semiconductor Corporation. All rights reserved.
  12:Generated_Source\PSoC5/I2C_1_SLAVE.c **** * You may use this file only in accordance with the license, terms, conditions,
  13:Generated_Source\PSoC5/I2C_1_SLAVE.c **** * disclaimers, and limitations in the end user license agreement accompanying
  14:Generated_Source\PSoC5/I2C_1_SLAVE.c **** * the software package with which this file was provided.
  15:Generated_Source\PSoC5/I2C_1_SLAVE.c **** *******************************************************************************/
  16:Generated_Source\PSoC5/I2C_1_SLAVE.c **** 
  17:Generated_Source\PSoC5/I2C_1_SLAVE.c **** #include "I2C_1_PVT.h"
  18:Generated_Source\PSoC5/I2C_1_SLAVE.c **** 
  19:Generated_Source\PSoC5/I2C_1_SLAVE.c **** #if (I2C_1_MODE_SLAVE_ENABLED)
  20:Generated_Source\PSoC5/I2C_1_SLAVE.c **** 
  21:Generated_Source\PSoC5/I2C_1_SLAVE.c **** /**********************************
  22:Generated_Source\PSoC5/I2C_1_SLAVE.c **** *      System variables
  23:Generated_Source\PSoC5/I2C_1_SLAVE.c **** **********************************/
  24:Generated_Source\PSoC5/I2C_1_SLAVE.c **** 
  25:Generated_Source\PSoC5/I2C_1_SLAVE.c **** volatile uint8 I2C_1_slStatus;   /* Slave Status  */
  26:Generated_Source\PSoC5/I2C_1_SLAVE.c **** 
  27:Generated_Source\PSoC5/I2C_1_SLAVE.c **** /* Transmit buffer variables */
  28:Generated_Source\PSoC5/I2C_1_SLAVE.c **** volatile uint8 * I2C_1_slRdBufPtr;   /* Pointer to Transmit buffer  */
  29:Generated_Source\PSoC5/I2C_1_SLAVE.c **** volatile uint8   I2C_1_slRdBufSize;  /* Slave Transmit buffer size  */
  30:Generated_Source\PSoC5/I2C_1_SLAVE.c **** volatile uint8   I2C_1_slRdBufIndex; /* Slave Transmit buffer Index */
  31:Generated_Source\PSoC5/I2C_1_SLAVE.c **** 
ARM GAS  C:\Users\jens-\AppData\Local\Temp\ccXos67h.s 			page 2


  32:Generated_Source\PSoC5/I2C_1_SLAVE.c **** /* Receive buffer variables */
  33:Generated_Source\PSoC5/I2C_1_SLAVE.c **** volatile uint8 * I2C_1_slWrBufPtr;   /* Pointer to Receive buffer  */
  34:Generated_Source\PSoC5/I2C_1_SLAVE.c **** volatile uint8   I2C_1_slWrBufSize;  /* Slave Receive buffer size  */
  35:Generated_Source\PSoC5/I2C_1_SLAVE.c **** volatile uint8   I2C_1_slWrBufIndex; /* Slave Receive buffer Index */
  36:Generated_Source\PSoC5/I2C_1_SLAVE.c **** 
  37:Generated_Source\PSoC5/I2C_1_SLAVE.c **** #if (I2C_1_SW_ADRR_DECODE)
  38:Generated_Source\PSoC5/I2C_1_SLAVE.c ****     volatile uint8 I2C_1_slAddress;  /* Software address variable */
  39:Generated_Source\PSoC5/I2C_1_SLAVE.c **** #endif /* (I2C_1_SW_ADRR_DECODE) */
  40:Generated_Source\PSoC5/I2C_1_SLAVE.c **** 
  41:Generated_Source\PSoC5/I2C_1_SLAVE.c **** 
  42:Generated_Source\PSoC5/I2C_1_SLAVE.c **** /*******************************************************************************
  43:Generated_Source\PSoC5/I2C_1_SLAVE.c **** * Function Name: I2C_1_SlaveStatus
  44:Generated_Source\PSoC5/I2C_1_SLAVE.c **** ********************************************************************************
  45:Generated_Source\PSoC5/I2C_1_SLAVE.c **** *
  46:Generated_Source\PSoC5/I2C_1_SLAVE.c **** * Summary:
  47:Generated_Source\PSoC5/I2C_1_SLAVE.c **** *  Returns I2C slave's communication status.
  48:Generated_Source\PSoC5/I2C_1_SLAVE.c **** *
  49:Generated_Source\PSoC5/I2C_1_SLAVE.c **** * Parameters:
  50:Generated_Source\PSoC5/I2C_1_SLAVE.c **** *  None.
  51:Generated_Source\PSoC5/I2C_1_SLAVE.c **** *
  52:Generated_Source\PSoC5/I2C_1_SLAVE.c **** * Return:
  53:Generated_Source\PSoC5/I2C_1_SLAVE.c **** *  Current status of I2C slave.
  54:Generated_Source\PSoC5/I2C_1_SLAVE.c **** *
  55:Generated_Source\PSoC5/I2C_1_SLAVE.c **** * Global variables:
  56:Generated_Source\PSoC5/I2C_1_SLAVE.c **** *  I2C_1_slStatus - The global variable used to store a current
  57:Generated_Source\PSoC5/I2C_1_SLAVE.c **** *                              status of the I2C slave.
  58:Generated_Source\PSoC5/I2C_1_SLAVE.c **** *
  59:Generated_Source\PSoC5/I2C_1_SLAVE.c **** *******************************************************************************/
  60:Generated_Source\PSoC5/I2C_1_SLAVE.c **** uint8 I2C_1_SlaveStatus(void) 
  61:Generated_Source\PSoC5/I2C_1_SLAVE.c **** {
  27              		.loc 1 61 1 view -0
  28              		.cfi_startproc
  29              		@ args = 0, pretend = 0, frame = 0
  30              		@ frame_needed = 0, uses_anonymous_args = 0
  31              		@ link register save eliminated.
  62:Generated_Source\PSoC5/I2C_1_SLAVE.c ****     return (I2C_1_slStatus);
  32              		.loc 1 62 5 view .LVU1
  33              		.loc 1 62 12 is_stmt 0 view .LVU2
  34 0000 014B     		ldr	r3, .L2
  35 0002 1878     		ldrb	r0, [r3]	@ zero_extendqisi2
  63:Generated_Source\PSoC5/I2C_1_SLAVE.c **** }
  36              		.loc 1 63 1 view .LVU3
  37 0004 7047     		bx	lr
  38              	.L3:
  39 0006 00BF     		.align	2
  40              	.L2:
  41 0008 00000000 		.word	I2C_1_slStatus
  42              		.cfi_endproc
  43              	.LFE0:
  44              		.size	I2C_1_SlaveStatus, .-I2C_1_SlaveStatus
  45              		.section	.text.I2C_1_SlaveClearReadStatus,"ax",%progbits
  46              		.align	1
  47              		.global	I2C_1_SlaveClearReadStatus
  48              		.syntax unified
  49              		.thumb
  50              		.thumb_func
  51              		.fpu softvfp
ARM GAS  C:\Users\jens-\AppData\Local\Temp\ccXos67h.s 			page 3


  52              		.type	I2C_1_SlaveClearReadStatus, %function
  53              	I2C_1_SlaveClearReadStatus:
  54              	.LFB1:
  64:Generated_Source\PSoC5/I2C_1_SLAVE.c **** 
  65:Generated_Source\PSoC5/I2C_1_SLAVE.c **** 
  66:Generated_Source\PSoC5/I2C_1_SLAVE.c **** /*******************************************************************************
  67:Generated_Source\PSoC5/I2C_1_SLAVE.c **** * Function Name: I2C_1_SlaveClearReadStatus
  68:Generated_Source\PSoC5/I2C_1_SLAVE.c **** ********************************************************************************
  69:Generated_Source\PSoC5/I2C_1_SLAVE.c **** *
  70:Generated_Source\PSoC5/I2C_1_SLAVE.c **** * Summary:
  71:Generated_Source\PSoC5/I2C_1_SLAVE.c **** *  Clears the read status flags and returns they values.
  72:Generated_Source\PSoC5/I2C_1_SLAVE.c **** *  The I2C_1_SSTAT_RD_BUSY flag is not effected by clear.
  73:Generated_Source\PSoC5/I2C_1_SLAVE.c **** *
  74:Generated_Source\PSoC5/I2C_1_SLAVE.c **** * Parameters:
  75:Generated_Source\PSoC5/I2C_1_SLAVE.c **** *  None.
  76:Generated_Source\PSoC5/I2C_1_SLAVE.c **** *
  77:Generated_Source\PSoC5/I2C_1_SLAVE.c **** * Return:
  78:Generated_Source\PSoC5/I2C_1_SLAVE.c **** *  Current read status of I2C slave.
  79:Generated_Source\PSoC5/I2C_1_SLAVE.c **** *
  80:Generated_Source\PSoC5/I2C_1_SLAVE.c **** * Global variables:
  81:Generated_Source\PSoC5/I2C_1_SLAVE.c **** *  I2C_1_slStatus - The global variable used to store a current
  82:Generated_Source\PSoC5/I2C_1_SLAVE.c **** *                              status of the I2C slave.
  83:Generated_Source\PSoC5/I2C_1_SLAVE.c **** *
  84:Generated_Source\PSoC5/I2C_1_SLAVE.c **** * Reentrant:
  85:Generated_Source\PSoC5/I2C_1_SLAVE.c **** *  No.
  86:Generated_Source\PSoC5/I2C_1_SLAVE.c **** *
  87:Generated_Source\PSoC5/I2C_1_SLAVE.c **** *******************************************************************************/
  88:Generated_Source\PSoC5/I2C_1_SLAVE.c **** uint8 I2C_1_SlaveClearReadStatus(void) 
  89:Generated_Source\PSoC5/I2C_1_SLAVE.c **** {
  55              		.loc 1 89 1 is_stmt 1 view -0
  56              		.cfi_startproc
  57              		@ args = 0, pretend = 0, frame = 0
  58              		@ frame_needed = 0, uses_anonymous_args = 0
  59              		@ link register save eliminated.
  90:Generated_Source\PSoC5/I2C_1_SLAVE.c ****     uint8 status;
  60              		.loc 1 90 5 view .LVU5
  91:Generated_Source\PSoC5/I2C_1_SLAVE.c **** 
  92:Generated_Source\PSoC5/I2C_1_SLAVE.c ****     I2C_1_DisableInt(); /* Lock from interrupt */
  61              		.loc 1 92 5 view .LVU6
  62 0000 4FF40041 		mov	r1, #32768
  63 0004 064B     		ldr	r3, .L5
  64 0006 1960     		str	r1, [r3]
  93:Generated_Source\PSoC5/I2C_1_SLAVE.c **** 
  94:Generated_Source\PSoC5/I2C_1_SLAVE.c ****     /* Mask of transfer complete flag and Error status */
  95:Generated_Source\PSoC5/I2C_1_SLAVE.c ****     status = (I2C_1_slStatus & I2C_1_SSTAT_RD_MASK);
  65              		.loc 1 95 5 view .LVU7
  66              		.loc 1 95 30 is_stmt 0 view .LVU8
  67 0008 064B     		ldr	r3, .L5+4
  68 000a 1878     		ldrb	r0, [r3]	@ zero_extendqisi2
  69              	.LVL0:
  96:Generated_Source\PSoC5/I2C_1_SLAVE.c ****     I2C_1_slStatus &= (uint8) ~I2C_1_SSTAT_RD_CLEAR;
  70              		.loc 1 96 5 is_stmt 1 view .LVU9
  71              		.loc 1 96 20 is_stmt 0 view .LVU10
  72 000c 1A78     		ldrb	r2, [r3]	@ zero_extendqisi2
  73 000e 02F0F202 		and	r2, r2, #242
  74 0012 1A70     		strb	r2, [r3]
  97:Generated_Source\PSoC5/I2C_1_SLAVE.c **** 
ARM GAS  C:\Users\jens-\AppData\Local\Temp\ccXos67h.s 			page 4


  98:Generated_Source\PSoC5/I2C_1_SLAVE.c ****     I2C_1_EnableInt(); /* Release lock */
  75              		.loc 1 98 5 is_stmt 1 view .LVU11
  76 0014 044B     		ldr	r3, .L5+8
  77 0016 1960     		str	r1, [r3]
  99:Generated_Source\PSoC5/I2C_1_SLAVE.c **** 
 100:Generated_Source\PSoC5/I2C_1_SLAVE.c ****     return (status);
  78              		.loc 1 100 5 view .LVU12
 101:Generated_Source\PSoC5/I2C_1_SLAVE.c **** }
  79              		.loc 1 101 1 is_stmt 0 view .LVU13
  80 0018 00F00F00 		and	r0, r0, #15
  81              	.LVL1:
  82              		.loc 1 101 1 view .LVU14
  83 001c 7047     		bx	lr
  84              	.L6:
  85 001e 00BF     		.align	2
  86              	.L5:
  87 0020 80E100E0 		.word	-536813184
  88 0024 00000000 		.word	I2C_1_slStatus
  89 0028 00E100E0 		.word	-536813312
  90              		.cfi_endproc
  91              	.LFE1:
  92              		.size	I2C_1_SlaveClearReadStatus, .-I2C_1_SlaveClearReadStatus
  93              		.section	.text.I2C_1_SlaveClearWriteStatus,"ax",%progbits
  94              		.align	1
  95              		.global	I2C_1_SlaveClearWriteStatus
  96              		.syntax unified
  97              		.thumb
  98              		.thumb_func
  99              		.fpu softvfp
 100              		.type	I2C_1_SlaveClearWriteStatus, %function
 101              	I2C_1_SlaveClearWriteStatus:
 102              	.LFB2:
 102:Generated_Source\PSoC5/I2C_1_SLAVE.c **** 
 103:Generated_Source\PSoC5/I2C_1_SLAVE.c **** 
 104:Generated_Source\PSoC5/I2C_1_SLAVE.c **** /*******************************************************************************
 105:Generated_Source\PSoC5/I2C_1_SLAVE.c **** * Function Name: I2C_1_SlaveClearWriteStatus
 106:Generated_Source\PSoC5/I2C_1_SLAVE.c **** ********************************************************************************
 107:Generated_Source\PSoC5/I2C_1_SLAVE.c **** *
 108:Generated_Source\PSoC5/I2C_1_SLAVE.c **** * Summary:
 109:Generated_Source\PSoC5/I2C_1_SLAVE.c **** *  Clears the write status flags and returns they values.
 110:Generated_Source\PSoC5/I2C_1_SLAVE.c **** *  The I2C_1_SSTAT_WR_BUSY flag is not effected by clear.
 111:Generated_Source\PSoC5/I2C_1_SLAVE.c **** *
 112:Generated_Source\PSoC5/I2C_1_SLAVE.c **** * Parameters:
 113:Generated_Source\PSoC5/I2C_1_SLAVE.c **** *  None.
 114:Generated_Source\PSoC5/I2C_1_SLAVE.c **** *
 115:Generated_Source\PSoC5/I2C_1_SLAVE.c **** * Return:
 116:Generated_Source\PSoC5/I2C_1_SLAVE.c **** *  Current write status of I2C slave.
 117:Generated_Source\PSoC5/I2C_1_SLAVE.c **** *
 118:Generated_Source\PSoC5/I2C_1_SLAVE.c **** * Global variables:
 119:Generated_Source\PSoC5/I2C_1_SLAVE.c **** *  I2C_1_slStatus - The global variable used to store a current
 120:Generated_Source\PSoC5/I2C_1_SLAVE.c **** *                              status of the I2C slave.
 121:Generated_Source\PSoC5/I2C_1_SLAVE.c **** *
 122:Generated_Source\PSoC5/I2C_1_SLAVE.c **** * Reentrant:
 123:Generated_Source\PSoC5/I2C_1_SLAVE.c **** *  No.
 124:Generated_Source\PSoC5/I2C_1_SLAVE.c **** *
 125:Generated_Source\PSoC5/I2C_1_SLAVE.c **** *******************************************************************************/
 126:Generated_Source\PSoC5/I2C_1_SLAVE.c **** uint8 I2C_1_SlaveClearWriteStatus(void) 
ARM GAS  C:\Users\jens-\AppData\Local\Temp\ccXos67h.s 			page 5


 127:Generated_Source\PSoC5/I2C_1_SLAVE.c **** {
 103              		.loc 1 127 1 is_stmt 1 view -0
 104              		.cfi_startproc
 105              		@ args = 0, pretend = 0, frame = 0
 106              		@ frame_needed = 0, uses_anonymous_args = 0
 107              		@ link register save eliminated.
 128:Generated_Source\PSoC5/I2C_1_SLAVE.c ****     uint8 status;
 108              		.loc 1 128 5 view .LVU16
 129:Generated_Source\PSoC5/I2C_1_SLAVE.c **** 
 130:Generated_Source\PSoC5/I2C_1_SLAVE.c ****     I2C_1_DisableInt(); /* Lock from interrupt */
 109              		.loc 1 130 5 view .LVU17
 110 0000 4FF40041 		mov	r1, #32768
 111 0004 064B     		ldr	r3, .L8
 112 0006 1960     		str	r1, [r3]
 131:Generated_Source\PSoC5/I2C_1_SLAVE.c **** 
 132:Generated_Source\PSoC5/I2C_1_SLAVE.c ****     /* Mask of transfer complete flag and Error status */
 133:Generated_Source\PSoC5/I2C_1_SLAVE.c ****     status = (I2C_1_slStatus & I2C_1_SSTAT_WR_MASK);
 113              		.loc 1 133 5 view .LVU18
 114              		.loc 1 133 30 is_stmt 0 view .LVU19
 115 0008 064B     		ldr	r3, .L8+4
 116 000a 1878     		ldrb	r0, [r3]	@ zero_extendqisi2
 117              	.LVL2:
 134:Generated_Source\PSoC5/I2C_1_SLAVE.c ****     I2C_1_slStatus &= (uint8) ~I2C_1_SSTAT_WR_CLEAR;
 118              		.loc 1 134 5 is_stmt 1 view .LVU20
 119              		.loc 1 134 20 is_stmt 0 view .LVU21
 120 000c 1A78     		ldrb	r2, [r3]	@ zero_extendqisi2
 121 000e 02F02F02 		and	r2, r2, #47
 122 0012 1A70     		strb	r2, [r3]
 135:Generated_Source\PSoC5/I2C_1_SLAVE.c **** 
 136:Generated_Source\PSoC5/I2C_1_SLAVE.c ****     I2C_1_EnableInt(); /* Release lock */
 123              		.loc 1 136 5 is_stmt 1 view .LVU22
 124 0014 044B     		ldr	r3, .L8+8
 125 0016 1960     		str	r1, [r3]
 137:Generated_Source\PSoC5/I2C_1_SLAVE.c **** 
 138:Generated_Source\PSoC5/I2C_1_SLAVE.c ****     return (status);
 126              		.loc 1 138 5 view .LVU23
 139:Generated_Source\PSoC5/I2C_1_SLAVE.c **** }
 127              		.loc 1 139 1 is_stmt 0 view .LVU24
 128 0018 00F0F000 		and	r0, r0, #240
 129              	.LVL3:
 130              		.loc 1 139 1 view .LVU25
 131 001c 7047     		bx	lr
 132              	.L9:
 133 001e 00BF     		.align	2
 134              	.L8:
 135 0020 80E100E0 		.word	-536813184
 136 0024 00000000 		.word	I2C_1_slStatus
 137 0028 00E100E0 		.word	-536813312
 138              		.cfi_endproc
 139              	.LFE2:
 140              		.size	I2C_1_SlaveClearWriteStatus, .-I2C_1_SlaveClearWriteStatus
 141              		.section	.text.I2C_1_SlaveSetAddress,"ax",%progbits
 142              		.align	1
 143              		.global	I2C_1_SlaveSetAddress
 144              		.syntax unified
 145              		.thumb
 146              		.thumb_func
ARM GAS  C:\Users\jens-\AppData\Local\Temp\ccXos67h.s 			page 6


 147              		.fpu softvfp
 148              		.type	I2C_1_SlaveSetAddress, %function
 149              	I2C_1_SlaveSetAddress:
 150              	.LVL4:
 151              	.LFB3:
 140:Generated_Source\PSoC5/I2C_1_SLAVE.c **** 
 141:Generated_Source\PSoC5/I2C_1_SLAVE.c **** 
 142:Generated_Source\PSoC5/I2C_1_SLAVE.c **** /*******************************************************************************
 143:Generated_Source\PSoC5/I2C_1_SLAVE.c **** * Function Name: I2C_1_SlaveSetAddress
 144:Generated_Source\PSoC5/I2C_1_SLAVE.c **** ********************************************************************************
 145:Generated_Source\PSoC5/I2C_1_SLAVE.c **** *
 146:Generated_Source\PSoC5/I2C_1_SLAVE.c **** * Summary:
 147:Generated_Source\PSoC5/I2C_1_SLAVE.c **** *  Sets the I2C slave address.
 148:Generated_Source\PSoC5/I2C_1_SLAVE.c **** *
 149:Generated_Source\PSoC5/I2C_1_SLAVE.c **** * Parameters:
 150:Generated_Source\PSoC5/I2C_1_SLAVE.c **** *  address: I2C slave address for the primary device. This value may be any
 151:Generated_Source\PSoC5/I2C_1_SLAVE.c **** *  address between 0 and 127.
 152:Generated_Source\PSoC5/I2C_1_SLAVE.c **** *
 153:Generated_Source\PSoC5/I2C_1_SLAVE.c **** * Return:
 154:Generated_Source\PSoC5/I2C_1_SLAVE.c **** *  None.
 155:Generated_Source\PSoC5/I2C_1_SLAVE.c **** *
 156:Generated_Source\PSoC5/I2C_1_SLAVE.c **** * Global variables:
 157:Generated_Source\PSoC5/I2C_1_SLAVE.c **** *  I2C_1_Address  - The global variable used to store an I2C slave
 158:Generated_Source\PSoC5/I2C_1_SLAVE.c **** *                              address for the primary device when the software
 159:Generated_Source\PSoC5/I2C_1_SLAVE.c **** *                              address detect feature is used.
 160:Generated_Source\PSoC5/I2C_1_SLAVE.c **** *
 161:Generated_Source\PSoC5/I2C_1_SLAVE.c **** * Reentrant:
 162:Generated_Source\PSoC5/I2C_1_SLAVE.c **** *  No.
 163:Generated_Source\PSoC5/I2C_1_SLAVE.c **** *
 164:Generated_Source\PSoC5/I2C_1_SLAVE.c **** *******************************************************************************/
 165:Generated_Source\PSoC5/I2C_1_SLAVE.c **** void I2C_1_SlaveSetAddress(uint8 address) 
 166:Generated_Source\PSoC5/I2C_1_SLAVE.c **** {
 152              		.loc 1 166 1 is_stmt 1 view -0
 153              		.cfi_startproc
 154              		@ args = 0, pretend = 0, frame = 0
 155              		@ frame_needed = 0, uses_anonymous_args = 0
 156              		@ link register save eliminated.
 167:Generated_Source\PSoC5/I2C_1_SLAVE.c **** #if (I2C_1_SW_ADRR_DECODE)
 168:Generated_Source\PSoC5/I2C_1_SLAVE.c ****     I2C_1_slAddress = (address & I2C_1_SLAVE_ADDR_MASK);
 169:Generated_Source\PSoC5/I2C_1_SLAVE.c **** #else
 170:Generated_Source\PSoC5/I2C_1_SLAVE.c ****     I2C_1_ADDR_REG  = (address & I2C_1_SLAVE_ADDR_MASK);
 157              		.loc 1 170 5 view .LVU27
 158              		.loc 1 170 32 is_stmt 0 view .LVU28
 159 0000 00F07F00 		and	r0, r0, #127
 160              	.LVL5:
 161              		.loc 1 170 21 view .LVU29
 162 0004 014B     		ldr	r3, .L11
 163 0006 1870     		strb	r0, [r3]
 171:Generated_Source\PSoC5/I2C_1_SLAVE.c **** #endif /* (I2C_1_SW_ADRR_DECODE) */
 172:Generated_Source\PSoC5/I2C_1_SLAVE.c **** }
 164              		.loc 1 172 1 view .LVU30
 165 0008 7047     		bx	lr
 166              	.L12:
 167 000a 00BF     		.align	2
 168              	.L11:
 169 000c CA490040 		.word	1073760714
 170              		.cfi_endproc
ARM GAS  C:\Users\jens-\AppData\Local\Temp\ccXos67h.s 			page 7


 171              	.LFE3:
 172              		.size	I2C_1_SlaveSetAddress, .-I2C_1_SlaveSetAddress
 173              		.section	.text.I2C_1_SlaveInitReadBuf,"ax",%progbits
 174              		.align	1
 175              		.global	I2C_1_SlaveInitReadBuf
 176              		.syntax unified
 177              		.thumb
 178              		.thumb_func
 179              		.fpu softvfp
 180              		.type	I2C_1_SlaveInitReadBuf, %function
 181              	I2C_1_SlaveInitReadBuf:
 182              	.LVL6:
 183              	.LFB4:
 173:Generated_Source\PSoC5/I2C_1_SLAVE.c **** 
 174:Generated_Source\PSoC5/I2C_1_SLAVE.c **** 
 175:Generated_Source\PSoC5/I2C_1_SLAVE.c **** /*******************************************************************************
 176:Generated_Source\PSoC5/I2C_1_SLAVE.c **** * Function Name: I2C_1_SlaveInitReadBuf
 177:Generated_Source\PSoC5/I2C_1_SLAVE.c **** ********************************************************************************
 178:Generated_Source\PSoC5/I2C_1_SLAVE.c **** *
 179:Generated_Source\PSoC5/I2C_1_SLAVE.c **** * Summary:
 180:Generated_Source\PSoC5/I2C_1_SLAVE.c **** *  Sets the buffer pointer and size of the read buffer. This function also
 181:Generated_Source\PSoC5/I2C_1_SLAVE.c **** *  resets the transfer count returned with the I2C_SlaveGetReadBufSize function.
 182:Generated_Source\PSoC5/I2C_1_SLAVE.c **** *
 183:Generated_Source\PSoC5/I2C_1_SLAVE.c **** * Parameters:
 184:Generated_Source\PSoC5/I2C_1_SLAVE.c **** *  readBuf:  Pointer to the data buffer to be read by the master.
 185:Generated_Source\PSoC5/I2C_1_SLAVE.c **** *  bufSize:  Size of the read buffer exposed to the I2C master.
 186:Generated_Source\PSoC5/I2C_1_SLAVE.c **** *
 187:Generated_Source\PSoC5/I2C_1_SLAVE.c **** * Return:
 188:Generated_Source\PSoC5/I2C_1_SLAVE.c **** *  None.
 189:Generated_Source\PSoC5/I2C_1_SLAVE.c **** *
 190:Generated_Source\PSoC5/I2C_1_SLAVE.c **** * Global variables:
 191:Generated_Source\PSoC5/I2C_1_SLAVE.c **** *  I2C_1_slRdBufPtr   - The global variable used to store a pointer
 192:Generated_Source\PSoC5/I2C_1_SLAVE.c **** *                                  to the slave read buffer.
 193:Generated_Source\PSoC5/I2C_1_SLAVE.c **** *  I2C_1_slRdBufSize  - The global variable used to store a slave
 194:Generated_Source\PSoC5/I2C_1_SLAVE.c **** *                                  read buffer size.
 195:Generated_Source\PSoC5/I2C_1_SLAVE.c **** *  I2C_1_slRdBufIndex - The global variable used to store a current
 196:Generated_Source\PSoC5/I2C_1_SLAVE.c **** *                                  index within the slave read buffer.
 197:Generated_Source\PSoC5/I2C_1_SLAVE.c **** *
 198:Generated_Source\PSoC5/I2C_1_SLAVE.c **** * Side Effects:
 199:Generated_Source\PSoC5/I2C_1_SLAVE.c **** *  If this function is called during a bus transaction, data from the previous
 200:Generated_Source\PSoC5/I2C_1_SLAVE.c **** *  buffer location and the beginning of the current buffer may be transmitted.
 201:Generated_Source\PSoC5/I2C_1_SLAVE.c **** *
 202:Generated_Source\PSoC5/I2C_1_SLAVE.c **** * Reentrant:
 203:Generated_Source\PSoC5/I2C_1_SLAVE.c **** *  No.
 204:Generated_Source\PSoC5/I2C_1_SLAVE.c **** *
 205:Generated_Source\PSoC5/I2C_1_SLAVE.c **** *******************************************************************************/
 206:Generated_Source\PSoC5/I2C_1_SLAVE.c **** void I2C_1_SlaveInitReadBuf(uint8 * rdBuf, uint8 bufSize)
 207:Generated_Source\PSoC5/I2C_1_SLAVE.c ****      
 208:Generated_Source\PSoC5/I2C_1_SLAVE.c **** {
 184              		.loc 1 208 1 is_stmt 1 view -0
 185              		.cfi_startproc
 186              		@ args = 0, pretend = 0, frame = 0
 187              		@ frame_needed = 0, uses_anonymous_args = 0
 188              		@ link register save eliminated.
 209:Generated_Source\PSoC5/I2C_1_SLAVE.c ****     if (NULL != rdBuf)
 189              		.loc 1 209 5 view .LVU32
 190              		.loc 1 209 8 is_stmt 0 view .LVU33
ARM GAS  C:\Users\jens-\AppData\Local\Temp\ccXos67h.s 			page 8


 191 0000 0246     		mov	r2, r0
 192 0002 60B1     		cbz	r0, .L13
 210:Generated_Source\PSoC5/I2C_1_SLAVE.c ****     {
 211:Generated_Source\PSoC5/I2C_1_SLAVE.c ****         I2C_1_DisableInt(); /* Lock from interrupt */
 193              		.loc 1 211 9 is_stmt 1 view .LVU34
 194 0004 4FF40043 		mov	r3, #32768
 195 0008 0548     		ldr	r0, .L15
 196              	.LVL7:
 197              		.loc 1 211 9 is_stmt 0 view .LVU35
 198 000a 0360     		str	r3, [r0]
 212:Generated_Source\PSoC5/I2C_1_SLAVE.c **** 
 213:Generated_Source\PSoC5/I2C_1_SLAVE.c ****         /* Set buffer pointer */
 214:Generated_Source\PSoC5/I2C_1_SLAVE.c ****         I2C_1_slRdBufPtr   = (volatile uint8 *) rdBuf;
 199              		.loc 1 214 9 is_stmt 1 view .LVU36
 200              		.loc 1 214 28 is_stmt 0 view .LVU37
 201 000c 0548     		ldr	r0, .L15+4
 202 000e 0260     		str	r2, [r0]
 215:Generated_Source\PSoC5/I2C_1_SLAVE.c ****         I2C_1_slRdBufSize  = bufSize;    /* Set buffer size     */
 203              		.loc 1 215 9 is_stmt 1 view .LVU38
 204              		.loc 1 215 28 is_stmt 0 view .LVU39
 205 0010 054A     		ldr	r2, .L15+8
 206              	.LVL8:
 207              		.loc 1 215 28 view .LVU40
 208 0012 1170     		strb	r1, [r2]
 216:Generated_Source\PSoC5/I2C_1_SLAVE.c ****         I2C_1_slRdBufIndex = 0u;         /* Clears buffer index */
 209              		.loc 1 216 9 is_stmt 1 view .LVU41
 210              		.loc 1 216 28 is_stmt 0 view .LVU42
 211 0014 054A     		ldr	r2, .L15+12
 212 0016 0021     		movs	r1, #0
 213              	.LVL9:
 214              		.loc 1 216 28 view .LVU43
 215 0018 1170     		strb	r1, [r2]
 216              	.LVL10:
 217:Generated_Source\PSoC5/I2C_1_SLAVE.c **** 
 218:Generated_Source\PSoC5/I2C_1_SLAVE.c ****         I2C_1_EnableInt(); /* Release lock */
 217              		.loc 1 218 9 is_stmt 1 view .LVU44
 218 001a 054A     		ldr	r2, .L15+16
 219 001c 1360     		str	r3, [r2]
 220              	.LVL11:
 221              	.L13:
 219:Generated_Source\PSoC5/I2C_1_SLAVE.c ****     }
 220:Generated_Source\PSoC5/I2C_1_SLAVE.c **** }
 222              		.loc 1 220 1 is_stmt 0 view .LVU45
 223 001e 7047     		bx	lr
 224              	.L16:
 225              		.align	2
 226              	.L15:
 227 0020 80E100E0 		.word	-536813184
 228 0024 00000000 		.word	I2C_1_slRdBufPtr
 229 0028 00000000 		.word	I2C_1_slRdBufSize
 230 002c 00000000 		.word	I2C_1_slRdBufIndex
 231 0030 00E100E0 		.word	-536813312
 232              		.cfi_endproc
 233              	.LFE4:
 234              		.size	I2C_1_SlaveInitReadBuf, .-I2C_1_SlaveInitReadBuf
 235              		.section	.text.I2C_1_SlaveInitWriteBuf,"ax",%progbits
 236              		.align	1
ARM GAS  C:\Users\jens-\AppData\Local\Temp\ccXos67h.s 			page 9


 237              		.global	I2C_1_SlaveInitWriteBuf
 238              		.syntax unified
 239              		.thumb
 240              		.thumb_func
 241              		.fpu softvfp
 242              		.type	I2C_1_SlaveInitWriteBuf, %function
 243              	I2C_1_SlaveInitWriteBuf:
 244              	.LVL12:
 245              	.LFB5:
 221:Generated_Source\PSoC5/I2C_1_SLAVE.c **** 
 222:Generated_Source\PSoC5/I2C_1_SLAVE.c **** 
 223:Generated_Source\PSoC5/I2C_1_SLAVE.c **** /*******************************************************************************
 224:Generated_Source\PSoC5/I2C_1_SLAVE.c **** * Function Name: I2C_1_SlaveInitWriteBuf
 225:Generated_Source\PSoC5/I2C_1_SLAVE.c **** ********************************************************************************
 226:Generated_Source\PSoC5/I2C_1_SLAVE.c **** *
 227:Generated_Source\PSoC5/I2C_1_SLAVE.c **** * Summary:
 228:Generated_Source\PSoC5/I2C_1_SLAVE.c **** *  Sets the buffer pointer and size of the read buffer. This function also
 229:Generated_Source\PSoC5/I2C_1_SLAVE.c **** *  resets the transfer count returned with the I2C_SlaveGetReadBufSize function.
 230:Generated_Source\PSoC5/I2C_1_SLAVE.c **** *
 231:Generated_Source\PSoC5/I2C_1_SLAVE.c **** * Parameters:
 232:Generated_Source\PSoC5/I2C_1_SLAVE.c **** *  writeBuf:  Pointer to the data buffer to be read by the master.
 233:Generated_Source\PSoC5/I2C_1_SLAVE.c **** *  bufSize:  Size of the buffer exposed to the I2C master.
 234:Generated_Source\PSoC5/I2C_1_SLAVE.c **** *
 235:Generated_Source\PSoC5/I2C_1_SLAVE.c **** * Return:
 236:Generated_Source\PSoC5/I2C_1_SLAVE.c **** *  None.
 237:Generated_Source\PSoC5/I2C_1_SLAVE.c **** *
 238:Generated_Source\PSoC5/I2C_1_SLAVE.c **** * Global variables:
 239:Generated_Source\PSoC5/I2C_1_SLAVE.c **** *  I2C_1_slWrBufPtr   - The global variable used to store a pointer
 240:Generated_Source\PSoC5/I2C_1_SLAVE.c **** *                                  to the slave write buffer.
 241:Generated_Source\PSoC5/I2C_1_SLAVE.c **** *  I2C_1_slWrBufSize  - The global variable used to store a slave
 242:Generated_Source\PSoC5/I2C_1_SLAVE.c **** *                                  write buffer size.
 243:Generated_Source\PSoC5/I2C_1_SLAVE.c **** *  I2C_1_slWrBufIndex - The global variable used to store a current
 244:Generated_Source\PSoC5/I2C_1_SLAVE.c **** *                                  index within the slave write buffer.
 245:Generated_Source\PSoC5/I2C_1_SLAVE.c **** *
 246:Generated_Source\PSoC5/I2C_1_SLAVE.c **** * Side Effects:
 247:Generated_Source\PSoC5/I2C_1_SLAVE.c **** *  If this function is called during a bus transaction, data from the previous
 248:Generated_Source\PSoC5/I2C_1_SLAVE.c **** *  buffer location and the beginning of the current buffer may be transmitted.
 249:Generated_Source\PSoC5/I2C_1_SLAVE.c **** *
 250:Generated_Source\PSoC5/I2C_1_SLAVE.c **** * Reentrant:
 251:Generated_Source\PSoC5/I2C_1_SLAVE.c **** *  No.
 252:Generated_Source\PSoC5/I2C_1_SLAVE.c **** *
 253:Generated_Source\PSoC5/I2C_1_SLAVE.c **** *******************************************************************************/
 254:Generated_Source\PSoC5/I2C_1_SLAVE.c **** void I2C_1_SlaveInitWriteBuf(uint8 * wrBuf, uint8 bufSize)
 255:Generated_Source\PSoC5/I2C_1_SLAVE.c ****      
 256:Generated_Source\PSoC5/I2C_1_SLAVE.c **** {
 246              		.loc 1 256 1 is_stmt 1 view -0
 247              		.cfi_startproc
 248              		@ args = 0, pretend = 0, frame = 0
 249              		@ frame_needed = 0, uses_anonymous_args = 0
 250              		@ link register save eliminated.
 257:Generated_Source\PSoC5/I2C_1_SLAVE.c ****     if (NULL != wrBuf)
 251              		.loc 1 257 5 view .LVU47
 252              		.loc 1 257 8 is_stmt 0 view .LVU48
 253 0000 0246     		mov	r2, r0
 254 0002 60B1     		cbz	r0, .L17
 258:Generated_Source\PSoC5/I2C_1_SLAVE.c ****     {
 259:Generated_Source\PSoC5/I2C_1_SLAVE.c ****         I2C_1_DisableInt(); /* Lock from interrupt */
ARM GAS  C:\Users\jens-\AppData\Local\Temp\ccXos67h.s 			page 10


 255              		.loc 1 259 9 is_stmt 1 view .LVU49
 256 0004 4FF40043 		mov	r3, #32768
 257 0008 0548     		ldr	r0, .L19
 258              	.LVL13:
 259              		.loc 1 259 9 is_stmt 0 view .LVU50
 260 000a 0360     		str	r3, [r0]
 260:Generated_Source\PSoC5/I2C_1_SLAVE.c **** 
 261:Generated_Source\PSoC5/I2C_1_SLAVE.c ****          /* Set buffer pointer */
 262:Generated_Source\PSoC5/I2C_1_SLAVE.c ****         I2C_1_slWrBufPtr   = (volatile uint8 *) wrBuf;
 261              		.loc 1 262 9 is_stmt 1 view .LVU51
 262              		.loc 1 262 28 is_stmt 0 view .LVU52
 263 000c 0548     		ldr	r0, .L19+4
 264 000e 0260     		str	r2, [r0]
 263:Generated_Source\PSoC5/I2C_1_SLAVE.c ****         I2C_1_slWrBufSize  = bufSize;    /* Set buffer size     */
 265              		.loc 1 263 9 is_stmt 1 view .LVU53
 266              		.loc 1 263 28 is_stmt 0 view .LVU54
 267 0010 054A     		ldr	r2, .L19+8
 268              	.LVL14:
 269              		.loc 1 263 28 view .LVU55
 270 0012 1170     		strb	r1, [r2]
 264:Generated_Source\PSoC5/I2C_1_SLAVE.c ****         I2C_1_slWrBufIndex = 0u;         /* Clears buffer index */
 271              		.loc 1 264 9 is_stmt 1 view .LVU56
 272              		.loc 1 264 28 is_stmt 0 view .LVU57
 273 0014 054A     		ldr	r2, .L19+12
 274 0016 0021     		movs	r1, #0
 275              	.LVL15:
 276              		.loc 1 264 28 view .LVU58
 277 0018 1170     		strb	r1, [r2]
 278              	.LVL16:
 265:Generated_Source\PSoC5/I2C_1_SLAVE.c **** 
 266:Generated_Source\PSoC5/I2C_1_SLAVE.c ****         I2C_1_EnableInt(); /* Release lock */
 279              		.loc 1 266 9 is_stmt 1 view .LVU59
 280 001a 054A     		ldr	r2, .L19+16
 281 001c 1360     		str	r3, [r2]
 282              	.LVL17:
 283              	.L17:
 267:Generated_Source\PSoC5/I2C_1_SLAVE.c ****     }
 268:Generated_Source\PSoC5/I2C_1_SLAVE.c **** }
 284              		.loc 1 268 1 is_stmt 0 view .LVU60
 285 001e 7047     		bx	lr
 286              	.L20:
 287              		.align	2
 288              	.L19:
 289 0020 80E100E0 		.word	-536813184
 290 0024 00000000 		.word	I2C_1_slWrBufPtr
 291 0028 00000000 		.word	I2C_1_slWrBufSize
 292 002c 00000000 		.word	I2C_1_slWrBufIndex
 293 0030 00E100E0 		.word	-536813312
 294              		.cfi_endproc
 295              	.LFE5:
 296              		.size	I2C_1_SlaveInitWriteBuf, .-I2C_1_SlaveInitWriteBuf
 297              		.section	.text.I2C_1_SlaveGetReadBufSize,"ax",%progbits
 298              		.align	1
 299              		.global	I2C_1_SlaveGetReadBufSize
 300              		.syntax unified
 301              		.thumb
 302              		.thumb_func
ARM GAS  C:\Users\jens-\AppData\Local\Temp\ccXos67h.s 			page 11


 303              		.fpu softvfp
 304              		.type	I2C_1_SlaveGetReadBufSize, %function
 305              	I2C_1_SlaveGetReadBufSize:
 306              	.LFB6:
 269:Generated_Source\PSoC5/I2C_1_SLAVE.c **** 
 270:Generated_Source\PSoC5/I2C_1_SLAVE.c **** 
 271:Generated_Source\PSoC5/I2C_1_SLAVE.c **** /*******************************************************************************
 272:Generated_Source\PSoC5/I2C_1_SLAVE.c **** * Function Name: I2C_1_SlaveGetReadBufSize
 273:Generated_Source\PSoC5/I2C_1_SLAVE.c **** ********************************************************************************
 274:Generated_Source\PSoC5/I2C_1_SLAVE.c **** *
 275:Generated_Source\PSoC5/I2C_1_SLAVE.c **** * Summary:
 276:Generated_Source\PSoC5/I2C_1_SLAVE.c **** *  Returns the number of bytes read by the I2C master since an
 277:Generated_Source\PSoC5/I2C_1_SLAVE.c **** *  I2C_SlaveInitReadBuf or I2C_SlaveClearReadBuf function was executed.
 278:Generated_Source\PSoC5/I2C_1_SLAVE.c **** *  The maximum return value will be the size of the read buffer.
 279:Generated_Source\PSoC5/I2C_1_SLAVE.c **** *
 280:Generated_Source\PSoC5/I2C_1_SLAVE.c **** * Parameters:
 281:Generated_Source\PSoC5/I2C_1_SLAVE.c **** *  None.
 282:Generated_Source\PSoC5/I2C_1_SLAVE.c **** *
 283:Generated_Source\PSoC5/I2C_1_SLAVE.c **** * Return:
 284:Generated_Source\PSoC5/I2C_1_SLAVE.c **** *  Bytes read by master.
 285:Generated_Source\PSoC5/I2C_1_SLAVE.c **** *
 286:Generated_Source\PSoC5/I2C_1_SLAVE.c **** * Global variables:
 287:Generated_Source\PSoC5/I2C_1_SLAVE.c **** *  I2C_1_slRdBufIndex - The global variable used to store a current
 288:Generated_Source\PSoC5/I2C_1_SLAVE.c **** *                                  index within the slave read buffer.
 289:Generated_Source\PSoC5/I2C_1_SLAVE.c **** *
 290:Generated_Source\PSoC5/I2C_1_SLAVE.c **** *******************************************************************************/
 291:Generated_Source\PSoC5/I2C_1_SLAVE.c **** uint8 I2C_1_SlaveGetReadBufSize(void) 
 292:Generated_Source\PSoC5/I2C_1_SLAVE.c **** {
 307              		.loc 1 292 1 is_stmt 1 view -0
 308              		.cfi_startproc
 309              		@ args = 0, pretend = 0, frame = 0
 310              		@ frame_needed = 0, uses_anonymous_args = 0
 311              		@ link register save eliminated.
 293:Generated_Source\PSoC5/I2C_1_SLAVE.c ****     return (I2C_1_slRdBufIndex);
 312              		.loc 1 293 5 view .LVU62
 313              		.loc 1 293 12 is_stmt 0 view .LVU63
 314 0000 014B     		ldr	r3, .L22
 315 0002 1878     		ldrb	r0, [r3]	@ zero_extendqisi2
 294:Generated_Source\PSoC5/I2C_1_SLAVE.c **** }
 316              		.loc 1 294 1 view .LVU64
 317 0004 7047     		bx	lr
 318              	.L23:
 319 0006 00BF     		.align	2
 320              	.L22:
 321 0008 00000000 		.word	I2C_1_slRdBufIndex
 322              		.cfi_endproc
 323              	.LFE6:
 324              		.size	I2C_1_SlaveGetReadBufSize, .-I2C_1_SlaveGetReadBufSize
 325              		.section	.text.I2C_1_SlaveGetWriteBufSize,"ax",%progbits
 326              		.align	1
 327              		.global	I2C_1_SlaveGetWriteBufSize
 328              		.syntax unified
 329              		.thumb
 330              		.thumb_func
 331              		.fpu softvfp
 332              		.type	I2C_1_SlaveGetWriteBufSize, %function
 333              	I2C_1_SlaveGetWriteBufSize:
ARM GAS  C:\Users\jens-\AppData\Local\Temp\ccXos67h.s 			page 12


 334              	.LFB7:
 295:Generated_Source\PSoC5/I2C_1_SLAVE.c **** 
 296:Generated_Source\PSoC5/I2C_1_SLAVE.c **** 
 297:Generated_Source\PSoC5/I2C_1_SLAVE.c **** /*******************************************************************************
 298:Generated_Source\PSoC5/I2C_1_SLAVE.c **** * Function Name: I2C_1_SlaveGetWriteBufSize
 299:Generated_Source\PSoC5/I2C_1_SLAVE.c **** ********************************************************************************
 300:Generated_Source\PSoC5/I2C_1_SLAVE.c **** *
 301:Generated_Source\PSoC5/I2C_1_SLAVE.c **** * Summary:
 302:Generated_Source\PSoC5/I2C_1_SLAVE.c **** *  Returns the number of bytes written by the I2C master since an
 303:Generated_Source\PSoC5/I2C_1_SLAVE.c **** *  I2C_SlaveInitWriteBuf or I2C_SlaveClearWriteBuf function was executed.
 304:Generated_Source\PSoC5/I2C_1_SLAVE.c **** *  The maximum return value will be the size of the write buffer.
 305:Generated_Source\PSoC5/I2C_1_SLAVE.c **** *
 306:Generated_Source\PSoC5/I2C_1_SLAVE.c **** * Parameters:
 307:Generated_Source\PSoC5/I2C_1_SLAVE.c **** *  None.
 308:Generated_Source\PSoC5/I2C_1_SLAVE.c **** *
 309:Generated_Source\PSoC5/I2C_1_SLAVE.c **** * Return:
 310:Generated_Source\PSoC5/I2C_1_SLAVE.c **** *  Bytes written by master.
 311:Generated_Source\PSoC5/I2C_1_SLAVE.c **** *
 312:Generated_Source\PSoC5/I2C_1_SLAVE.c **** * Global variables:
 313:Generated_Source\PSoC5/I2C_1_SLAVE.c **** *  I2C_1_slWrBufIndex - The global variable used to store a current
 314:Generated_Source\PSoC5/I2C_1_SLAVE.c **** *                                  index within the slave write buffer.
 315:Generated_Source\PSoC5/I2C_1_SLAVE.c **** *
 316:Generated_Source\PSoC5/I2C_1_SLAVE.c **** *******************************************************************************/
 317:Generated_Source\PSoC5/I2C_1_SLAVE.c **** uint8 I2C_1_SlaveGetWriteBufSize(void) 
 318:Generated_Source\PSoC5/I2C_1_SLAVE.c **** {
 335              		.loc 1 318 1 is_stmt 1 view -0
 336              		.cfi_startproc
 337              		@ args = 0, pretend = 0, frame = 0
 338              		@ frame_needed = 0, uses_anonymous_args = 0
 339              		@ link register save eliminated.
 319:Generated_Source\PSoC5/I2C_1_SLAVE.c ****     return (I2C_1_slWrBufIndex);
 340              		.loc 1 319 5 view .LVU66
 341              		.loc 1 319 12 is_stmt 0 view .LVU67
 342 0000 014B     		ldr	r3, .L25
 343 0002 1878     		ldrb	r0, [r3]	@ zero_extendqisi2
 320:Generated_Source\PSoC5/I2C_1_SLAVE.c **** }
 344              		.loc 1 320 1 view .LVU68
 345 0004 7047     		bx	lr
 346              	.L26:
 347 0006 00BF     		.align	2
 348              	.L25:
 349 0008 00000000 		.word	I2C_1_slWrBufIndex
 350              		.cfi_endproc
 351              	.LFE7:
 352              		.size	I2C_1_SlaveGetWriteBufSize, .-I2C_1_SlaveGetWriteBufSize
 353              		.section	.text.I2C_1_SlaveClearReadBuf,"ax",%progbits
 354              		.align	1
 355              		.global	I2C_1_SlaveClearReadBuf
 356              		.syntax unified
 357              		.thumb
 358              		.thumb_func
 359              		.fpu softvfp
 360              		.type	I2C_1_SlaveClearReadBuf, %function
 361              	I2C_1_SlaveClearReadBuf:
 362              	.LFB8:
 321:Generated_Source\PSoC5/I2C_1_SLAVE.c **** 
 322:Generated_Source\PSoC5/I2C_1_SLAVE.c **** 
ARM GAS  C:\Users\jens-\AppData\Local\Temp\ccXos67h.s 			page 13


 323:Generated_Source\PSoC5/I2C_1_SLAVE.c **** /*******************************************************************************
 324:Generated_Source\PSoC5/I2C_1_SLAVE.c **** * Function Name: I2C_1_SlaveClearReadBuf
 325:Generated_Source\PSoC5/I2C_1_SLAVE.c **** ********************************************************************************
 326:Generated_Source\PSoC5/I2C_1_SLAVE.c **** *
 327:Generated_Source\PSoC5/I2C_1_SLAVE.c **** * Summary:
 328:Generated_Source\PSoC5/I2C_1_SLAVE.c **** *  Resets the read pointer to the first byte in the read buffer. The next byte
 329:Generated_Source\PSoC5/I2C_1_SLAVE.c **** *  read by the master will be the first byte in the read buffer.
 330:Generated_Source\PSoC5/I2C_1_SLAVE.c **** *
 331:Generated_Source\PSoC5/I2C_1_SLAVE.c **** * Parameters:
 332:Generated_Source\PSoC5/I2C_1_SLAVE.c **** *  None.
 333:Generated_Source\PSoC5/I2C_1_SLAVE.c **** *
 334:Generated_Source\PSoC5/I2C_1_SLAVE.c **** * Return:
 335:Generated_Source\PSoC5/I2C_1_SLAVE.c **** *  None.
 336:Generated_Source\PSoC5/I2C_1_SLAVE.c **** *
 337:Generated_Source\PSoC5/I2C_1_SLAVE.c **** * Global variables:
 338:Generated_Source\PSoC5/I2C_1_SLAVE.c **** *  I2C_1_slRdBufIndex - The global variable used to store a current
 339:Generated_Source\PSoC5/I2C_1_SLAVE.c **** *                                  index the within slave read buffer.
 340:Generated_Source\PSoC5/I2C_1_SLAVE.c **** *
 341:Generated_Source\PSoC5/I2C_1_SLAVE.c **** * Reentrant:
 342:Generated_Source\PSoC5/I2C_1_SLAVE.c **** *  No.
 343:Generated_Source\PSoC5/I2C_1_SLAVE.c **** *
 344:Generated_Source\PSoC5/I2C_1_SLAVE.c **** *******************************************************************************/
 345:Generated_Source\PSoC5/I2C_1_SLAVE.c **** void I2C_1_SlaveClearReadBuf(void) 
 346:Generated_Source\PSoC5/I2C_1_SLAVE.c **** {
 363              		.loc 1 346 1 is_stmt 1 view -0
 364              		.cfi_startproc
 365              		@ args = 0, pretend = 0, frame = 0
 366              		@ frame_needed = 0, uses_anonymous_args = 0
 367              		@ link register save eliminated.
 347:Generated_Source\PSoC5/I2C_1_SLAVE.c ****     I2C_1_slRdBufIndex = 0u;
 368              		.loc 1 347 5 view .LVU70
 369              		.loc 1 347 24 is_stmt 0 view .LVU71
 370 0000 014B     		ldr	r3, .L28
 371 0002 0022     		movs	r2, #0
 372 0004 1A70     		strb	r2, [r3]
 348:Generated_Source\PSoC5/I2C_1_SLAVE.c **** }
 373              		.loc 1 348 1 view .LVU72
 374 0006 7047     		bx	lr
 375              	.L29:
 376              		.align	2
 377              	.L28:
 378 0008 00000000 		.word	I2C_1_slRdBufIndex
 379              		.cfi_endproc
 380              	.LFE8:
 381              		.size	I2C_1_SlaveClearReadBuf, .-I2C_1_SlaveClearReadBuf
 382              		.section	.text.I2C_1_SlaveClearWriteBuf,"ax",%progbits
 383              		.align	1
 384              		.global	I2C_1_SlaveClearWriteBuf
 385              		.syntax unified
 386              		.thumb
 387              		.thumb_func
 388              		.fpu softvfp
 389              		.type	I2C_1_SlaveClearWriteBuf, %function
 390              	I2C_1_SlaveClearWriteBuf:
 391              	.LFB9:
 349:Generated_Source\PSoC5/I2C_1_SLAVE.c **** 
 350:Generated_Source\PSoC5/I2C_1_SLAVE.c **** 
ARM GAS  C:\Users\jens-\AppData\Local\Temp\ccXos67h.s 			page 14


 351:Generated_Source\PSoC5/I2C_1_SLAVE.c **** /*******************************************************************************
 352:Generated_Source\PSoC5/I2C_1_SLAVE.c **** * Function Name: I2C_1_SlaveClearRxBuf
 353:Generated_Source\PSoC5/I2C_1_SLAVE.c **** ********************************************************************************
 354:Generated_Source\PSoC5/I2C_1_SLAVE.c **** *
 355:Generated_Source\PSoC5/I2C_1_SLAVE.c **** * Summary:
 356:Generated_Source\PSoC5/I2C_1_SLAVE.c **** *  Resets the write pointer to the first byte in the write buffer. The next byte
 357:Generated_Source\PSoC5/I2C_1_SLAVE.c **** *  written by the master will be the first byte in the write buffer.
 358:Generated_Source\PSoC5/I2C_1_SLAVE.c **** *
 359:Generated_Source\PSoC5/I2C_1_SLAVE.c **** * Parameters:
 360:Generated_Source\PSoC5/I2C_1_SLAVE.c **** *  None.
 361:Generated_Source\PSoC5/I2C_1_SLAVE.c **** *
 362:Generated_Source\PSoC5/I2C_1_SLAVE.c **** * Return:
 363:Generated_Source\PSoC5/I2C_1_SLAVE.c **** *  None.
 364:Generated_Source\PSoC5/I2C_1_SLAVE.c **** *
 365:Generated_Source\PSoC5/I2C_1_SLAVE.c **** * Global variables:
 366:Generated_Source\PSoC5/I2C_1_SLAVE.c **** *  I2C_1_slWrBufIndex - The global variable used to store a current
 367:Generated_Source\PSoC5/I2C_1_SLAVE.c **** *                                  index within the slave write buffer.
 368:Generated_Source\PSoC5/I2C_1_SLAVE.c **** *
 369:Generated_Source\PSoC5/I2C_1_SLAVE.c **** * Reentrant:
 370:Generated_Source\PSoC5/I2C_1_SLAVE.c **** *  No.
 371:Generated_Source\PSoC5/I2C_1_SLAVE.c **** *
 372:Generated_Source\PSoC5/I2C_1_SLAVE.c **** *******************************************************************************/
 373:Generated_Source\PSoC5/I2C_1_SLAVE.c **** void I2C_1_SlaveClearWriteBuf(void) 
 374:Generated_Source\PSoC5/I2C_1_SLAVE.c **** {
 392              		.loc 1 374 1 is_stmt 1 view -0
 393              		.cfi_startproc
 394              		@ args = 0, pretend = 0, frame = 0
 395              		@ frame_needed = 0, uses_anonymous_args = 0
 396              		@ link register save eliminated.
 375:Generated_Source\PSoC5/I2C_1_SLAVE.c ****     I2C_1_slWrBufIndex = 0u;
 397              		.loc 1 375 5 view .LVU74
 398              		.loc 1 375 24 is_stmt 0 view .LVU75
 399 0000 014B     		ldr	r3, .L31
 400 0002 0022     		movs	r2, #0
 401 0004 1A70     		strb	r2, [r3]
 376:Generated_Source\PSoC5/I2C_1_SLAVE.c **** }
 402              		.loc 1 376 1 view .LVU76
 403 0006 7047     		bx	lr
 404              	.L32:
 405              		.align	2
 406              	.L31:
 407 0008 00000000 		.word	I2C_1_slWrBufIndex
 408              		.cfi_endproc
 409              	.LFE9:
 410              		.size	I2C_1_SlaveClearWriteBuf, .-I2C_1_SlaveClearWriteBuf
 411              		.comm	I2C_1_slWrBufIndex,1,1
 412              		.comm	I2C_1_slWrBufSize,1,1
 413              		.comm	I2C_1_slWrBufPtr,4,4
 414              		.comm	I2C_1_slRdBufIndex,1,1
 415              		.comm	I2C_1_slRdBufSize,1,1
 416              		.comm	I2C_1_slRdBufPtr,4,4
 417              		.comm	I2C_1_slStatus,1,1
 418              		.text
 419              	.Letext0:
 420              		.file 2 "Generated_Source\\PSoC5\\cytypes.h"
 421              		.file 3 "c:\\program files (x86)\\cypress\\psoc creator\\4.2\\psoc creator\\import\\gnu\\arm\\5.4.
 422              		.file 4 "c:\\program files (x86)\\cypress\\psoc creator\\4.2\\psoc creator\\import\\gnu\\arm\\5.4.
ARM GAS  C:\Users\jens-\AppData\Local\Temp\ccXos67h.s 			page 15


 423              		.file 5 "c:\\program files (x86)\\cypress\\psoc creator\\4.2\\psoc creator\\import\\gnu\\arm\\5.4.
 424              		.file 6 "c:\\program files (x86)\\cypress\\psoc creator\\4.2\\psoc creator\\import\\gnu\\arm\\5.4.
 425              		.file 7 "c:\\program files (x86)\\cypress\\psoc creator\\4.2\\psoc creator\\import\\gnu\\arm\\5.4.
 426              		.file 8 "Generated_Source\\PSoC5\\CySpc.h"
 427              		.file 9 "Generated_Source\\PSoC5\\CyFlash.h"
 428              		.file 10 "Generated_Source\\PSoC5\\CyLib.h"
 429              		.file 11 "Generated_Source\\PSoC5\\I2C_1.h"
 430              		.file 12 "Generated_Source\\PSoC5\\I2C_1_PVT.h"