ARM GAS  C:\Users\jens-\AppData\Local\Temp\cc7CBuIz.s 			page 1


   1              		.cpu cortex-m3
   2              		.eabi_attribute 20, 1
   3              		.eabi_attribute 21, 1
   4              		.eabi_attribute 23, 3
   5              		.eabi_attribute 24, 1
   6              		.eabi_attribute 25, 1
   7              		.eabi_attribute 26, 1
   8              		.eabi_attribute 30, 1
   9              		.eabi_attribute 34, 1
  10              		.eabi_attribute 18, 4
  11              		.file	"isr_1.c"
  12              		.text
  13              	.Ltext0:
  14              		.cfi_sections	.debug_frame
  15              		.section	.text.isr_1_Interrupt,"ax",%progbits
  16              		.align	1
  17              		.global	isr_1_Interrupt
  18              		.arch armv7-m
  19              		.syntax unified
  20              		.thumb
  21              		.thumb_func
  22              		.fpu softvfp
  23              		.type	isr_1_Interrupt, %function
  24              	isr_1_Interrupt:
  25              	.LFB3:
  26              		.file 1 "Generated_Source\\PSoC5\\isr_1.c"
   1:Generated_Source\PSoC5/isr_1.c **** /*******************************************************************************
   2:Generated_Source\PSoC5/isr_1.c **** * File Name: isr_1.c  
   3:Generated_Source\PSoC5/isr_1.c **** * Version 1.70
   4:Generated_Source\PSoC5/isr_1.c **** *
   5:Generated_Source\PSoC5/isr_1.c **** *  Description:
   6:Generated_Source\PSoC5/isr_1.c **** *   API for controlling the state of an interrupt.
   7:Generated_Source\PSoC5/isr_1.c **** *
   8:Generated_Source\PSoC5/isr_1.c **** *
   9:Generated_Source\PSoC5/isr_1.c **** *  Note:
  10:Generated_Source\PSoC5/isr_1.c **** *
  11:Generated_Source\PSoC5/isr_1.c **** ********************************************************************************
  12:Generated_Source\PSoC5/isr_1.c **** * Copyright 2008-2015, Cypress Semiconductor Corporation.  All rights reserved.
  13:Generated_Source\PSoC5/isr_1.c **** * You may use this file only in accordance with the license, terms, conditions, 
  14:Generated_Source\PSoC5/isr_1.c **** * disclaimers, and limitations in the end user license agreement accompanying 
  15:Generated_Source\PSoC5/isr_1.c **** * the software package with which this file was provided.
  16:Generated_Source\PSoC5/isr_1.c **** *******************************************************************************/
  17:Generated_Source\PSoC5/isr_1.c **** 
  18:Generated_Source\PSoC5/isr_1.c **** 
  19:Generated_Source\PSoC5/isr_1.c **** #include <cydevice_trm.h>
  20:Generated_Source\PSoC5/isr_1.c **** #include <CyLib.h>
  21:Generated_Source\PSoC5/isr_1.c **** #include <isr_1.h>
  22:Generated_Source\PSoC5/isr_1.c **** #include "cyapicallbacks.h"
  23:Generated_Source\PSoC5/isr_1.c **** 
  24:Generated_Source\PSoC5/isr_1.c **** #if !defined(isr_1__REMOVED) /* Check for removal by optimization */
  25:Generated_Source\PSoC5/isr_1.c **** 
  26:Generated_Source\PSoC5/isr_1.c **** /*******************************************************************************
  27:Generated_Source\PSoC5/isr_1.c **** *  Place your includes, defines and code here 
  28:Generated_Source\PSoC5/isr_1.c **** ********************************************************************************/
  29:Generated_Source\PSoC5/isr_1.c **** /* `#START isr_1_intc` */
  30:Generated_Source\PSoC5/isr_1.c **** 
  31:Generated_Source\PSoC5/isr_1.c **** /* `#END` */
ARM GAS  C:\Users\jens-\AppData\Local\Temp\cc7CBuIz.s 			page 2


  32:Generated_Source\PSoC5/isr_1.c **** 
  33:Generated_Source\PSoC5/isr_1.c **** #ifndef CYINT_IRQ_BASE
  34:Generated_Source\PSoC5/isr_1.c **** #define CYINT_IRQ_BASE      16
  35:Generated_Source\PSoC5/isr_1.c **** #endif /* CYINT_IRQ_BASE */
  36:Generated_Source\PSoC5/isr_1.c **** #ifndef CYINT_VECT_TABLE
  37:Generated_Source\PSoC5/isr_1.c **** #define CYINT_VECT_TABLE    ((cyisraddress **) CYREG_NVIC_VECT_OFFSET)
  38:Generated_Source\PSoC5/isr_1.c **** #endif /* CYINT_VECT_TABLE */
  39:Generated_Source\PSoC5/isr_1.c **** 
  40:Generated_Source\PSoC5/isr_1.c **** /* Declared in startup, used to set unused interrupts to. */
  41:Generated_Source\PSoC5/isr_1.c **** CY_ISR_PROTO(IntDefaultHandler);
  42:Generated_Source\PSoC5/isr_1.c **** 
  43:Generated_Source\PSoC5/isr_1.c **** 
  44:Generated_Source\PSoC5/isr_1.c **** /*******************************************************************************
  45:Generated_Source\PSoC5/isr_1.c **** * Function Name: isr_1_Start
  46:Generated_Source\PSoC5/isr_1.c **** ********************************************************************************
  47:Generated_Source\PSoC5/isr_1.c **** *
  48:Generated_Source\PSoC5/isr_1.c **** * Summary:
  49:Generated_Source\PSoC5/isr_1.c **** *  Set up the interrupt and enable it. This function disables the interrupt, 
  50:Generated_Source\PSoC5/isr_1.c **** *  sets the default interrupt vector, sets the priority from the value in the
  51:Generated_Source\PSoC5/isr_1.c **** *  Design Wide Resources Interrupt Editor, then enables the interrupt to the 
  52:Generated_Source\PSoC5/isr_1.c **** *  interrupt controller.
  53:Generated_Source\PSoC5/isr_1.c **** *
  54:Generated_Source\PSoC5/isr_1.c **** * Parameters:  
  55:Generated_Source\PSoC5/isr_1.c **** *   None
  56:Generated_Source\PSoC5/isr_1.c **** *
  57:Generated_Source\PSoC5/isr_1.c **** * Return:
  58:Generated_Source\PSoC5/isr_1.c **** *   None
  59:Generated_Source\PSoC5/isr_1.c **** *
  60:Generated_Source\PSoC5/isr_1.c **** *******************************************************************************/
  61:Generated_Source\PSoC5/isr_1.c **** void isr_1_Start(void)
  62:Generated_Source\PSoC5/isr_1.c **** {
  63:Generated_Source\PSoC5/isr_1.c ****     /* For all we know the interrupt is active. */
  64:Generated_Source\PSoC5/isr_1.c ****     isr_1_Disable();
  65:Generated_Source\PSoC5/isr_1.c **** 
  66:Generated_Source\PSoC5/isr_1.c ****     /* Set the ISR to point to the isr_1 Interrupt. */
  67:Generated_Source\PSoC5/isr_1.c ****     isr_1_SetVector(&isr_1_Interrupt);
  68:Generated_Source\PSoC5/isr_1.c **** 
  69:Generated_Source\PSoC5/isr_1.c ****     /* Set the priority. */
  70:Generated_Source\PSoC5/isr_1.c ****     isr_1_SetPriority((uint8)isr_1_INTC_PRIOR_NUMBER);
  71:Generated_Source\PSoC5/isr_1.c **** 
  72:Generated_Source\PSoC5/isr_1.c ****     /* Enable it. */
  73:Generated_Source\PSoC5/isr_1.c ****     isr_1_Enable();
  74:Generated_Source\PSoC5/isr_1.c **** }
  75:Generated_Source\PSoC5/isr_1.c **** 
  76:Generated_Source\PSoC5/isr_1.c **** 
  77:Generated_Source\PSoC5/isr_1.c **** /*******************************************************************************
  78:Generated_Source\PSoC5/isr_1.c **** * Function Name: isr_1_StartEx
  79:Generated_Source\PSoC5/isr_1.c **** ********************************************************************************
  80:Generated_Source\PSoC5/isr_1.c **** *
  81:Generated_Source\PSoC5/isr_1.c **** * Summary:
  82:Generated_Source\PSoC5/isr_1.c **** *  Sets up the interrupt and enables it. This function disables the interrupt,
  83:Generated_Source\PSoC5/isr_1.c **** *  sets the interrupt vector based on the address passed in, sets the priority 
  84:Generated_Source\PSoC5/isr_1.c **** *  from the value in the Design Wide Resources Interrupt Editor, then enables 
  85:Generated_Source\PSoC5/isr_1.c **** *  the interrupt to the interrupt controller.
  86:Generated_Source\PSoC5/isr_1.c **** *  
  87:Generated_Source\PSoC5/isr_1.c **** *  When defining ISR functions, the CY_ISR and CY_ISR_PROTO macros should be 
  88:Generated_Source\PSoC5/isr_1.c **** *  used to provide consistent definition across compilers:
ARM GAS  C:\Users\jens-\AppData\Local\Temp\cc7CBuIz.s 			page 3


  89:Generated_Source\PSoC5/isr_1.c **** *  
  90:Generated_Source\PSoC5/isr_1.c **** *  Function definition example:
  91:Generated_Source\PSoC5/isr_1.c **** *   CY_ISR(MyISR)
  92:Generated_Source\PSoC5/isr_1.c **** *   {
  93:Generated_Source\PSoC5/isr_1.c **** *   }
  94:Generated_Source\PSoC5/isr_1.c **** *   Function prototype example:
  95:Generated_Source\PSoC5/isr_1.c **** *   CY_ISR_PROTO(MyISR);
  96:Generated_Source\PSoC5/isr_1.c **** *
  97:Generated_Source\PSoC5/isr_1.c **** * Parameters:  
  98:Generated_Source\PSoC5/isr_1.c **** *   address: Address of the ISR to set in the interrupt vector table.
  99:Generated_Source\PSoC5/isr_1.c **** *
 100:Generated_Source\PSoC5/isr_1.c **** * Return:
 101:Generated_Source\PSoC5/isr_1.c **** *   None
 102:Generated_Source\PSoC5/isr_1.c **** *
 103:Generated_Source\PSoC5/isr_1.c **** *******************************************************************************/
 104:Generated_Source\PSoC5/isr_1.c **** void isr_1_StartEx(cyisraddress address)
 105:Generated_Source\PSoC5/isr_1.c **** {
 106:Generated_Source\PSoC5/isr_1.c ****     /* For all we know the interrupt is active. */
 107:Generated_Source\PSoC5/isr_1.c ****     isr_1_Disable();
 108:Generated_Source\PSoC5/isr_1.c **** 
 109:Generated_Source\PSoC5/isr_1.c ****     /* Set the ISR to point to the isr_1 Interrupt. */
 110:Generated_Source\PSoC5/isr_1.c ****     isr_1_SetVector(address);
 111:Generated_Source\PSoC5/isr_1.c **** 
 112:Generated_Source\PSoC5/isr_1.c ****     /* Set the priority. */
 113:Generated_Source\PSoC5/isr_1.c ****     isr_1_SetPriority((uint8)isr_1_INTC_PRIOR_NUMBER);
 114:Generated_Source\PSoC5/isr_1.c **** 
 115:Generated_Source\PSoC5/isr_1.c ****     /* Enable it. */
 116:Generated_Source\PSoC5/isr_1.c ****     isr_1_Enable();
 117:Generated_Source\PSoC5/isr_1.c **** }
 118:Generated_Source\PSoC5/isr_1.c **** 
 119:Generated_Source\PSoC5/isr_1.c **** 
 120:Generated_Source\PSoC5/isr_1.c **** /*******************************************************************************
 121:Generated_Source\PSoC5/isr_1.c **** * Function Name: isr_1_Stop
 122:Generated_Source\PSoC5/isr_1.c **** ********************************************************************************
 123:Generated_Source\PSoC5/isr_1.c **** *
 124:Generated_Source\PSoC5/isr_1.c **** * Summary:
 125:Generated_Source\PSoC5/isr_1.c **** *   Disables and removes the interrupt.
 126:Generated_Source\PSoC5/isr_1.c **** *
 127:Generated_Source\PSoC5/isr_1.c **** * Parameters:  
 128:Generated_Source\PSoC5/isr_1.c **** *   None
 129:Generated_Source\PSoC5/isr_1.c **** *
 130:Generated_Source\PSoC5/isr_1.c **** * Return:
 131:Generated_Source\PSoC5/isr_1.c **** *   None
 132:Generated_Source\PSoC5/isr_1.c **** *
 133:Generated_Source\PSoC5/isr_1.c **** *******************************************************************************/
 134:Generated_Source\PSoC5/isr_1.c **** void isr_1_Stop(void)
 135:Generated_Source\PSoC5/isr_1.c **** {
 136:Generated_Source\PSoC5/isr_1.c ****     /* Disable this interrupt. */
 137:Generated_Source\PSoC5/isr_1.c ****     isr_1_Disable();
 138:Generated_Source\PSoC5/isr_1.c **** 
 139:Generated_Source\PSoC5/isr_1.c ****     /* Set the ISR to point to the passive one. */
 140:Generated_Source\PSoC5/isr_1.c ****     isr_1_SetVector(&IntDefaultHandler);
 141:Generated_Source\PSoC5/isr_1.c **** }
 142:Generated_Source\PSoC5/isr_1.c **** 
 143:Generated_Source\PSoC5/isr_1.c **** 
 144:Generated_Source\PSoC5/isr_1.c **** /*******************************************************************************
 145:Generated_Source\PSoC5/isr_1.c **** * Function Name: isr_1_Interrupt
ARM GAS  C:\Users\jens-\AppData\Local\Temp\cc7CBuIz.s 			page 4


 146:Generated_Source\PSoC5/isr_1.c **** ********************************************************************************
 147:Generated_Source\PSoC5/isr_1.c **** *
 148:Generated_Source\PSoC5/isr_1.c **** * Summary:
 149:Generated_Source\PSoC5/isr_1.c **** *   The default Interrupt Service Routine for isr_1.
 150:Generated_Source\PSoC5/isr_1.c **** *
 151:Generated_Source\PSoC5/isr_1.c **** *   Add custom code between the coments to keep the next version of this file
 152:Generated_Source\PSoC5/isr_1.c **** *   from over writting your code.
 153:Generated_Source\PSoC5/isr_1.c **** *
 154:Generated_Source\PSoC5/isr_1.c **** * Parameters:  
 155:Generated_Source\PSoC5/isr_1.c **** *
 156:Generated_Source\PSoC5/isr_1.c **** * Return:
 157:Generated_Source\PSoC5/isr_1.c **** *   None
 158:Generated_Source\PSoC5/isr_1.c **** *
 159:Generated_Source\PSoC5/isr_1.c **** *******************************************************************************/
 160:Generated_Source\PSoC5/isr_1.c **** CY_ISR(isr_1_Interrupt)
 161:Generated_Source\PSoC5/isr_1.c **** {
  27              		.loc 1 161 1 view -0
  28              		.cfi_startproc
  29              		@ args = 0, pretend = 0, frame = 0
  30              		@ frame_needed = 0, uses_anonymous_args = 0
  31              		@ link register save eliminated.
 162:Generated_Source\PSoC5/isr_1.c ****     #ifdef isr_1_INTERRUPT_INTERRUPT_CALLBACK
 163:Generated_Source\PSoC5/isr_1.c ****         isr_1_Interrupt_InterruptCallback();
 164:Generated_Source\PSoC5/isr_1.c ****     #endif /* isr_1_INTERRUPT_INTERRUPT_CALLBACK */ 
 165:Generated_Source\PSoC5/isr_1.c **** 
 166:Generated_Source\PSoC5/isr_1.c ****     /*  Place your Interrupt code here. */
 167:Generated_Source\PSoC5/isr_1.c ****     /* `#START isr_1_Interrupt` */
 168:Generated_Source\PSoC5/isr_1.c **** 
 169:Generated_Source\PSoC5/isr_1.c ****     /* `#END` */
 170:Generated_Source\PSoC5/isr_1.c **** }
  32              		.loc 1 170 1 view .LVU1
  33 0000 7047     		bx	lr
  34              		.cfi_endproc
  35              	.LFE3:
  36              		.size	isr_1_Interrupt, .-isr_1_Interrupt
  37              		.section	.text.isr_1_SetVector,"ax",%progbits
  38              		.align	1
  39              		.global	isr_1_SetVector
  40              		.syntax unified
  41              		.thumb
  42              		.thumb_func
  43              		.fpu softvfp
  44              		.type	isr_1_SetVector, %function
  45              	isr_1_SetVector:
  46              	.LVL0:
  47              	.LFB4:
 171:Generated_Source\PSoC5/isr_1.c **** 
 172:Generated_Source\PSoC5/isr_1.c **** 
 173:Generated_Source\PSoC5/isr_1.c **** /*******************************************************************************
 174:Generated_Source\PSoC5/isr_1.c **** * Function Name: isr_1_SetVector
 175:Generated_Source\PSoC5/isr_1.c **** ********************************************************************************
 176:Generated_Source\PSoC5/isr_1.c **** *
 177:Generated_Source\PSoC5/isr_1.c **** * Summary:
 178:Generated_Source\PSoC5/isr_1.c **** *   Change the ISR vector for the Interrupt. Note calling isr_1_Start
 179:Generated_Source\PSoC5/isr_1.c **** *   will override any effect this method would have had. To set the vector 
 180:Generated_Source\PSoC5/isr_1.c **** *   before the component has been started use isr_1_StartEx instead.
 181:Generated_Source\PSoC5/isr_1.c **** * 
ARM GAS  C:\Users\jens-\AppData\Local\Temp\cc7CBuIz.s 			page 5


 182:Generated_Source\PSoC5/isr_1.c **** *   When defining ISR functions, the CY_ISR and CY_ISR_PROTO macros should be 
 183:Generated_Source\PSoC5/isr_1.c **** *   used to provide consistent definition across compilers:
 184:Generated_Source\PSoC5/isr_1.c **** *
 185:Generated_Source\PSoC5/isr_1.c **** *   Function definition example:
 186:Generated_Source\PSoC5/isr_1.c **** *   CY_ISR(MyISR)
 187:Generated_Source\PSoC5/isr_1.c **** *   {
 188:Generated_Source\PSoC5/isr_1.c **** *   }
 189:Generated_Source\PSoC5/isr_1.c **** *
 190:Generated_Source\PSoC5/isr_1.c **** *   Function prototype example:
 191:Generated_Source\PSoC5/isr_1.c **** *     CY_ISR_PROTO(MyISR);
 192:Generated_Source\PSoC5/isr_1.c **** *
 193:Generated_Source\PSoC5/isr_1.c **** * Parameters:
 194:Generated_Source\PSoC5/isr_1.c **** *   address: Address of the ISR to set in the interrupt vector table.
 195:Generated_Source\PSoC5/isr_1.c **** *
 196:Generated_Source\PSoC5/isr_1.c **** * Return:
 197:Generated_Source\PSoC5/isr_1.c **** *   None
 198:Generated_Source\PSoC5/isr_1.c **** *
 199:Generated_Source\PSoC5/isr_1.c **** *******************************************************************************/
 200:Generated_Source\PSoC5/isr_1.c **** void isr_1_SetVector(cyisraddress address)
 201:Generated_Source\PSoC5/isr_1.c **** {
  48              		.loc 1 201 1 view -0
  49              		.cfi_startproc
  50              		@ args = 0, pretend = 0, frame = 0
  51              		@ frame_needed = 0, uses_anonymous_args = 0
  52              		@ link register save eliminated.
 202:Generated_Source\PSoC5/isr_1.c ****     cyisraddress * ramVectorTable;
  53              		.loc 1 202 5 view .LVU3
 203:Generated_Source\PSoC5/isr_1.c **** 
 204:Generated_Source\PSoC5/isr_1.c ****     ramVectorTable = (cyisraddress *) *CYINT_VECT_TABLE;
  54              		.loc 1 204 5 view .LVU4
  55              		.loc 1 204 20 is_stmt 0 view .LVU5
  56 0000 014B     		ldr	r3, .L3
  57 0002 1B68     		ldr	r3, [r3]
  58              	.LVL1:
 205:Generated_Source\PSoC5/isr_1.c **** 
 206:Generated_Source\PSoC5/isr_1.c ****     ramVectorTable[CYINT_IRQ_BASE + (uint32)isr_1__INTC_NUMBER] = address;
  59              		.loc 1 206 5 is_stmt 1 view .LVU6
  60              		.loc 1 206 65 is_stmt 0 view .LVU7
  61 0004 1864     		str	r0, [r3, #64]
 207:Generated_Source\PSoC5/isr_1.c **** }
  62              		.loc 1 207 1 view .LVU8
  63 0006 7047     		bx	lr
  64              	.L4:
  65              		.align	2
  66              	.L3:
  67 0008 08ED00E0 		.word	-536810232
  68              		.cfi_endproc
  69              	.LFE4:
  70              		.size	isr_1_SetVector, .-isr_1_SetVector
  71              		.section	.text.isr_1_GetVector,"ax",%progbits
  72              		.align	1
  73              		.global	isr_1_GetVector
  74              		.syntax unified
  75              		.thumb
  76              		.thumb_func
  77              		.fpu softvfp
  78              		.type	isr_1_GetVector, %function
ARM GAS  C:\Users\jens-\AppData\Local\Temp\cc7CBuIz.s 			page 6


  79              	isr_1_GetVector:
  80              	.LFB5:
 208:Generated_Source\PSoC5/isr_1.c **** 
 209:Generated_Source\PSoC5/isr_1.c **** 
 210:Generated_Source\PSoC5/isr_1.c **** /*******************************************************************************
 211:Generated_Source\PSoC5/isr_1.c **** * Function Name: isr_1_GetVector
 212:Generated_Source\PSoC5/isr_1.c **** ********************************************************************************
 213:Generated_Source\PSoC5/isr_1.c **** *
 214:Generated_Source\PSoC5/isr_1.c **** * Summary:
 215:Generated_Source\PSoC5/isr_1.c **** *   Gets the "address" of the current ISR vector for the Interrupt.
 216:Generated_Source\PSoC5/isr_1.c **** *
 217:Generated_Source\PSoC5/isr_1.c **** * Parameters:
 218:Generated_Source\PSoC5/isr_1.c **** *   None
 219:Generated_Source\PSoC5/isr_1.c **** *
 220:Generated_Source\PSoC5/isr_1.c **** * Return:
 221:Generated_Source\PSoC5/isr_1.c **** *   Address of the ISR in the interrupt vector table.
 222:Generated_Source\PSoC5/isr_1.c **** *
 223:Generated_Source\PSoC5/isr_1.c **** *******************************************************************************/
 224:Generated_Source\PSoC5/isr_1.c **** cyisraddress isr_1_GetVector(void)
 225:Generated_Source\PSoC5/isr_1.c **** {
  81              		.loc 1 225 1 is_stmt 1 view -0
  82              		.cfi_startproc
  83              		@ args = 0, pretend = 0, frame = 0
  84              		@ frame_needed = 0, uses_anonymous_args = 0
  85              		@ link register save eliminated.
 226:Generated_Source\PSoC5/isr_1.c ****     cyisraddress * ramVectorTable;
  86              		.loc 1 226 5 view .LVU10
 227:Generated_Source\PSoC5/isr_1.c **** 
 228:Generated_Source\PSoC5/isr_1.c ****     ramVectorTable = (cyisraddress *) *CYINT_VECT_TABLE;
  87              		.loc 1 228 5 view .LVU11
  88              		.loc 1 228 20 is_stmt 0 view .LVU12
  89 0000 014B     		ldr	r3, .L6
  90 0002 1B68     		ldr	r3, [r3]
  91              	.LVL2:
 229:Generated_Source\PSoC5/isr_1.c **** 
 230:Generated_Source\PSoC5/isr_1.c ****     return ramVectorTable[CYINT_IRQ_BASE + (uint32)isr_1__INTC_NUMBER];
  92              		.loc 1 230 5 is_stmt 1 view .LVU13
 231:Generated_Source\PSoC5/isr_1.c **** }
  93              		.loc 1 231 1 is_stmt 0 view .LVU14
  94 0004 186C     		ldr	r0, [r3, #64]
  95 0006 7047     		bx	lr
  96              	.L7:
  97              		.align	2
  98              	.L6:
  99 0008 08ED00E0 		.word	-536810232
 100              		.cfi_endproc
 101              	.LFE5:
 102              		.size	isr_1_GetVector, .-isr_1_GetVector
 103              		.section	.text.isr_1_SetPriority,"ax",%progbits
 104              		.align	1
 105              		.global	isr_1_SetPriority
 106              		.syntax unified
 107              		.thumb
 108              		.thumb_func
 109              		.fpu softvfp
 110              		.type	isr_1_SetPriority, %function
 111              	isr_1_SetPriority:
ARM GAS  C:\Users\jens-\AppData\Local\Temp\cc7CBuIz.s 			page 7


 112              	.LVL3:
 113              	.LFB6:
 232:Generated_Source\PSoC5/isr_1.c **** 
 233:Generated_Source\PSoC5/isr_1.c **** 
 234:Generated_Source\PSoC5/isr_1.c **** /*******************************************************************************
 235:Generated_Source\PSoC5/isr_1.c **** * Function Name: isr_1_SetPriority
 236:Generated_Source\PSoC5/isr_1.c **** ********************************************************************************
 237:Generated_Source\PSoC5/isr_1.c **** *
 238:Generated_Source\PSoC5/isr_1.c **** * Summary:
 239:Generated_Source\PSoC5/isr_1.c **** *   Sets the Priority of the Interrupt. 
 240:Generated_Source\PSoC5/isr_1.c **** *
 241:Generated_Source\PSoC5/isr_1.c **** *   Note calling isr_1_Start or isr_1_StartEx will 
 242:Generated_Source\PSoC5/isr_1.c **** *   override any effect this API would have had. This API should only be called
 243:Generated_Source\PSoC5/isr_1.c **** *   after isr_1_Start or isr_1_StartEx has been called. 
 244:Generated_Source\PSoC5/isr_1.c **** *   To set the initial priority for the component, use the Design-Wide Resources
 245:Generated_Source\PSoC5/isr_1.c **** *   Interrupt Editor.
 246:Generated_Source\PSoC5/isr_1.c **** *
 247:Generated_Source\PSoC5/isr_1.c **** *   Note This API has no effect on Non-maskable interrupt NMI).
 248:Generated_Source\PSoC5/isr_1.c **** *
 249:Generated_Source\PSoC5/isr_1.c **** * Parameters:
 250:Generated_Source\PSoC5/isr_1.c **** *   priority: Priority of the interrupt, 0 being the highest priority
 251:Generated_Source\PSoC5/isr_1.c **** *             PSoC 3 and PSoC 5LP: Priority is from 0 to 7.
 252:Generated_Source\PSoC5/isr_1.c **** *             PSoC 4: Priority is from 0 to 3.
 253:Generated_Source\PSoC5/isr_1.c **** *
 254:Generated_Source\PSoC5/isr_1.c **** * Return:
 255:Generated_Source\PSoC5/isr_1.c **** *   None
 256:Generated_Source\PSoC5/isr_1.c **** *
 257:Generated_Source\PSoC5/isr_1.c **** *******************************************************************************/
 258:Generated_Source\PSoC5/isr_1.c **** void isr_1_SetPriority(uint8 priority)
 259:Generated_Source\PSoC5/isr_1.c **** {
 114              		.loc 1 259 1 is_stmt 1 view -0
 115              		.cfi_startproc
 116              		@ args = 0, pretend = 0, frame = 0
 117              		@ frame_needed = 0, uses_anonymous_args = 0
 118              		@ link register save eliminated.
 260:Generated_Source\PSoC5/isr_1.c ****     *isr_1_INTC_PRIOR = priority << 5;
 119              		.loc 1 260 5 view .LVU16
 120              		.loc 1 260 34 is_stmt 0 view .LVU17
 121 0000 4001     		lsls	r0, r0, #5
 122              	.LVL4:
 123              		.loc 1 260 34 view .LVU18
 124 0002 C0B2     		uxtb	r0, r0
 125              		.loc 1 260 23 view .LVU19
 126 0004 014B     		ldr	r3, .L9
 127 0006 1870     		strb	r0, [r3]
 261:Generated_Source\PSoC5/isr_1.c **** }
 128              		.loc 1 261 1 view .LVU20
 129 0008 7047     		bx	lr
 130              	.L10:
 131 000a 00BF     		.align	2
 132              	.L9:
 133 000c 00E400E0 		.word	-536812544
 134              		.cfi_endproc
 135              	.LFE6:
 136              		.size	isr_1_SetPriority, .-isr_1_SetPriority
 137              		.section	.text.isr_1_GetPriority,"ax",%progbits
 138              		.align	1
ARM GAS  C:\Users\jens-\AppData\Local\Temp\cc7CBuIz.s 			page 8


 139              		.global	isr_1_GetPriority
 140              		.syntax unified
 141              		.thumb
 142              		.thumb_func
 143              		.fpu softvfp
 144              		.type	isr_1_GetPriority, %function
 145              	isr_1_GetPriority:
 146              	.LFB7:
 262:Generated_Source\PSoC5/isr_1.c **** 
 263:Generated_Source\PSoC5/isr_1.c **** 
 264:Generated_Source\PSoC5/isr_1.c **** /*******************************************************************************
 265:Generated_Source\PSoC5/isr_1.c **** * Function Name: isr_1_GetPriority
 266:Generated_Source\PSoC5/isr_1.c **** ********************************************************************************
 267:Generated_Source\PSoC5/isr_1.c **** *
 268:Generated_Source\PSoC5/isr_1.c **** * Summary:
 269:Generated_Source\PSoC5/isr_1.c **** *   Gets the Priority of the Interrupt.
 270:Generated_Source\PSoC5/isr_1.c **** *
 271:Generated_Source\PSoC5/isr_1.c **** * Parameters:
 272:Generated_Source\PSoC5/isr_1.c **** *   None
 273:Generated_Source\PSoC5/isr_1.c **** *
 274:Generated_Source\PSoC5/isr_1.c **** * Return:
 275:Generated_Source\PSoC5/isr_1.c **** *   Priority of the interrupt, 0 being the highest priority
 276:Generated_Source\PSoC5/isr_1.c **** *    PSoC 3 and PSoC 5LP: Priority is from 0 to 7.
 277:Generated_Source\PSoC5/isr_1.c **** *    PSoC 4: Priority is from 0 to 3.
 278:Generated_Source\PSoC5/isr_1.c **** *
 279:Generated_Source\PSoC5/isr_1.c **** *******************************************************************************/
 280:Generated_Source\PSoC5/isr_1.c **** uint8 isr_1_GetPriority(void)
 281:Generated_Source\PSoC5/isr_1.c **** {
 147              		.loc 1 281 1 is_stmt 1 view -0
 148              		.cfi_startproc
 149              		@ args = 0, pretend = 0, frame = 0
 150              		@ frame_needed = 0, uses_anonymous_args = 0
 151              		@ link register save eliminated.
 282:Generated_Source\PSoC5/isr_1.c ****     uint8 priority;
 152              		.loc 1 282 5 view .LVU22
 283:Generated_Source\PSoC5/isr_1.c **** 
 284:Generated_Source\PSoC5/isr_1.c **** 
 285:Generated_Source\PSoC5/isr_1.c ****     priority = *isr_1_INTC_PRIOR >> 5;
 153              		.loc 1 285 5 view .LVU23
 154              		.loc 1 285 16 is_stmt 0 view .LVU24
 155 0000 014B     		ldr	r3, .L12
 156 0002 1878     		ldrb	r0, [r3]	@ zero_extendqisi2
 157              	.LVL5:
 286:Generated_Source\PSoC5/isr_1.c **** 
 287:Generated_Source\PSoC5/isr_1.c ****     return priority;
 158              		.loc 1 287 5 is_stmt 1 view .LVU25
 288:Generated_Source\PSoC5/isr_1.c **** }
 159              		.loc 1 288 1 is_stmt 0 view .LVU26
 160 0004 4009     		lsrs	r0, r0, #5
 161              	.LVL6:
 162              		.loc 1 288 1 view .LVU27
 163 0006 7047     		bx	lr
 164              	.L13:
 165              		.align	2
 166              	.L12:
 167 0008 00E400E0 		.word	-536812544
 168              		.cfi_endproc
ARM GAS  C:\Users\jens-\AppData\Local\Temp\cc7CBuIz.s 			page 9


 169              	.LFE7:
 170              		.size	isr_1_GetPriority, .-isr_1_GetPriority
 171              		.section	.text.isr_1_Enable,"ax",%progbits
 172              		.align	1
 173              		.global	isr_1_Enable
 174              		.syntax unified
 175              		.thumb
 176              		.thumb_func
 177              		.fpu softvfp
 178              		.type	isr_1_Enable, %function
 179              	isr_1_Enable:
 180              	.LFB8:
 289:Generated_Source\PSoC5/isr_1.c **** 
 290:Generated_Source\PSoC5/isr_1.c **** 
 291:Generated_Source\PSoC5/isr_1.c **** /*******************************************************************************
 292:Generated_Source\PSoC5/isr_1.c **** * Function Name: isr_1_Enable
 293:Generated_Source\PSoC5/isr_1.c **** ********************************************************************************
 294:Generated_Source\PSoC5/isr_1.c **** *
 295:Generated_Source\PSoC5/isr_1.c **** * Summary:
 296:Generated_Source\PSoC5/isr_1.c **** *   Enables the interrupt to the interrupt controller. Do not call this function
 297:Generated_Source\PSoC5/isr_1.c **** *   unless ISR_Start() has been called or the functionality of the ISR_Start() 
 298:Generated_Source\PSoC5/isr_1.c **** *   function, which sets the vector and the priority, has been called.
 299:Generated_Source\PSoC5/isr_1.c **** *
 300:Generated_Source\PSoC5/isr_1.c **** * Parameters:
 301:Generated_Source\PSoC5/isr_1.c **** *   None
 302:Generated_Source\PSoC5/isr_1.c **** *
 303:Generated_Source\PSoC5/isr_1.c **** * Return:
 304:Generated_Source\PSoC5/isr_1.c **** *   None
 305:Generated_Source\PSoC5/isr_1.c **** *
 306:Generated_Source\PSoC5/isr_1.c **** *******************************************************************************/
 307:Generated_Source\PSoC5/isr_1.c **** void isr_1_Enable(void)
 308:Generated_Source\PSoC5/isr_1.c **** {
 181              		.loc 1 308 1 is_stmt 1 view -0
 182              		.cfi_startproc
 183              		@ args = 0, pretend = 0, frame = 0
 184              		@ frame_needed = 0, uses_anonymous_args = 0
 185              		@ link register save eliminated.
 309:Generated_Source\PSoC5/isr_1.c ****     /* Enable the general interrupt. */
 310:Generated_Source\PSoC5/isr_1.c ****     *isr_1_INTC_SET_EN = isr_1__INTC_MASK;
 186              		.loc 1 310 5 view .LVU29
 187              		.loc 1 310 24 is_stmt 0 view .LVU30
 188 0000 014B     		ldr	r3, .L15
 189 0002 0122     		movs	r2, #1
 190 0004 1A60     		str	r2, [r3]
 311:Generated_Source\PSoC5/isr_1.c **** }
 191              		.loc 1 311 1 view .LVU31
 192 0006 7047     		bx	lr
 193              	.L16:
 194              		.align	2
 195              	.L15:
 196 0008 00E100E0 		.word	-536813312
 197              		.cfi_endproc
 198              	.LFE8:
 199              		.size	isr_1_Enable, .-isr_1_Enable
 200              		.section	.text.isr_1_GetState,"ax",%progbits
 201              		.align	1
 202              		.global	isr_1_GetState
ARM GAS  C:\Users\jens-\AppData\Local\Temp\cc7CBuIz.s 			page 10


 203              		.syntax unified
 204              		.thumb
 205              		.thumb_func
 206              		.fpu softvfp
 207              		.type	isr_1_GetState, %function
 208              	isr_1_GetState:
 209              	.LFB9:
 312:Generated_Source\PSoC5/isr_1.c **** 
 313:Generated_Source\PSoC5/isr_1.c **** 
 314:Generated_Source\PSoC5/isr_1.c **** /*******************************************************************************
 315:Generated_Source\PSoC5/isr_1.c **** * Function Name: isr_1_GetState
 316:Generated_Source\PSoC5/isr_1.c **** ********************************************************************************
 317:Generated_Source\PSoC5/isr_1.c **** *
 318:Generated_Source\PSoC5/isr_1.c **** * Summary:
 319:Generated_Source\PSoC5/isr_1.c **** *   Gets the state (enabled, disabled) of the Interrupt.
 320:Generated_Source\PSoC5/isr_1.c **** *
 321:Generated_Source\PSoC5/isr_1.c **** * Parameters:
 322:Generated_Source\PSoC5/isr_1.c **** *   None
 323:Generated_Source\PSoC5/isr_1.c **** *
 324:Generated_Source\PSoC5/isr_1.c **** * Return:
 325:Generated_Source\PSoC5/isr_1.c **** *   1 if enabled, 0 if disabled.
 326:Generated_Source\PSoC5/isr_1.c **** *
 327:Generated_Source\PSoC5/isr_1.c **** *******************************************************************************/
 328:Generated_Source\PSoC5/isr_1.c **** uint8 isr_1_GetState(void)
 329:Generated_Source\PSoC5/isr_1.c **** {
 210              		.loc 1 329 1 is_stmt 1 view -0
 211              		.cfi_startproc
 212              		@ args = 0, pretend = 0, frame = 0
 213              		@ frame_needed = 0, uses_anonymous_args = 0
 214              		@ link register save eliminated.
 330:Generated_Source\PSoC5/isr_1.c ****     /* Get the state of the general interrupt. */
 331:Generated_Source\PSoC5/isr_1.c ****     return ((*isr_1_INTC_SET_EN & (uint32)isr_1__INTC_MASK) != 0u) ? 1u:0u;
 215              		.loc 1 331 5 view .LVU33
 216              		.loc 1 331 14 is_stmt 0 view .LVU34
 217 0000 024B     		ldr	r3, .L18
 218 0002 1868     		ldr	r0, [r3]
 332:Generated_Source\PSoC5/isr_1.c **** }
 219              		.loc 1 332 1 view .LVU35
 220 0004 00F00100 		and	r0, r0, #1
 221 0008 7047     		bx	lr
 222              	.L19:
 223 000a 00BF     		.align	2
 224              	.L18:
 225 000c 00E100E0 		.word	-536813312
 226              		.cfi_endproc
 227              	.LFE9:
 228              		.size	isr_1_GetState, .-isr_1_GetState
 229              		.section	.text.isr_1_Disable,"ax",%progbits
 230              		.align	1
 231              		.global	isr_1_Disable
 232              		.syntax unified
 233              		.thumb
 234              		.thumb_func
 235              		.fpu softvfp
 236              		.type	isr_1_Disable, %function
 237              	isr_1_Disable:
 238              	.LFB10:
ARM GAS  C:\Users\jens-\AppData\Local\Temp\cc7CBuIz.s 			page 11


 333:Generated_Source\PSoC5/isr_1.c **** 
 334:Generated_Source\PSoC5/isr_1.c **** 
 335:Generated_Source\PSoC5/isr_1.c **** /*******************************************************************************
 336:Generated_Source\PSoC5/isr_1.c **** * Function Name: isr_1_Disable
 337:Generated_Source\PSoC5/isr_1.c **** ********************************************************************************
 338:Generated_Source\PSoC5/isr_1.c **** *
 339:Generated_Source\PSoC5/isr_1.c **** * Summary:
 340:Generated_Source\PSoC5/isr_1.c **** *   Disables the Interrupt in the interrupt controller.
 341:Generated_Source\PSoC5/isr_1.c **** *
 342:Generated_Source\PSoC5/isr_1.c **** * Parameters:
 343:Generated_Source\PSoC5/isr_1.c **** *   None
 344:Generated_Source\PSoC5/isr_1.c **** *
 345:Generated_Source\PSoC5/isr_1.c **** * Return:
 346:Generated_Source\PSoC5/isr_1.c **** *   None
 347:Generated_Source\PSoC5/isr_1.c **** *
 348:Generated_Source\PSoC5/isr_1.c **** *******************************************************************************/
 349:Generated_Source\PSoC5/isr_1.c **** void isr_1_Disable(void)
 350:Generated_Source\PSoC5/isr_1.c **** {
 239              		.loc 1 350 1 is_stmt 1 view -0
 240              		.cfi_startproc
 241              		@ args = 0, pretend = 0, frame = 0
 242              		@ frame_needed = 0, uses_anonymous_args = 0
 243              		@ link register save eliminated.
 351:Generated_Source\PSoC5/isr_1.c ****     /* Disable the general interrupt. */
 352:Generated_Source\PSoC5/isr_1.c ****     *isr_1_INTC_CLR_EN = isr_1__INTC_MASK;
 244              		.loc 1 352 5 view .LVU37
 245              		.loc 1 352 24 is_stmt 0 view .LVU38
 246 0000 014B     		ldr	r3, .L21
 247 0002 0122     		movs	r2, #1
 248 0004 1A60     		str	r2, [r3]
 353:Generated_Source\PSoC5/isr_1.c **** }
 249              		.loc 1 353 1 view .LVU39
 250 0006 7047     		bx	lr
 251              	.L22:
 252              		.align	2
 253              	.L21:
 254 0008 80E100E0 		.word	-536813184
 255              		.cfi_endproc
 256              	.LFE10:
 257              		.size	isr_1_Disable, .-isr_1_Disable
 258              		.section	.text.isr_1_Start,"ax",%progbits
 259              		.align	1
 260              		.global	isr_1_Start
 261              		.syntax unified
 262              		.thumb
 263              		.thumb_func
 264              		.fpu softvfp
 265              		.type	isr_1_Start, %function
 266              	isr_1_Start:
 267              	.LFB0:
  62:Generated_Source\PSoC5/isr_1.c ****     /* For all we know the interrupt is active. */
 268              		.loc 1 62 1 is_stmt 1 view -0
 269              		.cfi_startproc
 270              		@ args = 0, pretend = 0, frame = 0
 271              		@ frame_needed = 0, uses_anonymous_args = 0
 272 0000 08B5     		push	{r3, lr}
 273              		.cfi_def_cfa_offset 8
ARM GAS  C:\Users\jens-\AppData\Local\Temp\cc7CBuIz.s 			page 12


 274              		.cfi_offset 3, -8
 275              		.cfi_offset 14, -4
  64:Generated_Source\PSoC5/isr_1.c **** 
 276              		.loc 1 64 5 view .LVU41
 277 0002 FFF7FEFF 		bl	isr_1_Disable
 278              	.LVL7:
  67:Generated_Source\PSoC5/isr_1.c **** 
 279              		.loc 1 67 5 view .LVU42
 280 0006 0448     		ldr	r0, .L25
 281 0008 FFF7FEFF 		bl	isr_1_SetVector
 282              	.LVL8:
  70:Generated_Source\PSoC5/isr_1.c **** 
 283              		.loc 1 70 5 view .LVU43
 284 000c 0720     		movs	r0, #7
 285 000e FFF7FEFF 		bl	isr_1_SetPriority
 286              	.LVL9:
  73:Generated_Source\PSoC5/isr_1.c **** }
 287              		.loc 1 73 5 view .LVU44
 288 0012 FFF7FEFF 		bl	isr_1_Enable
 289              	.LVL10:
  74:Generated_Source\PSoC5/isr_1.c **** 
 290              		.loc 1 74 1 is_stmt 0 view .LVU45
 291 0016 08BD     		pop	{r3, pc}
 292              	.L26:
 293              		.align	2
 294              	.L25:
 295 0018 00000000 		.word	isr_1_Interrupt
 296              		.cfi_endproc
 297              	.LFE0:
 298              		.size	isr_1_Start, .-isr_1_Start
 299              		.section	.text.isr_1_StartEx,"ax",%progbits
 300              		.align	1
 301              		.global	isr_1_StartEx
 302              		.syntax unified
 303              		.thumb
 304              		.thumb_func
 305              		.fpu softvfp
 306              		.type	isr_1_StartEx, %function
 307              	isr_1_StartEx:
 308              	.LVL11:
 309              	.LFB1:
 105:Generated_Source\PSoC5/isr_1.c ****     /* For all we know the interrupt is active. */
 310              		.loc 1 105 1 is_stmt 1 view -0
 311              		.cfi_startproc
 312              		@ args = 0, pretend = 0, frame = 0
 313              		@ frame_needed = 0, uses_anonymous_args = 0
 105:Generated_Source\PSoC5/isr_1.c ****     /* For all we know the interrupt is active. */
 314              		.loc 1 105 1 is_stmt 0 view .LVU47
 315 0000 10B5     		push	{r4, lr}
 316              		.cfi_def_cfa_offset 8
 317              		.cfi_offset 4, -8
 318              		.cfi_offset 14, -4
 319 0002 0446     		mov	r4, r0
 107:Generated_Source\PSoC5/isr_1.c **** 
 320              		.loc 1 107 5 is_stmt 1 view .LVU48
 321 0004 FFF7FEFF 		bl	isr_1_Disable
 322              	.LVL12:
ARM GAS  C:\Users\jens-\AppData\Local\Temp\cc7CBuIz.s 			page 13


 110:Generated_Source\PSoC5/isr_1.c **** 
 323              		.loc 1 110 5 view .LVU49
 324 0008 2046     		mov	r0, r4
 325 000a FFF7FEFF 		bl	isr_1_SetVector
 326              	.LVL13:
 113:Generated_Source\PSoC5/isr_1.c **** 
 327              		.loc 1 113 5 view .LVU50
 328 000e 0720     		movs	r0, #7
 329 0010 FFF7FEFF 		bl	isr_1_SetPriority
 330              	.LVL14:
 116:Generated_Source\PSoC5/isr_1.c **** }
 331              		.loc 1 116 5 view .LVU51
 332 0014 FFF7FEFF 		bl	isr_1_Enable
 333              	.LVL15:
 117:Generated_Source\PSoC5/isr_1.c **** 
 334              		.loc 1 117 1 is_stmt 0 view .LVU52
 335 0018 10BD     		pop	{r4, pc}
 117:Generated_Source\PSoC5/isr_1.c **** 
 336              		.loc 1 117 1 view .LVU53
 337              		.cfi_endproc
 338              	.LFE1:
 339              		.size	isr_1_StartEx, .-isr_1_StartEx
 340              		.section	.text.isr_1_Stop,"ax",%progbits
 341              		.align	1
 342              		.global	isr_1_Stop
 343              		.syntax unified
 344              		.thumb
 345              		.thumb_func
 346              		.fpu softvfp
 347              		.type	isr_1_Stop, %function
 348              	isr_1_Stop:
 349              	.LFB2:
 135:Generated_Source\PSoC5/isr_1.c ****     /* Disable this interrupt. */
 350              		.loc 1 135 1 is_stmt 1 view -0
 351              		.cfi_startproc
 352              		@ args = 0, pretend = 0, frame = 0
 353              		@ frame_needed = 0, uses_anonymous_args = 0
 354 0000 08B5     		push	{r3, lr}
 355              		.cfi_def_cfa_offset 8
 356              		.cfi_offset 3, -8
 357              		.cfi_offset 14, -4
 137:Generated_Source\PSoC5/isr_1.c **** 
 358              		.loc 1 137 5 view .LVU55
 359 0002 FFF7FEFF 		bl	isr_1_Disable
 360              	.LVL16:
 140:Generated_Source\PSoC5/isr_1.c **** }
 361              		.loc 1 140 5 view .LVU56
 362 0006 0248     		ldr	r0, .L31
 363 0008 FFF7FEFF 		bl	isr_1_SetVector
 364              	.LVL17:
 141:Generated_Source\PSoC5/isr_1.c **** 
 365              		.loc 1 141 1 is_stmt 0 view .LVU57
 366 000c 08BD     		pop	{r3, pc}
 367              	.L32:
 368 000e 00BF     		.align	2
 369              	.L31:
 370 0010 00000000 		.word	IntDefaultHandler
ARM GAS  C:\Users\jens-\AppData\Local\Temp\cc7CBuIz.s 			page 14


 371              		.cfi_endproc
 372              	.LFE2:
 373              		.size	isr_1_Stop, .-isr_1_Stop
 374              		.section	.text.isr_1_SetPending,"ax",%progbits
 375              		.align	1
 376              		.global	isr_1_SetPending
 377              		.syntax unified
 378              		.thumb
 379              		.thumb_func
 380              		.fpu softvfp
 381              		.type	isr_1_SetPending, %function
 382              	isr_1_SetPending:
 383              	.LFB11:
 354:Generated_Source\PSoC5/isr_1.c **** 
 355:Generated_Source\PSoC5/isr_1.c **** 
 356:Generated_Source\PSoC5/isr_1.c **** /*******************************************************************************
 357:Generated_Source\PSoC5/isr_1.c **** * Function Name: isr_1_SetPending
 358:Generated_Source\PSoC5/isr_1.c **** ********************************************************************************
 359:Generated_Source\PSoC5/isr_1.c **** *
 360:Generated_Source\PSoC5/isr_1.c **** * Summary:
 361:Generated_Source\PSoC5/isr_1.c **** *   Causes the Interrupt to enter the pending state, a software method of
 362:Generated_Source\PSoC5/isr_1.c **** *   generating the interrupt.
 363:Generated_Source\PSoC5/isr_1.c **** *
 364:Generated_Source\PSoC5/isr_1.c **** * Parameters:
 365:Generated_Source\PSoC5/isr_1.c **** *   None
 366:Generated_Source\PSoC5/isr_1.c **** *
 367:Generated_Source\PSoC5/isr_1.c **** * Return:
 368:Generated_Source\PSoC5/isr_1.c **** *   None
 369:Generated_Source\PSoC5/isr_1.c **** *
 370:Generated_Source\PSoC5/isr_1.c **** * Side Effects:
 371:Generated_Source\PSoC5/isr_1.c **** *   If interrupts are enabled and the interrupt is set up properly, the ISR is
 372:Generated_Source\PSoC5/isr_1.c **** *   entered (depending on the priority of this interrupt and other pending 
 373:Generated_Source\PSoC5/isr_1.c **** *   interrupts).
 374:Generated_Source\PSoC5/isr_1.c **** *
 375:Generated_Source\PSoC5/isr_1.c **** *******************************************************************************/
 376:Generated_Source\PSoC5/isr_1.c **** void isr_1_SetPending(void)
 377:Generated_Source\PSoC5/isr_1.c **** {
 384              		.loc 1 377 1 is_stmt 1 view -0
 385              		.cfi_startproc
 386              		@ args = 0, pretend = 0, frame = 0
 387              		@ frame_needed = 0, uses_anonymous_args = 0
 388              		@ link register save eliminated.
 378:Generated_Source\PSoC5/isr_1.c ****     *isr_1_INTC_SET_PD = isr_1__INTC_MASK;
 389              		.loc 1 378 5 view .LVU59
 390              		.loc 1 378 24 is_stmt 0 view .LVU60
 391 0000 014B     		ldr	r3, .L34
 392 0002 0122     		movs	r2, #1
 393 0004 1A60     		str	r2, [r3]
 379:Generated_Source\PSoC5/isr_1.c **** }
 394              		.loc 1 379 1 view .LVU61
 395 0006 7047     		bx	lr
 396              	.L35:
 397              		.align	2
 398              	.L34:
 399 0008 00E200E0 		.word	-536813056
 400              		.cfi_endproc
 401              	.LFE11:
ARM GAS  C:\Users\jens-\AppData\Local\Temp\cc7CBuIz.s 			page 15


 402              		.size	isr_1_SetPending, .-isr_1_SetPending
 403              		.section	.text.isr_1_ClearPending,"ax",%progbits
 404              		.align	1
 405              		.global	isr_1_ClearPending
 406              		.syntax unified
 407              		.thumb
 408              		.thumb_func
 409              		.fpu softvfp
 410              		.type	isr_1_ClearPending, %function
 411              	isr_1_ClearPending:
 412              	.LFB12:
 380:Generated_Source\PSoC5/isr_1.c **** 
 381:Generated_Source\PSoC5/isr_1.c **** 
 382:Generated_Source\PSoC5/isr_1.c **** /*******************************************************************************
 383:Generated_Source\PSoC5/isr_1.c **** * Function Name: isr_1_ClearPending
 384:Generated_Source\PSoC5/isr_1.c **** ********************************************************************************
 385:Generated_Source\PSoC5/isr_1.c **** *
 386:Generated_Source\PSoC5/isr_1.c **** * Summary:
 387:Generated_Source\PSoC5/isr_1.c **** *   Clears a pending interrupt in the interrupt controller.
 388:Generated_Source\PSoC5/isr_1.c **** *
 389:Generated_Source\PSoC5/isr_1.c **** *   Note Some interrupt sources are clear-on-read and require the block 
 390:Generated_Source\PSoC5/isr_1.c **** *   interrupt/status register to be read/cleared with the appropriate block API 
 391:Generated_Source\PSoC5/isr_1.c **** *   (GPIO, UART, and so on). Otherwise the ISR will continue to remain in 
 392:Generated_Source\PSoC5/isr_1.c **** *   pending state even though the interrupt itself is cleared using this API.
 393:Generated_Source\PSoC5/isr_1.c **** *
 394:Generated_Source\PSoC5/isr_1.c **** * Parameters:
 395:Generated_Source\PSoC5/isr_1.c **** *   None
 396:Generated_Source\PSoC5/isr_1.c **** *
 397:Generated_Source\PSoC5/isr_1.c **** * Return:
 398:Generated_Source\PSoC5/isr_1.c **** *   None
 399:Generated_Source\PSoC5/isr_1.c **** *
 400:Generated_Source\PSoC5/isr_1.c **** *******************************************************************************/
 401:Generated_Source\PSoC5/isr_1.c **** void isr_1_ClearPending(void)
 402:Generated_Source\PSoC5/isr_1.c **** {
 413              		.loc 1 402 1 is_stmt 1 view -0
 414              		.cfi_startproc
 415              		@ args = 0, pretend = 0, frame = 0
 416              		@ frame_needed = 0, uses_anonymous_args = 0
 417              		@ link register save eliminated.
 403:Generated_Source\PSoC5/isr_1.c ****     *isr_1_INTC_CLR_PD = isr_1__INTC_MASK;
 418              		.loc 1 403 5 view .LVU63
 419              		.loc 1 403 24 is_stmt 0 view .LVU64
 420 0000 014B     		ldr	r3, .L37
 421 0002 0122     		movs	r2, #1
 422 0004 1A60     		str	r2, [r3]
 404:Generated_Source\PSoC5/isr_1.c **** }
 423              		.loc 1 404 1 view .LVU65
 424 0006 7047     		bx	lr
 425              	.L38:
 426              		.align	2
 427              	.L37:
 428 0008 80E200E0 		.word	-536812928
 429              		.cfi_endproc
 430              	.LFE12:
 431              		.size	isr_1_ClearPending, .-isr_1_ClearPending
 432              		.text
 433              	.Letext0:
ARM GAS  C:\Users\jens-\AppData\Local\Temp\cc7CBuIz.s 			page 16


 434              		.file 2 "c:\\program files (x86)\\cypress\\psoc creator\\4.2\\psoc creator\\import\\gnu\\arm\\5.4.
 435              		.file 3 "c:\\program files (x86)\\cypress\\psoc creator\\4.2\\psoc creator\\import\\gnu\\arm\\5.4.
 436              		.file 4 "c:\\program files (x86)\\cypress\\psoc creator\\4.2\\psoc creator\\import\\gnu\\arm\\5.4.
 437              		.file 5 "c:\\program files (x86)\\cypress\\psoc creator\\4.2\\psoc creator\\import\\gnu\\arm\\5.4.
 438              		.file 6 "c:\\program files (x86)\\cypress\\psoc creator\\4.2\\psoc creator\\import\\gnu\\arm\\5.4.
 439              		.file 7 "Generated_Source\\PSoC5/cytypes.h"
 440              		.file 8 "Generated_Source\\PSoC5/CySpc.h"
 441              		.file 9 "Generated_Source\\PSoC5/CyFlash.h"
 442              		.file 10 "Generated_Source\\PSoC5/CyLib.h"