ARM GAS  C:\Users\jens-\AppData\Local\Temp\ccLJ05S1.s 			page 1


   1              		.cpu cortex-m3
   2              		.eabi_attribute 20, 1
   3              		.eabi_attribute 21, 1
   4              		.eabi_attribute 23, 3
   5              		.eabi_attribute 24, 1
   6              		.eabi_attribute 25, 1
   7              		.eabi_attribute 26, 1
   8              		.eabi_attribute 30, 1
   9              		.eabi_attribute 34, 1
  10              		.eabi_attribute 18, 4
  11              		.file	"RaspberryIF.c"
  12              		.text
  13              	.Ltext0:
  14              		.cfi_sections	.debug_frame
  15              		.section	.text.RaspberryIF_init,"ax",%progbits
  16              		.align	1
  17              		.global	RaspberryIF_init
  18              		.arch armv7-m
  19              		.syntax unified
  20              		.thumb
  21              		.thumb_func
  22              		.fpu softvfp
  23              		.type	RaspberryIF_init, %function
  24              	RaspberryIF_init:
  25              	.LVL0:
  26              	.LFB63:
  27              		.file 1 "RaspberryIF.c"
   1:RaspberryIF.c **** /* ========================================
   2:RaspberryIF.c ****  *
   3:RaspberryIF.c ****  * Copyright YOUR COMPANY, THE YEAR
   4:RaspberryIF.c ****  * All Rights Reserved
   5:RaspberryIF.c ****  * UNPUBLISHED, LICENSED SOFTWARE.
   6:RaspberryIF.c ****  *
   7:RaspberryIF.c ****  * CONFIDENTIAL AND PROPRIETARY INFORMATION
   8:RaspberryIF.c ****  * WHICH IS THE PROPERTY OF your company.
   9:RaspberryIF.c ****  *
  10:RaspberryIF.c ****  * ========================================
  11:RaspberryIF.c **** */
  12:RaspberryIF.c **** #include "project.h"
  13:RaspberryIF.c **** #include "RaspberryIF.h"
  14:RaspberryIF.c **** #include "PSOC_controller.h"
  15:RaspberryIF.c **** //Static pointer to RaspberryIF obj. used in Cy Api callback
  16:RaspberryIF.c **** static RaspberryIF *callbackPtr;
  17:RaspberryIF.c **** /**********************private(static)***********************/
  18:RaspberryIF.c **** 
  19:RaspberryIF.c **** 
  20:RaspberryIF.c **** 
  21:RaspberryIF.c **** 
  22:RaspberryIF.c **** /**************************public***************************/
  23:RaspberryIF.c **** void RaspberryIF_init(RaspberryIF* const this)
  24:RaspberryIF.c **** {
  28              		.loc 1 24 1 view -0
  29              		.cfi_startproc
  30              		@ args = 0, pretend = 0, frame = 0
  31              		@ frame_needed = 0, uses_anonymous_args = 0
  32              		.loc 1 24 1 is_stmt 0 view .LVU1
  33 0000 10B5     		push	{r4, lr}
ARM GAS  C:\Users\jens-\AppData\Local\Temp\ccLJ05S1.s 			page 2


  34              		.cfi_def_cfa_offset 8
  35              		.cfi_offset 4, -8
  36              		.cfi_offset 14, -4
  37 0002 0446     		mov	r4, r0
  25:RaspberryIF.c ****         callbackPtr=this;
  38              		.loc 1 25 9 is_stmt 1 view .LVU2
  39              		.loc 1 25 20 is_stmt 0 view .LVU3
  40 0004 084B     		ldr	r3, .L3
  41 0006 1860     		str	r0, [r3]
  26:RaspberryIF.c ****         
  27:RaspberryIF.c ****         I2C_1_SlaveInitReadBuf(this->readBuf,8);
  42              		.loc 1 27 9 is_stmt 1 view .LVU4
  43 0008 0821     		movs	r1, #8
  44 000a FFF7FEFF 		bl	I2C_1_SlaveInitReadBuf
  45              	.LVL1:
  28:RaspberryIF.c ****         I2C_1_SlaveInitWriteBuf(this->writeBuf,8);
  46              		.loc 1 28 9 view .LVU5
  47 000e 0821     		movs	r1, #8
  48 0010 6018     		adds	r0, r4, r1
  49 0012 FFF7FEFF 		bl	I2C_1_SlaveInitWriteBuf
  50              	.LVL2:
  29:RaspberryIF.c ****         I2C_1_SlaveSetAddress(0x42);
  51              		.loc 1 29 9 view .LVU6
  52 0016 4220     		movs	r0, #66
  53 0018 FFF7FEFF 		bl	I2C_1_SlaveSetAddress
  54              	.LVL3:
  30:RaspberryIF.c ****         I2C_1_Start();
  55              		.loc 1 30 9 view .LVU7
  56 001c FFF7FEFF 		bl	I2C_1_Start
  57              	.LVL4:
  31:RaspberryIF.c ****         this->PSOC_controllerPtr=_NULL; 
  58              		.loc 1 31 9 view .LVU8
  59              		.loc 1 31 33 is_stmt 0 view .LVU9
  60 0020 0023     		movs	r3, #0
  61 0022 2361     		str	r3, [r4, #16]
  32:RaspberryIF.c **** }
  62              		.loc 1 32 1 view .LVU10
  63 0024 10BD     		pop	{r4, pc}
  64              	.LVL5:
  65              	.L4:
  66              		.loc 1 32 1 view .LVU11
  67 0026 00BF     		.align	2
  68              	.L3:
  69 0028 00000000 		.word	.LANCHOR0
  70              		.cfi_endproc
  71              	.LFE63:
  72              		.size	RaspberryIF_init, .-RaspberryIF_init
  73              		.section	.text.I2C_DosisReceived,"ax",%progbits
  74              		.align	1
  75              		.global	I2C_DosisReceived
  76              		.syntax unified
  77              		.thumb
  78              		.thumb_func
  79              		.fpu softvfp
  80              		.type	I2C_DosisReceived, %function
  81              	I2C_DosisReceived:
  82              	.LVL6:
ARM GAS  C:\Users\jens-\AppData\Local\Temp\ccLJ05S1.s 			page 3


  83              	.LFB64:
  33:RaspberryIF.c **** 
  34:RaspberryIF.c **** void I2C_DosisReceived(RaspberryIF* const this)
  35:RaspberryIF.c **** {
  84              		.loc 1 35 1 is_stmt 1 view -0
  85              		.cfi_startproc
  86              		@ args = 0, pretend = 0, frame = 0
  87              		@ frame_needed = 0, uses_anonymous_args = 0
  88              		.loc 1 35 1 is_stmt 0 view .LVU13
  89 0000 F8B5     		push	{r3, r4, r5, r6, r7, lr}
  90              		.cfi_def_cfa_offset 24
  91              		.cfi_offset 3, -24
  92              		.cfi_offset 4, -20
  93              		.cfi_offset 5, -16
  94              		.cfi_offset 6, -12
  95              		.cfi_offset 7, -8
  96              		.cfi_offset 14, -4
  97 0002 0446     		mov	r4, r0
  36:RaspberryIF.c ****     //dispensdosis med de tre bytes fra writebufsize.
  37:RaspberryIF.c ****             uint8_t PillA=this->writeBuf[0];
  98              		.loc 1 37 13 is_stmt 1 view .LVU14
  99              		.loc 1 37 21 is_stmt 0 view .LVU15
 100 0004 057A     		ldrb	r5, [r0, #8]	@ zero_extendqisi2
 101              	.LVL7:
  38:RaspberryIF.c ****             uint8_t PillB=this->writeBuf[1];
 102              		.loc 1 38 13 is_stmt 1 view .LVU16
 103              		.loc 1 38 21 is_stmt 0 view .LVU17
 104 0006 467A     		ldrb	r6, [r0, #9]	@ zero_extendqisi2
 105              	.LVL8:
  39:RaspberryIF.c ****             uint8_t PillC=this->writeBuf[2];
 106              		.loc 1 39 13 is_stmt 1 view .LVU18
 107              		.loc 1 39 21 is_stmt 0 view .LVU19
 108 0008 877A     		ldrb	r7, [r0, #10]	@ zero_extendqisi2
 109              	.LVL9:
  40:RaspberryIF.c ****             I2C_1_SlaveClearWriteBuf();
 110              		.loc 1 40 13 is_stmt 1 view .LVU20
 111 000a FFF7FEFF 		bl	I2C_1_SlaveClearWriteBuf
 112              	.LVL10:
  41:RaspberryIF.c ****             dispensPiller(this->PSOC_controllerPtr,PillA,PillB,PillC);
 113              		.loc 1 41 13 view .LVU21
 114 000e 3B46     		mov	r3, r7
 115 0010 3246     		mov	r2, r6
 116 0012 2946     		mov	r1, r5
 117 0014 2069     		ldr	r0, [r4, #16]
 118 0016 FFF7FEFF 		bl	dispensPiller
 119              	.LVL11:
  42:RaspberryIF.c ****             
  43:RaspberryIF.c **** }
 120              		.loc 1 43 1 is_stmt 0 view .LVU22
 121 001a F8BD     		pop	{r3, r4, r5, r6, r7, pc}
 122              		.loc 1 43 1 view .LVU23
 123              		.cfi_endproc
 124              	.LFE64:
 125              		.size	I2C_DosisReceived, .-I2C_DosisReceived
 126              		.section	.text.setControllerPtr,"ax",%progbits
 127              		.align	1
 128              		.global	setControllerPtr
ARM GAS  C:\Users\jens-\AppData\Local\Temp\ccLJ05S1.s 			page 4


 129              		.syntax unified
 130              		.thumb
 131              		.thumb_func
 132              		.fpu softvfp
 133              		.type	setControllerPtr, %function
 134              	setControllerPtr:
 135              	.LVL12:
 136              	.LFB65:
  44:RaspberryIF.c **** 
  45:RaspberryIF.c **** void setControllerPtr(RaspberryIF* const this,PSOC_controller *ptr)
  46:RaspberryIF.c **** {
 137              		.loc 1 46 1 is_stmt 1 view -0
 138              		.cfi_startproc
 139              		@ args = 0, pretend = 0, frame = 0
 140              		@ frame_needed = 0, uses_anonymous_args = 0
 141              		@ link register save eliminated.
  47:RaspberryIF.c ****     this->PSOC_controllerPtr=ptr;
 142              		.loc 1 47 5 view .LVU25
 143              		.loc 1 47 29 is_stmt 0 view .LVU26
 144 0000 0161     		str	r1, [r0, #16]
  48:RaspberryIF.c **** }
 145              		.loc 1 48 1 view .LVU27
 146 0002 7047     		bx	lr
 147              		.cfi_endproc
 148              	.LFE65:
 149              		.size	setControllerPtr, .-setControllerPtr
 150              		.section	.text.I2C_1_ISR_ExitCallback,"ax",%progbits
 151              		.align	1
 152              		.global	I2C_1_ISR_ExitCallback
 153              		.syntax unified
 154              		.thumb
 155              		.thumb_func
 156              		.fpu softvfp
 157              		.type	I2C_1_ISR_ExitCallback, %function
 158              	I2C_1_ISR_ExitCallback:
 159              	.LFB66:
  49:RaspberryIF.c **** /**********************Free-functions***********************/
  50:RaspberryIF.c **** 
  51:RaspberryIF.c **** //Cy Api callback function:
  52:RaspberryIF.c **** void I2C_1_ISR_ExitCallback()
  53:RaspberryIF.c **** {
 160              		.loc 1 53 1 is_stmt 1 view -0
 161              		.cfi_startproc
 162              		@ args = 0, pretend = 0, frame = 0
 163              		@ frame_needed = 0, uses_anonymous_args = 0
 164 0000 08B5     		push	{r3, lr}
 165              		.cfi_def_cfa_offset 8
 166              		.cfi_offset 3, -8
 167              		.cfi_offset 14, -4
  54:RaspberryIF.c ****         
  55:RaspberryIF.c ****         if(I2C_1_SlaveGetWriteBufSize()>=3)
 168              		.loc 1 55 9 view .LVU29
 169              		.loc 1 55 12 is_stmt 0 view .LVU30
 170 0002 FFF7FEFF 		bl	I2C_1_SlaveGetWriteBufSize
 171              	.LVL13:
 172              		.loc 1 55 11 view .LVU31
 173 0006 0228     		cmp	r0, #2
ARM GAS  C:\Users\jens-\AppData\Local\Temp\ccLJ05S1.s 			page 5


 174 0008 00D8     		bhi	.L11
 175              	.L8:
  56:RaspberryIF.c ****         {
  57:RaspberryIF.c ****             I2C_DosisReceived(callbackPtr);           
  58:RaspberryIF.c ****         }
  59:RaspberryIF.c ****        
  60:RaspberryIF.c **** }
 176              		.loc 1 60 1 view .LVU32
 177 000a 08BD     		pop	{r3, pc}
 178              	.L11:
  57:RaspberryIF.c ****         }
 179              		.loc 1 57 13 is_stmt 1 view .LVU33
 180 000c 024B     		ldr	r3, .L12
 181 000e 1868     		ldr	r0, [r3]
 182 0010 FFF7FEFF 		bl	I2C_DosisReceived
 183              	.LVL14:
 184              		.loc 1 60 1 is_stmt 0 view .LVU34
 185 0014 F9E7     		b	.L8
 186              	.L13:
 187 0016 00BF     		.align	2
 188              	.L12:
 189 0018 00000000 		.word	.LANCHOR0
 190              		.cfi_endproc
 191              	.LFE66:
 192              		.size	I2C_1_ISR_ExitCallback, .-I2C_1_ISR_ExitCallback
 193              		.bss
 194              		.align	2
 195              		.set	.LANCHOR0,. + 0
 196              		.type	callbackPtr, %object
 197              		.size	callbackPtr, 4
 198              	callbackPtr:
 199 0000 00000000 		.space	4
 200              		.text
 201              	.Letext0:
 202              		.file 2 "c:\\program files (x86)\\cypress\\psoc creator\\4.2\\psoc creator\\import\\gnu\\arm\\5.4.
 203              		.file 3 "c:\\program files (x86)\\cypress\\psoc creator\\4.2\\psoc creator\\import\\gnu\\arm\\5.4.
 204              		.file 4 "Generated_Source\\PSoC5/cytypes.h"
 205              		.file 5 "c:\\program files (x86)\\cypress\\psoc creator\\4.2\\psoc creator\\import\\gnu\\arm\\5.4.
 206              		.file 6 "c:\\program files (x86)\\cypress\\psoc creator\\4.2\\psoc creator\\import\\gnu\\arm\\5.4.
 207              		.file 7 "c:\\program files (x86)\\cypress\\psoc creator\\4.2\\psoc creator\\import\\gnu\\arm\\5.4.
 208              		.file 8 "c:\\program files (x86)\\cypress\\psoc creator\\4.2\\psoc creator\\import\\gnu\\arm\\5.4.
 209              		.file 9 "c:\\program files (x86)\\cypress\\psoc creator\\4.2\\psoc creator\\import\\gnu\\arm\\5.4.
 210              		.file 10 "Generated_Source\\PSoC5/CySpc.h"
 211              		.file 11 "Generated_Source\\PSoC5/CyFlash.h"
 212              		.file 12 "Generated_Source\\PSoC5/CyLib.h"
 213              		.file 13 "Generated_Source\\PSoC5/I2C_1.h"
 214              		.file 14 "Generated_Source\\PSoC5/I2C_1_PVT.h"
 215              		.file 15 "Generated_Source\\PSoC5/UART_tester.h"
 216              		.file 16 "Generated_Source\\PSoC5/core_cm3.h"
 217              		.file 17 "Tester.h"
 218              		.file 18 "PSOC_controller.h"
 219              		.file 19 "RaspberryIF.h"