ARM GAS  C:\Users\jens-\AppData\Local\Temp\ccWnR4yW.s 			page 1


   1              		.cpu cortex-m3
   2              		.eabi_attribute 20, 1
   3              		.eabi_attribute 21, 1
   4              		.eabi_attribute 23, 3
   5              		.eabi_attribute 24, 1
   6              		.eabi_attribute 25, 1
   7              		.eabi_attribute 26, 1
   8              		.eabi_attribute 30, 1
   9              		.eabi_attribute 34, 1
  10              		.eabi_attribute 18, 4
  11              		.file	"SPIS_1_PM.c"
  12              		.text
  13              	.Ltext0:
  14              		.cfi_sections	.debug_frame
  15              		.section	.text.SPIS_1_SaveConfig,"ax",%progbits
  16              		.align	1
  17              		.global	SPIS_1_SaveConfig
  18              		.arch armv7-m
  19              		.syntax unified
  20              		.thumb
  21              		.thumb_func
  22              		.fpu softvfp
  23              		.type	SPIS_1_SaveConfig, %function
  24              	SPIS_1_SaveConfig:
  25              	.LFB0:
  26              		.file 1 "Generated_Source\\PSoC5\\SPIS_1_PM.c"
   1:Generated_Source\PSoC5/SPIS_1_PM.c **** /*******************************************************************************
   2:Generated_Source\PSoC5/SPIS_1_PM.c **** * File Name: SPIS_1_PM.c
   3:Generated_Source\PSoC5/SPIS_1_PM.c **** * Version 2.70
   4:Generated_Source\PSoC5/SPIS_1_PM.c **** *
   5:Generated_Source\PSoC5/SPIS_1_PM.c **** * Description:
   6:Generated_Source\PSoC5/SPIS_1_PM.c **** *  This file contains the setup, control and status commands to support
   7:Generated_Source\PSoC5/SPIS_1_PM.c **** *  component operations in low power mode.
   8:Generated_Source\PSoC5/SPIS_1_PM.c **** *
   9:Generated_Source\PSoC5/SPIS_1_PM.c **** * Note:
  10:Generated_Source\PSoC5/SPIS_1_PM.c **** *
  11:Generated_Source\PSoC5/SPIS_1_PM.c **** ********************************************************************************
  12:Generated_Source\PSoC5/SPIS_1_PM.c **** * Copyright 2008-2015, Cypress Semiconductor Corporation.  All rights reserved.
  13:Generated_Source\PSoC5/SPIS_1_PM.c **** * You may use this file only in accordance with the license, terms, conditions,
  14:Generated_Source\PSoC5/SPIS_1_PM.c **** * disclaimers, and limitations in the end user license agreement accompanying
  15:Generated_Source\PSoC5/SPIS_1_PM.c **** * the software package with which this file was provided.
  16:Generated_Source\PSoC5/SPIS_1_PM.c **** *******************************************************************************/
  17:Generated_Source\PSoC5/SPIS_1_PM.c **** 
  18:Generated_Source\PSoC5/SPIS_1_PM.c **** #include "SPIS_1_PVT.h"
  19:Generated_Source\PSoC5/SPIS_1_PM.c **** 
  20:Generated_Source\PSoC5/SPIS_1_PM.c **** static SPIS_1_BACKUP_STRUCT SPIS_1_backup = 
  21:Generated_Source\PSoC5/SPIS_1_PM.c **** {
  22:Generated_Source\PSoC5/SPIS_1_PM.c ****     SPIS_1_DISABLED,
  23:Generated_Source\PSoC5/SPIS_1_PM.c ****     SPIS_1_BITCTR_INIT,
  24:Generated_Source\PSoC5/SPIS_1_PM.c **** };
  25:Generated_Source\PSoC5/SPIS_1_PM.c **** 
  26:Generated_Source\PSoC5/SPIS_1_PM.c **** 
  27:Generated_Source\PSoC5/SPIS_1_PM.c **** /*******************************************************************************
  28:Generated_Source\PSoC5/SPIS_1_PM.c **** * Function Name: SPIS_1_SaveConfig
  29:Generated_Source\PSoC5/SPIS_1_PM.c **** ********************************************************************************
  30:Generated_Source\PSoC5/SPIS_1_PM.c **** *
  31:Generated_Source\PSoC5/SPIS_1_PM.c **** * Summary:
ARM GAS  C:\Users\jens-\AppData\Local\Temp\ccWnR4yW.s 			page 2


  32:Generated_Source\PSoC5/SPIS_1_PM.c **** *  Empty function. Included for consistency with other components.
  33:Generated_Source\PSoC5/SPIS_1_PM.c **** *
  34:Generated_Source\PSoC5/SPIS_1_PM.c **** * Parameters:
  35:Generated_Source\PSoC5/SPIS_1_PM.c **** *  None.
  36:Generated_Source\PSoC5/SPIS_1_PM.c **** *
  37:Generated_Source\PSoC5/SPIS_1_PM.c **** * Return:
  38:Generated_Source\PSoC5/SPIS_1_PM.c **** *  None.
  39:Generated_Source\PSoC5/SPIS_1_PM.c **** *
  40:Generated_Source\PSoC5/SPIS_1_PM.c **** *******************************************************************************/
  41:Generated_Source\PSoC5/SPIS_1_PM.c **** void SPIS_1_SaveConfig(void) 
  42:Generated_Source\PSoC5/SPIS_1_PM.c **** {
  27              		.loc 1 42 1 view -0
  28              		.cfi_startproc
  29              		@ args = 0, pretend = 0, frame = 0
  30              		@ frame_needed = 0, uses_anonymous_args = 0
  31              		@ link register save eliminated.
  43:Generated_Source\PSoC5/SPIS_1_PM.c **** 
  44:Generated_Source\PSoC5/SPIS_1_PM.c **** }
  32              		.loc 1 44 1 view .LVU1
  33 0000 7047     		bx	lr
  34              		.cfi_endproc
  35              	.LFE0:
  36              		.size	SPIS_1_SaveConfig, .-SPIS_1_SaveConfig
  37              		.section	.text.SPIS_1_RestoreConfig,"ax",%progbits
  38              		.align	1
  39              		.global	SPIS_1_RestoreConfig
  40              		.syntax unified
  41              		.thumb
  42              		.thumb_func
  43              		.fpu softvfp
  44              		.type	SPIS_1_RestoreConfig, %function
  45              	SPIS_1_RestoreConfig:
  46              	.LFB1:
  45:Generated_Source\PSoC5/SPIS_1_PM.c **** 
  46:Generated_Source\PSoC5/SPIS_1_PM.c **** 
  47:Generated_Source\PSoC5/SPIS_1_PM.c **** /*******************************************************************************
  48:Generated_Source\PSoC5/SPIS_1_PM.c **** * Function Name: SPIS_1_RestoreConfig
  49:Generated_Source\PSoC5/SPIS_1_PM.c **** ********************************************************************************
  50:Generated_Source\PSoC5/SPIS_1_PM.c **** *
  51:Generated_Source\PSoC5/SPIS_1_PM.c **** * Summary:
  52:Generated_Source\PSoC5/SPIS_1_PM.c **** *  Empty function. Included for consistency with other components.
  53:Generated_Source\PSoC5/SPIS_1_PM.c **** *
  54:Generated_Source\PSoC5/SPIS_1_PM.c **** * Parameters:
  55:Generated_Source\PSoC5/SPIS_1_PM.c **** *  None.
  56:Generated_Source\PSoC5/SPIS_1_PM.c **** *
  57:Generated_Source\PSoC5/SPIS_1_PM.c **** * Return:
  58:Generated_Source\PSoC5/SPIS_1_PM.c **** *  None.
  59:Generated_Source\PSoC5/SPIS_1_PM.c **** *
  60:Generated_Source\PSoC5/SPIS_1_PM.c **** *******************************************************************************/
  61:Generated_Source\PSoC5/SPIS_1_PM.c **** void SPIS_1_RestoreConfig(void) 
  62:Generated_Source\PSoC5/SPIS_1_PM.c **** {
  47              		.loc 1 62 1 view -0
  48              		.cfi_startproc
  49              		@ args = 0, pretend = 0, frame = 0
  50              		@ frame_needed = 0, uses_anonymous_args = 0
  51              		@ link register save eliminated.
  63:Generated_Source\PSoC5/SPIS_1_PM.c **** 
ARM GAS  C:\Users\jens-\AppData\Local\Temp\ccWnR4yW.s 			page 3


  64:Generated_Source\PSoC5/SPIS_1_PM.c **** }
  52              		.loc 1 64 1 view .LVU3
  53 0000 7047     		bx	lr
  54              		.cfi_endproc
  55              	.LFE1:
  56              		.size	SPIS_1_RestoreConfig, .-SPIS_1_RestoreConfig
  57              		.section	.text.SPIS_1_Sleep,"ax",%progbits
  58              		.align	1
  59              		.global	SPIS_1_Sleep
  60              		.syntax unified
  61              		.thumb
  62              		.thumb_func
  63              		.fpu softvfp
  64              		.type	SPIS_1_Sleep, %function
  65              	SPIS_1_Sleep:
  66              	.LFB2:
  65:Generated_Source\PSoC5/SPIS_1_PM.c **** 
  66:Generated_Source\PSoC5/SPIS_1_PM.c **** 
  67:Generated_Source\PSoC5/SPIS_1_PM.c **** /*******************************************************************************
  68:Generated_Source\PSoC5/SPIS_1_PM.c **** * Function Name: SPIS_1_Sleep
  69:Generated_Source\PSoC5/SPIS_1_PM.c **** ********************************************************************************
  70:Generated_Source\PSoC5/SPIS_1_PM.c **** *
  71:Generated_Source\PSoC5/SPIS_1_PM.c **** * Summary:
  72:Generated_Source\PSoC5/SPIS_1_PM.c **** *  Prepare SPI Slave Component goes to sleep.
  73:Generated_Source\PSoC5/SPIS_1_PM.c **** *
  74:Generated_Source\PSoC5/SPIS_1_PM.c **** * Parameters:
  75:Generated_Source\PSoC5/SPIS_1_PM.c **** *  None.
  76:Generated_Source\PSoC5/SPIS_1_PM.c **** *
  77:Generated_Source\PSoC5/SPIS_1_PM.c **** * Return:
  78:Generated_Source\PSoC5/SPIS_1_PM.c **** *  None.
  79:Generated_Source\PSoC5/SPIS_1_PM.c **** *
  80:Generated_Source\PSoC5/SPIS_1_PM.c **** * Global Variables:
  81:Generated_Source\PSoC5/SPIS_1_PM.c **** *  SPIS_1_backup - modified when non-retention registers are saved.
  82:Generated_Source\PSoC5/SPIS_1_PM.c **** *
  83:Generated_Source\PSoC5/SPIS_1_PM.c **** * Reentrant:
  84:Generated_Source\PSoC5/SPIS_1_PM.c **** *  No.
  85:Generated_Source\PSoC5/SPIS_1_PM.c **** *
  86:Generated_Source\PSoC5/SPIS_1_PM.c **** *******************************************************************************/
  87:Generated_Source\PSoC5/SPIS_1_PM.c **** void SPIS_1_Sleep(void) 
  88:Generated_Source\PSoC5/SPIS_1_PM.c **** {
  67              		.loc 1 88 1 view -0
  68              		.cfi_startproc
  69              		@ args = 0, pretend = 0, frame = 0
  70              		@ frame_needed = 0, uses_anonymous_args = 0
  71 0000 08B5     		push	{r3, lr}
  72              		.cfi_def_cfa_offset 8
  73              		.cfi_offset 3, -8
  74              		.cfi_offset 14, -4
  89:Generated_Source\PSoC5/SPIS_1_PM.c ****     /* Save components enable state */
  90:Generated_Source\PSoC5/SPIS_1_PM.c ****     if ((SPIS_1_TX_STATUS_ACTL_REG & SPIS_1_INT_ENABLE) != 0u)
  75              		.loc 1 90 5 view .LVU5
  76              		.loc 1 90 10 is_stmt 0 view .LVU6
  77 0002 074B     		ldr	r3, .L7
  78 0004 1B78     		ldrb	r3, [r3]	@ zero_extendqisi2
  79              		.loc 1 90 8 view .LVU7
  80 0006 13F0100F 		tst	r3, #16
  81 000a 05D0     		beq	.L4
ARM GAS  C:\Users\jens-\AppData\Local\Temp\ccWnR4yW.s 			page 4


  91:Generated_Source\PSoC5/SPIS_1_PM.c ****     {
  92:Generated_Source\PSoC5/SPIS_1_PM.c ****         SPIS_1_backup.enableState = 1u;
  82              		.loc 1 92 9 is_stmt 1 view .LVU8
  83              		.loc 1 92 35 is_stmt 0 view .LVU9
  84 000c 054B     		ldr	r3, .L7+4
  85 000e 0122     		movs	r2, #1
  86 0010 1A70     		strb	r2, [r3]
  87              	.L5:
  93:Generated_Source\PSoC5/SPIS_1_PM.c ****     }
  94:Generated_Source\PSoC5/SPIS_1_PM.c ****     else /* Components block is disabled */
  95:Generated_Source\PSoC5/SPIS_1_PM.c ****     {
  96:Generated_Source\PSoC5/SPIS_1_PM.c ****         SPIS_1_backup.enableState = 0u;
  97:Generated_Source\PSoC5/SPIS_1_PM.c ****     }
  98:Generated_Source\PSoC5/SPIS_1_PM.c **** 
  99:Generated_Source\PSoC5/SPIS_1_PM.c ****     SPIS_1_Stop();
  88              		.loc 1 99 5 is_stmt 1 view .LVU10
  89 0012 FFF7FEFF 		bl	SPIS_1_Stop
  90              	.LVL0:
 100:Generated_Source\PSoC5/SPIS_1_PM.c **** 
 101:Generated_Source\PSoC5/SPIS_1_PM.c **** }
  91              		.loc 1 101 1 is_stmt 0 view .LVU11
  92 0016 08BD     		pop	{r3, pc}
  93              	.L4:
  96:Generated_Source\PSoC5/SPIS_1_PM.c ****     }
  94              		.loc 1 96 9 is_stmt 1 view .LVU12
  96:Generated_Source\PSoC5/SPIS_1_PM.c ****     }
  95              		.loc 1 96 35 is_stmt 0 view .LVU13
  96 0018 024B     		ldr	r3, .L7+4
  97 001a 0022     		movs	r2, #0
  98 001c 1A70     		strb	r2, [r3]
  99 001e F8E7     		b	.L5
 100              	.L8:
 101              		.align	2
 102              	.L7:
 103 0020 99650040 		.word	1073767833
 104 0024 00000000 		.word	.LANCHOR0
 105              		.cfi_endproc
 106              	.LFE2:
 107              		.size	SPIS_1_Sleep, .-SPIS_1_Sleep
 108              		.section	.text.SPIS_1_Wakeup,"ax",%progbits
 109              		.align	1
 110              		.global	SPIS_1_Wakeup
 111              		.syntax unified
 112              		.thumb
 113              		.thumb_func
 114              		.fpu softvfp
 115              		.type	SPIS_1_Wakeup, %function
 116              	SPIS_1_Wakeup:
 117              	.LFB3:
 102:Generated_Source\PSoC5/SPIS_1_PM.c **** 
 103:Generated_Source\PSoC5/SPIS_1_PM.c **** 
 104:Generated_Source\PSoC5/SPIS_1_PM.c **** /*******************************************************************************
 105:Generated_Source\PSoC5/SPIS_1_PM.c **** * Function Name: SPIS_1_Wakeup
 106:Generated_Source\PSoC5/SPIS_1_PM.c **** ********************************************************************************
 107:Generated_Source\PSoC5/SPIS_1_PM.c **** *
 108:Generated_Source\PSoC5/SPIS_1_PM.c **** * Summary:
 109:Generated_Source\PSoC5/SPIS_1_PM.c **** *  Prepare SPIM Component to wake up.
ARM GAS  C:\Users\jens-\AppData\Local\Temp\ccWnR4yW.s 			page 5


 110:Generated_Source\PSoC5/SPIS_1_PM.c **** *
 111:Generated_Source\PSoC5/SPIS_1_PM.c **** * Parameters:
 112:Generated_Source\PSoC5/SPIS_1_PM.c **** *  None.
 113:Generated_Source\PSoC5/SPIS_1_PM.c **** *
 114:Generated_Source\PSoC5/SPIS_1_PM.c **** * Return:
 115:Generated_Source\PSoC5/SPIS_1_PM.c **** *  None.
 116:Generated_Source\PSoC5/SPIS_1_PM.c **** *
 117:Generated_Source\PSoC5/SPIS_1_PM.c **** * Global Variables:
 118:Generated_Source\PSoC5/SPIS_1_PM.c **** *  SPIS_1_backup - used when non-retention registers are restored.
 119:Generated_Source\PSoC5/SPIS_1_PM.c **** *  SPIS_1_txBufferWrite - modified every function call - resets to
 120:Generated_Source\PSoC5/SPIS_1_PM.c **** *  zero.
 121:Generated_Source\PSoC5/SPIS_1_PM.c **** *  SPIS_1_txBufferRead - modified every function call - resets to
 122:Generated_Source\PSoC5/SPIS_1_PM.c **** *  zero.
 123:Generated_Source\PSoC5/SPIS_1_PM.c **** *  SPIS_1_rxBufferWrite - modified every function call - resets to
 124:Generated_Source\PSoC5/SPIS_1_PM.c **** *  zero.
 125:Generated_Source\PSoC5/SPIS_1_PM.c **** *  SPIS_1_rxBufferRead - modified every function call - resets to
 126:Generated_Source\PSoC5/SPIS_1_PM.c **** *  zero.
 127:Generated_Source\PSoC5/SPIS_1_PM.c **** *
 128:Generated_Source\PSoC5/SPIS_1_PM.c **** * Reentrant:
 129:Generated_Source\PSoC5/SPIS_1_PM.c **** *  No.
 130:Generated_Source\PSoC5/SPIS_1_PM.c **** *
 131:Generated_Source\PSoC5/SPIS_1_PM.c **** *******************************************************************************/
 132:Generated_Source\PSoC5/SPIS_1_PM.c **** void SPIS_1_Wakeup(void) 
 133:Generated_Source\PSoC5/SPIS_1_PM.c **** {
 118              		.loc 1 133 1 is_stmt 1 view -0
 119              		.cfi_startproc
 120              		@ args = 0, pretend = 0, frame = 0
 121              		@ frame_needed = 0, uses_anonymous_args = 0
 122 0000 08B5     		push	{r3, lr}
 123              		.cfi_def_cfa_offset 8
 124              		.cfi_offset 3, -8
 125              		.cfi_offset 14, -4
 134:Generated_Source\PSoC5/SPIS_1_PM.c ****     #if (SPIS_1_TX_SOFTWARE_BUF_ENABLED)
 135:Generated_Source\PSoC5/SPIS_1_PM.c ****         SPIS_1_txBufferFull = 0u;
 136:Generated_Source\PSoC5/SPIS_1_PM.c ****         SPIS_1_txBufferRead = 0u;
 137:Generated_Source\PSoC5/SPIS_1_PM.c ****         SPIS_1_txBufferWrite = 0u;
 138:Generated_Source\PSoC5/SPIS_1_PM.c ****     #endif /* SPIS_1_TX_SOFTWARE_BUF_ENABLED */
 139:Generated_Source\PSoC5/SPIS_1_PM.c **** 
 140:Generated_Source\PSoC5/SPIS_1_PM.c ****     #if (SPIS_1_RX_SOFTWARE_BUF_ENABLED)
 141:Generated_Source\PSoC5/SPIS_1_PM.c ****         SPIS_1_rxBufferFull = 0u;
 142:Generated_Source\PSoC5/SPIS_1_PM.c ****         SPIS_1_rxBufferRead = 0u;
 143:Generated_Source\PSoC5/SPIS_1_PM.c ****         SPIS_1_rxBufferWrite = 0u;
 144:Generated_Source\PSoC5/SPIS_1_PM.c ****     #endif /* SPIS_1_RX_SOFTWARE_BUF_ENABLED */
 145:Generated_Source\PSoC5/SPIS_1_PM.c **** 
 146:Generated_Source\PSoC5/SPIS_1_PM.c ****     SPIS_1_ClearFIFO();
 126              		.loc 1 146 5 view .LVU15
 127 0002 FFF7FEFF 		bl	SPIS_1_ClearFIFO
 128              	.LVL1:
 147:Generated_Source\PSoC5/SPIS_1_PM.c **** 
 148:Generated_Source\PSoC5/SPIS_1_PM.c ****     /* Restore components block enable state */
 149:Generated_Source\PSoC5/SPIS_1_PM.c ****     if (SPIS_1_backup.enableState != 0u)
 129              		.loc 1 149 5 view .LVU16
 130              		.loc 1 149 22 is_stmt 0 view .LVU17
 131 0006 034B     		ldr	r3, .L13
 132 0008 1B78     		ldrb	r3, [r3]	@ zero_extendqisi2
 133              		.loc 1 149 8 view .LVU18
 134 000a 03B9     		cbnz	r3, .L12
ARM GAS  C:\Users\jens-\AppData\Local\Temp\ccWnR4yW.s 			page 6


 135              	.L9:
 150:Generated_Source\PSoC5/SPIS_1_PM.c ****     {
 151:Generated_Source\PSoC5/SPIS_1_PM.c ****          /* Components block was enabled */
 152:Generated_Source\PSoC5/SPIS_1_PM.c ****          SPIS_1_Enable();
 153:Generated_Source\PSoC5/SPIS_1_PM.c ****     } /* Do nothing if components block was disabled */
 154:Generated_Source\PSoC5/SPIS_1_PM.c **** }
 136              		.loc 1 154 1 view .LVU19
 137 000c 08BD     		pop	{r3, pc}
 138              	.L12:
 152:Generated_Source\PSoC5/SPIS_1_PM.c ****     } /* Do nothing if components block was disabled */
 139              		.loc 1 152 10 is_stmt 1 view .LVU20
 140 000e FFF7FEFF 		bl	SPIS_1_Enable
 141              	.LVL2:
 142              		.loc 1 154 1 is_stmt 0 view .LVU21
 143 0012 FBE7     		b	.L9
 144              	.L14:
 145              		.align	2
 146              	.L13:
 147 0014 00000000 		.word	.LANCHOR0
 148              		.cfi_endproc
 149              	.LFE3:
 150              		.size	SPIS_1_Wakeup, .-SPIS_1_Wakeup
 151              		.data
 152              		.align	2
 153              		.set	.LANCHOR0,. + 0
 154              		.type	SPIS_1_backup, %object
 155              		.size	SPIS_1_backup, 2
 156              	SPIS_1_backup:
 157 0000 00       		.byte	0
 158 0001 07       		.byte	7
 159              		.text
 160              	.Letext0:
 161              		.file 2 "Generated_Source\\PSoC5\\cytypes.h"
 162              		.file 3 "c:\\program files (x86)\\cypress\\psoc creator\\4.2\\psoc creator\\import\\gnu\\arm\\5.4.
 163              		.file 4 "c:\\program files (x86)\\cypress\\psoc creator\\4.2\\psoc creator\\import\\gnu\\arm\\5.4.
 164              		.file 5 "c:\\program files (x86)\\cypress\\psoc creator\\4.2\\psoc creator\\import\\gnu\\arm\\5.4.
 165              		.file 6 "c:\\program files (x86)\\cypress\\psoc creator\\4.2\\psoc creator\\import\\gnu\\arm\\5.4.
 166              		.file 7 "c:\\program files (x86)\\cypress\\psoc creator\\4.2\\psoc creator\\import\\gnu\\arm\\5.4.
 167              		.file 8 "Generated_Source\\PSoC5\\CySpc.h"
 168              		.file 9 "Generated_Source\\PSoC5\\CyFlash.h"
 169              		.file 10 "Generated_Source\\PSoC5\\CyLib.h"
 170              		.file 11 "Generated_Source\\PSoC5\\SPIS_1.h"
 171              		.file 12 "Generated_Source\\PSoC5\\SPIS_1_PVT.h"