ARM GAS  C:\Users\jens-\AppData\Local\Temp\ccP7oHVf.s 			page 1


   1              		.cpu cortex-m3
   2              		.eabi_attribute 20, 1
   3              		.eabi_attribute 21, 1
   4              		.eabi_attribute 23, 3
   5              		.eabi_attribute 24, 1
   6              		.eabi_attribute 25, 1
   7              		.eabi_attribute 26, 1
   8              		.eabi_attribute 30, 1
   9              		.eabi_attribute 34, 1
  10              		.eabi_attribute 18, 4
  11              		.file	"UART_tester.c"
  12              		.text
  13              	.Ltext0:
  14              		.cfi_sections	.debug_frame
  15              		.section	.text.UART_tester_Init,"ax",%progbits
  16              		.align	1
  17              		.global	UART_tester_Init
  18              		.arch armv7-m
  19              		.syntax unified
  20              		.thumb
  21              		.thumb_func
  22              		.fpu softvfp
  23              		.type	UART_tester_Init, %function
  24              	UART_tester_Init:
  25              	.LFB1:
  26              		.file 1 "Generated_Source\\PSoC5\\UART_tester.c"
   1:Generated_Source\PSoC5/UART_tester.c **** /*******************************************************************************
   2:Generated_Source\PSoC5/UART_tester.c **** * File Name: UART_tester.c
   3:Generated_Source\PSoC5/UART_tester.c **** * Version 2.50
   4:Generated_Source\PSoC5/UART_tester.c **** *
   5:Generated_Source\PSoC5/UART_tester.c **** * Description:
   6:Generated_Source\PSoC5/UART_tester.c **** *  This file provides all API functionality of the UART component
   7:Generated_Source\PSoC5/UART_tester.c **** *
   8:Generated_Source\PSoC5/UART_tester.c **** * Note:
   9:Generated_Source\PSoC5/UART_tester.c **** *
  10:Generated_Source\PSoC5/UART_tester.c **** ********************************************************************************
  11:Generated_Source\PSoC5/UART_tester.c **** * Copyright 2008-2015, Cypress Semiconductor Corporation.  All rights reserved.
  12:Generated_Source\PSoC5/UART_tester.c **** * You may use this file only in accordance with the license, terms, conditions,
  13:Generated_Source\PSoC5/UART_tester.c **** * disclaimers, and limitations in the end user license agreement accompanying
  14:Generated_Source\PSoC5/UART_tester.c **** * the software package with which this file was provided.
  15:Generated_Source\PSoC5/UART_tester.c **** *******************************************************************************/
  16:Generated_Source\PSoC5/UART_tester.c **** 
  17:Generated_Source\PSoC5/UART_tester.c **** #include "UART_tester.h"
  18:Generated_Source\PSoC5/UART_tester.c **** #if (UART_tester_INTERNAL_CLOCK_USED)
  19:Generated_Source\PSoC5/UART_tester.c ****     #include "UART_tester_IntClock.h"
  20:Generated_Source\PSoC5/UART_tester.c **** #endif /* End UART_tester_INTERNAL_CLOCK_USED */
  21:Generated_Source\PSoC5/UART_tester.c **** 
  22:Generated_Source\PSoC5/UART_tester.c **** 
  23:Generated_Source\PSoC5/UART_tester.c **** /***************************************
  24:Generated_Source\PSoC5/UART_tester.c **** * Global data allocation
  25:Generated_Source\PSoC5/UART_tester.c **** ***************************************/
  26:Generated_Source\PSoC5/UART_tester.c **** 
  27:Generated_Source\PSoC5/UART_tester.c **** uint8 UART_tester_initVar = 0u;
  28:Generated_Source\PSoC5/UART_tester.c **** 
  29:Generated_Source\PSoC5/UART_tester.c **** #if (UART_tester_TX_INTERRUPT_ENABLED && UART_tester_TX_ENABLED)
  30:Generated_Source\PSoC5/UART_tester.c ****     volatile uint8 UART_tester_txBuffer[UART_tester_TX_BUFFER_SIZE];
  31:Generated_Source\PSoC5/UART_tester.c ****     volatile uint8 UART_tester_txBufferRead = 0u;
ARM GAS  C:\Users\jens-\AppData\Local\Temp\ccP7oHVf.s 			page 2


  32:Generated_Source\PSoC5/UART_tester.c ****     uint8 UART_tester_txBufferWrite = 0u;
  33:Generated_Source\PSoC5/UART_tester.c **** #endif /* (UART_tester_TX_INTERRUPT_ENABLED && UART_tester_TX_ENABLED) */
  34:Generated_Source\PSoC5/UART_tester.c **** 
  35:Generated_Source\PSoC5/UART_tester.c **** #if (UART_tester_RX_INTERRUPT_ENABLED && (UART_tester_RX_ENABLED || UART_tester_HD_ENABLED))
  36:Generated_Source\PSoC5/UART_tester.c ****     uint8 UART_tester_errorStatus = 0u;
  37:Generated_Source\PSoC5/UART_tester.c ****     volatile uint8 UART_tester_rxBuffer[UART_tester_RX_BUFFER_SIZE];
  38:Generated_Source\PSoC5/UART_tester.c ****     volatile uint8 UART_tester_rxBufferRead  = 0u;
  39:Generated_Source\PSoC5/UART_tester.c ****     volatile uint8 UART_tester_rxBufferWrite = 0u;
  40:Generated_Source\PSoC5/UART_tester.c ****     volatile uint8 UART_tester_rxBufferLoopDetect = 0u;
  41:Generated_Source\PSoC5/UART_tester.c ****     volatile uint8 UART_tester_rxBufferOverflow   = 0u;
  42:Generated_Source\PSoC5/UART_tester.c ****     #if (UART_tester_RXHW_ADDRESS_ENABLED)
  43:Generated_Source\PSoC5/UART_tester.c ****         volatile uint8 UART_tester_rxAddressMode = UART_tester_RX_ADDRESS_MODE;
  44:Generated_Source\PSoC5/UART_tester.c ****         volatile uint8 UART_tester_rxAddressDetected = 0u;
  45:Generated_Source\PSoC5/UART_tester.c ****     #endif /* (UART_tester_RXHW_ADDRESS_ENABLED) */
  46:Generated_Source\PSoC5/UART_tester.c **** #endif /* (UART_tester_RX_INTERRUPT_ENABLED && (UART_tester_RX_ENABLED || UART_tester_HD_ENABLED)) 
  47:Generated_Source\PSoC5/UART_tester.c **** 
  48:Generated_Source\PSoC5/UART_tester.c **** 
  49:Generated_Source\PSoC5/UART_tester.c **** /*******************************************************************************
  50:Generated_Source\PSoC5/UART_tester.c **** * Function Name: UART_tester_Start
  51:Generated_Source\PSoC5/UART_tester.c **** ********************************************************************************
  52:Generated_Source\PSoC5/UART_tester.c **** *
  53:Generated_Source\PSoC5/UART_tester.c **** * Summary:
  54:Generated_Source\PSoC5/UART_tester.c **** *  This is the preferred method to begin component operation.
  55:Generated_Source\PSoC5/UART_tester.c **** *  UART_tester_Start() sets the initVar variable, calls the
  56:Generated_Source\PSoC5/UART_tester.c **** *  UART_tester_Init() function, and then calls the
  57:Generated_Source\PSoC5/UART_tester.c **** *  UART_tester_Enable() function.
  58:Generated_Source\PSoC5/UART_tester.c **** *
  59:Generated_Source\PSoC5/UART_tester.c **** * Parameters:
  60:Generated_Source\PSoC5/UART_tester.c **** *  None.
  61:Generated_Source\PSoC5/UART_tester.c **** *
  62:Generated_Source\PSoC5/UART_tester.c **** * Return:
  63:Generated_Source\PSoC5/UART_tester.c **** *  None.
  64:Generated_Source\PSoC5/UART_tester.c **** *
  65:Generated_Source\PSoC5/UART_tester.c **** * Global variables:
  66:Generated_Source\PSoC5/UART_tester.c **** *  The UART_tester_intiVar variable is used to indicate initial
  67:Generated_Source\PSoC5/UART_tester.c **** *  configuration of this component. The variable is initialized to zero (0u)
  68:Generated_Source\PSoC5/UART_tester.c **** *  and set to one (1u) the first time UART_tester_Start() is called. This
  69:Generated_Source\PSoC5/UART_tester.c **** *  allows for component initialization without re-initialization in all
  70:Generated_Source\PSoC5/UART_tester.c **** *  subsequent calls to the UART_tester_Start() routine.
  71:Generated_Source\PSoC5/UART_tester.c **** *
  72:Generated_Source\PSoC5/UART_tester.c **** * Reentrant:
  73:Generated_Source\PSoC5/UART_tester.c **** *  No.
  74:Generated_Source\PSoC5/UART_tester.c **** *
  75:Generated_Source\PSoC5/UART_tester.c **** *******************************************************************************/
  76:Generated_Source\PSoC5/UART_tester.c **** void UART_tester_Start(void) 
  77:Generated_Source\PSoC5/UART_tester.c **** {
  78:Generated_Source\PSoC5/UART_tester.c ****     /* If not initialized then initialize all required hardware and software */
  79:Generated_Source\PSoC5/UART_tester.c ****     if(UART_tester_initVar == 0u)
  80:Generated_Source\PSoC5/UART_tester.c ****     {
  81:Generated_Source\PSoC5/UART_tester.c ****         UART_tester_Init();
  82:Generated_Source\PSoC5/UART_tester.c ****         UART_tester_initVar = 1u;
  83:Generated_Source\PSoC5/UART_tester.c ****     }
  84:Generated_Source\PSoC5/UART_tester.c **** 
  85:Generated_Source\PSoC5/UART_tester.c ****     UART_tester_Enable();
  86:Generated_Source\PSoC5/UART_tester.c **** }
  87:Generated_Source\PSoC5/UART_tester.c **** 
  88:Generated_Source\PSoC5/UART_tester.c **** 
ARM GAS  C:\Users\jens-\AppData\Local\Temp\ccP7oHVf.s 			page 3


  89:Generated_Source\PSoC5/UART_tester.c **** /*******************************************************************************
  90:Generated_Source\PSoC5/UART_tester.c **** * Function Name: UART_tester_Init
  91:Generated_Source\PSoC5/UART_tester.c **** ********************************************************************************
  92:Generated_Source\PSoC5/UART_tester.c **** *
  93:Generated_Source\PSoC5/UART_tester.c **** * Summary:
  94:Generated_Source\PSoC5/UART_tester.c **** *  Initializes or restores the component according to the customizer Configure
  95:Generated_Source\PSoC5/UART_tester.c **** *  dialog settings. It is not necessary to call UART_tester_Init() because
  96:Generated_Source\PSoC5/UART_tester.c **** *  the UART_tester_Start() API calls this function and is the preferred
  97:Generated_Source\PSoC5/UART_tester.c **** *  method to begin component operation.
  98:Generated_Source\PSoC5/UART_tester.c **** *
  99:Generated_Source\PSoC5/UART_tester.c **** * Parameters:
 100:Generated_Source\PSoC5/UART_tester.c **** *  None.
 101:Generated_Source\PSoC5/UART_tester.c **** *
 102:Generated_Source\PSoC5/UART_tester.c **** * Return:
 103:Generated_Source\PSoC5/UART_tester.c **** *  None.
 104:Generated_Source\PSoC5/UART_tester.c **** *
 105:Generated_Source\PSoC5/UART_tester.c **** *******************************************************************************/
 106:Generated_Source\PSoC5/UART_tester.c **** void UART_tester_Init(void) 
 107:Generated_Source\PSoC5/UART_tester.c **** {
  27              		.loc 1 107 1 view -0
  28              		.cfi_startproc
  29              		@ args = 0, pretend = 0, frame = 0
  30              		@ frame_needed = 0, uses_anonymous_args = 0
  31              		@ link register save eliminated.
 108:Generated_Source\PSoC5/UART_tester.c ****     #if(UART_tester_RX_ENABLED || UART_tester_HD_ENABLED)
 109:Generated_Source\PSoC5/UART_tester.c **** 
 110:Generated_Source\PSoC5/UART_tester.c ****         #if (UART_tester_RX_INTERRUPT_ENABLED)
 111:Generated_Source\PSoC5/UART_tester.c ****             /* Set RX interrupt vector and priority */
 112:Generated_Source\PSoC5/UART_tester.c ****             (void) CyIntSetVector(UART_tester_RX_VECT_NUM, &UART_tester_RXISR);
 113:Generated_Source\PSoC5/UART_tester.c ****             CyIntSetPriority(UART_tester_RX_VECT_NUM, UART_tester_RX_PRIOR_NUM);
 114:Generated_Source\PSoC5/UART_tester.c ****             UART_tester_errorStatus = 0u;
 115:Generated_Source\PSoC5/UART_tester.c ****         #endif /* (UART_tester_RX_INTERRUPT_ENABLED) */
 116:Generated_Source\PSoC5/UART_tester.c **** 
 117:Generated_Source\PSoC5/UART_tester.c ****         #if (UART_tester_RXHW_ADDRESS_ENABLED)
 118:Generated_Source\PSoC5/UART_tester.c ****             UART_tester_SetRxAddressMode(UART_tester_RX_ADDRESS_MODE);
 119:Generated_Source\PSoC5/UART_tester.c ****             UART_tester_SetRxAddress1(UART_tester_RX_HW_ADDRESS1);
 120:Generated_Source\PSoC5/UART_tester.c ****             UART_tester_SetRxAddress2(UART_tester_RX_HW_ADDRESS2);
 121:Generated_Source\PSoC5/UART_tester.c ****         #endif /* End UART_tester_RXHW_ADDRESS_ENABLED */
 122:Generated_Source\PSoC5/UART_tester.c **** 
 123:Generated_Source\PSoC5/UART_tester.c ****         /* Init Count7 period */
 124:Generated_Source\PSoC5/UART_tester.c ****         UART_tester_RXBITCTR_PERIOD_REG = UART_tester_RXBITCTR_INIT;
  32              		.loc 1 124 9 view .LVU1
  33              		.loc 1 124 41 is_stmt 0 view .LVU2
  34 0000 074B     		ldr	r3, .L2
  35 0002 7222     		movs	r2, #114
  36 0004 1A70     		strb	r2, [r3]
 125:Generated_Source\PSoC5/UART_tester.c ****         /* Configure the Initial RX interrupt mask */
 126:Generated_Source\PSoC5/UART_tester.c ****         UART_tester_RXSTATUS_MASK_REG  = UART_tester_INIT_RX_INTERRUPTS_MASK;
  37              		.loc 1 126 9 is_stmt 1 view .LVU3
  38              		.loc 1 126 40 is_stmt 0 view .LVU4
  39 0006 0133     		adds	r3, r3, #1
  40 0008 2022     		movs	r2, #32
  41 000a 1A70     		strb	r2, [r3]
 127:Generated_Source\PSoC5/UART_tester.c ****     #endif /* End UART_tester_RX_ENABLED || UART_tester_HD_ENABLED*/
 128:Generated_Source\PSoC5/UART_tester.c **** 
 129:Generated_Source\PSoC5/UART_tester.c ****     #if(UART_tester_TX_ENABLED)
 130:Generated_Source\PSoC5/UART_tester.c ****         #if (UART_tester_TX_INTERRUPT_ENABLED)
ARM GAS  C:\Users\jens-\AppData\Local\Temp\ccP7oHVf.s 			page 4


 131:Generated_Source\PSoC5/UART_tester.c ****             /* Set TX interrupt vector and priority */
 132:Generated_Source\PSoC5/UART_tester.c ****             (void) CyIntSetVector(UART_tester_TX_VECT_NUM, &UART_tester_TXISR);
 133:Generated_Source\PSoC5/UART_tester.c ****             CyIntSetPriority(UART_tester_TX_VECT_NUM, UART_tester_TX_PRIOR_NUM);
 134:Generated_Source\PSoC5/UART_tester.c ****         #endif /* (UART_tester_TX_INTERRUPT_ENABLED) */
 135:Generated_Source\PSoC5/UART_tester.c **** 
 136:Generated_Source\PSoC5/UART_tester.c ****         /* Write Counter Value for TX Bit Clk Generator*/
 137:Generated_Source\PSoC5/UART_tester.c ****         #if (UART_tester_TXCLKGEN_DP)
 138:Generated_Source\PSoC5/UART_tester.c ****             UART_tester_TXBITCLKGEN_CTR_REG = UART_tester_BIT_CENTER;
  42              		.loc 1 138 13 is_stmt 1 view .LVU5
  43              		.loc 1 138 45 is_stmt 0 view .LVU6
  44 000c 5F3B     		subs	r3, r3, #95
  45 000e 0622     		movs	r2, #6
  46 0010 1A70     		strb	r2, [r3]
 139:Generated_Source\PSoC5/UART_tester.c ****             UART_tester_TXBITCLKTX_COMPLETE_REG = ((UART_tester_NUMBER_OF_DATA_BITS +
  47              		.loc 1 139 13 is_stmt 1 view .LVU7
  48              		.loc 1 139 49 is_stmt 0 view .LVU8
  49 0012 1033     		adds	r3, r3, #16
  50 0014 4722     		movs	r2, #71
  51 0016 1A70     		strb	r2, [r3]
 140:Generated_Source\PSoC5/UART_tester.c ****                         UART_tester_NUMBER_OF_START_BIT) * UART_tester_OVER_SAMPLE_COUNT) - 1u;
 141:Generated_Source\PSoC5/UART_tester.c ****         #else
 142:Generated_Source\PSoC5/UART_tester.c ****             UART_tester_TXBITCTR_PERIOD_REG = ((UART_tester_NUMBER_OF_DATA_BITS +
 143:Generated_Source\PSoC5/UART_tester.c ****                         UART_tester_NUMBER_OF_START_BIT) * UART_tester_OVER_SAMPLE_8) - 1u;
 144:Generated_Source\PSoC5/UART_tester.c ****         #endif /* End UART_tester_TXCLKGEN_DP */
 145:Generated_Source\PSoC5/UART_tester.c **** 
 146:Generated_Source\PSoC5/UART_tester.c ****         /* Configure the Initial TX interrupt mask */
 147:Generated_Source\PSoC5/UART_tester.c ****         #if (UART_tester_TX_INTERRUPT_ENABLED)
 148:Generated_Source\PSoC5/UART_tester.c ****             UART_tester_TXSTATUS_MASK_REG = UART_tester_TX_STS_FIFO_EMPTY;
 149:Generated_Source\PSoC5/UART_tester.c ****         #else
 150:Generated_Source\PSoC5/UART_tester.c ****             UART_tester_TXSTATUS_MASK_REG = UART_tester_INIT_TX_INTERRUPTS_MASK;
  52              		.loc 1 150 13 is_stmt 1 view .LVU9
  53              		.loc 1 150 43 is_stmt 0 view .LVU10
  54 0018 5133     		adds	r3, r3, #81
  55 001a 0022     		movs	r2, #0
  56 001c 1A70     		strb	r2, [r3]
 151:Generated_Source\PSoC5/UART_tester.c ****         #endif /*End UART_tester_TX_INTERRUPT_ENABLED*/
 152:Generated_Source\PSoC5/UART_tester.c **** 
 153:Generated_Source\PSoC5/UART_tester.c ****     #endif /* End UART_tester_TX_ENABLED */
 154:Generated_Source\PSoC5/UART_tester.c **** 
 155:Generated_Source\PSoC5/UART_tester.c ****     #if(UART_tester_PARITY_TYPE_SW)  /* Write Parity to Control Register */
 156:Generated_Source\PSoC5/UART_tester.c ****         UART_tester_WriteControlRegister( \
 157:Generated_Source\PSoC5/UART_tester.c ****             (UART_tester_ReadControlRegister() & (uint8)~UART_tester_CTRL_PARITY_TYPE_MASK) | \
 158:Generated_Source\PSoC5/UART_tester.c ****             (uint8)(UART_tester_PARITY_TYPE << UART_tester_CTRL_PARITY_TYPE0_SHIFT) );
 159:Generated_Source\PSoC5/UART_tester.c ****     #endif /* End UART_tester_PARITY_TYPE_SW */
 160:Generated_Source\PSoC5/UART_tester.c **** }
  57              		.loc 1 160 1 view .LVU11
  58 001e 7047     		bx	lr
  59              	.L3:
  60              		.align	2
  61              	.L2:
  62 0020 88650040 		.word	1073767816
  63              		.cfi_endproc
  64              	.LFE1:
  65              		.size	UART_tester_Init, .-UART_tester_Init
  66              		.section	.text.UART_tester_Enable,"ax",%progbits
  67              		.align	1
  68              		.global	UART_tester_Enable
ARM GAS  C:\Users\jens-\AppData\Local\Temp\ccP7oHVf.s 			page 5


  69              		.syntax unified
  70              		.thumb
  71              		.thumb_func
  72              		.fpu softvfp
  73              		.type	UART_tester_Enable, %function
  74              	UART_tester_Enable:
  75              	.LFB2:
 161:Generated_Source\PSoC5/UART_tester.c **** 
 162:Generated_Source\PSoC5/UART_tester.c **** 
 163:Generated_Source\PSoC5/UART_tester.c **** /*******************************************************************************
 164:Generated_Source\PSoC5/UART_tester.c **** * Function Name: UART_tester_Enable
 165:Generated_Source\PSoC5/UART_tester.c **** ********************************************************************************
 166:Generated_Source\PSoC5/UART_tester.c **** *
 167:Generated_Source\PSoC5/UART_tester.c **** * Summary:
 168:Generated_Source\PSoC5/UART_tester.c **** *  Activates the hardware and begins component operation. It is not necessary
 169:Generated_Source\PSoC5/UART_tester.c **** *  to call UART_tester_Enable() because the UART_tester_Start() API
 170:Generated_Source\PSoC5/UART_tester.c **** *  calls this function, which is the preferred method to begin component
 171:Generated_Source\PSoC5/UART_tester.c **** *  operation.
 172:Generated_Source\PSoC5/UART_tester.c **** 
 173:Generated_Source\PSoC5/UART_tester.c **** * Parameters:
 174:Generated_Source\PSoC5/UART_tester.c **** *  None.
 175:Generated_Source\PSoC5/UART_tester.c **** *
 176:Generated_Source\PSoC5/UART_tester.c **** * Return:
 177:Generated_Source\PSoC5/UART_tester.c **** *  None.
 178:Generated_Source\PSoC5/UART_tester.c **** *
 179:Generated_Source\PSoC5/UART_tester.c **** * Global Variables:
 180:Generated_Source\PSoC5/UART_tester.c **** *  UART_tester_rxAddressDetected - set to initial state (0).
 181:Generated_Source\PSoC5/UART_tester.c **** *
 182:Generated_Source\PSoC5/UART_tester.c **** *******************************************************************************/
 183:Generated_Source\PSoC5/UART_tester.c **** void UART_tester_Enable(void) 
 184:Generated_Source\PSoC5/UART_tester.c **** {
  76              		.loc 1 184 1 is_stmt 1 view -0
  77              		.cfi_startproc
  78              		@ args = 0, pretend = 0, frame = 0
  79              		@ frame_needed = 0, uses_anonymous_args = 0
  80 0000 10B5     		push	{r4, lr}
  81              		.cfi_def_cfa_offset 8
  82              		.cfi_offset 4, -8
  83              		.cfi_offset 14, -4
 185:Generated_Source\PSoC5/UART_tester.c ****     uint8 enableInterrupts;
  84              		.loc 1 185 5 view .LVU13
 186:Generated_Source\PSoC5/UART_tester.c ****     enableInterrupts = CyEnterCriticalSection();
  85              		.loc 1 186 5 view .LVU14
  86              		.loc 1 186 24 is_stmt 0 view .LVU15
  87 0002 FFF7FEFF 		bl	CyEnterCriticalSection
  88              	.LVL0:
  89 0006 0446     		mov	r4, r0
  90              	.LVL1:
 187:Generated_Source\PSoC5/UART_tester.c **** 
 188:Generated_Source\PSoC5/UART_tester.c ****     #if (UART_tester_RX_ENABLED || UART_tester_HD_ENABLED)
 189:Generated_Source\PSoC5/UART_tester.c ****         /* RX Counter (Count7) Enable */
 190:Generated_Source\PSoC5/UART_tester.c ****         UART_tester_RXBITCTR_CONTROL_REG |= UART_tester_CNTR_ENABLE;
  91              		.loc 1 190 9 is_stmt 1 view .LVU16
  92              		.loc 1 190 42 is_stmt 0 view .LVU17
  93 0008 0A4A     		ldr	r2, .L6
  94 000a 1378     		ldrb	r3, [r2]	@ zero_extendqisi2
  95 000c 43F02003 		orr	r3, r3, #32
ARM GAS  C:\Users\jens-\AppData\Local\Temp\ccP7oHVf.s 			page 6


  96 0010 1370     		strb	r3, [r2]
 191:Generated_Source\PSoC5/UART_tester.c **** 
 192:Generated_Source\PSoC5/UART_tester.c ****         /* Enable the RX Interrupt */
 193:Generated_Source\PSoC5/UART_tester.c ****         UART_tester_RXSTATUS_ACTL_REG  |= UART_tester_INT_ENABLE;
  97              		.loc 1 193 9 is_stmt 1 view .LVU18
  98              		.loc 1 193 40 is_stmt 0 view .LVU19
  99 0012 0132     		adds	r2, r2, #1
 100 0014 1378     		ldrb	r3, [r2]	@ zero_extendqisi2
 101 0016 43F01003 		orr	r3, r3, #16
 102 001a 1370     		strb	r3, [r2]
 194:Generated_Source\PSoC5/UART_tester.c **** 
 195:Generated_Source\PSoC5/UART_tester.c ****         #if (UART_tester_RX_INTERRUPT_ENABLED)
 196:Generated_Source\PSoC5/UART_tester.c ****             UART_tester_EnableRxInt();
 197:Generated_Source\PSoC5/UART_tester.c **** 
 198:Generated_Source\PSoC5/UART_tester.c ****             #if (UART_tester_RXHW_ADDRESS_ENABLED)
 199:Generated_Source\PSoC5/UART_tester.c ****                 UART_tester_rxAddressDetected = 0u;
 200:Generated_Source\PSoC5/UART_tester.c ****             #endif /* (UART_tester_RXHW_ADDRESS_ENABLED) */
 201:Generated_Source\PSoC5/UART_tester.c ****         #endif /* (UART_tester_RX_INTERRUPT_ENABLED) */
 202:Generated_Source\PSoC5/UART_tester.c ****     #endif /* (UART_tester_RX_ENABLED || UART_tester_HD_ENABLED) */
 203:Generated_Source\PSoC5/UART_tester.c **** 
 204:Generated_Source\PSoC5/UART_tester.c ****     #if(UART_tester_TX_ENABLED)
 205:Generated_Source\PSoC5/UART_tester.c ****         /* TX Counter (DP/Count7) Enable */
 206:Generated_Source\PSoC5/UART_tester.c ****         #if(!UART_tester_TXCLKGEN_DP)
 207:Generated_Source\PSoC5/UART_tester.c ****             UART_tester_TXBITCTR_CONTROL_REG |= UART_tester_CNTR_ENABLE;
 208:Generated_Source\PSoC5/UART_tester.c ****         #endif /* End UART_tester_TXCLKGEN_DP */
 209:Generated_Source\PSoC5/UART_tester.c **** 
 210:Generated_Source\PSoC5/UART_tester.c ****         /* Enable the TX Interrupt */
 211:Generated_Source\PSoC5/UART_tester.c ****         UART_tester_TXSTATUS_ACTL_REG |= UART_tester_INT_ENABLE;
 103              		.loc 1 211 9 is_stmt 1 view .LVU20
 104              		.loc 1 211 39 is_stmt 0 view .LVU21
 105 001c 0232     		adds	r2, r2, #2
 106 001e 1378     		ldrb	r3, [r2]	@ zero_extendqisi2
 107 0020 43F01003 		orr	r3, r3, #16
 108 0024 1370     		strb	r3, [r2]
 212:Generated_Source\PSoC5/UART_tester.c ****         #if (UART_tester_TX_INTERRUPT_ENABLED)
 213:Generated_Source\PSoC5/UART_tester.c ****             UART_tester_ClearPendingTxInt(); /* Clear history of TX_NOT_EMPTY */
 214:Generated_Source\PSoC5/UART_tester.c ****             UART_tester_EnableTxInt();
 215:Generated_Source\PSoC5/UART_tester.c ****         #endif /* (UART_tester_TX_INTERRUPT_ENABLED) */
 216:Generated_Source\PSoC5/UART_tester.c ****      #endif /* (UART_tester_TX_INTERRUPT_ENABLED) */
 217:Generated_Source\PSoC5/UART_tester.c **** 
 218:Generated_Source\PSoC5/UART_tester.c ****     #if (UART_tester_INTERNAL_CLOCK_USED)
 219:Generated_Source\PSoC5/UART_tester.c ****         UART_tester_IntClock_Start();  /* Enable the clock */
 109              		.loc 1 219 9 is_stmt 1 view .LVU22
 110 0026 FFF7FEFF 		bl	UART_tester_IntClock_Start
 111              	.LVL2:
 220:Generated_Source\PSoC5/UART_tester.c ****     #endif /* (UART_tester_INTERNAL_CLOCK_USED) */
 221:Generated_Source\PSoC5/UART_tester.c **** 
 222:Generated_Source\PSoC5/UART_tester.c ****     CyExitCriticalSection(enableInterrupts);
 112              		.loc 1 222 5 view .LVU23
 113 002a 2046     		mov	r0, r4
 114 002c FFF7FEFF 		bl	CyExitCriticalSection
 115              	.LVL3:
 223:Generated_Source\PSoC5/UART_tester.c **** }
 116              		.loc 1 223 1 is_stmt 0 view .LVU24
 117 0030 10BD     		pop	{r4, pc}
 118              	.LVL4:
 119              	.L7:
ARM GAS  C:\Users\jens-\AppData\Local\Temp\ccP7oHVf.s 			page 7


 120              		.loc 1 223 1 view .LVU25
 121 0032 00BF     		.align	2
 122              	.L6:
 123 0034 98650040 		.word	1073767832
 124              		.cfi_endproc
 125              	.LFE2:
 126              		.size	UART_tester_Enable, .-UART_tester_Enable
 127              		.section	.text.UART_tester_Start,"ax",%progbits
 128              		.align	1
 129              		.global	UART_tester_Start
 130              		.syntax unified
 131              		.thumb
 132              		.thumb_func
 133              		.fpu softvfp
 134              		.type	UART_tester_Start, %function
 135              	UART_tester_Start:
 136              	.LFB0:
  77:Generated_Source\PSoC5/UART_tester.c ****     /* If not initialized then initialize all required hardware and software */
 137              		.loc 1 77 1 is_stmt 1 view -0
 138              		.cfi_startproc
 139              		@ args = 0, pretend = 0, frame = 0
 140              		@ frame_needed = 0, uses_anonymous_args = 0
 141 0000 08B5     		push	{r3, lr}
 142              		.cfi_def_cfa_offset 8
 143              		.cfi_offset 3, -8
 144              		.cfi_offset 14, -4
  79:Generated_Source\PSoC5/UART_tester.c ****     {
 145              		.loc 1 79 5 view .LVU27
  79:Generated_Source\PSoC5/UART_tester.c ****     {
 146              		.loc 1 79 28 is_stmt 0 view .LVU28
 147 0002 064B     		ldr	r3, .L12
 148 0004 1B78     		ldrb	r3, [r3]	@ zero_extendqisi2
  79:Generated_Source\PSoC5/UART_tester.c ****     {
 149              		.loc 1 79 7 view .LVU29
 150 0006 13B1     		cbz	r3, .L11
 151              	.L9:
  85:Generated_Source\PSoC5/UART_tester.c **** }
 152              		.loc 1 85 5 is_stmt 1 view .LVU30
 153 0008 FFF7FEFF 		bl	UART_tester_Enable
 154              	.LVL5:
  86:Generated_Source\PSoC5/UART_tester.c **** 
 155              		.loc 1 86 1 is_stmt 0 view .LVU31
 156 000c 08BD     		pop	{r3, pc}
 157              	.L11:
  81:Generated_Source\PSoC5/UART_tester.c ****         UART_tester_initVar = 1u;
 158              		.loc 1 81 9 is_stmt 1 view .LVU32
 159 000e FFF7FEFF 		bl	UART_tester_Init
 160              	.LVL6:
  82:Generated_Source\PSoC5/UART_tester.c ****     }
 161              		.loc 1 82 9 view .LVU33
  82:Generated_Source\PSoC5/UART_tester.c ****     }
 162              		.loc 1 82 29 is_stmt 0 view .LVU34
 163 0012 024B     		ldr	r3, .L12
 164 0014 0122     		movs	r2, #1
 165 0016 1A70     		strb	r2, [r3]
 166 0018 F6E7     		b	.L9
 167              	.L13:
ARM GAS  C:\Users\jens-\AppData\Local\Temp\ccP7oHVf.s 			page 8


 168 001a 00BF     		.align	2
 169              	.L12:
 170 001c 00000000 		.word	.LANCHOR0
 171              		.cfi_endproc
 172              	.LFE0:
 173              		.size	UART_tester_Start, .-UART_tester_Start
 174              		.section	.text.UART_tester_Stop,"ax",%progbits
 175              		.align	1
 176              		.global	UART_tester_Stop
 177              		.syntax unified
 178              		.thumb
 179              		.thumb_func
 180              		.fpu softvfp
 181              		.type	UART_tester_Stop, %function
 182              	UART_tester_Stop:
 183              	.LFB3:
 224:Generated_Source\PSoC5/UART_tester.c **** 
 225:Generated_Source\PSoC5/UART_tester.c **** 
 226:Generated_Source\PSoC5/UART_tester.c **** /*******************************************************************************
 227:Generated_Source\PSoC5/UART_tester.c **** * Function Name: UART_tester_Stop
 228:Generated_Source\PSoC5/UART_tester.c **** ********************************************************************************
 229:Generated_Source\PSoC5/UART_tester.c **** *
 230:Generated_Source\PSoC5/UART_tester.c **** * Summary:
 231:Generated_Source\PSoC5/UART_tester.c **** *  Disables the UART operation.
 232:Generated_Source\PSoC5/UART_tester.c **** *
 233:Generated_Source\PSoC5/UART_tester.c **** * Parameters:
 234:Generated_Source\PSoC5/UART_tester.c **** *  None.
 235:Generated_Source\PSoC5/UART_tester.c **** *
 236:Generated_Source\PSoC5/UART_tester.c **** * Return:
 237:Generated_Source\PSoC5/UART_tester.c **** *  None.
 238:Generated_Source\PSoC5/UART_tester.c **** *
 239:Generated_Source\PSoC5/UART_tester.c **** *******************************************************************************/
 240:Generated_Source\PSoC5/UART_tester.c **** void UART_tester_Stop(void) 
 241:Generated_Source\PSoC5/UART_tester.c **** {
 184              		.loc 1 241 1 is_stmt 1 view -0
 185              		.cfi_startproc
 186              		@ args = 0, pretend = 0, frame = 0
 187              		@ frame_needed = 0, uses_anonymous_args = 0
 188 0000 10B5     		push	{r4, lr}
 189              		.cfi_def_cfa_offset 8
 190              		.cfi_offset 4, -8
 191              		.cfi_offset 14, -4
 242:Generated_Source\PSoC5/UART_tester.c ****     uint8 enableInterrupts;
 192              		.loc 1 242 5 view .LVU36
 243:Generated_Source\PSoC5/UART_tester.c ****     enableInterrupts = CyEnterCriticalSection();
 193              		.loc 1 243 5 view .LVU37
 194              		.loc 1 243 24 is_stmt 0 view .LVU38
 195 0002 FFF7FEFF 		bl	CyEnterCriticalSection
 196              	.LVL7:
 197 0006 0446     		mov	r4, r0
 198              	.LVL8:
 244:Generated_Source\PSoC5/UART_tester.c **** 
 245:Generated_Source\PSoC5/UART_tester.c ****     /* Write Bit Counter Disable */
 246:Generated_Source\PSoC5/UART_tester.c ****     #if (UART_tester_RX_ENABLED || UART_tester_HD_ENABLED)
 247:Generated_Source\PSoC5/UART_tester.c ****         UART_tester_RXBITCTR_CONTROL_REG &= (uint8) ~UART_tester_CNTR_ENABLE;
 199              		.loc 1 247 9 is_stmt 1 view .LVU39
 200              		.loc 1 247 42 is_stmt 0 view .LVU40
ARM GAS  C:\Users\jens-\AppData\Local\Temp\ccP7oHVf.s 			page 9


 201 0008 0A4A     		ldr	r2, .L16
 202 000a 1378     		ldrb	r3, [r2]	@ zero_extendqisi2
 203 000c 03F0DF03 		and	r3, r3, #223
 204 0010 1370     		strb	r3, [r2]
 248:Generated_Source\PSoC5/UART_tester.c ****     #endif /* (UART_tester_RX_ENABLED || UART_tester_HD_ENABLED) */
 249:Generated_Source\PSoC5/UART_tester.c **** 
 250:Generated_Source\PSoC5/UART_tester.c ****     #if (UART_tester_TX_ENABLED)
 251:Generated_Source\PSoC5/UART_tester.c ****         #if(!UART_tester_TXCLKGEN_DP)
 252:Generated_Source\PSoC5/UART_tester.c ****             UART_tester_TXBITCTR_CONTROL_REG &= (uint8) ~UART_tester_CNTR_ENABLE;
 253:Generated_Source\PSoC5/UART_tester.c ****         #endif /* (!UART_tester_TXCLKGEN_DP) */
 254:Generated_Source\PSoC5/UART_tester.c ****     #endif /* (UART_tester_TX_ENABLED) */
 255:Generated_Source\PSoC5/UART_tester.c **** 
 256:Generated_Source\PSoC5/UART_tester.c ****     #if (UART_tester_INTERNAL_CLOCK_USED)
 257:Generated_Source\PSoC5/UART_tester.c ****         UART_tester_IntClock_Stop();   /* Disable the clock */
 205              		.loc 1 257 9 is_stmt 1 view .LVU41
 206 0012 FFF7FEFF 		bl	UART_tester_IntClock_Stop
 207              	.LVL9:
 258:Generated_Source\PSoC5/UART_tester.c ****     #endif /* (UART_tester_INTERNAL_CLOCK_USED) */
 259:Generated_Source\PSoC5/UART_tester.c **** 
 260:Generated_Source\PSoC5/UART_tester.c ****     /* Disable internal interrupt component */
 261:Generated_Source\PSoC5/UART_tester.c ****     #if (UART_tester_RX_ENABLED || UART_tester_HD_ENABLED)
 262:Generated_Source\PSoC5/UART_tester.c ****         UART_tester_RXSTATUS_ACTL_REG  &= (uint8) ~UART_tester_INT_ENABLE;
 208              		.loc 1 262 9 view .LVU42
 209              		.loc 1 262 40 is_stmt 0 view .LVU43
 210 0016 084A     		ldr	r2, .L16+4
 211 0018 1378     		ldrb	r3, [r2]	@ zero_extendqisi2
 212 001a 03F0EF03 		and	r3, r3, #239
 213 001e 1370     		strb	r3, [r2]
 263:Generated_Source\PSoC5/UART_tester.c **** 
 264:Generated_Source\PSoC5/UART_tester.c ****         #if (UART_tester_RX_INTERRUPT_ENABLED)
 265:Generated_Source\PSoC5/UART_tester.c ****             UART_tester_DisableRxInt();
 266:Generated_Source\PSoC5/UART_tester.c ****         #endif /* (UART_tester_RX_INTERRUPT_ENABLED) */
 267:Generated_Source\PSoC5/UART_tester.c ****     #endif /* (UART_tester_RX_ENABLED || UART_tester_HD_ENABLED) */
 268:Generated_Source\PSoC5/UART_tester.c **** 
 269:Generated_Source\PSoC5/UART_tester.c ****     #if (UART_tester_TX_ENABLED)
 270:Generated_Source\PSoC5/UART_tester.c ****         UART_tester_TXSTATUS_ACTL_REG &= (uint8) ~UART_tester_INT_ENABLE;
 214              		.loc 1 270 9 is_stmt 1 view .LVU44
 215              		.loc 1 270 39 is_stmt 0 view .LVU45
 216 0020 0232     		adds	r2, r2, #2
 217 0022 1378     		ldrb	r3, [r2]	@ zero_extendqisi2
 218 0024 03F0EF03 		and	r3, r3, #239
 219 0028 1370     		strb	r3, [r2]
 271:Generated_Source\PSoC5/UART_tester.c **** 
 272:Generated_Source\PSoC5/UART_tester.c ****         #if (UART_tester_TX_INTERRUPT_ENABLED)
 273:Generated_Source\PSoC5/UART_tester.c ****             UART_tester_DisableTxInt();
 274:Generated_Source\PSoC5/UART_tester.c ****         #endif /* (UART_tester_TX_INTERRUPT_ENABLED) */
 275:Generated_Source\PSoC5/UART_tester.c ****     #endif /* (UART_tester_TX_ENABLED) */
 276:Generated_Source\PSoC5/UART_tester.c **** 
 277:Generated_Source\PSoC5/UART_tester.c ****     CyExitCriticalSection(enableInterrupts);
 220              		.loc 1 277 5 is_stmt 1 view .LVU46
 221 002a 2046     		mov	r0, r4
 222 002c FFF7FEFF 		bl	CyExitCriticalSection
 223              	.LVL10:
 278:Generated_Source\PSoC5/UART_tester.c **** }
 224              		.loc 1 278 1 is_stmt 0 view .LVU47
 225 0030 10BD     		pop	{r4, pc}
 226              	.LVL11:
ARM GAS  C:\Users\jens-\AppData\Local\Temp\ccP7oHVf.s 			page 10


 227              	.L17:
 228              		.loc 1 278 1 view .LVU48
 229 0032 00BF     		.align	2
 230              	.L16:
 231 0034 98650040 		.word	1073767832
 232 0038 99650040 		.word	1073767833
 233              		.cfi_endproc
 234              	.LFE3:
 235              		.size	UART_tester_Stop, .-UART_tester_Stop
 236              		.section	.text.UART_tester_ReadControlRegister,"ax",%progbits
 237              		.align	1
 238              		.global	UART_tester_ReadControlRegister
 239              		.syntax unified
 240              		.thumb
 241              		.thumb_func
 242              		.fpu softvfp
 243              		.type	UART_tester_ReadControlRegister, %function
 244              	UART_tester_ReadControlRegister:
 245              	.LFB4:
 279:Generated_Source\PSoC5/UART_tester.c **** 
 280:Generated_Source\PSoC5/UART_tester.c **** 
 281:Generated_Source\PSoC5/UART_tester.c **** /*******************************************************************************
 282:Generated_Source\PSoC5/UART_tester.c **** * Function Name: UART_tester_ReadControlRegister
 283:Generated_Source\PSoC5/UART_tester.c **** ********************************************************************************
 284:Generated_Source\PSoC5/UART_tester.c **** *
 285:Generated_Source\PSoC5/UART_tester.c **** * Summary:
 286:Generated_Source\PSoC5/UART_tester.c **** *  Returns the current value of the control register.
 287:Generated_Source\PSoC5/UART_tester.c **** *
 288:Generated_Source\PSoC5/UART_tester.c **** * Parameters:
 289:Generated_Source\PSoC5/UART_tester.c **** *  None.
 290:Generated_Source\PSoC5/UART_tester.c **** *
 291:Generated_Source\PSoC5/UART_tester.c **** * Return:
 292:Generated_Source\PSoC5/UART_tester.c **** *  Contents of the control register.
 293:Generated_Source\PSoC5/UART_tester.c **** *
 294:Generated_Source\PSoC5/UART_tester.c **** *******************************************************************************/
 295:Generated_Source\PSoC5/UART_tester.c **** uint8 UART_tester_ReadControlRegister(void) 
 296:Generated_Source\PSoC5/UART_tester.c **** {
 246              		.loc 1 296 1 is_stmt 1 view -0
 247              		.cfi_startproc
 248              		@ args = 0, pretend = 0, frame = 0
 249              		@ frame_needed = 0, uses_anonymous_args = 0
 250              		@ link register save eliminated.
 297:Generated_Source\PSoC5/UART_tester.c ****     #if (UART_tester_CONTROL_REG_REMOVED)
 298:Generated_Source\PSoC5/UART_tester.c ****         return(0u);
 251              		.loc 1 298 9 view .LVU50
 299:Generated_Source\PSoC5/UART_tester.c ****     #else
 300:Generated_Source\PSoC5/UART_tester.c ****         return(UART_tester_CONTROL_REG);
 301:Generated_Source\PSoC5/UART_tester.c ****     #endif /* (UART_tester_CONTROL_REG_REMOVED) */
 302:Generated_Source\PSoC5/UART_tester.c **** }
 252              		.loc 1 302 1 is_stmt 0 view .LVU51
 253 0000 0020     		movs	r0, #0
 254 0002 7047     		bx	lr
 255              		.cfi_endproc
 256              	.LFE4:
 257              		.size	UART_tester_ReadControlRegister, .-UART_tester_ReadControlRegister
 258              		.section	.text.UART_tester_WriteControlRegister,"ax",%progbits
 259              		.align	1
ARM GAS  C:\Users\jens-\AppData\Local\Temp\ccP7oHVf.s 			page 11


 260              		.global	UART_tester_WriteControlRegister
 261              		.syntax unified
 262              		.thumb
 263              		.thumb_func
 264              		.fpu softvfp
 265              		.type	UART_tester_WriteControlRegister, %function
 266              	UART_tester_WriteControlRegister:
 267              	.LVL12:
 268              	.LFB5:
 303:Generated_Source\PSoC5/UART_tester.c **** 
 304:Generated_Source\PSoC5/UART_tester.c **** 
 305:Generated_Source\PSoC5/UART_tester.c **** /*******************************************************************************
 306:Generated_Source\PSoC5/UART_tester.c **** * Function Name: UART_tester_WriteControlRegister
 307:Generated_Source\PSoC5/UART_tester.c **** ********************************************************************************
 308:Generated_Source\PSoC5/UART_tester.c **** *
 309:Generated_Source\PSoC5/UART_tester.c **** * Summary:
 310:Generated_Source\PSoC5/UART_tester.c **** *  Writes an 8-bit value into the control register
 311:Generated_Source\PSoC5/UART_tester.c **** *
 312:Generated_Source\PSoC5/UART_tester.c **** * Parameters:
 313:Generated_Source\PSoC5/UART_tester.c **** *  control:  control register value
 314:Generated_Source\PSoC5/UART_tester.c **** *
 315:Generated_Source\PSoC5/UART_tester.c **** * Return:
 316:Generated_Source\PSoC5/UART_tester.c **** *  None.
 317:Generated_Source\PSoC5/UART_tester.c **** *
 318:Generated_Source\PSoC5/UART_tester.c **** *******************************************************************************/
 319:Generated_Source\PSoC5/UART_tester.c **** void  UART_tester_WriteControlRegister(uint8 control) 
 320:Generated_Source\PSoC5/UART_tester.c **** {
 269              		.loc 1 320 1 is_stmt 1 view -0
 270              		.cfi_startproc
 271              		@ args = 0, pretend = 0, frame = 0
 272              		@ frame_needed = 0, uses_anonymous_args = 0
 273              		@ link register save eliminated.
 321:Generated_Source\PSoC5/UART_tester.c ****     #if (UART_tester_CONTROL_REG_REMOVED)
 322:Generated_Source\PSoC5/UART_tester.c ****         if(0u != control)
 274              		.loc 1 322 9 view .LVU53
 323:Generated_Source\PSoC5/UART_tester.c ****         {
 324:Generated_Source\PSoC5/UART_tester.c ****             /* Suppress compiler warning */
 325:Generated_Source\PSoC5/UART_tester.c ****         }
 275              		.loc 1 325 9 view .LVU54
 326:Generated_Source\PSoC5/UART_tester.c ****     #else
 327:Generated_Source\PSoC5/UART_tester.c ****        UART_tester_CONTROL_REG = control;
 328:Generated_Source\PSoC5/UART_tester.c ****     #endif /* (UART_tester_CONTROL_REG_REMOVED) */
 329:Generated_Source\PSoC5/UART_tester.c **** }
 276              		.loc 1 329 1 is_stmt 0 view .LVU55
 277 0000 7047     		bx	lr
 278              		.cfi_endproc
 279              	.LFE5:
 280              		.size	UART_tester_WriteControlRegister, .-UART_tester_WriteControlRegister
 281              		.section	.text.UART_tester_SetRxInterruptMode,"ax",%progbits
 282              		.align	1
 283              		.global	UART_tester_SetRxInterruptMode
 284              		.syntax unified
 285              		.thumb
 286              		.thumb_func
 287              		.fpu softvfp
 288              		.type	UART_tester_SetRxInterruptMode, %function
 289              	UART_tester_SetRxInterruptMode:
ARM GAS  C:\Users\jens-\AppData\Local\Temp\ccP7oHVf.s 			page 12


 290              	.LVL13:
 291              	.LFB6:
 330:Generated_Source\PSoC5/UART_tester.c **** 
 331:Generated_Source\PSoC5/UART_tester.c **** 
 332:Generated_Source\PSoC5/UART_tester.c **** #if(UART_tester_RX_ENABLED || UART_tester_HD_ENABLED)
 333:Generated_Source\PSoC5/UART_tester.c ****     /*******************************************************************************
 334:Generated_Source\PSoC5/UART_tester.c ****     * Function Name: UART_tester_SetRxInterruptMode
 335:Generated_Source\PSoC5/UART_tester.c ****     ********************************************************************************
 336:Generated_Source\PSoC5/UART_tester.c ****     *
 337:Generated_Source\PSoC5/UART_tester.c ****     * Summary:
 338:Generated_Source\PSoC5/UART_tester.c ****     *  Configures the RX interrupt sources enabled.
 339:Generated_Source\PSoC5/UART_tester.c ****     *
 340:Generated_Source\PSoC5/UART_tester.c ****     * Parameters:
 341:Generated_Source\PSoC5/UART_tester.c ****     *  IntSrc:  Bit field containing the RX interrupts to enable. Based on the 
 342:Generated_Source\PSoC5/UART_tester.c ****     *  bit-field arrangement of the status register. This value must be a 
 343:Generated_Source\PSoC5/UART_tester.c ****     *  combination of status register bit-masks shown below:
 344:Generated_Source\PSoC5/UART_tester.c ****     *      UART_tester_RX_STS_FIFO_NOTEMPTY    Interrupt on byte received.
 345:Generated_Source\PSoC5/UART_tester.c ****     *      UART_tester_RX_STS_PAR_ERROR        Interrupt on parity error.
 346:Generated_Source\PSoC5/UART_tester.c ****     *      UART_tester_RX_STS_STOP_ERROR       Interrupt on stop error.
 347:Generated_Source\PSoC5/UART_tester.c ****     *      UART_tester_RX_STS_BREAK            Interrupt on break.
 348:Generated_Source\PSoC5/UART_tester.c ****     *      UART_tester_RX_STS_OVERRUN          Interrupt on overrun error.
 349:Generated_Source\PSoC5/UART_tester.c ****     *      UART_tester_RX_STS_ADDR_MATCH       Interrupt on address match.
 350:Generated_Source\PSoC5/UART_tester.c ****     *      UART_tester_RX_STS_MRKSPC           Interrupt on address detect.
 351:Generated_Source\PSoC5/UART_tester.c ****     *
 352:Generated_Source\PSoC5/UART_tester.c ****     * Return:
 353:Generated_Source\PSoC5/UART_tester.c ****     *  None.
 354:Generated_Source\PSoC5/UART_tester.c ****     *
 355:Generated_Source\PSoC5/UART_tester.c ****     * Theory:
 356:Generated_Source\PSoC5/UART_tester.c ****     *  Enables the output of specific status bits to the interrupt controller
 357:Generated_Source\PSoC5/UART_tester.c ****     *
 358:Generated_Source\PSoC5/UART_tester.c ****     *******************************************************************************/
 359:Generated_Source\PSoC5/UART_tester.c ****     void UART_tester_SetRxInterruptMode(uint8 intSrc) 
 360:Generated_Source\PSoC5/UART_tester.c ****     {
 292              		.loc 1 360 5 is_stmt 1 view -0
 293              		.cfi_startproc
 294              		@ args = 0, pretend = 0, frame = 0
 295              		@ frame_needed = 0, uses_anonymous_args = 0
 296              		@ link register save eliminated.
 361:Generated_Source\PSoC5/UART_tester.c ****         UART_tester_RXSTATUS_MASK_REG  = intSrc;
 297              		.loc 1 361 9 view .LVU57
 298              		.loc 1 361 40 is_stmt 0 view .LVU58
 299 0000 014B     		ldr	r3, .L21
 300 0002 1870     		strb	r0, [r3]
 362:Generated_Source\PSoC5/UART_tester.c ****     }
 301              		.loc 1 362 5 view .LVU59
 302 0004 7047     		bx	lr
 303              	.L22:
 304 0006 00BF     		.align	2
 305              	.L21:
 306 0008 89650040 		.word	1073767817
 307              		.cfi_endproc
 308              	.LFE6:
 309              		.size	UART_tester_SetRxInterruptMode, .-UART_tester_SetRxInterruptMode
 310              		.section	.text.UART_tester_ReadRxData,"ax",%progbits
 311              		.align	1
 312              		.global	UART_tester_ReadRxData
 313              		.syntax unified
ARM GAS  C:\Users\jens-\AppData\Local\Temp\ccP7oHVf.s 			page 13


 314              		.thumb
 315              		.thumb_func
 316              		.fpu softvfp
 317              		.type	UART_tester_ReadRxData, %function
 318              	UART_tester_ReadRxData:
 319              	.LFB7:
 363:Generated_Source\PSoC5/UART_tester.c **** 
 364:Generated_Source\PSoC5/UART_tester.c **** 
 365:Generated_Source\PSoC5/UART_tester.c ****     /*******************************************************************************
 366:Generated_Source\PSoC5/UART_tester.c ****     * Function Name: UART_tester_ReadRxData
 367:Generated_Source\PSoC5/UART_tester.c ****     ********************************************************************************
 368:Generated_Source\PSoC5/UART_tester.c ****     *
 369:Generated_Source\PSoC5/UART_tester.c ****     * Summary:
 370:Generated_Source\PSoC5/UART_tester.c ****     *  Returns the next byte of received data. This function returns data without
 371:Generated_Source\PSoC5/UART_tester.c ****     *  checking the status. You must check the status separately.
 372:Generated_Source\PSoC5/UART_tester.c ****     *
 373:Generated_Source\PSoC5/UART_tester.c ****     * Parameters:
 374:Generated_Source\PSoC5/UART_tester.c ****     *  None.
 375:Generated_Source\PSoC5/UART_tester.c ****     *
 376:Generated_Source\PSoC5/UART_tester.c ****     * Return:
 377:Generated_Source\PSoC5/UART_tester.c ****     *  Received data from RX register
 378:Generated_Source\PSoC5/UART_tester.c ****     *
 379:Generated_Source\PSoC5/UART_tester.c ****     * Global Variables:
 380:Generated_Source\PSoC5/UART_tester.c ****     *  UART_tester_rxBuffer - RAM buffer pointer for save received data.
 381:Generated_Source\PSoC5/UART_tester.c ****     *  UART_tester_rxBufferWrite - cyclic index for write to rxBuffer,
 382:Generated_Source\PSoC5/UART_tester.c ****     *     checked to identify new data.
 383:Generated_Source\PSoC5/UART_tester.c ****     *  UART_tester_rxBufferRead - cyclic index for read from rxBuffer,
 384:Generated_Source\PSoC5/UART_tester.c ****     *     incremented after each byte has been read from buffer.
 385:Generated_Source\PSoC5/UART_tester.c ****     *  UART_tester_rxBufferLoopDetect - cleared if loop condition was detected
 386:Generated_Source\PSoC5/UART_tester.c ****     *     in RX ISR.
 387:Generated_Source\PSoC5/UART_tester.c ****     *
 388:Generated_Source\PSoC5/UART_tester.c ****     * Reentrant:
 389:Generated_Source\PSoC5/UART_tester.c ****     *  No.
 390:Generated_Source\PSoC5/UART_tester.c ****     *
 391:Generated_Source\PSoC5/UART_tester.c ****     *******************************************************************************/
 392:Generated_Source\PSoC5/UART_tester.c ****     uint8 UART_tester_ReadRxData(void) 
 393:Generated_Source\PSoC5/UART_tester.c ****     {
 320              		.loc 1 393 5 is_stmt 1 view -0
 321              		.cfi_startproc
 322              		@ args = 0, pretend = 0, frame = 0
 323              		@ frame_needed = 0, uses_anonymous_args = 0
 324              		@ link register save eliminated.
 394:Generated_Source\PSoC5/UART_tester.c ****         uint8 rxData;
 325              		.loc 1 394 9 view .LVU61
 395:Generated_Source\PSoC5/UART_tester.c **** 
 396:Generated_Source\PSoC5/UART_tester.c ****     #if (UART_tester_RX_INTERRUPT_ENABLED)
 397:Generated_Source\PSoC5/UART_tester.c **** 
 398:Generated_Source\PSoC5/UART_tester.c ****         uint8 locRxBufferRead;
 399:Generated_Source\PSoC5/UART_tester.c ****         uint8 locRxBufferWrite;
 400:Generated_Source\PSoC5/UART_tester.c **** 
 401:Generated_Source\PSoC5/UART_tester.c ****         /* Protect variables that could change on interrupt */
 402:Generated_Source\PSoC5/UART_tester.c ****         UART_tester_DisableRxInt();
 403:Generated_Source\PSoC5/UART_tester.c **** 
 404:Generated_Source\PSoC5/UART_tester.c ****         locRxBufferRead  = UART_tester_rxBufferRead;
 405:Generated_Source\PSoC5/UART_tester.c ****         locRxBufferWrite = UART_tester_rxBufferWrite;
 406:Generated_Source\PSoC5/UART_tester.c **** 
 407:Generated_Source\PSoC5/UART_tester.c ****         if( (UART_tester_rxBufferLoopDetect != 0u) || (locRxBufferRead != locRxBufferWrite) )
ARM GAS  C:\Users\jens-\AppData\Local\Temp\ccP7oHVf.s 			page 14


 408:Generated_Source\PSoC5/UART_tester.c ****         {
 409:Generated_Source\PSoC5/UART_tester.c ****             rxData = UART_tester_rxBuffer[locRxBufferRead];
 410:Generated_Source\PSoC5/UART_tester.c ****             locRxBufferRead++;
 411:Generated_Source\PSoC5/UART_tester.c **** 
 412:Generated_Source\PSoC5/UART_tester.c ****             if(locRxBufferRead >= UART_tester_RX_BUFFER_SIZE)
 413:Generated_Source\PSoC5/UART_tester.c ****             {
 414:Generated_Source\PSoC5/UART_tester.c ****                 locRxBufferRead = 0u;
 415:Generated_Source\PSoC5/UART_tester.c ****             }
 416:Generated_Source\PSoC5/UART_tester.c ****             /* Update the real pointer */
 417:Generated_Source\PSoC5/UART_tester.c ****             UART_tester_rxBufferRead = locRxBufferRead;
 418:Generated_Source\PSoC5/UART_tester.c **** 
 419:Generated_Source\PSoC5/UART_tester.c ****             if(UART_tester_rxBufferLoopDetect != 0u)
 420:Generated_Source\PSoC5/UART_tester.c ****             {
 421:Generated_Source\PSoC5/UART_tester.c ****                 UART_tester_rxBufferLoopDetect = 0u;
 422:Generated_Source\PSoC5/UART_tester.c ****                 #if ((UART_tester_RX_INTERRUPT_ENABLED) && (UART_tester_FLOW_CONTROL != 0u))
 423:Generated_Source\PSoC5/UART_tester.c ****                     /* When Hardware Flow Control selected - return RX mask */
 424:Generated_Source\PSoC5/UART_tester.c ****                     #if( UART_tester_HD_ENABLED )
 425:Generated_Source\PSoC5/UART_tester.c ****                         if((UART_tester_CONTROL_REG & UART_tester_CTRL_HD_SEND) == 0u)
 426:Generated_Source\PSoC5/UART_tester.c ****                         {   /* In Half duplex mode return RX mask only in RX
 427:Generated_Source\PSoC5/UART_tester.c ****                             *  configuration set, otherwise
 428:Generated_Source\PSoC5/UART_tester.c ****                             *  mask will be returned in LoadRxConfig() API.
 429:Generated_Source\PSoC5/UART_tester.c ****                             */
 430:Generated_Source\PSoC5/UART_tester.c ****                             UART_tester_RXSTATUS_MASK_REG  |= UART_tester_RX_STS_FIFO_NOTEMPTY;
 431:Generated_Source\PSoC5/UART_tester.c ****                         }
 432:Generated_Source\PSoC5/UART_tester.c ****                     #else
 433:Generated_Source\PSoC5/UART_tester.c ****                         UART_tester_RXSTATUS_MASK_REG  |= UART_tester_RX_STS_FIFO_NOTEMPTY;
 434:Generated_Source\PSoC5/UART_tester.c ****                     #endif /* end UART_tester_HD_ENABLED */
 435:Generated_Source\PSoC5/UART_tester.c ****                 #endif /* ((UART_tester_RX_INTERRUPT_ENABLED) && (UART_tester_FLOW_CONTROL != 0u)) 
 436:Generated_Source\PSoC5/UART_tester.c ****             }
 437:Generated_Source\PSoC5/UART_tester.c ****         }
 438:Generated_Source\PSoC5/UART_tester.c ****         else
 439:Generated_Source\PSoC5/UART_tester.c ****         {   /* Needs to check status for RX_STS_FIFO_NOTEMPTY bit */
 440:Generated_Source\PSoC5/UART_tester.c ****             rxData = UART_tester_RXDATA_REG;
 441:Generated_Source\PSoC5/UART_tester.c ****         }
 442:Generated_Source\PSoC5/UART_tester.c **** 
 443:Generated_Source\PSoC5/UART_tester.c ****         UART_tester_EnableRxInt();
 444:Generated_Source\PSoC5/UART_tester.c **** 
 445:Generated_Source\PSoC5/UART_tester.c ****     #else
 446:Generated_Source\PSoC5/UART_tester.c **** 
 447:Generated_Source\PSoC5/UART_tester.c ****         /* Needs to check status for RX_STS_FIFO_NOTEMPTY bit */
 448:Generated_Source\PSoC5/UART_tester.c ****         rxData = UART_tester_RXDATA_REG;
 326              		.loc 1 448 9 view .LVU62
 327              		.loc 1 448 16 is_stmt 0 view .LVU63
 328 0000 014B     		ldr	r3, .L24
 329 0002 1878     		ldrb	r0, [r3]	@ zero_extendqisi2
 330              	.LVL14:
 449:Generated_Source\PSoC5/UART_tester.c **** 
 450:Generated_Source\PSoC5/UART_tester.c ****     #endif /* (UART_tester_RX_INTERRUPT_ENABLED) */
 451:Generated_Source\PSoC5/UART_tester.c **** 
 452:Generated_Source\PSoC5/UART_tester.c ****         return(rxData);
 331              		.loc 1 452 9 is_stmt 1 view .LVU64
 453:Generated_Source\PSoC5/UART_tester.c ****     }
 332              		.loc 1 453 5 is_stmt 0 view .LVU65
 333 0004 7047     		bx	lr
 334              	.L25:
 335 0006 00BF     		.align	2
 336              	.L24:
ARM GAS  C:\Users\jens-\AppData\Local\Temp\ccP7oHVf.s 			page 15


 337 0008 48650040 		.word	1073767752
 338              		.cfi_endproc
 339              	.LFE7:
 340              		.size	UART_tester_ReadRxData, .-UART_tester_ReadRxData
 341              		.section	.text.UART_tester_ReadRxStatus,"ax",%progbits
 342              		.align	1
 343              		.global	UART_tester_ReadRxStatus
 344              		.syntax unified
 345              		.thumb
 346              		.thumb_func
 347              		.fpu softvfp
 348              		.type	UART_tester_ReadRxStatus, %function
 349              	UART_tester_ReadRxStatus:
 350              	.LFB8:
 454:Generated_Source\PSoC5/UART_tester.c **** 
 455:Generated_Source\PSoC5/UART_tester.c **** 
 456:Generated_Source\PSoC5/UART_tester.c ****     /*******************************************************************************
 457:Generated_Source\PSoC5/UART_tester.c ****     * Function Name: UART_tester_ReadRxStatus
 458:Generated_Source\PSoC5/UART_tester.c ****     ********************************************************************************
 459:Generated_Source\PSoC5/UART_tester.c ****     *
 460:Generated_Source\PSoC5/UART_tester.c ****     * Summary:
 461:Generated_Source\PSoC5/UART_tester.c ****     *  Returns the current state of the receiver status register and the software
 462:Generated_Source\PSoC5/UART_tester.c ****     *  buffer overflow status.
 463:Generated_Source\PSoC5/UART_tester.c ****     *
 464:Generated_Source\PSoC5/UART_tester.c ****     * Parameters:
 465:Generated_Source\PSoC5/UART_tester.c ****     *  None.
 466:Generated_Source\PSoC5/UART_tester.c ****     *
 467:Generated_Source\PSoC5/UART_tester.c ****     * Return:
 468:Generated_Source\PSoC5/UART_tester.c ****     *  Current state of the status register.
 469:Generated_Source\PSoC5/UART_tester.c ****     *
 470:Generated_Source\PSoC5/UART_tester.c ****     * Side Effect:
 471:Generated_Source\PSoC5/UART_tester.c ****     *  All status register bits are clear-on-read except
 472:Generated_Source\PSoC5/UART_tester.c ****     *  UART_tester_RX_STS_FIFO_NOTEMPTY.
 473:Generated_Source\PSoC5/UART_tester.c ****     *  UART_tester_RX_STS_FIFO_NOTEMPTY clears immediately after RX data
 474:Generated_Source\PSoC5/UART_tester.c ****     *  register read.
 475:Generated_Source\PSoC5/UART_tester.c ****     *
 476:Generated_Source\PSoC5/UART_tester.c ****     * Global Variables:
 477:Generated_Source\PSoC5/UART_tester.c ****     *  UART_tester_rxBufferOverflow - used to indicate overload condition.
 478:Generated_Source\PSoC5/UART_tester.c ****     *   It set to one in RX interrupt when there isn't free space in
 479:Generated_Source\PSoC5/UART_tester.c ****     *   UART_tester_rxBufferRead to write new data. This condition returned
 480:Generated_Source\PSoC5/UART_tester.c ****     *   and cleared to zero by this API as an
 481:Generated_Source\PSoC5/UART_tester.c ****     *   UART_tester_RX_STS_SOFT_BUFF_OVER bit along with RX Status register
 482:Generated_Source\PSoC5/UART_tester.c ****     *   bits.
 483:Generated_Source\PSoC5/UART_tester.c ****     *
 484:Generated_Source\PSoC5/UART_tester.c ****     *******************************************************************************/
 485:Generated_Source\PSoC5/UART_tester.c ****     uint8 UART_tester_ReadRxStatus(void) 
 486:Generated_Source\PSoC5/UART_tester.c ****     {
 351              		.loc 1 486 5 is_stmt 1 view -0
 352              		.cfi_startproc
 353              		@ args = 0, pretend = 0, frame = 0
 354              		@ frame_needed = 0, uses_anonymous_args = 0
 355              		@ link register save eliminated.
 487:Generated_Source\PSoC5/UART_tester.c ****         uint8 status;
 356              		.loc 1 487 9 view .LVU67
 488:Generated_Source\PSoC5/UART_tester.c **** 
 489:Generated_Source\PSoC5/UART_tester.c ****         status = UART_tester_RXSTATUS_REG & UART_tester_RX_HW_MASK;
 357              		.loc 1 489 9 view .LVU68
ARM GAS  C:\Users\jens-\AppData\Local\Temp\ccP7oHVf.s 			page 16


 358              		.loc 1 489 18 is_stmt 0 view .LVU69
 359 0000 024B     		ldr	r3, .L27
 360 0002 1878     		ldrb	r0, [r3]	@ zero_extendqisi2
 361              	.LVL15:
 490:Generated_Source\PSoC5/UART_tester.c **** 
 491:Generated_Source\PSoC5/UART_tester.c ****     #if (UART_tester_RX_INTERRUPT_ENABLED)
 492:Generated_Source\PSoC5/UART_tester.c ****         if(UART_tester_rxBufferOverflow != 0u)
 493:Generated_Source\PSoC5/UART_tester.c ****         {
 494:Generated_Source\PSoC5/UART_tester.c ****             status |= UART_tester_RX_STS_SOFT_BUFF_OVER;
 495:Generated_Source\PSoC5/UART_tester.c ****             UART_tester_rxBufferOverflow = 0u;
 496:Generated_Source\PSoC5/UART_tester.c ****         }
 497:Generated_Source\PSoC5/UART_tester.c ****     #endif /* (UART_tester_RX_INTERRUPT_ENABLED) */
 498:Generated_Source\PSoC5/UART_tester.c **** 
 499:Generated_Source\PSoC5/UART_tester.c ****         return(status);
 362              		.loc 1 499 9 is_stmt 1 view .LVU70
 500:Generated_Source\PSoC5/UART_tester.c ****     }
 363              		.loc 1 500 5 is_stmt 0 view .LVU71
 364 0004 00F07F00 		and	r0, r0, #127
 365              	.LVL16:
 366              		.loc 1 500 5 view .LVU72
 367 0008 7047     		bx	lr
 368              	.L28:
 369 000a 00BF     		.align	2
 370              	.L27:
 371 000c 69650040 		.word	1073767785
 372              		.cfi_endproc
 373              	.LFE8:
 374              		.size	UART_tester_ReadRxStatus, .-UART_tester_ReadRxStatus
 375              		.section	.text.UART_tester_GetChar,"ax",%progbits
 376              		.align	1
 377              		.global	UART_tester_GetChar
 378              		.syntax unified
 379              		.thumb
 380              		.thumb_func
 381              		.fpu softvfp
 382              		.type	UART_tester_GetChar, %function
 383              	UART_tester_GetChar:
 384              	.LFB9:
 501:Generated_Source\PSoC5/UART_tester.c **** 
 502:Generated_Source\PSoC5/UART_tester.c **** 
 503:Generated_Source\PSoC5/UART_tester.c ****     /*******************************************************************************
 504:Generated_Source\PSoC5/UART_tester.c ****     * Function Name: UART_tester_GetChar
 505:Generated_Source\PSoC5/UART_tester.c ****     ********************************************************************************
 506:Generated_Source\PSoC5/UART_tester.c ****     *
 507:Generated_Source\PSoC5/UART_tester.c ****     * Summary:
 508:Generated_Source\PSoC5/UART_tester.c ****     *  Returns the last received byte of data. UART_tester_GetChar() is
 509:Generated_Source\PSoC5/UART_tester.c ****     *  designed for ASCII characters and returns a uint8 where 1 to 255 are values
 510:Generated_Source\PSoC5/UART_tester.c ****     *  for valid characters and 0 indicates an error occurred or no data is present.
 511:Generated_Source\PSoC5/UART_tester.c ****     *
 512:Generated_Source\PSoC5/UART_tester.c ****     * Parameters:
 513:Generated_Source\PSoC5/UART_tester.c ****     *  None.
 514:Generated_Source\PSoC5/UART_tester.c ****     *
 515:Generated_Source\PSoC5/UART_tester.c ****     * Return:
 516:Generated_Source\PSoC5/UART_tester.c ****     *  Character read from UART RX buffer. ASCII characters from 1 to 255 are valid.
 517:Generated_Source\PSoC5/UART_tester.c ****     *  A returned zero signifies an error condition or no data available.
 518:Generated_Source\PSoC5/UART_tester.c ****     *
 519:Generated_Source\PSoC5/UART_tester.c ****     * Global Variables:
ARM GAS  C:\Users\jens-\AppData\Local\Temp\ccP7oHVf.s 			page 17


 520:Generated_Source\PSoC5/UART_tester.c ****     *  UART_tester_rxBuffer - RAM buffer pointer for save received data.
 521:Generated_Source\PSoC5/UART_tester.c ****     *  UART_tester_rxBufferWrite - cyclic index for write to rxBuffer,
 522:Generated_Source\PSoC5/UART_tester.c ****     *     checked to identify new data.
 523:Generated_Source\PSoC5/UART_tester.c ****     *  UART_tester_rxBufferRead - cyclic index for read from rxBuffer,
 524:Generated_Source\PSoC5/UART_tester.c ****     *     incremented after each byte has been read from buffer.
 525:Generated_Source\PSoC5/UART_tester.c ****     *  UART_tester_rxBufferLoopDetect - cleared if loop condition was detected
 526:Generated_Source\PSoC5/UART_tester.c ****     *     in RX ISR.
 527:Generated_Source\PSoC5/UART_tester.c ****     *
 528:Generated_Source\PSoC5/UART_tester.c ****     * Reentrant:
 529:Generated_Source\PSoC5/UART_tester.c ****     *  No.
 530:Generated_Source\PSoC5/UART_tester.c ****     *
 531:Generated_Source\PSoC5/UART_tester.c ****     *******************************************************************************/
 532:Generated_Source\PSoC5/UART_tester.c ****     uint8 UART_tester_GetChar(void) 
 533:Generated_Source\PSoC5/UART_tester.c ****     {
 385              		.loc 1 533 5 is_stmt 1 view -0
 386              		.cfi_startproc
 387              		@ args = 0, pretend = 0, frame = 0
 388              		@ frame_needed = 0, uses_anonymous_args = 0
 389              		@ link register save eliminated.
 534:Generated_Source\PSoC5/UART_tester.c ****         uint8 rxData = 0u;
 390              		.loc 1 534 9 view .LVU74
 391              	.LVL17:
 535:Generated_Source\PSoC5/UART_tester.c ****         uint8 rxStatus;
 392              		.loc 1 535 9 view .LVU75
 536:Generated_Source\PSoC5/UART_tester.c **** 
 537:Generated_Source\PSoC5/UART_tester.c ****     #if (UART_tester_RX_INTERRUPT_ENABLED)
 538:Generated_Source\PSoC5/UART_tester.c ****         uint8 locRxBufferRead;
 539:Generated_Source\PSoC5/UART_tester.c ****         uint8 locRxBufferWrite;
 540:Generated_Source\PSoC5/UART_tester.c **** 
 541:Generated_Source\PSoC5/UART_tester.c ****         /* Protect variables that could change on interrupt */
 542:Generated_Source\PSoC5/UART_tester.c ****         UART_tester_DisableRxInt();
 543:Generated_Source\PSoC5/UART_tester.c **** 
 544:Generated_Source\PSoC5/UART_tester.c ****         locRxBufferRead  = UART_tester_rxBufferRead;
 545:Generated_Source\PSoC5/UART_tester.c ****         locRxBufferWrite = UART_tester_rxBufferWrite;
 546:Generated_Source\PSoC5/UART_tester.c **** 
 547:Generated_Source\PSoC5/UART_tester.c ****         if( (UART_tester_rxBufferLoopDetect != 0u) || (locRxBufferRead != locRxBufferWrite) )
 548:Generated_Source\PSoC5/UART_tester.c ****         {
 549:Generated_Source\PSoC5/UART_tester.c ****             rxData = UART_tester_rxBuffer[locRxBufferRead];
 550:Generated_Source\PSoC5/UART_tester.c ****             locRxBufferRead++;
 551:Generated_Source\PSoC5/UART_tester.c ****             if(locRxBufferRead >= UART_tester_RX_BUFFER_SIZE)
 552:Generated_Source\PSoC5/UART_tester.c ****             {
 553:Generated_Source\PSoC5/UART_tester.c ****                 locRxBufferRead = 0u;
 554:Generated_Source\PSoC5/UART_tester.c ****             }
 555:Generated_Source\PSoC5/UART_tester.c ****             /* Update the real pointer */
 556:Generated_Source\PSoC5/UART_tester.c ****             UART_tester_rxBufferRead = locRxBufferRead;
 557:Generated_Source\PSoC5/UART_tester.c **** 
 558:Generated_Source\PSoC5/UART_tester.c ****             if(UART_tester_rxBufferLoopDetect != 0u)
 559:Generated_Source\PSoC5/UART_tester.c ****             {
 560:Generated_Source\PSoC5/UART_tester.c ****                 UART_tester_rxBufferLoopDetect = 0u;
 561:Generated_Source\PSoC5/UART_tester.c ****                 #if( (UART_tester_RX_INTERRUPT_ENABLED) && (UART_tester_FLOW_CONTROL != 0u) )
 562:Generated_Source\PSoC5/UART_tester.c ****                     /* When Hardware Flow Control selected - return RX mask */
 563:Generated_Source\PSoC5/UART_tester.c ****                     #if( UART_tester_HD_ENABLED )
 564:Generated_Source\PSoC5/UART_tester.c ****                         if((UART_tester_CONTROL_REG & UART_tester_CTRL_HD_SEND) == 0u)
 565:Generated_Source\PSoC5/UART_tester.c ****                         {   /* In Half duplex mode return RX mask only if
 566:Generated_Source\PSoC5/UART_tester.c ****                             *  RX configuration set, otherwise
 567:Generated_Source\PSoC5/UART_tester.c ****                             *  mask will be returned in LoadRxConfig() API.
 568:Generated_Source\PSoC5/UART_tester.c ****                             */
ARM GAS  C:\Users\jens-\AppData\Local\Temp\ccP7oHVf.s 			page 18


 569:Generated_Source\PSoC5/UART_tester.c ****                             UART_tester_RXSTATUS_MASK_REG |= UART_tester_RX_STS_FIFO_NOTEMPTY;
 570:Generated_Source\PSoC5/UART_tester.c ****                         }
 571:Generated_Source\PSoC5/UART_tester.c ****                     #else
 572:Generated_Source\PSoC5/UART_tester.c ****                         UART_tester_RXSTATUS_MASK_REG |= UART_tester_RX_STS_FIFO_NOTEMPTY;
 573:Generated_Source\PSoC5/UART_tester.c ****                     #endif /* end UART_tester_HD_ENABLED */
 574:Generated_Source\PSoC5/UART_tester.c ****                 #endif /* UART_tester_RX_INTERRUPT_ENABLED and Hardware flow control*/
 575:Generated_Source\PSoC5/UART_tester.c ****             }
 576:Generated_Source\PSoC5/UART_tester.c **** 
 577:Generated_Source\PSoC5/UART_tester.c ****         }
 578:Generated_Source\PSoC5/UART_tester.c ****         else
 579:Generated_Source\PSoC5/UART_tester.c ****         {   rxStatus = UART_tester_RXSTATUS_REG;
 580:Generated_Source\PSoC5/UART_tester.c ****             if((rxStatus & UART_tester_RX_STS_FIFO_NOTEMPTY) != 0u)
 581:Generated_Source\PSoC5/UART_tester.c ****             {   /* Read received data from FIFO */
 582:Generated_Source\PSoC5/UART_tester.c ****                 rxData = UART_tester_RXDATA_REG;
 583:Generated_Source\PSoC5/UART_tester.c ****                 /*Check status on error*/
 584:Generated_Source\PSoC5/UART_tester.c ****                 if((rxStatus & (UART_tester_RX_STS_BREAK | UART_tester_RX_STS_PAR_ERROR |
 585:Generated_Source\PSoC5/UART_tester.c ****                                 UART_tester_RX_STS_STOP_ERROR | UART_tester_RX_STS_OVERRUN)) != 0u)
 586:Generated_Source\PSoC5/UART_tester.c ****                 {
 587:Generated_Source\PSoC5/UART_tester.c ****                     rxData = 0u;
 588:Generated_Source\PSoC5/UART_tester.c ****                 }
 589:Generated_Source\PSoC5/UART_tester.c ****             }
 590:Generated_Source\PSoC5/UART_tester.c ****         }
 591:Generated_Source\PSoC5/UART_tester.c **** 
 592:Generated_Source\PSoC5/UART_tester.c ****         UART_tester_EnableRxInt();
 593:Generated_Source\PSoC5/UART_tester.c **** 
 594:Generated_Source\PSoC5/UART_tester.c ****     #else
 595:Generated_Source\PSoC5/UART_tester.c **** 
 596:Generated_Source\PSoC5/UART_tester.c ****         rxStatus =UART_tester_RXSTATUS_REG;
 393              		.loc 1 596 9 view .LVU76
 394              		.loc 1 596 18 is_stmt 0 view .LVU77
 395 0000 064B     		ldr	r3, .L32
 396 0002 1878     		ldrb	r0, [r3]	@ zero_extendqisi2
 397 0004 C3B2     		uxtb	r3, r0
 398              	.LVL18:
 597:Generated_Source\PSoC5/UART_tester.c ****         if((rxStatus & UART_tester_RX_STS_FIFO_NOTEMPTY) != 0u)
 399              		.loc 1 597 9 is_stmt 1 view .LVU78
 400              		.loc 1 597 11 is_stmt 0 view .LVU79
 401 0006 10F02000 		ands	r0, r0, #32
 402 000a 06D0     		beq	.L30
 598:Generated_Source\PSoC5/UART_tester.c ****         {
 599:Generated_Source\PSoC5/UART_tester.c ****             /* Read received data from FIFO */
 600:Generated_Source\PSoC5/UART_tester.c ****             rxData = UART_tester_RXDATA_REG;
 403              		.loc 1 600 13 is_stmt 1 view .LVU80
 404              		.loc 1 600 20 is_stmt 0 view .LVU81
 405 000c 044A     		ldr	r2, .L32+4
 406 000e 1078     		ldrb	r0, [r2]	@ zero_extendqisi2
 407 0010 C0B2     		uxtb	r0, r0
 408              	.LVL19:
 601:Generated_Source\PSoC5/UART_tester.c **** 
 602:Generated_Source\PSoC5/UART_tester.c ****             /*Check status on error*/
 603:Generated_Source\PSoC5/UART_tester.c ****             if((rxStatus & (UART_tester_RX_STS_BREAK | UART_tester_RX_STS_PAR_ERROR |
 409              		.loc 1 603 13 is_stmt 1 view .LVU82
 410              		.loc 1 603 15 is_stmt 0 view .LVU83
 411 0012 13F01E0F 		tst	r3, #30
 412 0016 00D0     		beq	.L30
 604:Generated_Source\PSoC5/UART_tester.c ****                             UART_tester_RX_STS_STOP_ERROR | UART_tester_RX_STS_OVERRUN)) != 0u)
 605:Generated_Source\PSoC5/UART_tester.c ****             {
ARM GAS  C:\Users\jens-\AppData\Local\Temp\ccP7oHVf.s 			page 19


 606:Generated_Source\PSoC5/UART_tester.c ****                 rxData = 0u;
 413              		.loc 1 606 24 view .LVU84
 414 0018 0020     		movs	r0, #0
 415              	.LVL20:
 416              	.L30:
 607:Generated_Source\PSoC5/UART_tester.c ****             }
 608:Generated_Source\PSoC5/UART_tester.c ****         }
 609:Generated_Source\PSoC5/UART_tester.c ****     #endif /* (UART_tester_RX_INTERRUPT_ENABLED) */
 610:Generated_Source\PSoC5/UART_tester.c **** 
 611:Generated_Source\PSoC5/UART_tester.c ****         return(rxData);
 417              		.loc 1 611 9 is_stmt 1 view .LVU85
 612:Generated_Source\PSoC5/UART_tester.c ****     }
 418              		.loc 1 612 5 is_stmt 0 view .LVU86
 419 001a 7047     		bx	lr
 420              	.L33:
 421              		.align	2
 422              	.L32:
 423 001c 69650040 		.word	1073767785
 424 0020 48650040 		.word	1073767752
 425              		.cfi_endproc
 426              	.LFE9:
 427              		.size	UART_tester_GetChar, .-UART_tester_GetChar
 428              		.section	.text.UART_tester_GetByte,"ax",%progbits
 429              		.align	1
 430              		.global	UART_tester_GetByte
 431              		.syntax unified
 432              		.thumb
 433              		.thumb_func
 434              		.fpu softvfp
 435              		.type	UART_tester_GetByte, %function
 436              	UART_tester_GetByte:
 437              	.LFB10:
 613:Generated_Source\PSoC5/UART_tester.c **** 
 614:Generated_Source\PSoC5/UART_tester.c **** 
 615:Generated_Source\PSoC5/UART_tester.c ****     /*******************************************************************************
 616:Generated_Source\PSoC5/UART_tester.c ****     * Function Name: UART_tester_GetByte
 617:Generated_Source\PSoC5/UART_tester.c ****     ********************************************************************************
 618:Generated_Source\PSoC5/UART_tester.c ****     *
 619:Generated_Source\PSoC5/UART_tester.c ****     * Summary:
 620:Generated_Source\PSoC5/UART_tester.c ****     *  Reads UART RX buffer immediately, returns received character and error
 621:Generated_Source\PSoC5/UART_tester.c ****     *  condition.
 622:Generated_Source\PSoC5/UART_tester.c ****     *
 623:Generated_Source\PSoC5/UART_tester.c ****     * Parameters:
 624:Generated_Source\PSoC5/UART_tester.c ****     *  None.
 625:Generated_Source\PSoC5/UART_tester.c ****     *
 626:Generated_Source\PSoC5/UART_tester.c ****     * Return:
 627:Generated_Source\PSoC5/UART_tester.c ****     *  MSB contains status and LSB contains UART RX data. If the MSB is nonzero,
 628:Generated_Source\PSoC5/UART_tester.c ****     *  an error has occurred.
 629:Generated_Source\PSoC5/UART_tester.c ****     *
 630:Generated_Source\PSoC5/UART_tester.c ****     * Reentrant:
 631:Generated_Source\PSoC5/UART_tester.c ****     *  No.
 632:Generated_Source\PSoC5/UART_tester.c ****     *
 633:Generated_Source\PSoC5/UART_tester.c ****     *******************************************************************************/
 634:Generated_Source\PSoC5/UART_tester.c ****     uint16 UART_tester_GetByte(void) 
 635:Generated_Source\PSoC5/UART_tester.c ****     {
 438              		.loc 1 635 5 is_stmt 1 view -0
 439              		.cfi_startproc
ARM GAS  C:\Users\jens-\AppData\Local\Temp\ccP7oHVf.s 			page 20


 440              		@ args = 0, pretend = 0, frame = 0
 441              		@ frame_needed = 0, uses_anonymous_args = 0
 442 0000 10B5     		push	{r4, lr}
 443              		.cfi_def_cfa_offset 8
 444              		.cfi_offset 4, -8
 445              		.cfi_offset 14, -4
 636:Generated_Source\PSoC5/UART_tester.c ****         
 637:Generated_Source\PSoC5/UART_tester.c ****     #if (UART_tester_RX_INTERRUPT_ENABLED)
 638:Generated_Source\PSoC5/UART_tester.c ****         uint16 locErrorStatus;
 639:Generated_Source\PSoC5/UART_tester.c ****         /* Protect variables that could change on interrupt */
 640:Generated_Source\PSoC5/UART_tester.c ****         UART_tester_DisableRxInt();
 641:Generated_Source\PSoC5/UART_tester.c ****         locErrorStatus = (uint16)UART_tester_errorStatus;
 642:Generated_Source\PSoC5/UART_tester.c ****         UART_tester_errorStatus = 0u;
 643:Generated_Source\PSoC5/UART_tester.c ****         UART_tester_EnableRxInt();
 644:Generated_Source\PSoC5/UART_tester.c ****         return ( (uint16)(locErrorStatus << 8u) | UART_tester_ReadRxData() );
 645:Generated_Source\PSoC5/UART_tester.c ****     #else
 646:Generated_Source\PSoC5/UART_tester.c ****         return ( ((uint16)UART_tester_ReadRxStatus() << 8u) | UART_tester_ReadRxData() );
 446              		.loc 1 646 9 view .LVU88
 447              		.loc 1 646 27 is_stmt 0 view .LVU89
 448 0002 FFF7FEFF 		bl	UART_tester_ReadRxStatus
 449              	.LVL21:
 450              		.loc 1 646 54 view .LVU90
 451 0006 0402     		lsls	r4, r0, #8
 452              		.loc 1 646 63 view .LVU91
 453 0008 FFF7FEFF 		bl	UART_tester_ReadRxData
 454              	.LVL22:
 455 000c 00B2     		sxth	r0, r0
 456              		.loc 1 646 61 view .LVU92
 457 000e 2043     		orrs	r0, r0, r4
 647:Generated_Source\PSoC5/UART_tester.c ****     #endif /* UART_tester_RX_INTERRUPT_ENABLED */
 648:Generated_Source\PSoC5/UART_tester.c ****         
 649:Generated_Source\PSoC5/UART_tester.c ****     }
 458              		.loc 1 649 5 view .LVU93
 459 0010 80B2     		uxth	r0, r0
 460 0012 10BD     		pop	{r4, pc}
 461              		.cfi_endproc
 462              	.LFE10:
 463              		.size	UART_tester_GetByte, .-UART_tester_GetByte
 464              		.section	.text.UART_tester_GetRxBufferSize,"ax",%progbits
 465              		.align	1
 466              		.global	UART_tester_GetRxBufferSize
 467              		.syntax unified
 468              		.thumb
 469              		.thumb_func
 470              		.fpu softvfp
 471              		.type	UART_tester_GetRxBufferSize, %function
 472              	UART_tester_GetRxBufferSize:
 473              	.LFB11:
 650:Generated_Source\PSoC5/UART_tester.c **** 
 651:Generated_Source\PSoC5/UART_tester.c **** 
 652:Generated_Source\PSoC5/UART_tester.c ****     /*******************************************************************************
 653:Generated_Source\PSoC5/UART_tester.c ****     * Function Name: UART_tester_GetRxBufferSize
 654:Generated_Source\PSoC5/UART_tester.c ****     ********************************************************************************
 655:Generated_Source\PSoC5/UART_tester.c ****     *
 656:Generated_Source\PSoC5/UART_tester.c ****     * Summary:
 657:Generated_Source\PSoC5/UART_tester.c ****     *  Returns the number of received bytes available in the RX buffer.
 658:Generated_Source\PSoC5/UART_tester.c ****     *  * RX software buffer is disabled (RX Buffer Size parameter is equal to 4): 
ARM GAS  C:\Users\jens-\AppData\Local\Temp\ccP7oHVf.s 			page 21


 659:Generated_Source\PSoC5/UART_tester.c ****     *    returns 0 for empty RX FIFO or 1 for not empty RX FIFO.
 660:Generated_Source\PSoC5/UART_tester.c ****     *  * RX software buffer is enabled: returns the number of bytes available in 
 661:Generated_Source\PSoC5/UART_tester.c ****     *    the RX software buffer. Bytes available in the RX FIFO do not take to 
 662:Generated_Source\PSoC5/UART_tester.c ****     *    account.
 663:Generated_Source\PSoC5/UART_tester.c ****     *
 664:Generated_Source\PSoC5/UART_tester.c ****     * Parameters:
 665:Generated_Source\PSoC5/UART_tester.c ****     *  None.
 666:Generated_Source\PSoC5/UART_tester.c ****     *
 667:Generated_Source\PSoC5/UART_tester.c ****     * Return:
 668:Generated_Source\PSoC5/UART_tester.c ****     *  uint8: Number of bytes in the RX buffer. 
 669:Generated_Source\PSoC5/UART_tester.c ****     *    Return value type depends on RX Buffer Size parameter.
 670:Generated_Source\PSoC5/UART_tester.c ****     *
 671:Generated_Source\PSoC5/UART_tester.c ****     * Global Variables:
 672:Generated_Source\PSoC5/UART_tester.c ****     *  UART_tester_rxBufferWrite - used to calculate left bytes.
 673:Generated_Source\PSoC5/UART_tester.c ****     *  UART_tester_rxBufferRead - used to calculate left bytes.
 674:Generated_Source\PSoC5/UART_tester.c ****     *  UART_tester_rxBufferLoopDetect - checked to decide left bytes amount.
 675:Generated_Source\PSoC5/UART_tester.c ****     *
 676:Generated_Source\PSoC5/UART_tester.c ****     * Reentrant:
 677:Generated_Source\PSoC5/UART_tester.c ****     *  No.
 678:Generated_Source\PSoC5/UART_tester.c ****     *
 679:Generated_Source\PSoC5/UART_tester.c ****     * Theory:
 680:Generated_Source\PSoC5/UART_tester.c ****     *  Allows the user to find out how full the RX Buffer is.
 681:Generated_Source\PSoC5/UART_tester.c ****     *
 682:Generated_Source\PSoC5/UART_tester.c ****     *******************************************************************************/
 683:Generated_Source\PSoC5/UART_tester.c ****     uint8 UART_tester_GetRxBufferSize(void)
 684:Generated_Source\PSoC5/UART_tester.c ****                                                             
 685:Generated_Source\PSoC5/UART_tester.c ****     {
 474              		.loc 1 685 5 is_stmt 1 view -0
 475              		.cfi_startproc
 476              		@ args = 0, pretend = 0, frame = 0
 477              		@ frame_needed = 0, uses_anonymous_args = 0
 478              		@ link register save eliminated.
 686:Generated_Source\PSoC5/UART_tester.c ****         uint8 size;
 479              		.loc 1 686 9 view .LVU95
 687:Generated_Source\PSoC5/UART_tester.c **** 
 688:Generated_Source\PSoC5/UART_tester.c ****     #if (UART_tester_RX_INTERRUPT_ENABLED)
 689:Generated_Source\PSoC5/UART_tester.c **** 
 690:Generated_Source\PSoC5/UART_tester.c ****         /* Protect variables that could change on interrupt */
 691:Generated_Source\PSoC5/UART_tester.c ****         UART_tester_DisableRxInt();
 692:Generated_Source\PSoC5/UART_tester.c **** 
 693:Generated_Source\PSoC5/UART_tester.c ****         if(UART_tester_rxBufferRead == UART_tester_rxBufferWrite)
 694:Generated_Source\PSoC5/UART_tester.c ****         {
 695:Generated_Source\PSoC5/UART_tester.c ****             if(UART_tester_rxBufferLoopDetect != 0u)
 696:Generated_Source\PSoC5/UART_tester.c ****             {
 697:Generated_Source\PSoC5/UART_tester.c ****                 size = UART_tester_RX_BUFFER_SIZE;
 698:Generated_Source\PSoC5/UART_tester.c ****             }
 699:Generated_Source\PSoC5/UART_tester.c ****             else
 700:Generated_Source\PSoC5/UART_tester.c ****             {
 701:Generated_Source\PSoC5/UART_tester.c ****                 size = 0u;
 702:Generated_Source\PSoC5/UART_tester.c ****             }
 703:Generated_Source\PSoC5/UART_tester.c ****         }
 704:Generated_Source\PSoC5/UART_tester.c ****         else if(UART_tester_rxBufferRead < UART_tester_rxBufferWrite)
 705:Generated_Source\PSoC5/UART_tester.c ****         {
 706:Generated_Source\PSoC5/UART_tester.c ****             size = (UART_tester_rxBufferWrite - UART_tester_rxBufferRead);
 707:Generated_Source\PSoC5/UART_tester.c ****         }
 708:Generated_Source\PSoC5/UART_tester.c ****         else
 709:Generated_Source\PSoC5/UART_tester.c ****         {
ARM GAS  C:\Users\jens-\AppData\Local\Temp\ccP7oHVf.s 			page 22


 710:Generated_Source\PSoC5/UART_tester.c ****             size = (UART_tester_RX_BUFFER_SIZE - UART_tester_rxBufferRead) + UART_tester_rxBufferWr
 711:Generated_Source\PSoC5/UART_tester.c ****         }
 712:Generated_Source\PSoC5/UART_tester.c **** 
 713:Generated_Source\PSoC5/UART_tester.c ****         UART_tester_EnableRxInt();
 714:Generated_Source\PSoC5/UART_tester.c **** 
 715:Generated_Source\PSoC5/UART_tester.c ****     #else
 716:Generated_Source\PSoC5/UART_tester.c **** 
 717:Generated_Source\PSoC5/UART_tester.c ****         /* We can only know if there is data in the fifo. */
 718:Generated_Source\PSoC5/UART_tester.c ****         size = ((UART_tester_RXSTATUS_REG & UART_tester_RX_STS_FIFO_NOTEMPTY) != 0u) ? 1u : 0u;
 480              		.loc 1 718 9 view .LVU96
 481              		.loc 1 718 18 is_stmt 0 view .LVU97
 482 0000 034B     		ldr	r3, .L38
 483 0002 1878     		ldrb	r0, [r3]	@ zero_extendqisi2
 484              		.loc 1 718 14 view .LVU98
 485 0004 10F02000 		ands	r0, r0, #32
 486 0008 00D0     		beq	.L37
 487 000a 0120     		movs	r0, #1
 488              	.L37:
 489              	.LVL23:
 719:Generated_Source\PSoC5/UART_tester.c **** 
 720:Generated_Source\PSoC5/UART_tester.c ****     #endif /* (UART_tester_RX_INTERRUPT_ENABLED) */
 721:Generated_Source\PSoC5/UART_tester.c **** 
 722:Generated_Source\PSoC5/UART_tester.c ****         return(size);
 490              		.loc 1 722 9 is_stmt 1 discriminator 4 view .LVU99
 723:Generated_Source\PSoC5/UART_tester.c ****     }
 491              		.loc 1 723 5 is_stmt 0 discriminator 4 view .LVU100
 492 000c 7047     		bx	lr
 493              	.L39:
 494 000e 00BF     		.align	2
 495              	.L38:
 496 0010 69650040 		.word	1073767785
 497              		.cfi_endproc
 498              	.LFE11:
 499              		.size	UART_tester_GetRxBufferSize, .-UART_tester_GetRxBufferSize
 500              		.section	.text.UART_tester_ClearRxBuffer,"ax",%progbits
 501              		.align	1
 502              		.global	UART_tester_ClearRxBuffer
 503              		.syntax unified
 504              		.thumb
 505              		.thumb_func
 506              		.fpu softvfp
 507              		.type	UART_tester_ClearRxBuffer, %function
 508              	UART_tester_ClearRxBuffer:
 509              	.LFB12:
 724:Generated_Source\PSoC5/UART_tester.c **** 
 725:Generated_Source\PSoC5/UART_tester.c **** 
 726:Generated_Source\PSoC5/UART_tester.c ****     /*******************************************************************************
 727:Generated_Source\PSoC5/UART_tester.c ****     * Function Name: UART_tester_ClearRxBuffer
 728:Generated_Source\PSoC5/UART_tester.c ****     ********************************************************************************
 729:Generated_Source\PSoC5/UART_tester.c ****     *
 730:Generated_Source\PSoC5/UART_tester.c ****     * Summary:
 731:Generated_Source\PSoC5/UART_tester.c ****     *  Clears the receiver memory buffer and hardware RX FIFO of all received data.
 732:Generated_Source\PSoC5/UART_tester.c ****     *
 733:Generated_Source\PSoC5/UART_tester.c ****     * Parameters:
 734:Generated_Source\PSoC5/UART_tester.c ****     *  None.
 735:Generated_Source\PSoC5/UART_tester.c ****     *
 736:Generated_Source\PSoC5/UART_tester.c ****     * Return:
ARM GAS  C:\Users\jens-\AppData\Local\Temp\ccP7oHVf.s 			page 23


 737:Generated_Source\PSoC5/UART_tester.c ****     *  None.
 738:Generated_Source\PSoC5/UART_tester.c ****     *
 739:Generated_Source\PSoC5/UART_tester.c ****     * Global Variables:
 740:Generated_Source\PSoC5/UART_tester.c ****     *  UART_tester_rxBufferWrite - cleared to zero.
 741:Generated_Source\PSoC5/UART_tester.c ****     *  UART_tester_rxBufferRead - cleared to zero.
 742:Generated_Source\PSoC5/UART_tester.c ****     *  UART_tester_rxBufferLoopDetect - cleared to zero.
 743:Generated_Source\PSoC5/UART_tester.c ****     *  UART_tester_rxBufferOverflow - cleared to zero.
 744:Generated_Source\PSoC5/UART_tester.c ****     *
 745:Generated_Source\PSoC5/UART_tester.c ****     * Reentrant:
 746:Generated_Source\PSoC5/UART_tester.c ****     *  No.
 747:Generated_Source\PSoC5/UART_tester.c ****     *
 748:Generated_Source\PSoC5/UART_tester.c ****     * Theory:
 749:Generated_Source\PSoC5/UART_tester.c ****     *  Setting the pointers to zero makes the system believe there is no data to
 750:Generated_Source\PSoC5/UART_tester.c ****     *  read and writing will resume at address 0 overwriting any data that may
 751:Generated_Source\PSoC5/UART_tester.c ****     *  have remained in the RAM.
 752:Generated_Source\PSoC5/UART_tester.c ****     *
 753:Generated_Source\PSoC5/UART_tester.c ****     * Side Effects:
 754:Generated_Source\PSoC5/UART_tester.c ****     *  Any received data not read from the RAM or FIFO buffer will be lost.
 755:Generated_Source\PSoC5/UART_tester.c ****     *
 756:Generated_Source\PSoC5/UART_tester.c ****     *******************************************************************************/
 757:Generated_Source\PSoC5/UART_tester.c ****     void UART_tester_ClearRxBuffer(void) 
 758:Generated_Source\PSoC5/UART_tester.c ****     {
 510              		.loc 1 758 5 is_stmt 1 view -0
 511              		.cfi_startproc
 512              		@ args = 0, pretend = 0, frame = 0
 513              		@ frame_needed = 0, uses_anonymous_args = 0
 514 0000 08B5     		push	{r3, lr}
 515              		.cfi_def_cfa_offset 8
 516              		.cfi_offset 3, -8
 517              		.cfi_offset 14, -4
 759:Generated_Source\PSoC5/UART_tester.c ****         uint8 enableInterrupts;
 518              		.loc 1 759 9 view .LVU102
 760:Generated_Source\PSoC5/UART_tester.c **** 
 761:Generated_Source\PSoC5/UART_tester.c ****         /* Clear the HW FIFO */
 762:Generated_Source\PSoC5/UART_tester.c ****         enableInterrupts = CyEnterCriticalSection();
 519              		.loc 1 762 9 view .LVU103
 520              		.loc 1 762 28 is_stmt 0 view .LVU104
 521 0002 FFF7FEFF 		bl	CyEnterCriticalSection
 522              	.LVL24:
 763:Generated_Source\PSoC5/UART_tester.c ****         UART_tester_RXDATA_AUX_CTL_REG |= (uint8)  UART_tester_RX_FIFO_CLR;
 523              		.loc 1 763 9 is_stmt 1 view .LVU105
 524              		.loc 1 763 40 is_stmt 0 view .LVU106
 525 0006 064B     		ldr	r3, .L42
 526 0008 1A78     		ldrb	r2, [r3]	@ zero_extendqisi2
 527 000a 42F00102 		orr	r2, r2, #1
 528 000e 1A70     		strb	r2, [r3]
 764:Generated_Source\PSoC5/UART_tester.c ****         UART_tester_RXDATA_AUX_CTL_REG &= (uint8) ~UART_tester_RX_FIFO_CLR;
 529              		.loc 1 764 9 is_stmt 1 view .LVU107
 530              		.loc 1 764 40 is_stmt 0 view .LVU108
 531 0010 1A78     		ldrb	r2, [r3]	@ zero_extendqisi2
 532 0012 02F0FE02 		and	r2, r2, #254
 533 0016 1A70     		strb	r2, [r3]
 765:Generated_Source\PSoC5/UART_tester.c ****         CyExitCriticalSection(enableInterrupts);
 534              		.loc 1 765 9 is_stmt 1 view .LVU109
 535 0018 FFF7FEFF 		bl	CyExitCriticalSection
 536              	.LVL25:
 766:Generated_Source\PSoC5/UART_tester.c **** 
ARM GAS  C:\Users\jens-\AppData\Local\Temp\ccP7oHVf.s 			page 24


 767:Generated_Source\PSoC5/UART_tester.c ****     #if (UART_tester_RX_INTERRUPT_ENABLED)
 768:Generated_Source\PSoC5/UART_tester.c **** 
 769:Generated_Source\PSoC5/UART_tester.c ****         /* Protect variables that could change on interrupt. */
 770:Generated_Source\PSoC5/UART_tester.c ****         UART_tester_DisableRxInt();
 771:Generated_Source\PSoC5/UART_tester.c **** 
 772:Generated_Source\PSoC5/UART_tester.c ****         UART_tester_rxBufferRead = 0u;
 773:Generated_Source\PSoC5/UART_tester.c ****         UART_tester_rxBufferWrite = 0u;
 774:Generated_Source\PSoC5/UART_tester.c ****         UART_tester_rxBufferLoopDetect = 0u;
 775:Generated_Source\PSoC5/UART_tester.c ****         UART_tester_rxBufferOverflow = 0u;
 776:Generated_Source\PSoC5/UART_tester.c **** 
 777:Generated_Source\PSoC5/UART_tester.c ****         UART_tester_EnableRxInt();
 778:Generated_Source\PSoC5/UART_tester.c **** 
 779:Generated_Source\PSoC5/UART_tester.c ****     #endif /* (UART_tester_RX_INTERRUPT_ENABLED) */
 780:Generated_Source\PSoC5/UART_tester.c **** 
 781:Generated_Source\PSoC5/UART_tester.c ****     }
 537              		.loc 1 781 5 is_stmt 0 view .LVU110
 538 001c 08BD     		pop	{r3, pc}
 539              	.L43:
 540 001e 00BF     		.align	2
 541              	.L42:
 542 0020 98650040 		.word	1073767832
 543              		.cfi_endproc
 544              	.LFE12:
 545              		.size	UART_tester_ClearRxBuffer, .-UART_tester_ClearRxBuffer
 546              		.section	.text.UART_tester_SetRxAddressMode,"ax",%progbits
 547              		.align	1
 548              		.global	UART_tester_SetRxAddressMode
 549              		.syntax unified
 550              		.thumb
 551              		.thumb_func
 552              		.fpu softvfp
 553              		.type	UART_tester_SetRxAddressMode, %function
 554              	UART_tester_SetRxAddressMode:
 555              	.LVL26:
 556              	.LFB13:
 782:Generated_Source\PSoC5/UART_tester.c **** 
 783:Generated_Source\PSoC5/UART_tester.c **** 
 784:Generated_Source\PSoC5/UART_tester.c ****     /*******************************************************************************
 785:Generated_Source\PSoC5/UART_tester.c ****     * Function Name: UART_tester_SetRxAddressMode
 786:Generated_Source\PSoC5/UART_tester.c ****     ********************************************************************************
 787:Generated_Source\PSoC5/UART_tester.c ****     *
 788:Generated_Source\PSoC5/UART_tester.c ****     * Summary:
 789:Generated_Source\PSoC5/UART_tester.c ****     *  Sets the software controlled Addressing mode used by the RX portion of the
 790:Generated_Source\PSoC5/UART_tester.c ****     *  UART.
 791:Generated_Source\PSoC5/UART_tester.c ****     *
 792:Generated_Source\PSoC5/UART_tester.c ****     * Parameters:
 793:Generated_Source\PSoC5/UART_tester.c ****     *  addressMode: Enumerated value indicating the mode of RX addressing
 794:Generated_Source\PSoC5/UART_tester.c ****     *  UART_tester__B_UART__AM_SW_BYTE_BYTE -  Software Byte-by-Byte address
 795:Generated_Source\PSoC5/UART_tester.c ****     *                                               detection
 796:Generated_Source\PSoC5/UART_tester.c ****     *  UART_tester__B_UART__AM_SW_DETECT_TO_BUFFER - Software Detect to Buffer
 797:Generated_Source\PSoC5/UART_tester.c ****     *                                               address detection
 798:Generated_Source\PSoC5/UART_tester.c ****     *  UART_tester__B_UART__AM_HW_BYTE_BY_BYTE - Hardware Byte-by-Byte address
 799:Generated_Source\PSoC5/UART_tester.c ****     *                                               detection
 800:Generated_Source\PSoC5/UART_tester.c ****     *  UART_tester__B_UART__AM_HW_DETECT_TO_BUFFER - Hardware Detect to Buffer
 801:Generated_Source\PSoC5/UART_tester.c ****     *                                               address detection
 802:Generated_Source\PSoC5/UART_tester.c ****     *  UART_tester__B_UART__AM_NONE - No address detection
 803:Generated_Source\PSoC5/UART_tester.c ****     *
ARM GAS  C:\Users\jens-\AppData\Local\Temp\ccP7oHVf.s 			page 25


 804:Generated_Source\PSoC5/UART_tester.c ****     * Return:
 805:Generated_Source\PSoC5/UART_tester.c ****     *  None.
 806:Generated_Source\PSoC5/UART_tester.c ****     *
 807:Generated_Source\PSoC5/UART_tester.c ****     * Global Variables:
 808:Generated_Source\PSoC5/UART_tester.c ****     *  UART_tester_rxAddressMode - the parameter stored in this variable for
 809:Generated_Source\PSoC5/UART_tester.c ****     *   the farther usage in RX ISR.
 810:Generated_Source\PSoC5/UART_tester.c ****     *  UART_tester_rxAddressDetected - set to initial state (0).
 811:Generated_Source\PSoC5/UART_tester.c ****     *
 812:Generated_Source\PSoC5/UART_tester.c ****     *******************************************************************************/
 813:Generated_Source\PSoC5/UART_tester.c ****     void UART_tester_SetRxAddressMode(uint8 addressMode)
 814:Generated_Source\PSoC5/UART_tester.c ****                                                         
 815:Generated_Source\PSoC5/UART_tester.c ****     {
 557              		.loc 1 815 5 is_stmt 1 view -0
 558              		.cfi_startproc
 559              		@ args = 0, pretend = 0, frame = 0
 560              		@ frame_needed = 0, uses_anonymous_args = 0
 561              		@ link register save eliminated.
 816:Generated_Source\PSoC5/UART_tester.c ****         #if(UART_tester_RXHW_ADDRESS_ENABLED)
 817:Generated_Source\PSoC5/UART_tester.c ****             #if(UART_tester_CONTROL_REG_REMOVED)
 818:Generated_Source\PSoC5/UART_tester.c ****                 if(0u != addressMode)
 819:Generated_Source\PSoC5/UART_tester.c ****                 {
 820:Generated_Source\PSoC5/UART_tester.c ****                     /* Suppress compiler warning */
 821:Generated_Source\PSoC5/UART_tester.c ****                 }
 822:Generated_Source\PSoC5/UART_tester.c ****             #else /* UART_tester_CONTROL_REG_REMOVED */
 823:Generated_Source\PSoC5/UART_tester.c ****                 uint8 tmpCtrl;
 824:Generated_Source\PSoC5/UART_tester.c ****                 tmpCtrl = UART_tester_CONTROL_REG & (uint8)~UART_tester_CTRL_RXADDR_MODE_MASK;
 825:Generated_Source\PSoC5/UART_tester.c ****                 tmpCtrl |= (uint8)(addressMode << UART_tester_CTRL_RXADDR_MODE0_SHIFT);
 826:Generated_Source\PSoC5/UART_tester.c ****                 UART_tester_CONTROL_REG = tmpCtrl;
 827:Generated_Source\PSoC5/UART_tester.c **** 
 828:Generated_Source\PSoC5/UART_tester.c ****                 #if(UART_tester_RX_INTERRUPT_ENABLED && \
 829:Generated_Source\PSoC5/UART_tester.c ****                    (UART_tester_RXBUFFERSIZE > UART_tester_FIFO_LENGTH) )
 830:Generated_Source\PSoC5/UART_tester.c ****                     UART_tester_rxAddressMode = addressMode;
 831:Generated_Source\PSoC5/UART_tester.c ****                     UART_tester_rxAddressDetected = 0u;
 832:Generated_Source\PSoC5/UART_tester.c ****                 #endif /* End UART_tester_RXBUFFERSIZE > UART_tester_FIFO_LENGTH*/
 833:Generated_Source\PSoC5/UART_tester.c ****             #endif /* End UART_tester_CONTROL_REG_REMOVED */
 834:Generated_Source\PSoC5/UART_tester.c ****         #else /* UART_tester_RXHW_ADDRESS_ENABLED */
 835:Generated_Source\PSoC5/UART_tester.c ****             if(0u != addressMode)
 562              		.loc 1 835 13 view .LVU112
 836:Generated_Source\PSoC5/UART_tester.c ****             {
 837:Generated_Source\PSoC5/UART_tester.c ****                 /* Suppress compiler warning */
 838:Generated_Source\PSoC5/UART_tester.c ****             }
 563              		.loc 1 838 13 view .LVU113
 839:Generated_Source\PSoC5/UART_tester.c ****         #endif /* End UART_tester_RXHW_ADDRESS_ENABLED */
 840:Generated_Source\PSoC5/UART_tester.c ****     }
 564              		.loc 1 840 5 is_stmt 0 view .LVU114
 565 0000 7047     		bx	lr
 566              		.cfi_endproc
 567              	.LFE13:
 568              		.size	UART_tester_SetRxAddressMode, .-UART_tester_SetRxAddressMode
 569              		.section	.text.UART_tester_SetRxAddress1,"ax",%progbits
 570              		.align	1
 571              		.global	UART_tester_SetRxAddress1
 572              		.syntax unified
 573              		.thumb
 574              		.thumb_func
 575              		.fpu softvfp
 576              		.type	UART_tester_SetRxAddress1, %function
ARM GAS  C:\Users\jens-\AppData\Local\Temp\ccP7oHVf.s 			page 26


 577              	UART_tester_SetRxAddress1:
 578              	.LVL27:
 579              	.LFB14:
 841:Generated_Source\PSoC5/UART_tester.c **** 
 842:Generated_Source\PSoC5/UART_tester.c **** 
 843:Generated_Source\PSoC5/UART_tester.c ****     /*******************************************************************************
 844:Generated_Source\PSoC5/UART_tester.c ****     * Function Name: UART_tester_SetRxAddress1
 845:Generated_Source\PSoC5/UART_tester.c ****     ********************************************************************************
 846:Generated_Source\PSoC5/UART_tester.c ****     *
 847:Generated_Source\PSoC5/UART_tester.c ****     * Summary:
 848:Generated_Source\PSoC5/UART_tester.c ****     *  Sets the first of two hardware-detectable receiver addresses.
 849:Generated_Source\PSoC5/UART_tester.c ****     *
 850:Generated_Source\PSoC5/UART_tester.c ****     * Parameters:
 851:Generated_Source\PSoC5/UART_tester.c ****     *  address: Address #1 for hardware address detection.
 852:Generated_Source\PSoC5/UART_tester.c ****     *
 853:Generated_Source\PSoC5/UART_tester.c ****     * Return:
 854:Generated_Source\PSoC5/UART_tester.c ****     *  None.
 855:Generated_Source\PSoC5/UART_tester.c ****     *
 856:Generated_Source\PSoC5/UART_tester.c ****     *******************************************************************************/
 857:Generated_Source\PSoC5/UART_tester.c ****     void UART_tester_SetRxAddress1(uint8 address) 
 858:Generated_Source\PSoC5/UART_tester.c ****     {
 580              		.loc 1 858 5 is_stmt 1 view -0
 581              		.cfi_startproc
 582              		@ args = 0, pretend = 0, frame = 0
 583              		@ frame_needed = 0, uses_anonymous_args = 0
 584              		@ link register save eliminated.
 859:Generated_Source\PSoC5/UART_tester.c ****         UART_tester_RXADDRESS1_REG = address;
 585              		.loc 1 859 9 view .LVU116
 586              		.loc 1 859 36 is_stmt 0 view .LVU117
 587 0000 014B     		ldr	r3, .L46
 588 0002 1870     		strb	r0, [r3]
 860:Generated_Source\PSoC5/UART_tester.c ****     }
 589              		.loc 1 860 5 view .LVU118
 590 0004 7047     		bx	lr
 591              	.L47:
 592 0006 00BF     		.align	2
 593              	.L46:
 594 0008 28650040 		.word	1073767720
 595              		.cfi_endproc
 596              	.LFE14:
 597              		.size	UART_tester_SetRxAddress1, .-UART_tester_SetRxAddress1
 598              		.section	.text.UART_tester_SetRxAddress2,"ax",%progbits
 599              		.align	1
 600              		.global	UART_tester_SetRxAddress2
 601              		.syntax unified
 602              		.thumb
 603              		.thumb_func
 604              		.fpu softvfp
 605              		.type	UART_tester_SetRxAddress2, %function
 606              	UART_tester_SetRxAddress2:
 607              	.LVL28:
 608              	.LFB15:
 861:Generated_Source\PSoC5/UART_tester.c **** 
 862:Generated_Source\PSoC5/UART_tester.c **** 
 863:Generated_Source\PSoC5/UART_tester.c ****     /*******************************************************************************
 864:Generated_Source\PSoC5/UART_tester.c ****     * Function Name: UART_tester_SetRxAddress2
 865:Generated_Source\PSoC5/UART_tester.c ****     ********************************************************************************
ARM GAS  C:\Users\jens-\AppData\Local\Temp\ccP7oHVf.s 			page 27


 866:Generated_Source\PSoC5/UART_tester.c ****     *
 867:Generated_Source\PSoC5/UART_tester.c ****     * Summary:
 868:Generated_Source\PSoC5/UART_tester.c ****     *  Sets the second of two hardware-detectable receiver addresses.
 869:Generated_Source\PSoC5/UART_tester.c ****     *
 870:Generated_Source\PSoC5/UART_tester.c ****     * Parameters:
 871:Generated_Source\PSoC5/UART_tester.c ****     *  address: Address #2 for hardware address detection.
 872:Generated_Source\PSoC5/UART_tester.c ****     *
 873:Generated_Source\PSoC5/UART_tester.c ****     * Return:
 874:Generated_Source\PSoC5/UART_tester.c ****     *  None.
 875:Generated_Source\PSoC5/UART_tester.c ****     *
 876:Generated_Source\PSoC5/UART_tester.c ****     *******************************************************************************/
 877:Generated_Source\PSoC5/UART_tester.c ****     void UART_tester_SetRxAddress2(uint8 address) 
 878:Generated_Source\PSoC5/UART_tester.c ****     {
 609              		.loc 1 878 5 is_stmt 1 view -0
 610              		.cfi_startproc
 611              		@ args = 0, pretend = 0, frame = 0
 612              		@ frame_needed = 0, uses_anonymous_args = 0
 613              		@ link register save eliminated.
 879:Generated_Source\PSoC5/UART_tester.c ****         UART_tester_RXADDRESS2_REG = address;
 614              		.loc 1 879 9 view .LVU120
 615              		.loc 1 879 36 is_stmt 0 view .LVU121
 616 0000 014B     		ldr	r3, .L49
 617 0002 1870     		strb	r0, [r3]
 880:Generated_Source\PSoC5/UART_tester.c ****     }
 618              		.loc 1 880 5 view .LVU122
 619 0004 7047     		bx	lr
 620              	.L50:
 621 0006 00BF     		.align	2
 622              	.L49:
 623 0008 38650040 		.word	1073767736
 624              		.cfi_endproc
 625              	.LFE15:
 626              		.size	UART_tester_SetRxAddress2, .-UART_tester_SetRxAddress2
 627              		.section	.text.UART_tester_SetTxInterruptMode,"ax",%progbits
 628              		.align	1
 629              		.global	UART_tester_SetTxInterruptMode
 630              		.syntax unified
 631              		.thumb
 632              		.thumb_func
 633              		.fpu softvfp
 634              		.type	UART_tester_SetTxInterruptMode, %function
 635              	UART_tester_SetTxInterruptMode:
 636              	.LVL29:
 637              	.LFB16:
 881:Generated_Source\PSoC5/UART_tester.c **** 
 882:Generated_Source\PSoC5/UART_tester.c **** #endif  /* UART_tester_RX_ENABLED || UART_tester_HD_ENABLED*/
 883:Generated_Source\PSoC5/UART_tester.c **** 
 884:Generated_Source\PSoC5/UART_tester.c **** 
 885:Generated_Source\PSoC5/UART_tester.c **** #if( (UART_tester_TX_ENABLED) || (UART_tester_HD_ENABLED) )
 886:Generated_Source\PSoC5/UART_tester.c ****     /*******************************************************************************
 887:Generated_Source\PSoC5/UART_tester.c ****     * Function Name: UART_tester_SetTxInterruptMode
 888:Generated_Source\PSoC5/UART_tester.c ****     ********************************************************************************
 889:Generated_Source\PSoC5/UART_tester.c ****     *
 890:Generated_Source\PSoC5/UART_tester.c ****     * Summary:
 891:Generated_Source\PSoC5/UART_tester.c ****     *  Configures the TX interrupt sources to be enabled, but does not enable the
 892:Generated_Source\PSoC5/UART_tester.c ****     *  interrupt.
 893:Generated_Source\PSoC5/UART_tester.c ****     *
ARM GAS  C:\Users\jens-\AppData\Local\Temp\ccP7oHVf.s 			page 28


 894:Generated_Source\PSoC5/UART_tester.c ****     * Parameters:
 895:Generated_Source\PSoC5/UART_tester.c ****     *  intSrc: Bit field containing the TX interrupt sources to enable
 896:Generated_Source\PSoC5/UART_tester.c ****     *   UART_tester_TX_STS_COMPLETE        Interrupt on TX byte complete
 897:Generated_Source\PSoC5/UART_tester.c ****     *   UART_tester_TX_STS_FIFO_EMPTY      Interrupt when TX FIFO is empty
 898:Generated_Source\PSoC5/UART_tester.c ****     *   UART_tester_TX_STS_FIFO_FULL       Interrupt when TX FIFO is full
 899:Generated_Source\PSoC5/UART_tester.c ****     *   UART_tester_TX_STS_FIFO_NOT_FULL   Interrupt when TX FIFO is not full
 900:Generated_Source\PSoC5/UART_tester.c ****     *
 901:Generated_Source\PSoC5/UART_tester.c ****     * Return:
 902:Generated_Source\PSoC5/UART_tester.c ****     *  None.
 903:Generated_Source\PSoC5/UART_tester.c ****     *
 904:Generated_Source\PSoC5/UART_tester.c ****     * Theory:
 905:Generated_Source\PSoC5/UART_tester.c ****     *  Enables the output of specific status bits to the interrupt controller
 906:Generated_Source\PSoC5/UART_tester.c ****     *
 907:Generated_Source\PSoC5/UART_tester.c ****     *******************************************************************************/
 908:Generated_Source\PSoC5/UART_tester.c ****     void UART_tester_SetTxInterruptMode(uint8 intSrc) 
 909:Generated_Source\PSoC5/UART_tester.c ****     {
 638              		.loc 1 909 5 is_stmt 1 view -0
 639              		.cfi_startproc
 640              		@ args = 0, pretend = 0, frame = 0
 641              		@ frame_needed = 0, uses_anonymous_args = 0
 642              		@ link register save eliminated.
 910:Generated_Source\PSoC5/UART_tester.c ****         UART_tester_TXSTATUS_MASK_REG = intSrc;
 643              		.loc 1 910 9 view .LVU124
 644              		.loc 1 910 39 is_stmt 0 view .LVU125
 645 0000 014B     		ldr	r3, .L52
 646 0002 1870     		strb	r0, [r3]
 911:Generated_Source\PSoC5/UART_tester.c ****     }
 647              		.loc 1 911 5 view .LVU126
 648 0004 7047     		bx	lr
 649              	.L53:
 650 0006 00BF     		.align	2
 651              	.L52:
 652 0008 8B650040 		.word	1073767819
 653              		.cfi_endproc
 654              	.LFE16:
 655              		.size	UART_tester_SetTxInterruptMode, .-UART_tester_SetTxInterruptMode
 656              		.section	.text.UART_tester_WriteTxData,"ax",%progbits
 657              		.align	1
 658              		.global	UART_tester_WriteTxData
 659              		.syntax unified
 660              		.thumb
 661              		.thumb_func
 662              		.fpu softvfp
 663              		.type	UART_tester_WriteTxData, %function
 664              	UART_tester_WriteTxData:
 665              	.LVL30:
 666              	.LFB17:
 912:Generated_Source\PSoC5/UART_tester.c **** 
 913:Generated_Source\PSoC5/UART_tester.c **** 
 914:Generated_Source\PSoC5/UART_tester.c ****     /*******************************************************************************
 915:Generated_Source\PSoC5/UART_tester.c ****     * Function Name: UART_tester_WriteTxData
 916:Generated_Source\PSoC5/UART_tester.c ****     ********************************************************************************
 917:Generated_Source\PSoC5/UART_tester.c ****     *
 918:Generated_Source\PSoC5/UART_tester.c ****     * Summary:
 919:Generated_Source\PSoC5/UART_tester.c ****     *  Places a byte of data into the transmit buffer to be sent when the bus is
 920:Generated_Source\PSoC5/UART_tester.c ****     *  available without checking the TX status register. You must check status
 921:Generated_Source\PSoC5/UART_tester.c ****     *  separately.
ARM GAS  C:\Users\jens-\AppData\Local\Temp\ccP7oHVf.s 			page 29


 922:Generated_Source\PSoC5/UART_tester.c ****     *
 923:Generated_Source\PSoC5/UART_tester.c ****     * Parameters:
 924:Generated_Source\PSoC5/UART_tester.c ****     *  txDataByte: data byte
 925:Generated_Source\PSoC5/UART_tester.c ****     *
 926:Generated_Source\PSoC5/UART_tester.c ****     * Return:
 927:Generated_Source\PSoC5/UART_tester.c ****     * None.
 928:Generated_Source\PSoC5/UART_tester.c ****     *
 929:Generated_Source\PSoC5/UART_tester.c ****     * Global Variables:
 930:Generated_Source\PSoC5/UART_tester.c ****     *  UART_tester_txBuffer - RAM buffer pointer for save data for transmission
 931:Generated_Source\PSoC5/UART_tester.c ****     *  UART_tester_txBufferWrite - cyclic index for write to txBuffer,
 932:Generated_Source\PSoC5/UART_tester.c ****     *    incremented after each byte saved to buffer.
 933:Generated_Source\PSoC5/UART_tester.c ****     *  UART_tester_txBufferRead - cyclic index for read from txBuffer,
 934:Generated_Source\PSoC5/UART_tester.c ****     *    checked to identify the condition to write to FIFO directly or to TX buffer
 935:Generated_Source\PSoC5/UART_tester.c ****     *  UART_tester_initVar - checked to identify that the component has been
 936:Generated_Source\PSoC5/UART_tester.c ****     *    initialized.
 937:Generated_Source\PSoC5/UART_tester.c ****     *
 938:Generated_Source\PSoC5/UART_tester.c ****     * Reentrant:
 939:Generated_Source\PSoC5/UART_tester.c ****     *  No.
 940:Generated_Source\PSoC5/UART_tester.c ****     *
 941:Generated_Source\PSoC5/UART_tester.c ****     *******************************************************************************/
 942:Generated_Source\PSoC5/UART_tester.c ****     void UART_tester_WriteTxData(uint8 txDataByte) 
 943:Generated_Source\PSoC5/UART_tester.c ****     {
 667              		.loc 1 943 5 is_stmt 1 view -0
 668              		.cfi_startproc
 669              		@ args = 0, pretend = 0, frame = 0
 670              		@ frame_needed = 0, uses_anonymous_args = 0
 671              		@ link register save eliminated.
 944:Generated_Source\PSoC5/UART_tester.c ****         /* If not Initialized then skip this function*/
 945:Generated_Source\PSoC5/UART_tester.c ****         if(UART_tester_initVar != 0u)
 672              		.loc 1 945 9 view .LVU128
 673              		.loc 1 945 32 is_stmt 0 view .LVU129
 674 0000 024B     		ldr	r3, .L56
 675 0002 1B78     		ldrb	r3, [r3]	@ zero_extendqisi2
 676              		.loc 1 945 11 view .LVU130
 677 0004 0BB1     		cbz	r3, .L54
 946:Generated_Source\PSoC5/UART_tester.c ****         {
 947:Generated_Source\PSoC5/UART_tester.c ****         #if (UART_tester_TX_INTERRUPT_ENABLED)
 948:Generated_Source\PSoC5/UART_tester.c **** 
 949:Generated_Source\PSoC5/UART_tester.c ****             /* Protect variables that could change on interrupt. */
 950:Generated_Source\PSoC5/UART_tester.c ****             UART_tester_DisableTxInt();
 951:Generated_Source\PSoC5/UART_tester.c **** 
 952:Generated_Source\PSoC5/UART_tester.c ****             if( (UART_tester_txBufferRead == UART_tester_txBufferWrite) &&
 953:Generated_Source\PSoC5/UART_tester.c ****                 ((UART_tester_TXSTATUS_REG & UART_tester_TX_STS_FIFO_FULL) == 0u) )
 954:Generated_Source\PSoC5/UART_tester.c ****             {
 955:Generated_Source\PSoC5/UART_tester.c ****                 /* Add directly to the FIFO. */
 956:Generated_Source\PSoC5/UART_tester.c ****                 UART_tester_TXDATA_REG = txDataByte;
 957:Generated_Source\PSoC5/UART_tester.c ****             }
 958:Generated_Source\PSoC5/UART_tester.c ****             else
 959:Generated_Source\PSoC5/UART_tester.c ****             {
 960:Generated_Source\PSoC5/UART_tester.c ****                 if(UART_tester_txBufferWrite >= UART_tester_TX_BUFFER_SIZE)
 961:Generated_Source\PSoC5/UART_tester.c ****                 {
 962:Generated_Source\PSoC5/UART_tester.c ****                     UART_tester_txBufferWrite = 0u;
 963:Generated_Source\PSoC5/UART_tester.c ****                 }
 964:Generated_Source\PSoC5/UART_tester.c **** 
 965:Generated_Source\PSoC5/UART_tester.c ****                 UART_tester_txBuffer[UART_tester_txBufferWrite] = txDataByte;
 966:Generated_Source\PSoC5/UART_tester.c **** 
 967:Generated_Source\PSoC5/UART_tester.c ****                 /* Add to the software buffer. */
ARM GAS  C:\Users\jens-\AppData\Local\Temp\ccP7oHVf.s 			page 30


 968:Generated_Source\PSoC5/UART_tester.c ****                 UART_tester_txBufferWrite++;
 969:Generated_Source\PSoC5/UART_tester.c ****             }
 970:Generated_Source\PSoC5/UART_tester.c **** 
 971:Generated_Source\PSoC5/UART_tester.c ****             UART_tester_EnableTxInt();
 972:Generated_Source\PSoC5/UART_tester.c **** 
 973:Generated_Source\PSoC5/UART_tester.c ****         #else
 974:Generated_Source\PSoC5/UART_tester.c **** 
 975:Generated_Source\PSoC5/UART_tester.c ****             /* Add directly to the FIFO. */
 976:Generated_Source\PSoC5/UART_tester.c ****             UART_tester_TXDATA_REG = txDataByte;
 678              		.loc 1 976 13 is_stmt 1 view .LVU131
 679              		.loc 1 976 36 is_stmt 0 view .LVU132
 680 0006 024B     		ldr	r3, .L56+4
 681 0008 1870     		strb	r0, [r3]
 682              	.L54:
 977:Generated_Source\PSoC5/UART_tester.c **** 
 978:Generated_Source\PSoC5/UART_tester.c ****         #endif /*(UART_tester_TX_INTERRUPT_ENABLED) */
 979:Generated_Source\PSoC5/UART_tester.c ****         }
 980:Generated_Source\PSoC5/UART_tester.c ****     }
 683              		.loc 1 980 5 view .LVU133
 684 000a 7047     		bx	lr
 685              	.L57:
 686              		.align	2
 687              	.L56:
 688 000c 00000000 		.word	.LANCHOR0
 689 0010 4B650040 		.word	1073767755
 690              		.cfi_endproc
 691              	.LFE17:
 692              		.size	UART_tester_WriteTxData, .-UART_tester_WriteTxData
 693              		.section	.text.UART_tester_ReadTxStatus,"ax",%progbits
 694              		.align	1
 695              		.global	UART_tester_ReadTxStatus
 696              		.syntax unified
 697              		.thumb
 698              		.thumb_func
 699              		.fpu softvfp
 700              		.type	UART_tester_ReadTxStatus, %function
 701              	UART_tester_ReadTxStatus:
 702              	.LFB18:
 981:Generated_Source\PSoC5/UART_tester.c **** 
 982:Generated_Source\PSoC5/UART_tester.c **** 
 983:Generated_Source\PSoC5/UART_tester.c ****     /*******************************************************************************
 984:Generated_Source\PSoC5/UART_tester.c ****     * Function Name: UART_tester_ReadTxStatus
 985:Generated_Source\PSoC5/UART_tester.c ****     ********************************************************************************
 986:Generated_Source\PSoC5/UART_tester.c ****     *
 987:Generated_Source\PSoC5/UART_tester.c ****     * Summary:
 988:Generated_Source\PSoC5/UART_tester.c ****     *  Reads the status register for the TX portion of the UART.
 989:Generated_Source\PSoC5/UART_tester.c ****     *
 990:Generated_Source\PSoC5/UART_tester.c ****     * Parameters:
 991:Generated_Source\PSoC5/UART_tester.c ****     *  None.
 992:Generated_Source\PSoC5/UART_tester.c ****     *
 993:Generated_Source\PSoC5/UART_tester.c ****     * Return:
 994:Generated_Source\PSoC5/UART_tester.c ****     *  Contents of the status register
 995:Generated_Source\PSoC5/UART_tester.c ****     *
 996:Generated_Source\PSoC5/UART_tester.c ****     * Theory:
 997:Generated_Source\PSoC5/UART_tester.c ****     *  This function reads the TX status register, which is cleared on read.
 998:Generated_Source\PSoC5/UART_tester.c ****     *  It is up to the user to handle all bits in this return value accordingly,
 999:Generated_Source\PSoC5/UART_tester.c ****     *  even if the bit was not enabled as an interrupt source the event happened
ARM GAS  C:\Users\jens-\AppData\Local\Temp\ccP7oHVf.s 			page 31


1000:Generated_Source\PSoC5/UART_tester.c ****     *  and must be handled accordingly.
1001:Generated_Source\PSoC5/UART_tester.c ****     *
1002:Generated_Source\PSoC5/UART_tester.c ****     *******************************************************************************/
1003:Generated_Source\PSoC5/UART_tester.c ****     uint8 UART_tester_ReadTxStatus(void) 
1004:Generated_Source\PSoC5/UART_tester.c ****     {
 703              		.loc 1 1004 5 is_stmt 1 view -0
 704              		.cfi_startproc
 705              		@ args = 0, pretend = 0, frame = 0
 706              		@ frame_needed = 0, uses_anonymous_args = 0
 707              		@ link register save eliminated.
1005:Generated_Source\PSoC5/UART_tester.c ****         return(UART_tester_TXSTATUS_REG);
 708              		.loc 1 1005 9 view .LVU135
 709              		.loc 1 1005 16 is_stmt 0 view .LVU136
 710 0000 014B     		ldr	r3, .L59
 711 0002 1878     		ldrb	r0, [r3]	@ zero_extendqisi2
1006:Generated_Source\PSoC5/UART_tester.c ****     }
 712              		.loc 1 1006 5 view .LVU137
 713 0004 7047     		bx	lr
 714              	.L60:
 715 0006 00BF     		.align	2
 716              	.L59:
 717 0008 6B650040 		.word	1073767787
 718              		.cfi_endproc
 719              	.LFE18:
 720              		.size	UART_tester_ReadTxStatus, .-UART_tester_ReadTxStatus
 721              		.section	.text.UART_tester_PutChar,"ax",%progbits
 722              		.align	1
 723              		.global	UART_tester_PutChar
 724              		.syntax unified
 725              		.thumb
 726              		.thumb_func
 727              		.fpu softvfp
 728              		.type	UART_tester_PutChar, %function
 729              	UART_tester_PutChar:
 730              	.LFB19:
1007:Generated_Source\PSoC5/UART_tester.c **** 
1008:Generated_Source\PSoC5/UART_tester.c **** 
1009:Generated_Source\PSoC5/UART_tester.c ****     /*******************************************************************************
1010:Generated_Source\PSoC5/UART_tester.c ****     * Function Name: UART_tester_PutChar
1011:Generated_Source\PSoC5/UART_tester.c ****     ********************************************************************************
1012:Generated_Source\PSoC5/UART_tester.c ****     *
1013:Generated_Source\PSoC5/UART_tester.c ****     * Summary:
1014:Generated_Source\PSoC5/UART_tester.c ****     *  Puts a byte of data into the transmit buffer to be sent when the bus is
1015:Generated_Source\PSoC5/UART_tester.c ****     *  available. This is a blocking API that waits until the TX buffer has room to
1016:Generated_Source\PSoC5/UART_tester.c ****     *  hold the data.
1017:Generated_Source\PSoC5/UART_tester.c ****     *
1018:Generated_Source\PSoC5/UART_tester.c ****     * Parameters:
1019:Generated_Source\PSoC5/UART_tester.c ****     *  txDataByte: Byte containing the data to transmit
1020:Generated_Source\PSoC5/UART_tester.c ****     *
1021:Generated_Source\PSoC5/UART_tester.c ****     * Return:
1022:Generated_Source\PSoC5/UART_tester.c ****     *  None.
1023:Generated_Source\PSoC5/UART_tester.c ****     *
1024:Generated_Source\PSoC5/UART_tester.c ****     * Global Variables:
1025:Generated_Source\PSoC5/UART_tester.c ****     *  UART_tester_txBuffer - RAM buffer pointer for save data for transmission
1026:Generated_Source\PSoC5/UART_tester.c ****     *  UART_tester_txBufferWrite - cyclic index for write to txBuffer,
1027:Generated_Source\PSoC5/UART_tester.c ****     *     checked to identify free space in txBuffer and incremented after each byte
1028:Generated_Source\PSoC5/UART_tester.c ****     *     saved to buffer.
ARM GAS  C:\Users\jens-\AppData\Local\Temp\ccP7oHVf.s 			page 32


1029:Generated_Source\PSoC5/UART_tester.c ****     *  UART_tester_txBufferRead - cyclic index for read from txBuffer,
1030:Generated_Source\PSoC5/UART_tester.c ****     *     checked to identify free space in txBuffer.
1031:Generated_Source\PSoC5/UART_tester.c ****     *  UART_tester_initVar - checked to identify that the component has been
1032:Generated_Source\PSoC5/UART_tester.c ****     *     initialized.
1033:Generated_Source\PSoC5/UART_tester.c ****     *
1034:Generated_Source\PSoC5/UART_tester.c ****     * Reentrant:
1035:Generated_Source\PSoC5/UART_tester.c ****     *  No.
1036:Generated_Source\PSoC5/UART_tester.c ****     *
1037:Generated_Source\PSoC5/UART_tester.c ****     * Theory:
1038:Generated_Source\PSoC5/UART_tester.c ****     *  Allows the user to transmit any byte of data in a single transfer
1039:Generated_Source\PSoC5/UART_tester.c ****     *
1040:Generated_Source\PSoC5/UART_tester.c ****     *******************************************************************************/
1041:Generated_Source\PSoC5/UART_tester.c ****     void UART_tester_PutChar(uint8 txDataByte) 
1042:Generated_Source\PSoC5/UART_tester.c ****     {
 731              		.loc 1 1042 5 is_stmt 1 view -0
 732              		.cfi_startproc
 733              		@ args = 0, pretend = 0, frame = 0
 734              		@ frame_needed = 0, uses_anonymous_args = 0
 735              		@ link register save eliminated.
 736              	.LVL31:
 737              	.L62:
1043:Generated_Source\PSoC5/UART_tester.c ****     #if (UART_tester_TX_INTERRUPT_ENABLED)
1044:Generated_Source\PSoC5/UART_tester.c ****         /* The temporary output pointer is used since it takes two instructions
1045:Generated_Source\PSoC5/UART_tester.c ****         *  to increment with a wrap, and we can't risk doing that with the real
1046:Generated_Source\PSoC5/UART_tester.c ****         *  pointer and getting an interrupt in between instructions.
1047:Generated_Source\PSoC5/UART_tester.c ****         */
1048:Generated_Source\PSoC5/UART_tester.c ****         uint8 locTxBufferWrite;
1049:Generated_Source\PSoC5/UART_tester.c ****         uint8 locTxBufferRead;
1050:Generated_Source\PSoC5/UART_tester.c **** 
1051:Generated_Source\PSoC5/UART_tester.c ****         do
1052:Generated_Source\PSoC5/UART_tester.c ****         { /* Block if software buffer is full, so we don't overwrite. */
1053:Generated_Source\PSoC5/UART_tester.c **** 
1054:Generated_Source\PSoC5/UART_tester.c ****         #if ((UART_tester_TX_BUFFER_SIZE > UART_tester_MAX_BYTE_VALUE) && (CY_PSOC3))
1055:Generated_Source\PSoC5/UART_tester.c ****             /* Disable TX interrupt to protect variables from modification */
1056:Generated_Source\PSoC5/UART_tester.c ****             UART_tester_DisableTxInt();
1057:Generated_Source\PSoC5/UART_tester.c ****         #endif /* (UART_tester_TX_BUFFER_SIZE > UART_tester_MAX_BYTE_VALUE) && (CY_PSOC3) */
1058:Generated_Source\PSoC5/UART_tester.c **** 
1059:Generated_Source\PSoC5/UART_tester.c ****             locTxBufferWrite = UART_tester_txBufferWrite;
1060:Generated_Source\PSoC5/UART_tester.c ****             locTxBufferRead  = UART_tester_txBufferRead;
1061:Generated_Source\PSoC5/UART_tester.c **** 
1062:Generated_Source\PSoC5/UART_tester.c ****         #if ((UART_tester_TX_BUFFER_SIZE > UART_tester_MAX_BYTE_VALUE) && (CY_PSOC3))
1063:Generated_Source\PSoC5/UART_tester.c ****             /* Enable interrupt to continue transmission */
1064:Generated_Source\PSoC5/UART_tester.c ****             UART_tester_EnableTxInt();
1065:Generated_Source\PSoC5/UART_tester.c ****         #endif /* (UART_tester_TX_BUFFER_SIZE > UART_tester_MAX_BYTE_VALUE) && (CY_PSOC3) */
1066:Generated_Source\PSoC5/UART_tester.c ****         }
1067:Generated_Source\PSoC5/UART_tester.c ****         while( (locTxBufferWrite < locTxBufferRead) ? (locTxBufferWrite == (locTxBufferRead - 1u)) 
1068:Generated_Source\PSoC5/UART_tester.c ****                                 ((locTxBufferWrite - locTxBufferRead) ==
1069:Generated_Source\PSoC5/UART_tester.c ****                                 (uint8)(UART_tester_TX_BUFFER_SIZE - 1u)) );
1070:Generated_Source\PSoC5/UART_tester.c **** 
1071:Generated_Source\PSoC5/UART_tester.c ****         if( (locTxBufferRead == locTxBufferWrite) &&
1072:Generated_Source\PSoC5/UART_tester.c ****             ((UART_tester_TXSTATUS_REG & UART_tester_TX_STS_FIFO_FULL) == 0u) )
1073:Generated_Source\PSoC5/UART_tester.c ****         {
1074:Generated_Source\PSoC5/UART_tester.c ****             /* Add directly to the FIFO */
1075:Generated_Source\PSoC5/UART_tester.c ****             UART_tester_TXDATA_REG = txDataByte;
1076:Generated_Source\PSoC5/UART_tester.c ****         }
1077:Generated_Source\PSoC5/UART_tester.c ****         else
1078:Generated_Source\PSoC5/UART_tester.c ****         {
ARM GAS  C:\Users\jens-\AppData\Local\Temp\ccP7oHVf.s 			page 33


1079:Generated_Source\PSoC5/UART_tester.c ****             if(locTxBufferWrite >= UART_tester_TX_BUFFER_SIZE)
1080:Generated_Source\PSoC5/UART_tester.c ****             {
1081:Generated_Source\PSoC5/UART_tester.c ****                 locTxBufferWrite = 0u;
1082:Generated_Source\PSoC5/UART_tester.c ****             }
1083:Generated_Source\PSoC5/UART_tester.c ****             /* Add to the software buffer. */
1084:Generated_Source\PSoC5/UART_tester.c ****             UART_tester_txBuffer[locTxBufferWrite] = txDataByte;
1085:Generated_Source\PSoC5/UART_tester.c ****             locTxBufferWrite++;
1086:Generated_Source\PSoC5/UART_tester.c **** 
1087:Generated_Source\PSoC5/UART_tester.c ****             /* Finally, update the real output pointer */
1088:Generated_Source\PSoC5/UART_tester.c ****         #if ((UART_tester_TX_BUFFER_SIZE > UART_tester_MAX_BYTE_VALUE) && (CY_PSOC3))
1089:Generated_Source\PSoC5/UART_tester.c ****             UART_tester_DisableTxInt();
1090:Generated_Source\PSoC5/UART_tester.c ****         #endif /* (UART_tester_TX_BUFFER_SIZE > UART_tester_MAX_BYTE_VALUE) && (CY_PSOC3) */
1091:Generated_Source\PSoC5/UART_tester.c **** 
1092:Generated_Source\PSoC5/UART_tester.c ****             UART_tester_txBufferWrite = locTxBufferWrite;
1093:Generated_Source\PSoC5/UART_tester.c **** 
1094:Generated_Source\PSoC5/UART_tester.c ****         #if ((UART_tester_TX_BUFFER_SIZE > UART_tester_MAX_BYTE_VALUE) && (CY_PSOC3))
1095:Generated_Source\PSoC5/UART_tester.c ****             UART_tester_EnableTxInt();
1096:Generated_Source\PSoC5/UART_tester.c ****         #endif /* (UART_tester_TX_BUFFER_SIZE > UART_tester_MAX_BYTE_VALUE) && (CY_PSOC3) */
1097:Generated_Source\PSoC5/UART_tester.c **** 
1098:Generated_Source\PSoC5/UART_tester.c ****             if(0u != (UART_tester_TXSTATUS_REG & UART_tester_TX_STS_FIFO_EMPTY))
1099:Generated_Source\PSoC5/UART_tester.c ****             {
1100:Generated_Source\PSoC5/UART_tester.c ****                 /* Trigger TX interrupt to send software buffer */
1101:Generated_Source\PSoC5/UART_tester.c ****                 UART_tester_SetPendingTxInt();
1102:Generated_Source\PSoC5/UART_tester.c ****             }
1103:Generated_Source\PSoC5/UART_tester.c ****         }
1104:Generated_Source\PSoC5/UART_tester.c **** 
1105:Generated_Source\PSoC5/UART_tester.c ****     #else
1106:Generated_Source\PSoC5/UART_tester.c **** 
1107:Generated_Source\PSoC5/UART_tester.c ****         while((UART_tester_TXSTATUS_REG & UART_tester_TX_STS_FIFO_FULL) != 0u)
1108:Generated_Source\PSoC5/UART_tester.c ****         {
1109:Generated_Source\PSoC5/UART_tester.c ****             /* Wait for room in the FIFO */
1110:Generated_Source\PSoC5/UART_tester.c ****         }
 738              		.loc 1 1110 9 discriminator 1 view .LVU139
1107:Generated_Source\PSoC5/UART_tester.c ****         {
 739              		.loc 1 1107 14 discriminator 1 view .LVU140
1107:Generated_Source\PSoC5/UART_tester.c ****         {
 740              		.loc 1 1107 16 is_stmt 0 discriminator 1 view .LVU141
 741 0000 034B     		ldr	r3, .L63
 742 0002 1B78     		ldrb	r3, [r3]	@ zero_extendqisi2
1107:Generated_Source\PSoC5/UART_tester.c ****         {
 743              		.loc 1 1107 14 discriminator 1 view .LVU142
 744 0004 13F0040F 		tst	r3, #4
 745 0008 FAD1     		bne	.L62
1111:Generated_Source\PSoC5/UART_tester.c **** 
1112:Generated_Source\PSoC5/UART_tester.c ****         /* Add directly to the FIFO */
1113:Generated_Source\PSoC5/UART_tester.c ****         UART_tester_TXDATA_REG = txDataByte;
 746              		.loc 1 1113 9 is_stmt 1 view .LVU143
 747              		.loc 1 1113 32 is_stmt 0 view .LVU144
 748 000a 024B     		ldr	r3, .L63+4
 749 000c 1870     		strb	r0, [r3]
1114:Generated_Source\PSoC5/UART_tester.c **** 
1115:Generated_Source\PSoC5/UART_tester.c ****     #endif /* UART_tester_TX_INTERRUPT_ENABLED */
1116:Generated_Source\PSoC5/UART_tester.c ****     }
 750              		.loc 1 1116 5 view .LVU145
 751 000e 7047     		bx	lr
 752              	.L64:
 753              		.align	2
ARM GAS  C:\Users\jens-\AppData\Local\Temp\ccP7oHVf.s 			page 34


 754              	.L63:
 755 0010 6B650040 		.word	1073767787
 756 0014 4B650040 		.word	1073767755
 757              		.cfi_endproc
 758              	.LFE19:
 759              		.size	UART_tester_PutChar, .-UART_tester_PutChar
 760              		.section	.text.UART_tester_PutString,"ax",%progbits
 761              		.align	1
 762              		.global	UART_tester_PutString
 763              		.syntax unified
 764              		.thumb
 765              		.thumb_func
 766              		.fpu softvfp
 767              		.type	UART_tester_PutString, %function
 768              	UART_tester_PutString:
 769              	.LVL32:
 770              	.LFB20:
1117:Generated_Source\PSoC5/UART_tester.c **** 
1118:Generated_Source\PSoC5/UART_tester.c **** 
1119:Generated_Source\PSoC5/UART_tester.c ****     /*******************************************************************************
1120:Generated_Source\PSoC5/UART_tester.c ****     * Function Name: UART_tester_PutString
1121:Generated_Source\PSoC5/UART_tester.c ****     ********************************************************************************
1122:Generated_Source\PSoC5/UART_tester.c ****     *
1123:Generated_Source\PSoC5/UART_tester.c ****     * Summary:
1124:Generated_Source\PSoC5/UART_tester.c ****     *  Sends a NULL terminated string to the TX buffer for transmission.
1125:Generated_Source\PSoC5/UART_tester.c ****     *
1126:Generated_Source\PSoC5/UART_tester.c ****     * Parameters:
1127:Generated_Source\PSoC5/UART_tester.c ****     *  string[]: Pointer to the null terminated string array residing in RAM or ROM
1128:Generated_Source\PSoC5/UART_tester.c ****     *
1129:Generated_Source\PSoC5/UART_tester.c ****     * Return:
1130:Generated_Source\PSoC5/UART_tester.c ****     *  None.
1131:Generated_Source\PSoC5/UART_tester.c ****     *
1132:Generated_Source\PSoC5/UART_tester.c ****     * Global Variables:
1133:Generated_Source\PSoC5/UART_tester.c ****     *  UART_tester_initVar - checked to identify that the component has been
1134:Generated_Source\PSoC5/UART_tester.c ****     *     initialized.
1135:Generated_Source\PSoC5/UART_tester.c ****     *
1136:Generated_Source\PSoC5/UART_tester.c ****     * Reentrant:
1137:Generated_Source\PSoC5/UART_tester.c ****     *  No.
1138:Generated_Source\PSoC5/UART_tester.c ****     *
1139:Generated_Source\PSoC5/UART_tester.c ****     * Theory:
1140:Generated_Source\PSoC5/UART_tester.c ****     *  If there is not enough memory in the TX buffer for the entire string, this
1141:Generated_Source\PSoC5/UART_tester.c ****     *  function blocks until the last character of the string is loaded into the
1142:Generated_Source\PSoC5/UART_tester.c ****     *  TX buffer.
1143:Generated_Source\PSoC5/UART_tester.c ****     *
1144:Generated_Source\PSoC5/UART_tester.c ****     *******************************************************************************/
1145:Generated_Source\PSoC5/UART_tester.c ****     void UART_tester_PutString(const char8 string[]) 
1146:Generated_Source\PSoC5/UART_tester.c ****     {
 771              		.loc 1 1146 5 is_stmt 1 view -0
 772              		.cfi_startproc
 773              		@ args = 0, pretend = 0, frame = 0
 774              		@ frame_needed = 0, uses_anonymous_args = 0
 775              		.loc 1 1146 5 is_stmt 0 view .LVU147
 776 0000 38B5     		push	{r3, r4, r5, lr}
 777              		.cfi_def_cfa_offset 16
 778              		.cfi_offset 3, -16
 779              		.cfi_offset 4, -12
 780              		.cfi_offset 5, -8
ARM GAS  C:\Users\jens-\AppData\Local\Temp\ccP7oHVf.s 			page 35


 781              		.cfi_offset 14, -4
1147:Generated_Source\PSoC5/UART_tester.c ****         uint16 bufIndex = 0u;
 782              		.loc 1 1147 9 is_stmt 1 view .LVU148
 783              	.LVL33:
1148:Generated_Source\PSoC5/UART_tester.c **** 
1149:Generated_Source\PSoC5/UART_tester.c ****         /* If not Initialized then skip this function */
1150:Generated_Source\PSoC5/UART_tester.c ****         if(UART_tester_initVar != 0u)
 784              		.loc 1 1150 9 view .LVU149
 785              		.loc 1 1150 32 is_stmt 0 view .LVU150
 786 0002 074B     		ldr	r3, .L71
 787 0004 1B78     		ldrb	r3, [r3]	@ zero_extendqisi2
 788              		.loc 1 1150 11 view .LVU151
 789 0006 03B9     		cbnz	r3, .L69
 790              	.LVL34:
 791              	.L65:
1151:Generated_Source\PSoC5/UART_tester.c ****         {
1152:Generated_Source\PSoC5/UART_tester.c ****             /* This is a blocking function, it will not exit until all data is sent */
1153:Generated_Source\PSoC5/UART_tester.c ****             while(string[bufIndex] != (char8) 0)
1154:Generated_Source\PSoC5/UART_tester.c ****             {
1155:Generated_Source\PSoC5/UART_tester.c ****                 UART_tester_PutChar((uint8)string[bufIndex]);
1156:Generated_Source\PSoC5/UART_tester.c ****                 bufIndex++;
1157:Generated_Source\PSoC5/UART_tester.c ****             }
1158:Generated_Source\PSoC5/UART_tester.c ****         }
1159:Generated_Source\PSoC5/UART_tester.c ****     }
 792              		.loc 1 1159 5 view .LVU152
 793 0008 38BD     		pop	{r3, r4, r5, pc}
 794              	.LVL35:
 795              	.L69:
 796              		.loc 1 1159 5 view .LVU153
 797 000a 0546     		mov	r5, r0
1147:Generated_Source\PSoC5/UART_tester.c **** 
 798              		.loc 1 1147 16 view .LVU154
 799 000c 0024     		movs	r4, #0
 800              	.LVL36:
 801              	.L66:
1153:Generated_Source\PSoC5/UART_tester.c ****             {
 802              		.loc 1 1153 18 is_stmt 1 view .LVU155
1153:Generated_Source\PSoC5/UART_tester.c ****             {
 803              		.loc 1 1153 25 is_stmt 0 view .LVU156
 804 000e 285D     		ldrb	r0, [r5, r4]	@ zero_extendqisi2
1153:Generated_Source\PSoC5/UART_tester.c ****             {
 805              		.loc 1 1153 18 view .LVU157
 806 0010 0028     		cmp	r0, #0
 807 0012 F9D0     		beq	.L65
1155:Generated_Source\PSoC5/UART_tester.c ****                 bufIndex++;
 808              		.loc 1 1155 17 is_stmt 1 view .LVU158
 809 0014 FFF7FEFF 		bl	UART_tester_PutChar
 810              	.LVL37:
1156:Generated_Source\PSoC5/UART_tester.c ****             }
 811              		.loc 1 1156 17 view .LVU159
1156:Generated_Source\PSoC5/UART_tester.c ****             }
 812              		.loc 1 1156 25 is_stmt 0 view .LVU160
 813 0018 0134     		adds	r4, r4, #1
 814              	.LVL38:
1156:Generated_Source\PSoC5/UART_tester.c ****             }
 815              		.loc 1 1156 25 view .LVU161
 816 001a A4B2     		uxth	r4, r4
ARM GAS  C:\Users\jens-\AppData\Local\Temp\ccP7oHVf.s 			page 36


 817              	.LVL39:
1156:Generated_Source\PSoC5/UART_tester.c ****             }
 818              		.loc 1 1156 25 view .LVU162
 819 001c F7E7     		b	.L66
 820              	.L72:
 821 001e 00BF     		.align	2
 822              	.L71:
 823 0020 00000000 		.word	.LANCHOR0
 824              		.cfi_endproc
 825              	.LFE20:
 826              		.size	UART_tester_PutString, .-UART_tester_PutString
 827              		.section	.text.UART_tester_PutArray,"ax",%progbits
 828              		.align	1
 829              		.global	UART_tester_PutArray
 830              		.syntax unified
 831              		.thumb
 832              		.thumb_func
 833              		.fpu softvfp
 834              		.type	UART_tester_PutArray, %function
 835              	UART_tester_PutArray:
 836              	.LVL40:
 837              	.LFB21:
1160:Generated_Source\PSoC5/UART_tester.c **** 
1161:Generated_Source\PSoC5/UART_tester.c **** 
1162:Generated_Source\PSoC5/UART_tester.c ****     /*******************************************************************************
1163:Generated_Source\PSoC5/UART_tester.c ****     * Function Name: UART_tester_PutArray
1164:Generated_Source\PSoC5/UART_tester.c ****     ********************************************************************************
1165:Generated_Source\PSoC5/UART_tester.c ****     *
1166:Generated_Source\PSoC5/UART_tester.c ****     * Summary:
1167:Generated_Source\PSoC5/UART_tester.c ****     *  Places N bytes of data from a memory array into the TX buffer for
1168:Generated_Source\PSoC5/UART_tester.c ****     *  transmission.
1169:Generated_Source\PSoC5/UART_tester.c ****     *
1170:Generated_Source\PSoC5/UART_tester.c ****     * Parameters:
1171:Generated_Source\PSoC5/UART_tester.c ****     *  string[]: Address of the memory array residing in RAM or ROM.
1172:Generated_Source\PSoC5/UART_tester.c ****     *  byteCount: Number of bytes to be transmitted. The type depends on TX Buffer
1173:Generated_Source\PSoC5/UART_tester.c ****     *             Size parameter.
1174:Generated_Source\PSoC5/UART_tester.c ****     *
1175:Generated_Source\PSoC5/UART_tester.c ****     * Return:
1176:Generated_Source\PSoC5/UART_tester.c ****     *  None.
1177:Generated_Source\PSoC5/UART_tester.c ****     *
1178:Generated_Source\PSoC5/UART_tester.c ****     * Global Variables:
1179:Generated_Source\PSoC5/UART_tester.c ****     *  UART_tester_initVar - checked to identify that the component has been
1180:Generated_Source\PSoC5/UART_tester.c ****     *     initialized.
1181:Generated_Source\PSoC5/UART_tester.c ****     *
1182:Generated_Source\PSoC5/UART_tester.c ****     * Reentrant:
1183:Generated_Source\PSoC5/UART_tester.c ****     *  No.
1184:Generated_Source\PSoC5/UART_tester.c ****     *
1185:Generated_Source\PSoC5/UART_tester.c ****     * Theory:
1186:Generated_Source\PSoC5/UART_tester.c ****     *  If there is not enough memory in the TX buffer for the entire string, this
1187:Generated_Source\PSoC5/UART_tester.c ****     *  function blocks until the last character of the string is loaded into the
1188:Generated_Source\PSoC5/UART_tester.c ****     *  TX buffer.
1189:Generated_Source\PSoC5/UART_tester.c ****     *
1190:Generated_Source\PSoC5/UART_tester.c ****     *******************************************************************************/
1191:Generated_Source\PSoC5/UART_tester.c ****     void UART_tester_PutArray(const uint8 string[], uint8 byteCount)
1192:Generated_Source\PSoC5/UART_tester.c ****                                                                     
1193:Generated_Source\PSoC5/UART_tester.c ****     {
 838              		.loc 1 1193 5 is_stmt 1 view -0
ARM GAS  C:\Users\jens-\AppData\Local\Temp\ccP7oHVf.s 			page 37


 839              		.cfi_startproc
 840              		@ args = 0, pretend = 0, frame = 0
 841              		@ frame_needed = 0, uses_anonymous_args = 0
1194:Generated_Source\PSoC5/UART_tester.c ****         uint8 bufIndex = 0u;
 842              		.loc 1 1194 9 view .LVU164
1195:Generated_Source\PSoC5/UART_tester.c **** 
1196:Generated_Source\PSoC5/UART_tester.c ****         /* If not Initialized then skip this function */
1197:Generated_Source\PSoC5/UART_tester.c ****         if(UART_tester_initVar != 0u)
 843              		.loc 1 1197 9 view .LVU165
 844              		.loc 1 1197 32 is_stmt 0 view .LVU166
 845 0000 084B     		ldr	r3, .L82
 846 0002 1B78     		ldrb	r3, [r3]	@ zero_extendqisi2
 847              		.loc 1 1197 11 view .LVU167
 848 0004 03B9     		cbnz	r3, .L77
 849 0006 7047     		bx	lr
 850              	.L77:
1193:Generated_Source\PSoC5/UART_tester.c ****         uint8 bufIndex = 0u;
 851              		.loc 1 1193 5 view .LVU168
 852 0008 70B5     		push	{r4, r5, r6, lr}
 853              		.cfi_def_cfa_offset 16
 854              		.cfi_offset 4, -16
 855              		.cfi_offset 5, -12
 856              		.cfi_offset 6, -8
 857              		.cfi_offset 14, -4
 858 000a 0646     		mov	r6, r0
 859 000c 0D46     		mov	r5, r1
1194:Generated_Source\PSoC5/UART_tester.c ****         uint8 bufIndex = 0u;
 860              		.loc 1 1194 15 view .LVU169
 861 000e 0024     		movs	r4, #0
 862              	.LVL41:
 863              	.L74:
1198:Generated_Source\PSoC5/UART_tester.c ****         {
1199:Generated_Source\PSoC5/UART_tester.c ****             while(bufIndex < byteCount)
 864              		.loc 1 1199 18 is_stmt 1 view .LVU170
 865 0010 AC42     		cmp	r4, r5
 866 0012 05D2     		bcs	.L81
1200:Generated_Source\PSoC5/UART_tester.c ****             {
1201:Generated_Source\PSoC5/UART_tester.c ****                 UART_tester_PutChar(string[bufIndex]);
 867              		.loc 1 1201 17 view .LVU171
 868 0014 305D     		ldrb	r0, [r6, r4]	@ zero_extendqisi2
 869 0016 FFF7FEFF 		bl	UART_tester_PutChar
 870              	.LVL42:
1202:Generated_Source\PSoC5/UART_tester.c ****                 bufIndex++;
 871              		.loc 1 1202 17 view .LVU172
 872              		.loc 1 1202 25 is_stmt 0 view .LVU173
 873 001a 0134     		adds	r4, r4, #1
 874              	.LVL43:
 875              		.loc 1 1202 25 view .LVU174
 876 001c E4B2     		uxtb	r4, r4
 877              	.LVL44:
 878              		.loc 1 1202 25 view .LVU175
 879 001e F7E7     		b	.L74
 880              	.L81:
1203:Generated_Source\PSoC5/UART_tester.c ****             }
1204:Generated_Source\PSoC5/UART_tester.c ****         }
1205:Generated_Source\PSoC5/UART_tester.c ****     }
 881              		.loc 1 1205 5 view .LVU176
ARM GAS  C:\Users\jens-\AppData\Local\Temp\ccP7oHVf.s 			page 38


 882 0020 70BD     		pop	{r4, r5, r6, pc}
 883              	.LVL45:
 884              	.L83:
 885              		.loc 1 1205 5 view .LVU177
 886 0022 00BF     		.align	2
 887              	.L82:
 888 0024 00000000 		.word	.LANCHOR0
 889              		.cfi_endproc
 890              	.LFE21:
 891              		.size	UART_tester_PutArray, .-UART_tester_PutArray
 892              		.section	.text.UART_tester_PutCRLF,"ax",%progbits
 893              		.align	1
 894              		.global	UART_tester_PutCRLF
 895              		.syntax unified
 896              		.thumb
 897              		.thumb_func
 898              		.fpu softvfp
 899              		.type	UART_tester_PutCRLF, %function
 900              	UART_tester_PutCRLF:
 901              	.LVL46:
 902              	.LFB22:
1206:Generated_Source\PSoC5/UART_tester.c **** 
1207:Generated_Source\PSoC5/UART_tester.c **** 
1208:Generated_Source\PSoC5/UART_tester.c ****     /*******************************************************************************
1209:Generated_Source\PSoC5/UART_tester.c ****     * Function Name: UART_tester_PutCRLF
1210:Generated_Source\PSoC5/UART_tester.c ****     ********************************************************************************
1211:Generated_Source\PSoC5/UART_tester.c ****     *
1212:Generated_Source\PSoC5/UART_tester.c ****     * Summary:
1213:Generated_Source\PSoC5/UART_tester.c ****     *  Writes a byte of data followed by a carriage return (0x0D) and line feed
1214:Generated_Source\PSoC5/UART_tester.c ****     *  (0x0A) to the transmit buffer.
1215:Generated_Source\PSoC5/UART_tester.c ****     *
1216:Generated_Source\PSoC5/UART_tester.c ****     * Parameters:
1217:Generated_Source\PSoC5/UART_tester.c ****     *  txDataByte: Data byte to transmit before the carriage return and line feed.
1218:Generated_Source\PSoC5/UART_tester.c ****     *
1219:Generated_Source\PSoC5/UART_tester.c ****     * Return:
1220:Generated_Source\PSoC5/UART_tester.c ****     *  None.
1221:Generated_Source\PSoC5/UART_tester.c ****     *
1222:Generated_Source\PSoC5/UART_tester.c ****     * Global Variables:
1223:Generated_Source\PSoC5/UART_tester.c ****     *  UART_tester_initVar - checked to identify that the component has been
1224:Generated_Source\PSoC5/UART_tester.c ****     *     initialized.
1225:Generated_Source\PSoC5/UART_tester.c ****     *
1226:Generated_Source\PSoC5/UART_tester.c ****     * Reentrant:
1227:Generated_Source\PSoC5/UART_tester.c ****     *  No.
1228:Generated_Source\PSoC5/UART_tester.c ****     *
1229:Generated_Source\PSoC5/UART_tester.c ****     *******************************************************************************/
1230:Generated_Source\PSoC5/UART_tester.c ****     void UART_tester_PutCRLF(uint8 txDataByte) 
1231:Generated_Source\PSoC5/UART_tester.c ****     {
 903              		.loc 1 1231 5 is_stmt 1 view -0
 904              		.cfi_startproc
 905              		@ args = 0, pretend = 0, frame = 0
 906              		@ frame_needed = 0, uses_anonymous_args = 0
 907              		.loc 1 1231 5 is_stmt 0 view .LVU179
 908 0000 08B5     		push	{r3, lr}
 909              		.cfi_def_cfa_offset 8
 910              		.cfi_offset 3, -8
 911              		.cfi_offset 14, -4
1232:Generated_Source\PSoC5/UART_tester.c ****         /* If not Initialized then skip this function */
ARM GAS  C:\Users\jens-\AppData\Local\Temp\ccP7oHVf.s 			page 39


1233:Generated_Source\PSoC5/UART_tester.c ****         if(UART_tester_initVar != 0u)
 912              		.loc 1 1233 9 is_stmt 1 view .LVU180
 913              		.loc 1 1233 32 is_stmt 0 view .LVU181
 914 0002 064B     		ldr	r3, .L88
 915 0004 1B78     		ldrb	r3, [r3]	@ zero_extendqisi2
 916              		.loc 1 1233 11 view .LVU182
 917 0006 03B9     		cbnz	r3, .L87
 918              	.LVL47:
 919              	.L84:
1234:Generated_Source\PSoC5/UART_tester.c ****         {
1235:Generated_Source\PSoC5/UART_tester.c ****             UART_tester_PutChar(txDataByte);
1236:Generated_Source\PSoC5/UART_tester.c ****             UART_tester_PutChar(0x0Du);
1237:Generated_Source\PSoC5/UART_tester.c ****             UART_tester_PutChar(0x0Au);
1238:Generated_Source\PSoC5/UART_tester.c ****         }
1239:Generated_Source\PSoC5/UART_tester.c ****     }
 920              		.loc 1 1239 5 view .LVU183
 921 0008 08BD     		pop	{r3, pc}
 922              	.LVL48:
 923              	.L87:
1235:Generated_Source\PSoC5/UART_tester.c ****             UART_tester_PutChar(0x0Du);
 924              		.loc 1 1235 13 is_stmt 1 view .LVU184
 925 000a FFF7FEFF 		bl	UART_tester_PutChar
 926              	.LVL49:
1236:Generated_Source\PSoC5/UART_tester.c ****             UART_tester_PutChar(0x0Au);
 927              		.loc 1 1236 13 view .LVU185
 928 000e 0D20     		movs	r0, #13
 929 0010 FFF7FEFF 		bl	UART_tester_PutChar
 930              	.LVL50:
1237:Generated_Source\PSoC5/UART_tester.c ****         }
 931              		.loc 1 1237 13 view .LVU186
 932 0014 0A20     		movs	r0, #10
 933 0016 FFF7FEFF 		bl	UART_tester_PutChar
 934              	.LVL51:
 935              		.loc 1 1239 5 is_stmt 0 view .LVU187
 936 001a F5E7     		b	.L84
 937              	.L89:
 938              		.align	2
 939              	.L88:
 940 001c 00000000 		.word	.LANCHOR0
 941              		.cfi_endproc
 942              	.LFE22:
 943              		.size	UART_tester_PutCRLF, .-UART_tester_PutCRLF
 944              		.section	.text.UART_tester_GetTxBufferSize,"ax",%progbits
 945              		.align	1
 946              		.global	UART_tester_GetTxBufferSize
 947              		.syntax unified
 948              		.thumb
 949              		.thumb_func
 950              		.fpu softvfp
 951              		.type	UART_tester_GetTxBufferSize, %function
 952              	UART_tester_GetTxBufferSize:
 953              	.LFB23:
1240:Generated_Source\PSoC5/UART_tester.c **** 
1241:Generated_Source\PSoC5/UART_tester.c **** 
1242:Generated_Source\PSoC5/UART_tester.c ****     /*******************************************************************************
1243:Generated_Source\PSoC5/UART_tester.c ****     * Function Name: UART_tester_GetTxBufferSize
1244:Generated_Source\PSoC5/UART_tester.c ****     ********************************************************************************
ARM GAS  C:\Users\jens-\AppData\Local\Temp\ccP7oHVf.s 			page 40


1245:Generated_Source\PSoC5/UART_tester.c ****     *
1246:Generated_Source\PSoC5/UART_tester.c ****     * Summary:
1247:Generated_Source\PSoC5/UART_tester.c ****     *  Returns the number of bytes in the TX buffer which are waiting to be 
1248:Generated_Source\PSoC5/UART_tester.c ****     *  transmitted.
1249:Generated_Source\PSoC5/UART_tester.c ****     *  * TX software buffer is disabled (TX Buffer Size parameter is equal to 4): 
1250:Generated_Source\PSoC5/UART_tester.c ****     *    returns 0 for empty TX FIFO, 1 for not full TX FIFO or 4 for full TX FIFO.
1251:Generated_Source\PSoC5/UART_tester.c ****     *  * TX software buffer is enabled: returns the number of bytes in the TX 
1252:Generated_Source\PSoC5/UART_tester.c ****     *    software buffer which are waiting to be transmitted. Bytes available in the
1253:Generated_Source\PSoC5/UART_tester.c ****     *    TX FIFO do not count.
1254:Generated_Source\PSoC5/UART_tester.c ****     *
1255:Generated_Source\PSoC5/UART_tester.c ****     * Parameters:
1256:Generated_Source\PSoC5/UART_tester.c ****     *  None.
1257:Generated_Source\PSoC5/UART_tester.c ****     *
1258:Generated_Source\PSoC5/UART_tester.c ****     * Return:
1259:Generated_Source\PSoC5/UART_tester.c ****     *  Number of bytes used in the TX buffer. Return value type depends on the TX 
1260:Generated_Source\PSoC5/UART_tester.c ****     *  Buffer Size parameter.
1261:Generated_Source\PSoC5/UART_tester.c ****     *
1262:Generated_Source\PSoC5/UART_tester.c ****     * Global Variables:
1263:Generated_Source\PSoC5/UART_tester.c ****     *  UART_tester_txBufferWrite - used to calculate left space.
1264:Generated_Source\PSoC5/UART_tester.c ****     *  UART_tester_txBufferRead - used to calculate left space.
1265:Generated_Source\PSoC5/UART_tester.c ****     *
1266:Generated_Source\PSoC5/UART_tester.c ****     * Reentrant:
1267:Generated_Source\PSoC5/UART_tester.c ****     *  No.
1268:Generated_Source\PSoC5/UART_tester.c ****     *
1269:Generated_Source\PSoC5/UART_tester.c ****     * Theory:
1270:Generated_Source\PSoC5/UART_tester.c ****     *  Allows the user to find out how full the TX Buffer is.
1271:Generated_Source\PSoC5/UART_tester.c ****     *
1272:Generated_Source\PSoC5/UART_tester.c ****     *******************************************************************************/
1273:Generated_Source\PSoC5/UART_tester.c ****     uint8 UART_tester_GetTxBufferSize(void)
1274:Generated_Source\PSoC5/UART_tester.c ****                                                             
1275:Generated_Source\PSoC5/UART_tester.c ****     {
 954              		.loc 1 1275 5 is_stmt 1 view -0
 955              		.cfi_startproc
 956              		@ args = 0, pretend = 0, frame = 0
 957              		@ frame_needed = 0, uses_anonymous_args = 0
 958              		@ link register save eliminated.
1276:Generated_Source\PSoC5/UART_tester.c ****         uint8 size;
 959              		.loc 1 1276 9 view .LVU189
1277:Generated_Source\PSoC5/UART_tester.c **** 
1278:Generated_Source\PSoC5/UART_tester.c ****     #if (UART_tester_TX_INTERRUPT_ENABLED)
1279:Generated_Source\PSoC5/UART_tester.c **** 
1280:Generated_Source\PSoC5/UART_tester.c ****         /* Protect variables that could change on interrupt. */
1281:Generated_Source\PSoC5/UART_tester.c ****         UART_tester_DisableTxInt();
1282:Generated_Source\PSoC5/UART_tester.c **** 
1283:Generated_Source\PSoC5/UART_tester.c ****         if(UART_tester_txBufferRead == UART_tester_txBufferWrite)
1284:Generated_Source\PSoC5/UART_tester.c ****         {
1285:Generated_Source\PSoC5/UART_tester.c ****             size = 0u;
1286:Generated_Source\PSoC5/UART_tester.c ****         }
1287:Generated_Source\PSoC5/UART_tester.c ****         else if(UART_tester_txBufferRead < UART_tester_txBufferWrite)
1288:Generated_Source\PSoC5/UART_tester.c ****         {
1289:Generated_Source\PSoC5/UART_tester.c ****             size = (UART_tester_txBufferWrite - UART_tester_txBufferRead);
1290:Generated_Source\PSoC5/UART_tester.c ****         }
1291:Generated_Source\PSoC5/UART_tester.c ****         else
1292:Generated_Source\PSoC5/UART_tester.c ****         {
1293:Generated_Source\PSoC5/UART_tester.c ****             size = (UART_tester_TX_BUFFER_SIZE - UART_tester_txBufferRead) +
1294:Generated_Source\PSoC5/UART_tester.c ****                     UART_tester_txBufferWrite;
1295:Generated_Source\PSoC5/UART_tester.c ****         }
ARM GAS  C:\Users\jens-\AppData\Local\Temp\ccP7oHVf.s 			page 41


1296:Generated_Source\PSoC5/UART_tester.c **** 
1297:Generated_Source\PSoC5/UART_tester.c ****         UART_tester_EnableTxInt();
1298:Generated_Source\PSoC5/UART_tester.c **** 
1299:Generated_Source\PSoC5/UART_tester.c ****     #else
1300:Generated_Source\PSoC5/UART_tester.c **** 
1301:Generated_Source\PSoC5/UART_tester.c ****         size = UART_tester_TXSTATUS_REG;
 960              		.loc 1 1301 9 view .LVU190
 961              		.loc 1 1301 14 is_stmt 0 view .LVU191
 962 0000 064B     		ldr	r3, .L94
 963 0002 1878     		ldrb	r0, [r3]	@ zero_extendqisi2
 964 0004 C3B2     		uxtb	r3, r0
 965              	.LVL52:
1302:Generated_Source\PSoC5/UART_tester.c **** 
1303:Generated_Source\PSoC5/UART_tester.c ****         /* Is the fifo is full. */
1304:Generated_Source\PSoC5/UART_tester.c ****         if((size & UART_tester_TX_STS_FIFO_FULL) != 0u)
 966              		.loc 1 1304 9 is_stmt 1 view .LVU192
 967              		.loc 1 1304 11 is_stmt 0 view .LVU193
 968 0006 10F00400 		ands	r0, r0, #4
 969 000a 03D1     		bne	.L92
1305:Generated_Source\PSoC5/UART_tester.c ****         {
1306:Generated_Source\PSoC5/UART_tester.c ****             size = UART_tester_FIFO_LENGTH;
1307:Generated_Source\PSoC5/UART_tester.c ****         }
1308:Generated_Source\PSoC5/UART_tester.c ****         else if((size & UART_tester_TX_STS_FIFO_EMPTY) != 0u)
 970              		.loc 1 1308 14 is_stmt 1 view .LVU194
 971              		.loc 1 1308 16 is_stmt 0 view .LVU195
 972 000c 13F0020F 		tst	r3, #2
 973 0010 02D0     		beq	.L93
 974 0012 7047     		bx	lr
 975              	.L92:
1306:Generated_Source\PSoC5/UART_tester.c ****         }
 976              		.loc 1 1306 18 view .LVU196
 977 0014 0420     		movs	r0, #4
 978 0016 7047     		bx	lr
 979              	.L93:
1309:Generated_Source\PSoC5/UART_tester.c ****         {
1310:Generated_Source\PSoC5/UART_tester.c ****             size = 0u;
1311:Generated_Source\PSoC5/UART_tester.c ****         }
1312:Generated_Source\PSoC5/UART_tester.c ****         else
1313:Generated_Source\PSoC5/UART_tester.c ****         {
1314:Generated_Source\PSoC5/UART_tester.c ****             /* We only know there is data in the fifo. */
1315:Generated_Source\PSoC5/UART_tester.c ****             size = 1u;
 980              		.loc 1 1315 18 view .LVU197
 981 0018 0120     		movs	r0, #1
 982              	.LVL53:
1316:Generated_Source\PSoC5/UART_tester.c ****         }
1317:Generated_Source\PSoC5/UART_tester.c **** 
1318:Generated_Source\PSoC5/UART_tester.c ****     #endif /* (UART_tester_TX_INTERRUPT_ENABLED) */
1319:Generated_Source\PSoC5/UART_tester.c **** 
1320:Generated_Source\PSoC5/UART_tester.c ****     return(size);
 983              		.loc 1 1320 5 is_stmt 1 view .LVU198
1321:Generated_Source\PSoC5/UART_tester.c ****     }
 984              		.loc 1 1321 5 is_stmt 0 view .LVU199
 985 001a 7047     		bx	lr
 986              	.L95:
 987              		.align	2
 988              	.L94:
 989 001c 6B650040 		.word	1073767787
ARM GAS  C:\Users\jens-\AppData\Local\Temp\ccP7oHVf.s 			page 42


 990              		.cfi_endproc
 991              	.LFE23:
 992              		.size	UART_tester_GetTxBufferSize, .-UART_tester_GetTxBufferSize
 993              		.section	.text.UART_tester_ClearTxBuffer,"ax",%progbits
 994              		.align	1
 995              		.global	UART_tester_ClearTxBuffer
 996              		.syntax unified
 997              		.thumb
 998              		.thumb_func
 999              		.fpu softvfp
 1000              		.type	UART_tester_ClearTxBuffer, %function
 1001              	UART_tester_ClearTxBuffer:
 1002              	.LFB24:
1322:Generated_Source\PSoC5/UART_tester.c **** 
1323:Generated_Source\PSoC5/UART_tester.c **** 
1324:Generated_Source\PSoC5/UART_tester.c ****     /*******************************************************************************
1325:Generated_Source\PSoC5/UART_tester.c ****     * Function Name: UART_tester_ClearTxBuffer
1326:Generated_Source\PSoC5/UART_tester.c ****     ********************************************************************************
1327:Generated_Source\PSoC5/UART_tester.c ****     *
1328:Generated_Source\PSoC5/UART_tester.c ****     * Summary:
1329:Generated_Source\PSoC5/UART_tester.c ****     *  Clears all data from the TX buffer and hardware TX FIFO.
1330:Generated_Source\PSoC5/UART_tester.c ****     *
1331:Generated_Source\PSoC5/UART_tester.c ****     * Parameters:
1332:Generated_Source\PSoC5/UART_tester.c ****     *  None.
1333:Generated_Source\PSoC5/UART_tester.c ****     *
1334:Generated_Source\PSoC5/UART_tester.c ****     * Return:
1335:Generated_Source\PSoC5/UART_tester.c ****     *  None.
1336:Generated_Source\PSoC5/UART_tester.c ****     *
1337:Generated_Source\PSoC5/UART_tester.c ****     * Global Variables:
1338:Generated_Source\PSoC5/UART_tester.c ****     *  UART_tester_txBufferWrite - cleared to zero.
1339:Generated_Source\PSoC5/UART_tester.c ****     *  UART_tester_txBufferRead - cleared to zero.
1340:Generated_Source\PSoC5/UART_tester.c ****     *
1341:Generated_Source\PSoC5/UART_tester.c ****     * Reentrant:
1342:Generated_Source\PSoC5/UART_tester.c ****     *  No.
1343:Generated_Source\PSoC5/UART_tester.c ****     *
1344:Generated_Source\PSoC5/UART_tester.c ****     * Theory:
1345:Generated_Source\PSoC5/UART_tester.c ****     *  Setting the pointers to zero makes the system believe there is no data to
1346:Generated_Source\PSoC5/UART_tester.c ****     *  read and writing will resume at address 0 overwriting any data that may have
1347:Generated_Source\PSoC5/UART_tester.c ****     *  remained in the RAM.
1348:Generated_Source\PSoC5/UART_tester.c ****     *
1349:Generated_Source\PSoC5/UART_tester.c ****     * Side Effects:
1350:Generated_Source\PSoC5/UART_tester.c ****     *  Data waiting in the transmit buffer is not sent; a byte that is currently
1351:Generated_Source\PSoC5/UART_tester.c ****     *  transmitting finishes transmitting.
1352:Generated_Source\PSoC5/UART_tester.c ****     *
1353:Generated_Source\PSoC5/UART_tester.c ****     *******************************************************************************/
1354:Generated_Source\PSoC5/UART_tester.c ****     void UART_tester_ClearTxBuffer(void) 
1355:Generated_Source\PSoC5/UART_tester.c ****     {
 1003              		.loc 1 1355 5 is_stmt 1 view -0
 1004              		.cfi_startproc
 1005              		@ args = 0, pretend = 0, frame = 0
 1006              		@ frame_needed = 0, uses_anonymous_args = 0
 1007 0000 08B5     		push	{r3, lr}
 1008              		.cfi_def_cfa_offset 8
 1009              		.cfi_offset 3, -8
 1010              		.cfi_offset 14, -4
1356:Generated_Source\PSoC5/UART_tester.c ****         uint8 enableInterrupts;
 1011              		.loc 1 1356 9 view .LVU201
ARM GAS  C:\Users\jens-\AppData\Local\Temp\ccP7oHVf.s 			page 43


1357:Generated_Source\PSoC5/UART_tester.c **** 
1358:Generated_Source\PSoC5/UART_tester.c ****         enableInterrupts = CyEnterCriticalSection();
 1012              		.loc 1 1358 9 view .LVU202
 1013              		.loc 1 1358 28 is_stmt 0 view .LVU203
 1014 0002 FFF7FEFF 		bl	CyEnterCriticalSection
 1015              	.LVL54:
1359:Generated_Source\PSoC5/UART_tester.c ****         /* Clear the HW FIFO */
1360:Generated_Source\PSoC5/UART_tester.c ****         UART_tester_TXDATA_AUX_CTL_REG |= (uint8)  UART_tester_TX_FIFO_CLR;
 1016              		.loc 1 1360 9 is_stmt 1 view .LVU204
 1017              		.loc 1 1360 40 is_stmt 0 view .LVU205
 1018 0006 064B     		ldr	r3, .L98
 1019 0008 1A78     		ldrb	r2, [r3]	@ zero_extendqisi2
 1020 000a 42F00102 		orr	r2, r2, #1
 1021 000e 1A70     		strb	r2, [r3]
1361:Generated_Source\PSoC5/UART_tester.c ****         UART_tester_TXDATA_AUX_CTL_REG &= (uint8) ~UART_tester_TX_FIFO_CLR;
 1022              		.loc 1 1361 9 is_stmt 1 view .LVU206
 1023              		.loc 1 1361 40 is_stmt 0 view .LVU207
 1024 0010 1A78     		ldrb	r2, [r3]	@ zero_extendqisi2
 1025 0012 02F0FE02 		and	r2, r2, #254
 1026 0016 1A70     		strb	r2, [r3]
1362:Generated_Source\PSoC5/UART_tester.c ****         CyExitCriticalSection(enableInterrupts);
 1027              		.loc 1 1362 9 is_stmt 1 view .LVU208
 1028 0018 FFF7FEFF 		bl	CyExitCriticalSection
 1029              	.LVL55:
1363:Generated_Source\PSoC5/UART_tester.c **** 
1364:Generated_Source\PSoC5/UART_tester.c ****     #if (UART_tester_TX_INTERRUPT_ENABLED)
1365:Generated_Source\PSoC5/UART_tester.c **** 
1366:Generated_Source\PSoC5/UART_tester.c ****         /* Protect variables that could change on interrupt. */
1367:Generated_Source\PSoC5/UART_tester.c ****         UART_tester_DisableTxInt();
1368:Generated_Source\PSoC5/UART_tester.c **** 
1369:Generated_Source\PSoC5/UART_tester.c ****         UART_tester_txBufferRead = 0u;
1370:Generated_Source\PSoC5/UART_tester.c ****         UART_tester_txBufferWrite = 0u;
1371:Generated_Source\PSoC5/UART_tester.c **** 
1372:Generated_Source\PSoC5/UART_tester.c ****         /* Enable Tx interrupt. */
1373:Generated_Source\PSoC5/UART_tester.c ****         UART_tester_EnableTxInt();
1374:Generated_Source\PSoC5/UART_tester.c **** 
1375:Generated_Source\PSoC5/UART_tester.c ****     #endif /* (UART_tester_TX_INTERRUPT_ENABLED) */
1376:Generated_Source\PSoC5/UART_tester.c ****     }
 1030              		.loc 1 1376 5 is_stmt 0 view .LVU209
 1031 001c 08BD     		pop	{r3, pc}
 1032              	.L99:
 1033 001e 00BF     		.align	2
 1034              	.L98:
 1035 0020 9B650040 		.word	1073767835
 1036              		.cfi_endproc
 1037              	.LFE24:
 1038              		.size	UART_tester_ClearTxBuffer, .-UART_tester_ClearTxBuffer
 1039              		.section	.text.UART_tester_SendBreak,"ax",%progbits
 1040              		.align	1
 1041              		.global	UART_tester_SendBreak
 1042              		.syntax unified
 1043              		.thumb
 1044              		.thumb_func
 1045              		.fpu softvfp
 1046              		.type	UART_tester_SendBreak, %function
 1047              	UART_tester_SendBreak:
 1048              	.LVL56:
ARM GAS  C:\Users\jens-\AppData\Local\Temp\ccP7oHVf.s 			page 44


 1049              	.LFB25:
1377:Generated_Source\PSoC5/UART_tester.c **** 
1378:Generated_Source\PSoC5/UART_tester.c **** 
1379:Generated_Source\PSoC5/UART_tester.c ****     /*******************************************************************************
1380:Generated_Source\PSoC5/UART_tester.c ****     * Function Name: UART_tester_SendBreak
1381:Generated_Source\PSoC5/UART_tester.c ****     ********************************************************************************
1382:Generated_Source\PSoC5/UART_tester.c ****     *
1383:Generated_Source\PSoC5/UART_tester.c ****     * Summary:
1384:Generated_Source\PSoC5/UART_tester.c ****     *  Transmits a break signal on the bus.
1385:Generated_Source\PSoC5/UART_tester.c ****     *
1386:Generated_Source\PSoC5/UART_tester.c ****     * Parameters:
1387:Generated_Source\PSoC5/UART_tester.c ****     *  uint8 retMode:  Send Break return mode. See the following table for options.
1388:Generated_Source\PSoC5/UART_tester.c ****     *   UART_tester_SEND_BREAK - Initialize registers for break, send the Break
1389:Generated_Source\PSoC5/UART_tester.c ****     *       signal and return immediately.
1390:Generated_Source\PSoC5/UART_tester.c ****     *   UART_tester_WAIT_FOR_COMPLETE_REINIT - Wait until break transmission is
1391:Generated_Source\PSoC5/UART_tester.c ****     *       complete, reinitialize registers to normal transmission mode then return
1392:Generated_Source\PSoC5/UART_tester.c ****     *   UART_tester_REINIT - Reinitialize registers to normal transmission mode
1393:Generated_Source\PSoC5/UART_tester.c ****     *       then return.
1394:Generated_Source\PSoC5/UART_tester.c ****     *   UART_tester_SEND_WAIT_REINIT - Performs both options: 
1395:Generated_Source\PSoC5/UART_tester.c ****     *      UART_tester_SEND_BREAK and UART_tester_WAIT_FOR_COMPLETE_REINIT.
1396:Generated_Source\PSoC5/UART_tester.c ****     *      This option is recommended for most cases.
1397:Generated_Source\PSoC5/UART_tester.c ****     *
1398:Generated_Source\PSoC5/UART_tester.c ****     * Return:
1399:Generated_Source\PSoC5/UART_tester.c ****     *  None.
1400:Generated_Source\PSoC5/UART_tester.c ****     *
1401:Generated_Source\PSoC5/UART_tester.c ****     * Global Variables:
1402:Generated_Source\PSoC5/UART_tester.c ****     *  UART_tester_initVar - checked to identify that the component has been
1403:Generated_Source\PSoC5/UART_tester.c ****     *     initialized.
1404:Generated_Source\PSoC5/UART_tester.c ****     *  txPeriod - static variable, used for keeping TX period configuration.
1405:Generated_Source\PSoC5/UART_tester.c ****     *
1406:Generated_Source\PSoC5/UART_tester.c ****     * Reentrant:
1407:Generated_Source\PSoC5/UART_tester.c ****     *  No.
1408:Generated_Source\PSoC5/UART_tester.c ****     *
1409:Generated_Source\PSoC5/UART_tester.c ****     * Theory:
1410:Generated_Source\PSoC5/UART_tester.c ****     *  SendBreak function initializes registers to send 13-bit break signal. It is
1411:Generated_Source\PSoC5/UART_tester.c ****     *  important to return the registers configuration to normal for continue 8-bit
1412:Generated_Source\PSoC5/UART_tester.c ****     *  operation.
1413:Generated_Source\PSoC5/UART_tester.c ****     *  There are 3 variants for this API usage:
1414:Generated_Source\PSoC5/UART_tester.c ****     *  1) SendBreak(3) - function will send the Break signal and take care on the
1415:Generated_Source\PSoC5/UART_tester.c ****     *     configuration returning. Function will block CPU until transmission
1416:Generated_Source\PSoC5/UART_tester.c ****     *     complete.
1417:Generated_Source\PSoC5/UART_tester.c ****     *  2) User may want to use blocking time if UART configured to the low speed
1418:Generated_Source\PSoC5/UART_tester.c ****     *     operation
1419:Generated_Source\PSoC5/UART_tester.c ****     *     Example for this case:
1420:Generated_Source\PSoC5/UART_tester.c ****     *     SendBreak(0);     - initialize Break signal transmission
1421:Generated_Source\PSoC5/UART_tester.c ****     *         Add your code here to use CPU time
1422:Generated_Source\PSoC5/UART_tester.c ****     *     SendBreak(1);     - complete Break operation
1423:Generated_Source\PSoC5/UART_tester.c ****     *  3) Same to 2) but user may want to initialize and use the interrupt to
1424:Generated_Source\PSoC5/UART_tester.c ****     *     complete break operation.
1425:Generated_Source\PSoC5/UART_tester.c ****     *     Example for this case:
1426:Generated_Source\PSoC5/UART_tester.c ****     *     Initialize TX interrupt with "TX - On TX Complete" parameter
1427:Generated_Source\PSoC5/UART_tester.c ****     *     SendBreak(0);     - initialize Break signal transmission
1428:Generated_Source\PSoC5/UART_tester.c ****     *         Add your code here to use CPU time
1429:Generated_Source\PSoC5/UART_tester.c ****     *     When interrupt appear with UART_tester_TX_STS_COMPLETE status:
1430:Generated_Source\PSoC5/UART_tester.c ****     *     SendBreak(2);     - complete Break operation
1431:Generated_Source\PSoC5/UART_tester.c ****     *
1432:Generated_Source\PSoC5/UART_tester.c ****     * Side Effects:
ARM GAS  C:\Users\jens-\AppData\Local\Temp\ccP7oHVf.s 			page 45


1433:Generated_Source\PSoC5/UART_tester.c ****     *  The UART_tester_SendBreak() function initializes registers to send a
1434:Generated_Source\PSoC5/UART_tester.c ****     *  break signal.
1435:Generated_Source\PSoC5/UART_tester.c ****     *  Break signal length depends on the break signal bits configuration.
1436:Generated_Source\PSoC5/UART_tester.c ****     *  The register configuration should be reinitialized before normal 8-bit
1437:Generated_Source\PSoC5/UART_tester.c ****     *  communication can continue.
1438:Generated_Source\PSoC5/UART_tester.c ****     *
1439:Generated_Source\PSoC5/UART_tester.c ****     *******************************************************************************/
1440:Generated_Source\PSoC5/UART_tester.c ****     void UART_tester_SendBreak(uint8 retMode) 
1441:Generated_Source\PSoC5/UART_tester.c ****     {
 1050              		.loc 1 1441 5 is_stmt 1 view -0
 1051              		.cfi_startproc
 1052              		@ args = 0, pretend = 0, frame = 0
 1053              		@ frame_needed = 0, uses_anonymous_args = 0
 1054              		@ link register save eliminated.
1442:Generated_Source\PSoC5/UART_tester.c **** 
1443:Generated_Source\PSoC5/UART_tester.c ****         /* If not Initialized then skip this function*/
1444:Generated_Source\PSoC5/UART_tester.c ****         if(UART_tester_initVar != 0u)
 1055              		.loc 1 1444 9 view .LVU211
 1056              		.loc 1 1444 32 is_stmt 0 view .LVU212
 1057 0000 124B     		ldr	r3, .L107
 1058 0002 1B78     		ldrb	r3, [r3]	@ zero_extendqisi2
 1059              		.loc 1 1444 11 view .LVU213
 1060 0004 0BB3     		cbz	r3, .L100
 1061              	.LBB2:
1445:Generated_Source\PSoC5/UART_tester.c ****         {
1446:Generated_Source\PSoC5/UART_tester.c ****             /* Set the Counter to 13-bits and transmit a 00 byte */
1447:Generated_Source\PSoC5/UART_tester.c ****             /* When that is done then reset the counter value back */
1448:Generated_Source\PSoC5/UART_tester.c ****             uint8 tmpStat;
 1062              		.loc 1 1448 13 is_stmt 1 view .LVU214
1449:Generated_Source\PSoC5/UART_tester.c **** 
1450:Generated_Source\PSoC5/UART_tester.c ****         #if(UART_tester_HD_ENABLED) /* Half Duplex mode*/
1451:Generated_Source\PSoC5/UART_tester.c **** 
1452:Generated_Source\PSoC5/UART_tester.c ****             if( (retMode == UART_tester_SEND_BREAK) ||
1453:Generated_Source\PSoC5/UART_tester.c ****                 (retMode == UART_tester_SEND_WAIT_REINIT ) )
1454:Generated_Source\PSoC5/UART_tester.c ****             {
1455:Generated_Source\PSoC5/UART_tester.c ****                 /* CTRL_HD_SEND_BREAK - sends break bits in HD mode */
1456:Generated_Source\PSoC5/UART_tester.c ****                 UART_tester_WriteControlRegister(UART_tester_ReadControlRegister() |
1457:Generated_Source\PSoC5/UART_tester.c ****                                                       UART_tester_CTRL_HD_SEND_BREAK);
1458:Generated_Source\PSoC5/UART_tester.c ****                 /* Send zeros */
1459:Generated_Source\PSoC5/UART_tester.c ****                 UART_tester_TXDATA_REG = 0u;
1460:Generated_Source\PSoC5/UART_tester.c **** 
1461:Generated_Source\PSoC5/UART_tester.c ****                 do /* Wait until transmit starts */
1462:Generated_Source\PSoC5/UART_tester.c ****                 {
1463:Generated_Source\PSoC5/UART_tester.c ****                     tmpStat = UART_tester_TXSTATUS_REG;
1464:Generated_Source\PSoC5/UART_tester.c ****                 }
1465:Generated_Source\PSoC5/UART_tester.c ****                 while((tmpStat & UART_tester_TX_STS_FIFO_EMPTY) != 0u);
1466:Generated_Source\PSoC5/UART_tester.c ****             }
1467:Generated_Source\PSoC5/UART_tester.c **** 
1468:Generated_Source\PSoC5/UART_tester.c ****             if( (retMode == UART_tester_WAIT_FOR_COMPLETE_REINIT) ||
1469:Generated_Source\PSoC5/UART_tester.c ****                 (retMode == UART_tester_SEND_WAIT_REINIT) )
1470:Generated_Source\PSoC5/UART_tester.c ****             {
1471:Generated_Source\PSoC5/UART_tester.c ****                 do /* Wait until transmit complete */
1472:Generated_Source\PSoC5/UART_tester.c ****                 {
1473:Generated_Source\PSoC5/UART_tester.c ****                     tmpStat = UART_tester_TXSTATUS_REG;
1474:Generated_Source\PSoC5/UART_tester.c ****                 }
1475:Generated_Source\PSoC5/UART_tester.c ****                 while(((uint8)~tmpStat & UART_tester_TX_STS_COMPLETE) != 0u);
1476:Generated_Source\PSoC5/UART_tester.c ****             }
ARM GAS  C:\Users\jens-\AppData\Local\Temp\ccP7oHVf.s 			page 46


1477:Generated_Source\PSoC5/UART_tester.c **** 
1478:Generated_Source\PSoC5/UART_tester.c ****             if( (retMode == UART_tester_WAIT_FOR_COMPLETE_REINIT) ||
1479:Generated_Source\PSoC5/UART_tester.c ****                 (retMode == UART_tester_REINIT) ||
1480:Generated_Source\PSoC5/UART_tester.c ****                 (retMode == UART_tester_SEND_WAIT_REINIT) )
1481:Generated_Source\PSoC5/UART_tester.c ****             {
1482:Generated_Source\PSoC5/UART_tester.c ****                 UART_tester_WriteControlRegister(UART_tester_ReadControlRegister() &
1483:Generated_Source\PSoC5/UART_tester.c ****                                               (uint8)~UART_tester_CTRL_HD_SEND_BREAK);
1484:Generated_Source\PSoC5/UART_tester.c ****             }
1485:Generated_Source\PSoC5/UART_tester.c **** 
1486:Generated_Source\PSoC5/UART_tester.c ****         #else /* UART_tester_HD_ENABLED Full Duplex mode */
1487:Generated_Source\PSoC5/UART_tester.c **** 
1488:Generated_Source\PSoC5/UART_tester.c ****             static uint8 txPeriod;
 1063              		.loc 1 1488 13 view .LVU215
1489:Generated_Source\PSoC5/UART_tester.c **** 
1490:Generated_Source\PSoC5/UART_tester.c ****             if( (retMode == UART_tester_SEND_BREAK) ||
 1064              		.loc 1 1490 13 view .LVU216
 1065              		.loc 1 1490 15 is_stmt 0 view .LVU217
 1066 0006 08B1     		cbz	r0, .L102
 1067              		.loc 1 1490 53 discriminator 1 view .LVU218
 1068 0008 0328     		cmp	r0, #3
 1069 000a 0DD1     		bne	.L103
 1070              	.L102:
1491:Generated_Source\PSoC5/UART_tester.c ****                 (retMode == UART_tester_SEND_WAIT_REINIT) )
1492:Generated_Source\PSoC5/UART_tester.c ****             {
1493:Generated_Source\PSoC5/UART_tester.c ****                 /* CTRL_HD_SEND_BREAK - skip to send parity bit at Break signal in Full Duplex mode
1494:Generated_Source\PSoC5/UART_tester.c ****                 #if( (UART_tester_PARITY_TYPE != UART_tester__B_UART__NONE_REVB) || \
1495:Generated_Source\PSoC5/UART_tester.c ****                                     (UART_tester_PARITY_TYPE_SW != 0u) )
1496:Generated_Source\PSoC5/UART_tester.c ****                     UART_tester_WriteControlRegister(UART_tester_ReadControlRegister() |
1497:Generated_Source\PSoC5/UART_tester.c ****                                                           UART_tester_CTRL_HD_SEND_BREAK);
1498:Generated_Source\PSoC5/UART_tester.c ****                 #endif /* End UART_tester_PARITY_TYPE != UART_tester__B_UART__NONE_REVB  */
1499:Generated_Source\PSoC5/UART_tester.c **** 
1500:Generated_Source\PSoC5/UART_tester.c ****                 #if(UART_tester_TXCLKGEN_DP)
1501:Generated_Source\PSoC5/UART_tester.c ****                     txPeriod = UART_tester_TXBITCLKTX_COMPLETE_REG;
 1071              		.loc 1 1501 21 is_stmt 1 view .LVU219
 1072              		.loc 1 1501 32 is_stmt 0 view .LVU220
 1073 000c 104B     		ldr	r3, .L107+4
 1074 000e 1978     		ldrb	r1, [r3]	@ zero_extendqisi2
 1075              		.loc 1 1501 30 view .LVU221
 1076 0010 0E4A     		ldr	r2, .L107
 1077 0012 5170     		strb	r1, [r2, #1]
1502:Generated_Source\PSoC5/UART_tester.c ****                     UART_tester_TXBITCLKTX_COMPLETE_REG = UART_tester_TXBITCTR_BREAKBITS;
 1078              		.loc 1 1502 21 is_stmt 1 view .LVU222
 1079              		.loc 1 1502 57 is_stmt 0 view .LVU223
 1080 0014 6722     		movs	r2, #103
 1081 0016 1A70     		strb	r2, [r3]
1503:Generated_Source\PSoC5/UART_tester.c ****                 #else
1504:Generated_Source\PSoC5/UART_tester.c ****                     txPeriod = UART_tester_TXBITCTR_PERIOD_REG;
1505:Generated_Source\PSoC5/UART_tester.c ****                     UART_tester_TXBITCTR_PERIOD_REG = UART_tester_TXBITCTR_BREAKBITS8X;
1506:Generated_Source\PSoC5/UART_tester.c ****                 #endif /* End UART_tester_TXCLKGEN_DP */
1507:Generated_Source\PSoC5/UART_tester.c **** 
1508:Generated_Source\PSoC5/UART_tester.c ****                 /* Send zeros */
1509:Generated_Source\PSoC5/UART_tester.c ****                 UART_tester_TXDATA_REG = 0u;
 1082              		.loc 1 1509 17 is_stmt 1 view .LVU224
 1083              		.loc 1 1509 40 is_stmt 0 view .LVU225
 1084 0018 1133     		adds	r3, r3, #17
 1085 001a 0022     		movs	r2, #0
 1086 001c 1A70     		strb	r2, [r3]
ARM GAS  C:\Users\jens-\AppData\Local\Temp\ccP7oHVf.s 			page 47


 1087              	.L104:
1510:Generated_Source\PSoC5/UART_tester.c **** 
1511:Generated_Source\PSoC5/UART_tester.c ****                 do /* Wait until transmit starts */
 1088              		.loc 1 1511 17 is_stmt 1 discriminator 1 view .LVU226
1512:Generated_Source\PSoC5/UART_tester.c ****                 {
1513:Generated_Source\PSoC5/UART_tester.c ****                     tmpStat = UART_tester_TXSTATUS_REG;
 1089              		.loc 1 1513 21 discriminator 1 view .LVU227
 1090              		.loc 1 1513 29 is_stmt 0 discriminator 1 view .LVU228
 1091 001e 0D4B     		ldr	r3, .L107+8
 1092 0020 1B78     		ldrb	r3, [r3]	@ zero_extendqisi2
 1093              	.LVL57:
1514:Generated_Source\PSoC5/UART_tester.c ****                 }
1515:Generated_Source\PSoC5/UART_tester.c ****                 while((tmpStat & UART_tester_TX_STS_FIFO_EMPTY) != 0u);
 1094              		.loc 1 1515 22 is_stmt 1 discriminator 1 view .LVU229
 1095              		.loc 1 1515 17 is_stmt 0 discriminator 1 view .LVU230
 1096 0022 13F0020F 		tst	r3, #2
 1097 0026 FAD1     		bne	.L104
 1098              	.LVL58:
 1099              	.L103:
1516:Generated_Source\PSoC5/UART_tester.c ****             }
1517:Generated_Source\PSoC5/UART_tester.c **** 
1518:Generated_Source\PSoC5/UART_tester.c ****             if( (retMode == UART_tester_WAIT_FOR_COMPLETE_REINIT) ||
 1100              		.loc 1 1518 13 is_stmt 1 view .LVU231
 1101              		.loc 1 1518 15 is_stmt 0 view .LVU232
 1102 0028 0128     		cmp	r0, #1
 1103 002a 01D0     		beq	.L105
 1104              		.loc 1 1518 67 discriminator 1 view .LVU233
 1105 002c 0328     		cmp	r0, #3
 1106 002e 04D1     		bne	.L106
 1107              	.L105:
1519:Generated_Source\PSoC5/UART_tester.c ****                 (retMode == UART_tester_SEND_WAIT_REINIT) )
1520:Generated_Source\PSoC5/UART_tester.c ****             {
1521:Generated_Source\PSoC5/UART_tester.c ****                 do /* Wait until transmit complete */
 1108              		.loc 1 1521 17 is_stmt 1 discriminator 1 view .LVU234
1522:Generated_Source\PSoC5/UART_tester.c ****                 {
1523:Generated_Source\PSoC5/UART_tester.c ****                     tmpStat = UART_tester_TXSTATUS_REG;
 1109              		.loc 1 1523 21 discriminator 1 view .LVU235
 1110              		.loc 1 1523 29 is_stmt 0 discriminator 1 view .LVU236
 1111 0030 084B     		ldr	r3, .L107+8
 1112 0032 1B78     		ldrb	r3, [r3]	@ zero_extendqisi2
 1113              	.LVL59:
1524:Generated_Source\PSoC5/UART_tester.c ****                 }
1525:Generated_Source\PSoC5/UART_tester.c ****                 while(((uint8)~tmpStat & UART_tester_TX_STS_COMPLETE) != 0u);
 1114              		.loc 1 1525 22 is_stmt 1 discriminator 1 view .LVU237
 1115              		.loc 1 1525 17 is_stmt 0 discriminator 1 view .LVU238
 1116 0034 13F0010F 		tst	r3, #1
 1117 0038 FAD0     		beq	.L105
 1118              	.LVL60:
 1119              	.L106:
1526:Generated_Source\PSoC5/UART_tester.c ****             }
1527:Generated_Source\PSoC5/UART_tester.c **** 
1528:Generated_Source\PSoC5/UART_tester.c ****             if( (retMode == UART_tester_WAIT_FOR_COMPLETE_REINIT) ||
 1120              		.loc 1 1528 13 is_stmt 1 view .LVU239
1529:Generated_Source\PSoC5/UART_tester.c ****                 (retMode == UART_tester_REINIT) ||
 1121              		.loc 1 1529 49 is_stmt 0 view .LVU240
 1122 003a 0138     		subs	r0, r0, #1
 1123              	.LVL61:
ARM GAS  C:\Users\jens-\AppData\Local\Temp\ccP7oHVf.s 			page 48


 1124              		.loc 1 1529 49 view .LVU241
 1125 003c C0B2     		uxtb	r0, r0
1528:Generated_Source\PSoC5/UART_tester.c ****                 (retMode == UART_tester_REINIT) ||
 1126              		.loc 1 1528 15 view .LVU242
 1127 003e 0228     		cmp	r0, #2
 1128 0040 03D8     		bhi	.L100
1530:Generated_Source\PSoC5/UART_tester.c ****                 (retMode == UART_tester_SEND_WAIT_REINIT) )
1531:Generated_Source\PSoC5/UART_tester.c ****             {
1532:Generated_Source\PSoC5/UART_tester.c **** 
1533:Generated_Source\PSoC5/UART_tester.c ****             #if(UART_tester_TXCLKGEN_DP)
1534:Generated_Source\PSoC5/UART_tester.c ****                 UART_tester_TXBITCLKTX_COMPLETE_REG = txPeriod;
 1129              		.loc 1 1534 17 is_stmt 1 view .LVU243
 1130              		.loc 1 1534 53 is_stmt 0 view .LVU244
 1131 0042 024B     		ldr	r3, .L107
 1132 0044 5A78     		ldrb	r2, [r3, #1]	@ zero_extendqisi2
 1133 0046 024B     		ldr	r3, .L107+4
 1134 0048 1A70     		strb	r2, [r3]
 1135              	.L100:
 1136              	.LBE2:
1535:Generated_Source\PSoC5/UART_tester.c ****             #else
1536:Generated_Source\PSoC5/UART_tester.c ****                 UART_tester_TXBITCTR_PERIOD_REG = txPeriod;
1537:Generated_Source\PSoC5/UART_tester.c ****             #endif /* End UART_tester_TXCLKGEN_DP */
1538:Generated_Source\PSoC5/UART_tester.c **** 
1539:Generated_Source\PSoC5/UART_tester.c ****             #if( (UART_tester_PARITY_TYPE != UART_tester__B_UART__NONE_REVB) || \
1540:Generated_Source\PSoC5/UART_tester.c ****                  (UART_tester_PARITY_TYPE_SW != 0u) )
1541:Generated_Source\PSoC5/UART_tester.c ****                 UART_tester_WriteControlRegister(UART_tester_ReadControlRegister() &
1542:Generated_Source\PSoC5/UART_tester.c ****                                                       (uint8) ~UART_tester_CTRL_HD_SEND_BREAK);
1543:Generated_Source\PSoC5/UART_tester.c ****             #endif /* End UART_tester_PARITY_TYPE != NONE */
1544:Generated_Source\PSoC5/UART_tester.c ****             }
1545:Generated_Source\PSoC5/UART_tester.c ****         #endif    /* End UART_tester_HD_ENABLED */
1546:Generated_Source\PSoC5/UART_tester.c ****         }
1547:Generated_Source\PSoC5/UART_tester.c ****     }
 1137              		.loc 1 1547 5 view .LVU245
 1138 004a 7047     		bx	lr
 1139              	.L108:
 1140              		.align	2
 1141              	.L107:
 1142 004c 00000000 		.word	.LANCHOR0
 1143 0050 3A650040 		.word	1073767738
 1144 0054 6B650040 		.word	1073767787
 1145              		.cfi_endproc
 1146              	.LFE25:
 1147              		.size	UART_tester_SendBreak, .-UART_tester_SendBreak
 1148              		.section	.text.UART_tester_SetTxAddressMode,"ax",%progbits
 1149              		.align	1
 1150              		.global	UART_tester_SetTxAddressMode
 1151              		.syntax unified
 1152              		.thumb
 1153              		.thumb_func
 1154              		.fpu softvfp
 1155              		.type	UART_tester_SetTxAddressMode, %function
 1156              	UART_tester_SetTxAddressMode:
 1157              	.LVL62:
 1158              	.LFB26:
1548:Generated_Source\PSoC5/UART_tester.c **** 
1549:Generated_Source\PSoC5/UART_tester.c **** 
1550:Generated_Source\PSoC5/UART_tester.c ****     /*******************************************************************************
ARM GAS  C:\Users\jens-\AppData\Local\Temp\ccP7oHVf.s 			page 49


1551:Generated_Source\PSoC5/UART_tester.c ****     * Function Name: UART_tester_SetTxAddressMode
1552:Generated_Source\PSoC5/UART_tester.c ****     ********************************************************************************
1553:Generated_Source\PSoC5/UART_tester.c ****     *
1554:Generated_Source\PSoC5/UART_tester.c ****     * Summary:
1555:Generated_Source\PSoC5/UART_tester.c ****     *  Configures the transmitter to signal the next bytes is address or data.
1556:Generated_Source\PSoC5/UART_tester.c ****     *
1557:Generated_Source\PSoC5/UART_tester.c ****     * Parameters:
1558:Generated_Source\PSoC5/UART_tester.c ****     *  addressMode: 
1559:Generated_Source\PSoC5/UART_tester.c ****     *       UART_tester_SET_SPACE - Configure the transmitter to send the next
1560:Generated_Source\PSoC5/UART_tester.c ****     *                                    byte as a data.
1561:Generated_Source\PSoC5/UART_tester.c ****     *       UART_tester_SET_MARK  - Configure the transmitter to send the next
1562:Generated_Source\PSoC5/UART_tester.c ****     *                                    byte as an address.
1563:Generated_Source\PSoC5/UART_tester.c ****     *
1564:Generated_Source\PSoC5/UART_tester.c ****     * Return:
1565:Generated_Source\PSoC5/UART_tester.c ****     *  None.
1566:Generated_Source\PSoC5/UART_tester.c ****     *
1567:Generated_Source\PSoC5/UART_tester.c ****     * Side Effects:
1568:Generated_Source\PSoC5/UART_tester.c ****     *  This function sets and clears UART_tester_CTRL_MARK bit in the Control
1569:Generated_Source\PSoC5/UART_tester.c ****     *  register.
1570:Generated_Source\PSoC5/UART_tester.c ****     *
1571:Generated_Source\PSoC5/UART_tester.c ****     *******************************************************************************/
1572:Generated_Source\PSoC5/UART_tester.c ****     void UART_tester_SetTxAddressMode(uint8 addressMode) 
1573:Generated_Source\PSoC5/UART_tester.c ****     {
 1159              		.loc 1 1573 5 is_stmt 1 view -0
 1160              		.cfi_startproc
 1161              		@ args = 0, pretend = 0, frame = 0
 1162              		@ frame_needed = 0, uses_anonymous_args = 0
 1163              		@ link register save eliminated.
1574:Generated_Source\PSoC5/UART_tester.c ****         /* Mark/Space sending enable */
1575:Generated_Source\PSoC5/UART_tester.c ****         if(addressMode != 0u)
 1164              		.loc 1 1575 9 view .LVU247
1576:Generated_Source\PSoC5/UART_tester.c ****         {
1577:Generated_Source\PSoC5/UART_tester.c ****         #if( UART_tester_CONTROL_REG_REMOVED == 0u )
1578:Generated_Source\PSoC5/UART_tester.c ****             UART_tester_WriteControlRegister(UART_tester_ReadControlRegister() |
1579:Generated_Source\PSoC5/UART_tester.c ****                                                   UART_tester_CTRL_MARK);
1580:Generated_Source\PSoC5/UART_tester.c ****         #endif /* End UART_tester_CONTROL_REG_REMOVED == 0u */
1581:Generated_Source\PSoC5/UART_tester.c ****         }
1582:Generated_Source\PSoC5/UART_tester.c ****         else
1583:Generated_Source\PSoC5/UART_tester.c ****         {
1584:Generated_Source\PSoC5/UART_tester.c ****         #if( UART_tester_CONTROL_REG_REMOVED == 0u )
1585:Generated_Source\PSoC5/UART_tester.c ****             UART_tester_WriteControlRegister(UART_tester_ReadControlRegister() &
1586:Generated_Source\PSoC5/UART_tester.c ****                                                   (uint8) ~UART_tester_CTRL_MARK);
1587:Generated_Source\PSoC5/UART_tester.c ****         #endif /* End UART_tester_CONTROL_REG_REMOVED == 0u */
1588:Generated_Source\PSoC5/UART_tester.c ****         }
 1165              		.loc 1 1588 9 view .LVU248
1589:Generated_Source\PSoC5/UART_tester.c ****     }
 1166              		.loc 1 1589 5 is_stmt 0 view .LVU249
 1167 0000 7047     		bx	lr
 1168              		.cfi_endproc
 1169              	.LFE26:
 1170              		.size	UART_tester_SetTxAddressMode, .-UART_tester_SetTxAddressMode
 1171              		.global	UART_tester_initVar
 1172              		.bss
 1173              		.set	.LANCHOR0,. + 0
 1174              		.type	UART_tester_initVar, %object
 1175              		.size	UART_tester_initVar, 1
 1176              	UART_tester_initVar:
ARM GAS  C:\Users\jens-\AppData\Local\Temp\ccP7oHVf.s 			page 50


 1177 0000 00       		.space	1
 1178              		.type	txPeriod.5206, %object
 1179              		.size	txPeriod.5206, 1
 1180              	txPeriod.5206:
 1181 0001 00       		.space	1
 1182              		.text
 1183              	.Letext0:
 1184              		.file 2 "Generated_Source\\PSoC5\\cytypes.h"
 1185              		.file 3 "c:\\program files (x86)\\cypress\\psoc creator\\4.2\\psoc creator\\import\\gnu\\arm\\5.4.
 1186              		.file 4 "c:\\program files (x86)\\cypress\\psoc creator\\4.2\\psoc creator\\import\\gnu\\arm\\5.4.
 1187              		.file 5 "c:\\program files (x86)\\cypress\\psoc creator\\4.2\\psoc creator\\import\\gnu\\arm\\5.4.
 1188              		.file 6 "c:\\program files (x86)\\cypress\\psoc creator\\4.2\\psoc creator\\import\\gnu\\arm\\5.4.
 1189              		.file 7 "c:\\program files (x86)\\cypress\\psoc creator\\4.2\\psoc creator\\import\\gnu\\arm\\5.4.
 1190              		.file 8 "Generated_Source\\PSoC5\\CySpc.h"
 1191              		.file 9 "Generated_Source\\PSoC5\\CyFlash.h"
 1192              		.file 10 "Generated_Source\\PSoC5\\CyLib.h"
 1193              		.file 11 "Generated_Source\\PSoC5\\UART_tester.h"
 1194              		.file 12 "Generated_Source\\PSoC5\\UART_tester_IntClock.h"
 1195              		.section	.debug_info,"",%progbits
 1196              	.Ldebug_info0:
 1197 0000 C60F0000 		.4byte	0xfc6
 1198 0004 0400     		.2byte	0x4
 1199 0006 00000000 		.4byte	.Ldebug_abbrev0
 1200 000a 04       		.byte	0x4
 1201 000b 01       		.uleb128 0x1
 1202 000c 14040000 		.4byte	.LASF182
 1203 0010 0C       		.byte	0xc
 1204 0011 42030000 		.4byte	.LASF183
 1205 0015 56090000 		.4byte	.LASF184
 1206 0019 00000000 		.4byte	.Ldebug_ranges0+0
 1207 001d 00000000 		.4byte	0
 1208 0021 00000000 		.4byte	.Ldebug_line0
 1209 0025 02       		.uleb128 0x2
 1210 0026 01       		.byte	0x1
 1211 0027 06       		.byte	0x6
 1212 0028 81010000 		.4byte	.LASF0
 1213 002c 02       		.uleb128 0x2
 1214 002d 01       		.byte	0x1
 1215 002e 08       		.byte	0x8
 1216 002f 42060000 		.4byte	.LASF1
 1217 0033 02       		.uleb128 0x2
 1218 0034 02       		.byte	0x2
 1219 0035 05       		.byte	0x5
 1220 0036 83060000 		.4byte	.LASF2
 1221 003a 02       		.uleb128 0x2
 1222 003b 02       		.byte	0x2
 1223 003c 07       		.byte	0x7
 1224 003d 7D030000 		.4byte	.LASF3
 1225 0041 02       		.uleb128 0x2
 1226 0042 04       		.byte	0x4
 1227 0043 05       		.byte	0x5
 1228 0044 1A020000 		.4byte	.LASF4
 1229 0048 02       		.uleb128 0x2
 1230 0049 04       		.byte	0x4
 1231 004a 07       		.byte	0x7
 1232 004b 30030000 		.4byte	.LASF5
 1233 004f 02       		.uleb128 0x2
ARM GAS  C:\Users\jens-\AppData\Local\Temp\ccP7oHVf.s 			page 51


 1234 0050 08       		.byte	0x8
 1235 0051 05       		.byte	0x5
 1236 0052 73010000 		.4byte	.LASF6
 1237 0056 02       		.uleb128 0x2
 1238 0057 08       		.byte	0x8
 1239 0058 07       		.byte	0x7
 1240 0059 C9000000 		.4byte	.LASF7
 1241 005d 03       		.uleb128 0x3
 1242 005e 04       		.byte	0x4
 1243 005f 05       		.byte	0x5
 1244 0060 696E7400 		.ascii	"int\000"
 1245 0064 02       		.uleb128 0x2
 1246 0065 04       		.byte	0x4
 1247 0066 07       		.byte	0x7
 1248 0067 0C030000 		.4byte	.LASF8
 1249 006b 04       		.uleb128 0x4
 1250 006c 42020000 		.4byte	.LASF9
 1251 0070 02       		.byte	0x2
 1252 0071 E401     		.2byte	0x1e4
 1253 0073 19       		.byte	0x19
 1254 0074 2C000000 		.4byte	0x2c
 1255 0078 05       		.uleb128 0x5
 1256 0079 6B000000 		.4byte	0x6b
 1257 007d 06       		.uleb128 0x6
 1258 007e 6B000000 		.4byte	0x6b
 1259 0082 04       		.uleb128 0x4
 1260 0083 0C000000 		.4byte	.LASF10
 1261 0087 02       		.byte	0x2
 1262 0088 E501     		.2byte	0x1e5
 1263 008a 19       		.byte	0x19
 1264 008b 3A000000 		.4byte	0x3a
 1265 008f 04       		.uleb128 0x4
 1266 0090 8A020000 		.4byte	.LASF11
 1267 0094 02       		.byte	0x2
 1268 0095 E601     		.2byte	0x1e6
 1269 0097 19       		.byte	0x19
 1270 0098 48000000 		.4byte	0x48
 1271 009c 02       		.uleb128 0x2
 1272 009d 04       		.byte	0x4
 1273 009e 04       		.byte	0x4
 1274 009f C3050000 		.4byte	.LASF12
 1275 00a3 02       		.uleb128 0x2
 1276 00a4 08       		.byte	0x8
 1277 00a5 04       		.byte	0x4
 1278 00a6 48020000 		.4byte	.LASF13
 1279 00aa 04       		.uleb128 0x4
 1280 00ab AD070000 		.4byte	.LASF14
 1281 00af 02       		.byte	0x2
 1282 00b0 F501     		.2byte	0x1f5
 1283 00b2 19       		.byte	0x19
 1284 00b3 BC000000 		.4byte	0xbc
 1285 00b7 06       		.uleb128 0x6
 1286 00b8 AA000000 		.4byte	0xaa
 1287 00bc 02       		.uleb128 0x2
 1288 00bd 01       		.byte	0x1
 1289 00be 08       		.byte	0x8
 1290 00bf 97070000 		.4byte	.LASF15
ARM GAS  C:\Users\jens-\AppData\Local\Temp\ccP7oHVf.s 			page 52


 1291 00c3 06       		.uleb128 0x6
 1292 00c4 BC000000 		.4byte	0xbc
 1293 00c8 04       		.uleb128 0x4
 1294 00c9 23060000 		.4byte	.LASF16
 1295 00cd 02       		.byte	0x2
 1296 00ce 8E02     		.2byte	0x28e
 1297 00d0 21       		.byte	0x21
 1298 00d1 78000000 		.4byte	0x78
 1299 00d5 07       		.uleb128 0x7
 1300 00d6 04       		.byte	0x4
 1301 00d7 DB000000 		.4byte	0xdb
 1302 00db 08       		.uleb128 0x8
 1303 00dc 02       		.uleb128 0x2
 1304 00dd 08       		.byte	0x8
 1305 00de 04       		.byte	0x4
 1306 00df 0F050000 		.4byte	.LASF17
 1307 00e3 09       		.uleb128 0x9
 1308 00e4 DD030000 		.4byte	.LASF18
 1309 00e8 03       		.byte	0x3
 1310 00e9 22       		.byte	0x22
 1311 00ea 19       		.byte	0x19
 1312 00eb EF000000 		.4byte	0xef
 1313 00ef 07       		.uleb128 0x7
 1314 00f0 04       		.byte	0x4
 1315 00f1 F5000000 		.4byte	0xf5
 1316 00f5 0A       		.uleb128 0xa
 1317 00f6 47070000 		.4byte	.LASF124
 1318 00fa 09       		.uleb128 0x9
 1319 00fb 66050000 		.4byte	.LASF19
 1320 00ff 04       		.byte	0x4
 1321 0100 2C       		.byte	0x2c
 1322 0101 0E       		.byte	0xe
 1323 0102 41000000 		.4byte	0x41
 1324 0106 09       		.uleb128 0x9
 1325 0107 68070000 		.4byte	.LASF20
 1326 010b 04       		.byte	0x4
 1327 010c 72       		.byte	0x72
 1328 010d 0E       		.byte	0xe
 1329 010e 41000000 		.4byte	0x41
 1330 0112 04       		.uleb128 0x4
 1331 0113 FF030000 		.4byte	.LASF21
 1332 0117 05       		.byte	0x5
 1333 0118 5E01     		.2byte	0x15e
 1334 011a 17       		.byte	0x17
 1335 011b 64000000 		.4byte	0x64
 1336 011f 0B       		.uleb128 0xb
 1337 0120 04       		.byte	0x4
 1338 0121 04       		.byte	0x4
 1339 0122 A6       		.byte	0xa6
 1340 0123 03       		.byte	0x3
 1341 0124 41010000 		.4byte	0x141
 1342 0128 0C       		.uleb128 0xc
 1343 0129 D7030000 		.4byte	.LASF22
 1344 012d 04       		.byte	0x4
 1345 012e A8       		.byte	0xa8
 1346 012f 0C       		.byte	0xc
 1347 0130 12010000 		.4byte	0x112
ARM GAS  C:\Users\jens-\AppData\Local\Temp\ccP7oHVf.s 			page 53


 1348 0134 0C       		.uleb128 0xc
 1349 0135 19030000 		.4byte	.LASF23
 1350 0139 04       		.byte	0x4
 1351 013a A9       		.byte	0xa9
 1352 013b 13       		.byte	0x13
 1353 013c 41010000 		.4byte	0x141
 1354 0140 00       		.byte	0
 1355 0141 0D       		.uleb128 0xd
 1356 0142 2C000000 		.4byte	0x2c
 1357 0146 51010000 		.4byte	0x151
 1358 014a 0E       		.uleb128 0xe
 1359 014b 64000000 		.4byte	0x64
 1360 014f 03       		.byte	0x3
 1361 0150 00       		.byte	0
 1362 0151 0F       		.uleb128 0xf
 1363 0152 08       		.byte	0x8
 1364 0153 04       		.byte	0x4
 1365 0154 A3       		.byte	0xa3
 1366 0155 09       		.byte	0x9
 1367 0156 75010000 		.4byte	0x175
 1368 015a 10       		.uleb128 0x10
 1369 015b 3F070000 		.4byte	.LASF24
 1370 015f 04       		.byte	0x4
 1371 0160 A5       		.byte	0xa5
 1372 0161 07       		.byte	0x7
 1373 0162 5D000000 		.4byte	0x5d
 1374 0166 00       		.byte	0
 1375 0167 10       		.uleb128 0x10
 1376 0168 4E070000 		.4byte	.LASF25
 1377 016c 04       		.byte	0x4
 1378 016d AA       		.byte	0xaa
 1379 016e 05       		.byte	0x5
 1380 016f 1F010000 		.4byte	0x11f
 1381 0173 04       		.byte	0x4
 1382 0174 00       		.byte	0
 1383 0175 09       		.uleb128 0x9
 1384 0176 AB060000 		.4byte	.LASF26
 1385 017a 04       		.byte	0x4
 1386 017b AB       		.byte	0xab
 1387 017c 03       		.byte	0x3
 1388 017d 51010000 		.4byte	0x151
 1389 0181 09       		.uleb128 0x9
 1390 0182 B5020000 		.4byte	.LASF27
 1391 0186 04       		.byte	0x4
 1392 0187 AF       		.byte	0xaf
 1393 0188 1B       		.byte	0x1b
 1394 0189 E3000000 		.4byte	0xe3
 1395 018d 11       		.uleb128 0x11
 1396 018e 04       		.byte	0x4
 1397 018f 07       		.uleb128 0x7
 1398 0190 04       		.byte	0x4
 1399 0191 BC000000 		.4byte	0xbc
 1400 0195 09       		.uleb128 0x9
 1401 0196 14080000 		.4byte	.LASF28
 1402 019a 06       		.byte	0x6
 1403 019b 16       		.byte	0x16
 1404 019c 19       		.byte	0x19
ARM GAS  C:\Users\jens-\AppData\Local\Temp\ccP7oHVf.s 			page 54


 1405 019d 48000000 		.4byte	0x48
 1406 01a1 12       		.uleb128 0x12
 1407 01a2 C6020000 		.4byte	.LASF33
 1408 01a6 18       		.byte	0x18
 1409 01a7 06       		.byte	0x6
 1410 01a8 2F       		.byte	0x2f
 1411 01a9 08       		.byte	0x8
 1412 01aa FB010000 		.4byte	0x1fb
 1413 01ae 10       		.uleb128 0x10
 1414 01af B9070000 		.4byte	.LASF29
 1415 01b3 06       		.byte	0x6
 1416 01b4 31       		.byte	0x31
 1417 01b5 13       		.byte	0x13
 1418 01b6 FB010000 		.4byte	0x1fb
 1419 01ba 00       		.byte	0
 1420 01bb 13       		.uleb128 0x13
 1421 01bc 5F6B00   		.ascii	"_k\000"
 1422 01bf 06       		.byte	0x6
 1423 01c0 32       		.byte	0x32
 1424 01c1 07       		.byte	0x7
 1425 01c2 5D000000 		.4byte	0x5d
 1426 01c6 04       		.byte	0x4
 1427 01c7 10       		.uleb128 0x10
 1428 01c8 14070000 		.4byte	.LASF30
 1429 01cc 06       		.byte	0x6
 1430 01cd 32       		.byte	0x32
 1431 01ce 0B       		.byte	0xb
 1432 01cf 5D000000 		.4byte	0x5d
 1433 01d3 08       		.byte	0x8
 1434 01d4 10       		.uleb128 0x10
 1435 01d5 AF020000 		.4byte	.LASF31
 1436 01d9 06       		.byte	0x6
 1437 01da 32       		.byte	0x32
 1438 01db 14       		.byte	0x14
 1439 01dc 5D000000 		.4byte	0x5d
 1440 01e0 0C       		.byte	0xc
 1441 01e1 10       		.uleb128 0x10
 1442 01e2 93080000 		.4byte	.LASF32
 1443 01e6 06       		.byte	0x6
 1444 01e7 32       		.byte	0x32
 1445 01e8 1B       		.byte	0x1b
 1446 01e9 5D000000 		.4byte	0x5d
 1447 01ed 10       		.byte	0x10
 1448 01ee 13       		.uleb128 0x13
 1449 01ef 5F7800   		.ascii	"_x\000"
 1450 01f2 06       		.byte	0x6
 1451 01f3 33       		.byte	0x33
 1452 01f4 0B       		.byte	0xb
 1453 01f5 01020000 		.4byte	0x201
 1454 01f9 14       		.byte	0x14
 1455 01fa 00       		.byte	0
 1456 01fb 07       		.uleb128 0x7
 1457 01fc 04       		.byte	0x4
 1458 01fd A1010000 		.4byte	0x1a1
 1459 0201 0D       		.uleb128 0xd
 1460 0202 95010000 		.4byte	0x195
 1461 0206 11020000 		.4byte	0x211
ARM GAS  C:\Users\jens-\AppData\Local\Temp\ccP7oHVf.s 			page 55


 1462 020a 0E       		.uleb128 0xe
 1463 020b 64000000 		.4byte	0x64
 1464 020f 00       		.byte	0
 1465 0210 00       		.byte	0
 1466 0211 12       		.uleb128 0x12
 1467 0212 07030000 		.4byte	.LASF34
 1468 0216 24       		.byte	0x24
 1469 0217 06       		.byte	0x6
 1470 0218 37       		.byte	0x37
 1471 0219 08       		.byte	0x8
 1472 021a 94020000 		.4byte	0x294
 1473 021e 10       		.uleb128 0x10
 1474 021f 54010000 		.4byte	.LASF35
 1475 0223 06       		.byte	0x6
 1476 0224 39       		.byte	0x39
 1477 0225 09       		.byte	0x9
 1478 0226 5D000000 		.4byte	0x5d
 1479 022a 00       		.byte	0
 1480 022b 10       		.uleb128 0x10
 1481 022c 9C070000 		.4byte	.LASF36
 1482 0230 06       		.byte	0x6
 1483 0231 3A       		.byte	0x3a
 1484 0232 09       		.byte	0x9
 1485 0233 5D000000 		.4byte	0x5d
 1486 0237 04       		.byte	0x4
 1487 0238 10       		.uleb128 0x10
 1488 0239 CA010000 		.4byte	.LASF37
 1489 023d 06       		.byte	0x6
 1490 023e 3B       		.byte	0x3b
 1491 023f 09       		.byte	0x9
 1492 0240 5D000000 		.4byte	0x5d
 1493 0244 08       		.byte	0x8
 1494 0245 10       		.uleb128 0x10
 1495 0246 A8090000 		.4byte	.LASF38
 1496 024a 06       		.byte	0x6
 1497 024b 3C       		.byte	0x3c
 1498 024c 09       		.byte	0x9
 1499 024d 5D000000 		.4byte	0x5d
 1500 0251 0C       		.byte	0xc
 1501 0252 10       		.uleb128 0x10
 1502 0253 3C050000 		.4byte	.LASF39
 1503 0257 06       		.byte	0x6
 1504 0258 3D       		.byte	0x3d
 1505 0259 09       		.byte	0x9
 1506 025a 5D000000 		.4byte	0x5d
 1507 025e 10       		.byte	0x10
 1508 025f 10       		.uleb128 0x10
 1509 0260 D5040000 		.4byte	.LASF40
 1510 0264 06       		.byte	0x6
 1511 0265 3E       		.byte	0x3e
 1512 0266 09       		.byte	0x9
 1513 0267 5D000000 		.4byte	0x5d
 1514 026b 14       		.byte	0x14
 1515 026c 10       		.uleb128 0x10
 1516 026d 98080000 		.4byte	.LASF41
 1517 0271 06       		.byte	0x6
 1518 0272 3F       		.byte	0x3f
ARM GAS  C:\Users\jens-\AppData\Local\Temp\ccP7oHVf.s 			page 56


 1519 0273 09       		.byte	0x9
 1520 0274 5D000000 		.4byte	0x5d
 1521 0278 18       		.byte	0x18
 1522 0279 10       		.uleb128 0x10
 1523 027a 8D060000 		.4byte	.LASF42
 1524 027e 06       		.byte	0x6
 1525 027f 40       		.byte	0x40
 1526 0280 09       		.byte	0x9
 1527 0281 5D000000 		.4byte	0x5d
 1528 0285 1C       		.byte	0x1c
 1529 0286 10       		.uleb128 0x10
 1530 0287 F2080000 		.4byte	.LASF43
 1531 028b 06       		.byte	0x6
 1532 028c 41       		.byte	0x41
 1533 028d 09       		.byte	0x9
 1534 028e 5D000000 		.4byte	0x5d
 1535 0292 20       		.byte	0x20
 1536 0293 00       		.byte	0
 1537 0294 14       		.uleb128 0x14
 1538 0295 D9010000 		.4byte	.LASF44
 1539 0299 0801     		.2byte	0x108
 1540 029b 06       		.byte	0x6
 1541 029c 4A       		.byte	0x4a
 1542 029d 08       		.byte	0x8
 1543 029e D9020000 		.4byte	0x2d9
 1544 02a2 10       		.uleb128 0x10
 1545 02a3 24000000 		.4byte	.LASF45
 1546 02a7 06       		.byte	0x6
 1547 02a8 4B       		.byte	0x4b
 1548 02a9 0A       		.byte	0xa
 1549 02aa D9020000 		.4byte	0x2d9
 1550 02ae 00       		.byte	0
 1551 02af 10       		.uleb128 0x10
 1552 02b0 00000000 		.4byte	.LASF46
 1553 02b4 06       		.byte	0x6
 1554 02b5 4C       		.byte	0x4c
 1555 02b6 09       		.byte	0x9
 1556 02b7 D9020000 		.4byte	0x2d9
 1557 02bb 80       		.byte	0x80
 1558 02bc 15       		.uleb128 0x15
 1559 02bd D3070000 		.4byte	.LASF47
 1560 02c1 06       		.byte	0x6
 1561 02c2 4E       		.byte	0x4e
 1562 02c3 0A       		.byte	0xa
 1563 02c4 95010000 		.4byte	0x195
 1564 02c8 0001     		.2byte	0x100
 1565 02ca 15       		.uleb128 0x15
 1566 02cb 2A020000 		.4byte	.LASF48
 1567 02cf 06       		.byte	0x6
 1568 02d0 51       		.byte	0x51
 1569 02d1 0A       		.byte	0xa
 1570 02d2 95010000 		.4byte	0x195
 1571 02d6 0401     		.2byte	0x104
 1572 02d8 00       		.byte	0
 1573 02d9 0D       		.uleb128 0xd
 1574 02da 8D010000 		.4byte	0x18d
 1575 02de E9020000 		.4byte	0x2e9
ARM GAS  C:\Users\jens-\AppData\Local\Temp\ccP7oHVf.s 			page 57


 1576 02e2 0E       		.uleb128 0xe
 1577 02e3 64000000 		.4byte	0x64
 1578 02e7 1F       		.byte	0x1f
 1579 02e8 00       		.byte	0
 1580 02e9 14       		.uleb128 0x14
 1581 02ea 53050000 		.4byte	.LASF49
 1582 02ee 9001     		.2byte	0x190
 1583 02f0 06       		.byte	0x6
 1584 02f1 5D       		.byte	0x5d
 1585 02f2 08       		.byte	0x8
 1586 02f3 2C030000 		.4byte	0x32c
 1587 02f7 10       		.uleb128 0x10
 1588 02f8 B9070000 		.4byte	.LASF29
 1589 02fc 06       		.byte	0x6
 1590 02fd 5E       		.byte	0x5e
 1591 02fe 12       		.byte	0x12
 1592 02ff 2C030000 		.4byte	0x32c
 1593 0303 00       		.byte	0
 1594 0304 10       		.uleb128 0x10
 1595 0305 E4060000 		.4byte	.LASF50
 1596 0309 06       		.byte	0x6
 1597 030a 5F       		.byte	0x5f
 1598 030b 06       		.byte	0x6
 1599 030c 5D000000 		.4byte	0x5d
 1600 0310 04       		.byte	0x4
 1601 0311 10       		.uleb128 0x10
 1602 0312 91020000 		.4byte	.LASF51
 1603 0316 06       		.byte	0x6
 1604 0317 61       		.byte	0x61
 1605 0318 09       		.byte	0x9
 1606 0319 32030000 		.4byte	0x332
 1607 031d 08       		.byte	0x8
 1608 031e 10       		.uleb128 0x10
 1609 031f D9010000 		.4byte	.LASF44
 1610 0323 06       		.byte	0x6
 1611 0324 62       		.byte	0x62
 1612 0325 1E       		.byte	0x1e
 1613 0326 94020000 		.4byte	0x294
 1614 032a 88       		.byte	0x88
 1615 032b 00       		.byte	0
 1616 032c 07       		.uleb128 0x7
 1617 032d 04       		.byte	0x4
 1618 032e E9020000 		.4byte	0x2e9
 1619 0332 0D       		.uleb128 0xd
 1620 0333 D5000000 		.4byte	0xd5
 1621 0337 42030000 		.4byte	0x342
 1622 033b 0E       		.uleb128 0xe
 1623 033c 64000000 		.4byte	0x64
 1624 0340 1F       		.byte	0x1f
 1625 0341 00       		.byte	0
 1626 0342 12       		.uleb128 0x12
 1627 0343 97060000 		.4byte	.LASF52
 1628 0347 08       		.byte	0x8
 1629 0348 06       		.byte	0x6
 1630 0349 75       		.byte	0x75
 1631 034a 08       		.byte	0x8
 1632 034b 6A030000 		.4byte	0x36a
ARM GAS  C:\Users\jens-\AppData\Local\Temp\ccP7oHVf.s 			page 58


 1633 034f 10       		.uleb128 0x10
 1634 0350 C4010000 		.4byte	.LASF53
 1635 0354 06       		.byte	0x6
 1636 0355 76       		.byte	0x76
 1637 0356 11       		.byte	0x11
 1638 0357 6A030000 		.4byte	0x36a
 1639 035b 00       		.byte	0
 1640 035c 10       		.uleb128 0x10
 1641 035d 13000000 		.4byte	.LASF54
 1642 0361 06       		.byte	0x6
 1643 0362 77       		.byte	0x77
 1644 0363 06       		.byte	0x6
 1645 0364 5D000000 		.4byte	0x5d
 1646 0368 04       		.byte	0x4
 1647 0369 00       		.byte	0
 1648 036a 07       		.uleb128 0x7
 1649 036b 04       		.byte	0x4
 1650 036c 2C000000 		.4byte	0x2c
 1651 0370 12       		.uleb128 0x12
 1652 0371 B6060000 		.4byte	.LASF55
 1653 0375 68       		.byte	0x68
 1654 0376 06       		.byte	0x6
 1655 0377 B5       		.byte	0xb5
 1656 0378 08       		.byte	0x8
 1657 0379 B3040000 		.4byte	0x4b3
 1658 037d 13       		.uleb128 0x13
 1659 037e 5F7000   		.ascii	"_p\000"
 1660 0381 06       		.byte	0x6
 1661 0382 B6       		.byte	0xb6
 1662 0383 12       		.byte	0x12
 1663 0384 6A030000 		.4byte	0x36a
 1664 0388 00       		.byte	0
 1665 0389 13       		.uleb128 0x13
 1666 038a 5F7200   		.ascii	"_r\000"
 1667 038d 06       		.byte	0x6
 1668 038e B7       		.byte	0xb7
 1669 038f 07       		.byte	0x7
 1670 0390 5D000000 		.4byte	0x5d
 1671 0394 04       		.byte	0x4
 1672 0395 13       		.uleb128 0x13
 1673 0396 5F7700   		.ascii	"_w\000"
 1674 0399 06       		.byte	0x6
 1675 039a B8       		.byte	0xb8
 1676 039b 07       		.byte	0x7
 1677 039c 5D000000 		.4byte	0x5d
 1678 03a0 08       		.byte	0x8
 1679 03a1 10       		.uleb128 0x10
 1680 03a2 23020000 		.4byte	.LASF56
 1681 03a6 06       		.byte	0x6
 1682 03a7 B9       		.byte	0xb9
 1683 03a8 09       		.byte	0x9
 1684 03a9 33000000 		.4byte	0x33
 1685 03ad 0C       		.byte	0xc
 1686 03ae 10       		.uleb128 0x10
 1687 03af 8D080000 		.4byte	.LASF57
 1688 03b3 06       		.byte	0x6
 1689 03b4 BA       		.byte	0xba
ARM GAS  C:\Users\jens-\AppData\Local\Temp\ccP7oHVf.s 			page 59


 1690 03b5 09       		.byte	0x9
 1691 03b6 33000000 		.4byte	0x33
 1692 03ba 0E       		.byte	0xe
 1693 03bb 13       		.uleb128 0x13
 1694 03bc 5F626600 		.ascii	"_bf\000"
 1695 03c0 06       		.byte	0x6
 1696 03c1 BB       		.byte	0xbb
 1697 03c2 11       		.byte	0x11
 1698 03c3 42030000 		.4byte	0x342
 1699 03c7 10       		.byte	0x10
 1700 03c8 10       		.uleb128 0x10
 1701 03c9 E0000000 		.4byte	.LASF58
 1702 03cd 06       		.byte	0x6
 1703 03ce BC       		.byte	0xbc
 1704 03cf 07       		.byte	0x7
 1705 03d0 5D000000 		.4byte	0x5d
 1706 03d4 18       		.byte	0x18
 1707 03d5 10       		.uleb128 0x10
 1708 03d6 02020000 		.4byte	.LASF59
 1709 03da 06       		.byte	0x6
 1710 03db C3       		.byte	0xc3
 1711 03dc 0A       		.byte	0xa
 1712 03dd 8D010000 		.4byte	0x18d
 1713 03e1 1C       		.byte	0x1c
 1714 03e2 10       		.uleb128 0x10
 1715 03e3 F7020000 		.4byte	.LASF60
 1716 03e7 06       		.byte	0x6
 1717 03e8 C5       		.byte	0xc5
 1718 03e9 1D       		.byte	0x1d
 1719 03ea 25060000 		.4byte	0x625
 1720 03ee 20       		.byte	0x20
 1721 03ef 10       		.uleb128 0x10
 1722 03f0 CE040000 		.4byte	.LASF61
 1723 03f4 06       		.byte	0x6
 1724 03f5 C7       		.byte	0xc7
 1725 03f6 1D       		.byte	0x1d
 1726 03f7 4F060000 		.4byte	0x64f
 1727 03fb 24       		.byte	0x24
 1728 03fc 10       		.uleb128 0x10
 1729 03fd 56070000 		.4byte	.LASF62
 1730 0401 06       		.byte	0x6
 1731 0402 CA       		.byte	0xca
 1732 0403 0D       		.byte	0xd
 1733 0404 73060000 		.4byte	0x673
 1734 0408 28       		.byte	0x28
 1735 0409 10       		.uleb128 0x10
 1736 040a 23090000 		.4byte	.LASF63
 1737 040e 06       		.byte	0x6
 1738 040f CB       		.byte	0xcb
 1739 0410 09       		.byte	0x9
 1740 0411 8D060000 		.4byte	0x68d
 1741 0415 2C       		.byte	0x2c
 1742 0416 13       		.uleb128 0x13
 1743 0417 5F756200 		.ascii	"_ub\000"
 1744 041b 06       		.byte	0x6
 1745 041c CE       		.byte	0xce
 1746 041d 11       		.byte	0x11
ARM GAS  C:\Users\jens-\AppData\Local\Temp\ccP7oHVf.s 			page 60


 1747 041e 42030000 		.4byte	0x342
 1748 0422 30       		.byte	0x30
 1749 0423 13       		.uleb128 0x13
 1750 0424 5F757000 		.ascii	"_up\000"
 1751 0428 06       		.byte	0x6
 1752 0429 CF       		.byte	0xcf
 1753 042a 12       		.byte	0x12
 1754 042b 6A030000 		.4byte	0x36a
 1755 042f 38       		.byte	0x38
 1756 0430 13       		.uleb128 0x13
 1757 0431 5F757200 		.ascii	"_ur\000"
 1758 0435 06       		.byte	0x6
 1759 0436 D0       		.byte	0xd0
 1760 0437 07       		.byte	0x7
 1761 0438 5D000000 		.4byte	0x5d
 1762 043c 3C       		.byte	0x3c
 1763 043d 10       		.uleb128 0x10
 1764 043e BE010000 		.4byte	.LASF64
 1765 0442 06       		.byte	0x6
 1766 0443 D3       		.byte	0xd3
 1767 0444 11       		.byte	0x11
 1768 0445 93060000 		.4byte	0x693
 1769 0449 40       		.byte	0x40
 1770 044a 10       		.uleb128 0x10
 1771 044b E4080000 		.4byte	.LASF65
 1772 044f 06       		.byte	0x6
 1773 0450 D4       		.byte	0xd4
 1774 0451 11       		.byte	0x11
 1775 0452 A3060000 		.4byte	0x6a3
 1776 0456 43       		.byte	0x43
 1777 0457 13       		.uleb128 0x13
 1778 0458 5F6C6200 		.ascii	"_lb\000"
 1779 045c 06       		.byte	0x6
 1780 045d D7       		.byte	0xd7
 1781 045e 11       		.byte	0x11
 1782 045f 42030000 		.4byte	0x342
 1783 0463 44       		.byte	0x44
 1784 0464 10       		.uleb128 0x10
 1785 0465 39020000 		.4byte	.LASF66
 1786 0469 06       		.byte	0x6
 1787 046a DA       		.byte	0xda
 1788 046b 07       		.byte	0x7
 1789 046c 5D000000 		.4byte	0x5d
 1790 0470 4C       		.byte	0x4c
 1791 0471 10       		.uleb128 0x10
 1792 0472 63020000 		.4byte	.LASF67
 1793 0476 06       		.byte	0x6
 1794 0477 DB       		.byte	0xdb
 1795 0478 0A       		.byte	0xa
 1796 0479 FA000000 		.4byte	0xfa
 1797 047d 50       		.byte	0x50
 1798 047e 10       		.uleb128 0x10
 1799 047f A3000000 		.4byte	.LASF68
 1800 0483 06       		.byte	0x6
 1801 0484 DE       		.byte	0xde
 1802 0485 12       		.byte	0x12
 1803 0486 D1040000 		.4byte	0x4d1
ARM GAS  C:\Users\jens-\AppData\Local\Temp\ccP7oHVf.s 			page 61


 1804 048a 54       		.byte	0x54
 1805 048b 10       		.uleb128 0x10
 1806 048c 06040000 		.4byte	.LASF69
 1807 0490 06       		.byte	0x6
 1808 0491 E2       		.byte	0xe2
 1809 0492 0C       		.byte	0xc
 1810 0493 81010000 		.4byte	0x181
 1811 0497 58       		.byte	0x58
 1812 0498 10       		.uleb128 0x10
 1813 0499 BE060000 		.4byte	.LASF70
 1814 049d 06       		.byte	0x6
 1815 049e E4       		.byte	0xe4
 1816 049f 0E       		.byte	0xe
 1817 04a0 75010000 		.4byte	0x175
 1818 04a4 5C       		.byte	0x5c
 1819 04a5 10       		.uleb128 0x10
 1820 04a6 0C040000 		.4byte	.LASF71
 1821 04aa 06       		.byte	0x6
 1822 04ab E5       		.byte	0xe5
 1823 04ac 09       		.byte	0x9
 1824 04ad 5D000000 		.4byte	0x5d
 1825 04b1 64       		.byte	0x64
 1826 04b2 00       		.byte	0
 1827 04b3 16       		.uleb128 0x16
 1828 04b4 5D000000 		.4byte	0x5d
 1829 04b8 D1040000 		.4byte	0x4d1
 1830 04bc 17       		.uleb128 0x17
 1831 04bd D1040000 		.4byte	0x4d1
 1832 04c1 17       		.uleb128 0x17
 1833 04c2 8D010000 		.4byte	0x18d
 1834 04c6 17       		.uleb128 0x17
 1835 04c7 8F010000 		.4byte	0x18f
 1836 04cb 17       		.uleb128 0x17
 1837 04cc 5D000000 		.4byte	0x5d
 1838 04d0 00       		.byte	0
 1839 04d1 07       		.uleb128 0x7
 1840 04d2 04       		.byte	0x4
 1841 04d3 DC040000 		.4byte	0x4dc
 1842 04d7 06       		.uleb128 0x6
 1843 04d8 D1040000 		.4byte	0x4d1
 1844 04dc 18       		.uleb128 0x18
 1845 04dd 1C070000 		.4byte	.LASF72
 1846 04e1 2804     		.2byte	0x428
 1847 04e3 06       		.byte	0x6
 1848 04e4 6002     		.2byte	0x260
 1849 04e6 08       		.byte	0x8
 1850 04e7 25060000 		.4byte	0x625
 1851 04eb 19       		.uleb128 0x19
 1852 04ec 90070000 		.4byte	.LASF73
 1853 04f0 06       		.byte	0x6
 1854 04f1 6202     		.2byte	0x262
 1855 04f3 07       		.byte	0x7
 1856 04f4 5D000000 		.4byte	0x5d
 1857 04f8 00       		.byte	0
 1858 04f9 19       		.uleb128 0x19
 1859 04fa 32020000 		.4byte	.LASF74
 1860 04fe 06       		.byte	0x6
ARM GAS  C:\Users\jens-\AppData\Local\Temp\ccP7oHVf.s 			page 62


 1861 04ff 6702     		.2byte	0x267
 1862 0501 0B       		.byte	0xb
 1863 0502 FF060000 		.4byte	0x6ff
 1864 0506 04       		.byte	0x4
 1865 0507 19       		.uleb128 0x19
 1866 0508 20030000 		.4byte	.LASF75
 1867 050c 06       		.byte	0x6
 1868 050d 6702     		.2byte	0x267
 1869 050f 14       		.byte	0x14
 1870 0510 FF060000 		.4byte	0x6ff
 1871 0514 08       		.byte	0x8
 1872 0515 19       		.uleb128 0x19
 1873 0516 BE020000 		.4byte	.LASF76
 1874 051a 06       		.byte	0x6
 1875 051b 6702     		.2byte	0x267
 1876 051d 1E       		.byte	0x1e
 1877 051e FF060000 		.4byte	0x6ff
 1878 0522 0C       		.byte	0xc
 1879 0523 19       		.uleb128 0x19
 1880 0524 DF060000 		.4byte	.LASF77
 1881 0528 06       		.byte	0x6
 1882 0529 6902     		.2byte	0x269
 1883 052b 08       		.byte	0x8
 1884 052c 5D000000 		.4byte	0x5d
 1885 0530 10       		.byte	0x10
 1886 0531 19       		.uleb128 0x19
 1887 0532 50000000 		.4byte	.LASF78
 1888 0536 06       		.byte	0x6
 1889 0537 6A02     		.2byte	0x26a
 1890 0539 08       		.byte	0x8
 1891 053a FF080000 		.4byte	0x8ff
 1892 053e 14       		.byte	0x14
 1893 053f 19       		.uleb128 0x19
 1894 0540 FB060000 		.4byte	.LASF79
 1895 0544 06       		.byte	0x6
 1896 0545 6D02     		.2byte	0x26d
 1897 0547 07       		.byte	0x7
 1898 0548 5D000000 		.4byte	0x5d
 1899 054c 30       		.byte	0x30
 1900 054d 19       		.uleb128 0x19
 1901 054e E9060000 		.4byte	.LASF80
 1902 0552 06       		.byte	0x6
 1903 0553 6E02     		.2byte	0x26e
 1904 0555 16       		.byte	0x16
 1905 0556 14090000 		.4byte	0x914
 1906 055a 34       		.byte	0x34
 1907 055b 19       		.uleb128 0x19
 1908 055c 5B050000 		.4byte	.LASF81
 1909 0560 06       		.byte	0x6
 1910 0561 7002     		.2byte	0x270
 1911 0563 07       		.byte	0x7
 1912 0564 5D000000 		.4byte	0x5d
 1913 0568 38       		.byte	0x38
 1914 0569 19       		.uleb128 0x19
 1915 056a F1060000 		.4byte	.LASF82
 1916 056e 06       		.byte	0x6
 1917 056f 7202     		.2byte	0x272
ARM GAS  C:\Users\jens-\AppData\Local\Temp\ccP7oHVf.s 			page 63


 1918 0571 0A       		.byte	0xa
 1919 0572 25090000 		.4byte	0x925
 1920 0576 3C       		.byte	0x3c
 1921 0577 19       		.uleb128 0x19
 1922 0578 CF030000 		.4byte	.LASF83
 1923 057c 06       		.byte	0x6
 1924 057d 7502     		.2byte	0x275
 1925 057f 13       		.byte	0x13
 1926 0580 FB010000 		.4byte	0x1fb
 1927 0584 40       		.byte	0x40
 1928 0585 19       		.uleb128 0x19
 1929 0586 FD020000 		.4byte	.LASF84
 1930 058a 06       		.byte	0x6
 1931 058b 7602     		.2byte	0x276
 1932 058d 07       		.byte	0x7
 1933 058e 5D000000 		.4byte	0x5d
 1934 0592 44       		.byte	0x44
 1935 0593 19       		.uleb128 0x19
 1936 0594 3D090000 		.4byte	.LASF85
 1937 0598 06       		.byte	0x6
 1938 0599 7702     		.2byte	0x277
 1939 059b 13       		.byte	0x13
 1940 059c FB010000 		.4byte	0x1fb
 1941 05a0 48       		.byte	0x48
 1942 05a1 19       		.uleb128 0x19
 1943 05a2 DF050000 		.4byte	.LASF86
 1944 05a6 06       		.byte	0x6
 1945 05a7 7802     		.2byte	0x278
 1946 05a9 14       		.byte	0x14
 1947 05aa 2B090000 		.4byte	0x92b
 1948 05ae 4C       		.byte	0x4c
 1949 05af 19       		.uleb128 0x19
 1950 05b0 28030000 		.4byte	.LASF87
 1951 05b4 06       		.byte	0x6
 1952 05b5 7B02     		.2byte	0x27b
 1953 05b7 07       		.byte	0x7
 1954 05b8 5D000000 		.4byte	0x5d
 1955 05bc 50       		.byte	0x50
 1956 05bd 19       		.uleb128 0x19
 1957 05be 5B020000 		.4byte	.LASF88
 1958 05c2 06       		.byte	0x6
 1959 05c3 7C02     		.2byte	0x27c
 1960 05c5 09       		.byte	0x9
 1961 05c6 8F010000 		.4byte	0x18f
 1962 05ca 54       		.byte	0x54
 1963 05cb 19       		.uleb128 0x19
 1964 05cc 68060000 		.4byte	.LASF89
 1965 05d0 06       		.byte	0x6
 1966 05d1 9F02     		.2byte	0x29f
 1967 05d3 07       		.byte	0x7
 1968 05d4 DA080000 		.4byte	0x8da
 1969 05d8 58       		.byte	0x58
 1970 05d9 1A       		.uleb128 0x1a
 1971 05da 53050000 		.4byte	.LASF49
 1972 05de 06       		.byte	0x6
 1973 05df A302     		.2byte	0x2a3
 1974 05e1 13       		.byte	0x13
ARM GAS  C:\Users\jens-\AppData\Local\Temp\ccP7oHVf.s 			page 64


 1975 05e2 2C030000 		.4byte	0x32c
 1976 05e6 4801     		.2byte	0x148
 1977 05e8 1A       		.uleb128 0x1a
 1978 05e9 A4030000 		.4byte	.LASF90
 1979 05ed 06       		.byte	0x6
 1980 05ee A402     		.2byte	0x2a4
 1981 05f0 12       		.byte	0x12
 1982 05f1 E9020000 		.4byte	0x2e9
 1983 05f5 4C01     		.2byte	0x14c
 1984 05f7 1A       		.uleb128 0x1a
 1985 05f8 DA080000 		.4byte	.LASF91
 1986 05fc 06       		.byte	0x6
 1987 05fd A802     		.2byte	0x2a8
 1988 05ff 0C       		.byte	0xc
 1989 0600 3C090000 		.4byte	0x93c
 1990 0604 DC02     		.2byte	0x2dc
 1991 0606 1A       		.uleb128 0x1a
 1992 0607 0A020000 		.4byte	.LASF92
 1993 060b 06       		.byte	0x6
 1994 060c AD02     		.2byte	0x2ad
 1995 060e 10       		.byte	0x10
 1996 060f C0060000 		.4byte	0x6c0
 1997 0613 E002     		.2byte	0x2e0
 1998 0615 1A       		.uleb128 0x1a
 1999 0616 D4010000 		.4byte	.LASF93
 2000 061a 06       		.byte	0x6
 2001 061b AF02     		.2byte	0x2af
 2002 061d 0A       		.byte	0xa
 2003 061e 48090000 		.4byte	0x948
 2004 0622 EC02     		.2byte	0x2ec
 2005 0624 00       		.byte	0
 2006 0625 07       		.uleb128 0x7
 2007 0626 04       		.byte	0x4
 2008 0627 B3040000 		.4byte	0x4b3
 2009 062b 16       		.uleb128 0x16
 2010 062c 5D000000 		.4byte	0x5d
 2011 0630 49060000 		.4byte	0x649
 2012 0634 17       		.uleb128 0x17
 2013 0635 D1040000 		.4byte	0x4d1
 2014 0639 17       		.uleb128 0x17
 2015 063a 8D010000 		.4byte	0x18d
 2016 063e 17       		.uleb128 0x17
 2017 063f 49060000 		.4byte	0x649
 2018 0643 17       		.uleb128 0x17
 2019 0644 5D000000 		.4byte	0x5d
 2020 0648 00       		.byte	0
 2021 0649 07       		.uleb128 0x7
 2022 064a 04       		.byte	0x4
 2023 064b C3000000 		.4byte	0xc3
 2024 064f 07       		.uleb128 0x7
 2025 0650 04       		.byte	0x4
 2026 0651 2B060000 		.4byte	0x62b
 2027 0655 16       		.uleb128 0x16
 2028 0656 06010000 		.4byte	0x106
 2029 065a 73060000 		.4byte	0x673
 2030 065e 17       		.uleb128 0x17
 2031 065f D1040000 		.4byte	0x4d1
ARM GAS  C:\Users\jens-\AppData\Local\Temp\ccP7oHVf.s 			page 65


 2032 0663 17       		.uleb128 0x17
 2033 0664 8D010000 		.4byte	0x18d
 2034 0668 17       		.uleb128 0x17
 2035 0669 06010000 		.4byte	0x106
 2036 066d 17       		.uleb128 0x17
 2037 066e 5D000000 		.4byte	0x5d
 2038 0672 00       		.byte	0
 2039 0673 07       		.uleb128 0x7
 2040 0674 04       		.byte	0x4
 2041 0675 55060000 		.4byte	0x655
 2042 0679 16       		.uleb128 0x16
 2043 067a 5D000000 		.4byte	0x5d
 2044 067e 8D060000 		.4byte	0x68d
 2045 0682 17       		.uleb128 0x17
 2046 0683 D1040000 		.4byte	0x4d1
 2047 0687 17       		.uleb128 0x17
 2048 0688 8D010000 		.4byte	0x18d
 2049 068c 00       		.byte	0
 2050 068d 07       		.uleb128 0x7
 2051 068e 04       		.byte	0x4
 2052 068f 79060000 		.4byte	0x679
 2053 0693 0D       		.uleb128 0xd
 2054 0694 2C000000 		.4byte	0x2c
 2055 0698 A3060000 		.4byte	0x6a3
 2056 069c 0E       		.uleb128 0xe
 2057 069d 64000000 		.4byte	0x64
 2058 06a1 02       		.byte	0x2
 2059 06a2 00       		.byte	0
 2060 06a3 0D       		.uleb128 0xd
 2061 06a4 2C000000 		.4byte	0x2c
 2062 06a8 B3060000 		.4byte	0x6b3
 2063 06ac 0E       		.uleb128 0xe
 2064 06ad 64000000 		.4byte	0x64
 2065 06b1 00       		.byte	0
 2066 06b2 00       		.byte	0
 2067 06b3 04       		.uleb128 0x4
 2068 06b4 A4060000 		.4byte	.LASF94
 2069 06b8 06       		.byte	0x6
 2070 06b9 1F01     		.2byte	0x11f
 2071 06bb 1A       		.byte	0x1a
 2072 06bc 70030000 		.4byte	0x370
 2073 06c0 1B       		.uleb128 0x1b
 2074 06c1 A2080000 		.4byte	.LASF95
 2075 06c5 0C       		.byte	0xc
 2076 06c6 06       		.byte	0x6
 2077 06c7 2301     		.2byte	0x123
 2078 06c9 08       		.byte	0x8
 2079 06ca F9060000 		.4byte	0x6f9
 2080 06ce 19       		.uleb128 0x19
 2081 06cf B9070000 		.4byte	.LASF29
 2082 06d3 06       		.byte	0x6
 2083 06d4 2501     		.2byte	0x125
 2084 06d6 11       		.byte	0x11
 2085 06d7 F9060000 		.4byte	0x6f9
 2086 06db 00       		.byte	0
 2087 06dc 19       		.uleb128 0x19
 2088 06dd 71030000 		.4byte	.LASF96
ARM GAS  C:\Users\jens-\AppData\Local\Temp\ccP7oHVf.s 			page 66


 2089 06e1 06       		.byte	0x6
 2090 06e2 2601     		.2byte	0x126
 2091 06e4 07       		.byte	0x7
 2092 06e5 5D000000 		.4byte	0x5d
 2093 06e9 04       		.byte	0x4
 2094 06ea 19       		.uleb128 0x19
 2095 06eb 9E060000 		.4byte	.LASF97
 2096 06ef 06       		.byte	0x6
 2097 06f0 2701     		.2byte	0x127
 2098 06f2 0B       		.byte	0xb
 2099 06f3 FF060000 		.4byte	0x6ff
 2100 06f7 08       		.byte	0x8
 2101 06f8 00       		.byte	0
 2102 06f9 07       		.uleb128 0x7
 2103 06fa 04       		.byte	0x4
 2104 06fb C0060000 		.4byte	0x6c0
 2105 06ff 07       		.uleb128 0x7
 2106 0700 04       		.byte	0x4
 2107 0701 B3060000 		.4byte	0x6b3
 2108 0705 1B       		.uleb128 0x1b
 2109 0706 2C000000 		.4byte	.LASF98
 2110 070a 0E       		.byte	0xe
 2111 070b 06       		.byte	0x6
 2112 070c 3F01     		.2byte	0x13f
 2113 070e 08       		.byte	0x8
 2114 070f 3E070000 		.4byte	0x73e
 2115 0713 19       		.uleb128 0x19
 2116 0714 23070000 		.4byte	.LASF99
 2117 0718 06       		.byte	0x6
 2118 0719 4001     		.2byte	0x140
 2119 071b 12       		.byte	0x12
 2120 071c 3E070000 		.4byte	0x73e
 2121 0720 00       		.byte	0
 2122 0721 19       		.uleb128 0x19
 2123 0722 B3070000 		.4byte	.LASF100
 2124 0726 06       		.byte	0x6
 2125 0727 4101     		.2byte	0x141
 2126 0729 12       		.byte	0x12
 2127 072a 3E070000 		.4byte	0x73e
 2128 072e 06       		.byte	0x6
 2129 072f 19       		.uleb128 0x19
 2130 0730 F5070000 		.4byte	.LASF101
 2131 0734 06       		.byte	0x6
 2132 0735 4201     		.2byte	0x142
 2133 0737 12       		.byte	0x12
 2134 0738 3A000000 		.4byte	0x3a
 2135 073c 0C       		.byte	0xc
 2136 073d 00       		.byte	0
 2137 073e 0D       		.uleb128 0xd
 2138 073f 3A000000 		.4byte	0x3a
 2139 0743 4E070000 		.4byte	0x74e
 2140 0747 0E       		.uleb128 0xe
 2141 0748 64000000 		.4byte	0x64
 2142 074c 02       		.byte	0x2
 2143 074d 00       		.byte	0
 2144 074e 1C       		.uleb128 0x1c
 2145 074f D0       		.byte	0xd0
ARM GAS  C:\Users\jens-\AppData\Local\Temp\ccP7oHVf.s 			page 67


 2146 0750 06       		.byte	0x6
 2147 0751 8002     		.2byte	0x280
 2148 0753 07       		.byte	0x7
 2149 0754 63080000 		.4byte	0x863
 2150 0758 19       		.uleb128 0x19
 2151 0759 4D080000 		.4byte	.LASF102
 2152 075d 06       		.byte	0x6
 2153 075e 8202     		.2byte	0x282
 2154 0760 18       		.byte	0x18
 2155 0761 64000000 		.4byte	0x64
 2156 0765 00       		.byte	0
 2157 0766 19       		.uleb128 0x19
 2158 0767 C6070000 		.4byte	.LASF103
 2159 076b 06       		.byte	0x6
 2160 076c 8302     		.2byte	0x283
 2161 076e 12       		.byte	0x12
 2162 076f 8F010000 		.4byte	0x18f
 2163 0773 04       		.byte	0x4
 2164 0774 19       		.uleb128 0x19
 2165 0775 B9030000 		.4byte	.LASF104
 2166 0779 06       		.byte	0x6
 2167 077a 8402     		.2byte	0x284
 2168 077c 10       		.byte	0x10
 2169 077d 63080000 		.4byte	0x863
 2170 0781 08       		.byte	0x8
 2171 0782 19       		.uleb128 0x19
 2172 0783 FD080000 		.4byte	.LASF105
 2173 0787 06       		.byte	0x6
 2174 0788 8502     		.2byte	0x285
 2175 078a 17       		.byte	0x17
 2176 078b 11020000 		.4byte	0x211
 2177 078f 24       		.byte	0x24
 2178 0790 19       		.uleb128 0x19
 2179 0791 CE020000 		.4byte	.LASF106
 2180 0795 06       		.byte	0x6
 2181 0796 8602     		.2byte	0x286
 2182 0798 0F       		.byte	0xf
 2183 0799 5D000000 		.4byte	0x5d
 2184 079d 48       		.byte	0x48
 2185 079e 19       		.uleb128 0x19
 2186 079f C7060000 		.4byte	.LASF107
 2187 07a3 06       		.byte	0x6
 2188 07a4 8702     		.2byte	0x287
 2189 07a6 2C       		.byte	0x2c
 2190 07a7 56000000 		.4byte	0x56
 2191 07ab 50       		.byte	0x50
 2192 07ac 19       		.uleb128 0x19
 2193 07ad 2A090000 		.4byte	.LASF108
 2194 07b1 06       		.byte	0x6
 2195 07b2 8802     		.2byte	0x288
 2196 07b4 1A       		.byte	0x1a
 2197 07b5 05070000 		.4byte	0x705
 2198 07b9 58       		.byte	0x58
 2199 07ba 19       		.uleb128 0x19
 2200 07bb D2060000 		.4byte	.LASF109
 2201 07bf 06       		.byte	0x6
 2202 07c0 8902     		.2byte	0x289
ARM GAS  C:\Users\jens-\AppData\Local\Temp\ccP7oHVf.s 			page 68


 2203 07c2 16       		.byte	0x16
 2204 07c3 75010000 		.4byte	0x175
 2205 07c7 68       		.byte	0x68
 2206 07c8 19       		.uleb128 0x19
 2207 07c9 2F090000 		.4byte	.LASF110
 2208 07cd 06       		.byte	0x6
 2209 07ce 8A02     		.2byte	0x28a
 2210 07d0 16       		.byte	0x16
 2211 07d1 75010000 		.4byte	0x175
 2212 07d5 70       		.byte	0x70
 2213 07d6 19       		.uleb128 0x19
 2214 07d7 05060000 		.4byte	.LASF111
 2215 07db 06       		.byte	0x6
 2216 07dc 8B02     		.2byte	0x28b
 2217 07de 16       		.byte	0x16
 2218 07df 75010000 		.4byte	0x175
 2219 07e3 78       		.byte	0x78
 2220 07e4 19       		.uleb128 0x19
 2221 07e5 B1080000 		.4byte	.LASF112
 2222 07e9 06       		.byte	0x6
 2223 07ea 8C02     		.2byte	0x28c
 2224 07ec 10       		.byte	0x10
 2225 07ed 73080000 		.4byte	0x873
 2226 07f1 80       		.byte	0x80
 2227 07f2 19       		.uleb128 0x19
 2228 07f3 AD030000 		.4byte	.LASF113
 2229 07f7 06       		.byte	0x6
 2230 07f8 8D02     		.2byte	0x28d
 2231 07fa 10       		.byte	0x10
 2232 07fb 83080000 		.4byte	0x883
 2233 07ff 88       		.byte	0x88
 2234 0800 19       		.uleb128 0x19
 2235 0801 1C080000 		.4byte	.LASF114
 2236 0805 06       		.byte	0x6
 2237 0806 8E02     		.2byte	0x28e
 2238 0808 0F       		.byte	0xf
 2239 0809 5D000000 		.4byte	0x5d
 2240 080d A0       		.byte	0xa0
 2241 080e 19       		.uleb128 0x19
 2242 080f 7C020000 		.4byte	.LASF115
 2243 0813 06       		.byte	0x6
 2244 0814 8F02     		.2byte	0x28f
 2245 0816 16       		.byte	0x16
 2246 0817 75010000 		.4byte	0x175
 2247 081b A4       		.byte	0xa4
 2248 081c 19       		.uleb128 0x19
 2249 081d 1F010000 		.4byte	.LASF116
 2250 0821 06       		.byte	0x6
 2251 0822 9002     		.2byte	0x290
 2252 0824 16       		.byte	0x16
 2253 0825 75010000 		.4byte	0x175
 2254 0829 AC       		.byte	0xac
 2255 082a 19       		.uleb128 0x19
 2256 082b 6B020000 		.4byte	.LASF117
 2257 082f 06       		.byte	0x6
 2258 0830 9102     		.2byte	0x291
 2259 0832 16       		.byte	0x16
ARM GAS  C:\Users\jens-\AppData\Local\Temp\ccP7oHVf.s 			page 69


 2260 0833 75010000 		.4byte	0x175
 2261 0837 B4       		.byte	0xb4
 2262 0838 19       		.uleb128 0x19
 2263 0839 A9000000 		.4byte	.LASF118
 2264 083d 06       		.byte	0x6
 2265 083e 9202     		.2byte	0x292
 2266 0840 16       		.byte	0x16
 2267 0841 75010000 		.4byte	0x175
 2268 0845 BC       		.byte	0xbc
 2269 0846 19       		.uleb128 0x19
 2270 0847 B8000000 		.4byte	.LASF119
 2271 084b 06       		.byte	0x6
 2272 084c 9302     		.2byte	0x293
 2273 084e 16       		.byte	0x16
 2274 084f 75010000 		.4byte	0x175
 2275 0853 C4       		.byte	0xc4
 2276 0854 19       		.uleb128 0x19
 2277 0855 7A060000 		.4byte	.LASF120
 2278 0859 06       		.byte	0x6
 2279 085a 9402     		.2byte	0x294
 2280 085c 08       		.byte	0x8
 2281 085d 5D000000 		.4byte	0x5d
 2282 0861 CC       		.byte	0xcc
 2283 0862 00       		.byte	0
 2284 0863 0D       		.uleb128 0xd
 2285 0864 BC000000 		.4byte	0xbc
 2286 0868 73080000 		.4byte	0x873
 2287 086c 0E       		.uleb128 0xe
 2288 086d 64000000 		.4byte	0x64
 2289 0871 19       		.byte	0x19
 2290 0872 00       		.byte	0
 2291 0873 0D       		.uleb128 0xd
 2292 0874 BC000000 		.4byte	0xbc
 2293 0878 83080000 		.4byte	0x883
 2294 087c 0E       		.uleb128 0xe
 2295 087d 64000000 		.4byte	0x64
 2296 0881 07       		.byte	0x7
 2297 0882 00       		.byte	0
 2298 0883 0D       		.uleb128 0xd
 2299 0884 BC000000 		.4byte	0xbc
 2300 0888 93080000 		.4byte	0x893
 2301 088c 0E       		.uleb128 0xe
 2302 088d 64000000 		.4byte	0x64
 2303 0891 17       		.byte	0x17
 2304 0892 00       		.byte	0
 2305 0893 1C       		.uleb128 0x1c
 2306 0894 F0       		.byte	0xf0
 2307 0895 06       		.byte	0x6
 2308 0896 9902     		.2byte	0x299
 2309 0898 07       		.byte	0x7
 2310 0899 BA080000 		.4byte	0x8ba
 2311 089d 19       		.uleb128 0x19
 2312 089e 23050000 		.4byte	.LASF121
 2313 08a2 06       		.byte	0x6
 2314 08a3 9C02     		.2byte	0x29c
 2315 08a5 1B       		.byte	0x1b
 2316 08a6 BA080000 		.4byte	0x8ba
ARM GAS  C:\Users\jens-\AppData\Local\Temp\ccP7oHVf.s 			page 70


 2317 08aa 00       		.byte	0
 2318 08ab 19       		.uleb128 0x19
 2319 08ac A8080000 		.4byte	.LASF122
 2320 08b0 06       		.byte	0x6
 2321 08b1 9D02     		.2byte	0x29d
 2322 08b3 18       		.byte	0x18
 2323 08b4 CA080000 		.4byte	0x8ca
 2324 08b8 78       		.byte	0x78
 2325 08b9 00       		.byte	0
 2326 08ba 0D       		.uleb128 0xd
 2327 08bb 6A030000 		.4byte	0x36a
 2328 08bf CA080000 		.4byte	0x8ca
 2329 08c3 0E       		.uleb128 0xe
 2330 08c4 64000000 		.4byte	0x64
 2331 08c8 1D       		.byte	0x1d
 2332 08c9 00       		.byte	0
 2333 08ca 0D       		.uleb128 0xd
 2334 08cb 64000000 		.4byte	0x64
 2335 08cf DA080000 		.4byte	0x8da
 2336 08d3 0E       		.uleb128 0xe
 2337 08d4 64000000 		.4byte	0x64
 2338 08d8 1D       		.byte	0x1d
 2339 08d9 00       		.byte	0
 2340 08da 1D       		.uleb128 0x1d
 2341 08db F0       		.byte	0xf0
 2342 08dc 06       		.byte	0x6
 2343 08dd 7E02     		.2byte	0x27e
 2344 08df 03       		.byte	0x3
 2345 08e0 FF080000 		.4byte	0x8ff
 2346 08e4 1E       		.uleb128 0x1e
 2347 08e5 1C070000 		.4byte	.LASF72
 2348 08e9 06       		.byte	0x6
 2349 08ea 9502     		.2byte	0x295
 2350 08ec 0B       		.byte	0xb
 2351 08ed 4E070000 		.4byte	0x74e
 2352 08f1 1E       		.uleb128 0x1e
 2353 08f2 EA080000 		.4byte	.LASF123
 2354 08f6 06       		.byte	0x6
 2355 08f7 9E02     		.2byte	0x29e
 2356 08f9 0B       		.byte	0xb
 2357 08fa 93080000 		.4byte	0x893
 2358 08fe 00       		.byte	0
 2359 08ff 0D       		.uleb128 0xd
 2360 0900 BC000000 		.4byte	0xbc
 2361 0904 0F090000 		.4byte	0x90f
 2362 0908 0E       		.uleb128 0xe
 2363 0909 64000000 		.4byte	0x64
 2364 090d 18       		.byte	0x18
 2365 090e 00       		.byte	0
 2366 090f 0A       		.uleb128 0xa
 2367 0910 05010000 		.4byte	.LASF125
 2368 0914 07       		.uleb128 0x7
 2369 0915 04       		.byte	0x4
 2370 0916 0F090000 		.4byte	0x90f
 2371 091a 1F       		.uleb128 0x1f
 2372 091b 25090000 		.4byte	0x925
 2373 091f 17       		.uleb128 0x17
ARM GAS  C:\Users\jens-\AppData\Local\Temp\ccP7oHVf.s 			page 71


 2374 0920 D1040000 		.4byte	0x4d1
 2375 0924 00       		.byte	0
 2376 0925 07       		.uleb128 0x7
 2377 0926 04       		.byte	0x4
 2378 0927 1A090000 		.4byte	0x91a
 2379 092b 07       		.uleb128 0x7
 2380 092c 04       		.byte	0x4
 2381 092d FB010000 		.4byte	0x1fb
 2382 0931 1F       		.uleb128 0x1f
 2383 0932 3C090000 		.4byte	0x93c
 2384 0936 17       		.uleb128 0x17
 2385 0937 5D000000 		.4byte	0x5d
 2386 093b 00       		.byte	0
 2387 093c 07       		.uleb128 0x7
 2388 093d 04       		.byte	0x4
 2389 093e 42090000 		.4byte	0x942
 2390 0942 07       		.uleb128 0x7
 2391 0943 04       		.byte	0x4
 2392 0944 31090000 		.4byte	0x931
 2393 0948 0D       		.uleb128 0xd
 2394 0949 B3060000 		.4byte	0x6b3
 2395 094d 58090000 		.4byte	0x958
 2396 0951 0E       		.uleb128 0xe
 2397 0952 64000000 		.4byte	0x64
 2398 0956 02       		.byte	0x2
 2399 0957 00       		.byte	0
 2400 0958 20       		.uleb128 0x20
 2401 0959 5C070000 		.4byte	.LASF126
 2402 095d 06       		.byte	0x6
 2403 095e 2E03     		.2byte	0x32e
 2404 0960 17       		.byte	0x17
 2405 0961 D1040000 		.4byte	0x4d1
 2406 0965 20       		.uleb128 0x20
 2407 0966 29080000 		.4byte	.LASF127
 2408 096a 06       		.byte	0x6
 2409 096b 2F03     		.2byte	0x32f
 2410 096d 1D       		.byte	0x1d
 2411 096e D7040000 		.4byte	0x4d7
 2412 0972 0D       		.uleb128 0xd
 2413 0973 C3000000 		.4byte	0xc3
 2414 0977 7D090000 		.4byte	0x97d
 2415 097b 21       		.uleb128 0x21
 2416 097c 00       		.byte	0
 2417 097d 06       		.uleb128 0x6
 2418 097e 72090000 		.4byte	0x972
 2419 0982 22       		.uleb128 0x22
 2420 0983 A5070000 		.4byte	.LASF128
 2421 0987 07       		.byte	0x7
 2422 0988 AE       		.byte	0xae
 2423 0989 1C       		.byte	0x1c
 2424 098a 7D090000 		.4byte	0x97d
 2425 098e 22       		.uleb128 0x22
 2426 098f 6D060000 		.4byte	.LASF129
 2427 0993 08       		.byte	0x8
 2428 0994 1C       		.byte	0x1c
 2429 0995 0E       		.byte	0xe
 2430 0996 6B000000 		.4byte	0x6b
ARM GAS  C:\Users\jens-\AppData\Local\Temp\ccP7oHVf.s 			page 72


 2431 099a 0D       		.uleb128 0xd
 2432 099b 6B000000 		.4byte	0x6b
 2433 099f AA090000 		.4byte	0x9aa
 2434 09a3 0E       		.uleb128 0xe
 2435 09a4 64000000 		.4byte	0x64
 2436 09a8 01       		.byte	0x1
 2437 09a9 00       		.byte	0
 2438 09aa 22       		.uleb128 0x22
 2439 09ab 10010000 		.4byte	.LASF130
 2440 09af 09       		.byte	0x9
 2441 09b0 1C       		.byte	0x1c
 2442 09b1 0E       		.byte	0xe
 2443 09b2 9A090000 		.4byte	0x99a
 2444 09b6 22       		.uleb128 0x22
 2445 09b7 45050000 		.4byte	.LASF131
 2446 09bb 0A       		.byte	0xa
 2447 09bc 2C       		.byte	0x2c
 2448 09bd 16       		.byte	0x16
 2449 09be 6B000000 		.4byte	0x6b
 2450 09c2 22       		.uleb128 0x22
 2451 09c3 13060000 		.4byte	.LASF132
 2452 09c7 0A       		.byte	0xa
 2453 09c8 38       		.byte	0x38
 2454 09c9 0F       		.byte	0xf
 2455 09ca 8F000000 		.4byte	0x8f
 2456 09ce 22       		.uleb128 0x22
 2457 09cf FE040000 		.4byte	.LASF133
 2458 09d3 0A       		.byte	0xa
 2459 09d4 39       		.byte	0x39
 2460 09d5 0F       		.byte	0xf
 2461 09d6 8F000000 		.4byte	0x8f
 2462 09da 22       		.uleb128 0x22
 2463 09db 2E010000 		.4byte	.LASF134
 2464 09df 0A       		.byte	0xa
 2465 09e0 3A       		.byte	0x3a
 2466 09e1 0F       		.byte	0xf
 2467 09e2 6B000000 		.4byte	0x6b
 2468 09e6 22       		.uleb128 0x22
 2469 09e7 29070000 		.4byte	.LASF135
 2470 09eb 0A       		.byte	0xa
 2471 09ec 3B       		.byte	0x3b
 2472 09ed 0F       		.byte	0xf
 2473 09ee 8F000000 		.4byte	0x8f
 2474 09f2 20       		.uleb128 0x20
 2475 09f3 94090000 		.4byte	.LASF136
 2476 09f7 0B       		.byte	0xb
 2477 09f8 3601     		.2byte	0x136
 2478 09fa 0E       		.byte	0xe
 2479 09fb 6B000000 		.4byte	0x6b
 2480 09ff 23       		.uleb128 0x23
 2481 0a00 F2090000 		.4byte	0x9f2
 2482 0a04 01       		.byte	0x1
 2483 0a05 1B       		.byte	0x1b
 2484 0a06 07       		.byte	0x7
 2485 0a07 05       		.uleb128 0x5
 2486 0a08 03       		.byte	0x3
 2487 0a09 00000000 		.4byte	UART_tester_initVar
ARM GAS  C:\Users\jens-\AppData\Local\Temp\ccP7oHVf.s 			page 73


 2488 0a0d 24       		.uleb128 0x24
 2489 0a0e 62000000 		.4byte	.LASF137
 2490 0a12 01       		.byte	0x1
 2491 0a13 2406     		.2byte	0x624
 2492 0a15 0A       		.byte	0xa
 2493 0a16 00000000 		.4byte	.LFB26
 2494 0a1a 02000000 		.4byte	.LFE26-.LFB26
 2495 0a1e 01       		.uleb128 0x1
 2496 0a1f 9C       		.byte	0x9c
 2497 0a20 340A0000 		.4byte	0xa34
 2498 0a24 25       		.uleb128 0x25
 2499 0a25 4F020000 		.4byte	.LASF153
 2500 0a29 01       		.byte	0x1
 2501 0a2a 2406     		.2byte	0x624
 2502 0a2c 2D       		.byte	0x2d
 2503 0a2d 6B000000 		.4byte	0x6b
 2504 0a31 01       		.uleb128 0x1
 2505 0a32 50       		.byte	0x50
 2506 0a33 00       		.byte	0
 2507 0a34 24       		.uleb128 0x24
 2508 0a35 BB080000 		.4byte	.LASF138
 2509 0a39 01       		.byte	0x1
 2510 0a3a A005     		.2byte	0x5a0
 2511 0a3c 0A       		.byte	0xa
 2512 0a3d 00000000 		.4byte	.LFB25
 2513 0a41 58000000 		.4byte	.LFE25-.LFB25
 2514 0a45 01       		.uleb128 0x1
 2515 0a46 9C       		.byte	0x9c
 2516 0a47 930A0000 		.4byte	0xa93
 2517 0a4b 26       		.uleb128 0x26
 2518 0a4c E9000000 		.4byte	.LASF144
 2519 0a50 01       		.byte	0x1
 2520 0a51 A005     		.2byte	0x5a0
 2521 0a53 26       		.byte	0x26
 2522 0a54 6B000000 		.4byte	0x6b
 2523 0a58 04000000 		.4byte	.LLST17
 2524 0a5c 00000000 		.4byte	.LVUS17
 2525 0a60 27       		.uleb128 0x27
 2526 0a61 06000000 		.4byte	.LBB2
 2527 0a65 44000000 		.4byte	.LBE2-.LBB2
 2528 0a69 28       		.uleb128 0x28
 2529 0a6a F6040000 		.4byte	.LASF139
 2530 0a6e 01       		.byte	0x1
 2531 0a6f A805     		.2byte	0x5a8
 2532 0a71 13       		.byte	0x13
 2533 0a72 6B000000 		.4byte	0x6b
 2534 0a76 29000000 		.4byte	.LLST18
 2535 0a7a 25000000 		.4byte	.LVUS18
 2536 0a7e 29       		.uleb128 0x29
 2537 0a7f B5010000 		.4byte	.LASF185
 2538 0a83 01       		.byte	0x1
 2539 0a84 D005     		.2byte	0x5d0
 2540 0a86 1A       		.byte	0x1a
 2541 0a87 6B000000 		.4byte	0x6b
 2542 0a8b 05       		.uleb128 0x5
 2543 0a8c 03       		.byte	0x3
 2544 0a8d 01000000 		.4byte	txPeriod.5206
ARM GAS  C:\Users\jens-\AppData\Local\Temp\ccP7oHVf.s 			page 74


 2545 0a91 00       		.byte	0
 2546 0a92 00       		.byte	0
 2547 0a93 24       		.uleb128 0x24
 2548 0a94 28060000 		.4byte	.LASF140
 2549 0a98 01       		.byte	0x1
 2550 0a99 4A05     		.2byte	0x54a
 2551 0a9b 0A       		.byte	0xa
 2552 0a9c 00000000 		.4byte	.LFB24
 2553 0aa0 24000000 		.4byte	.LFE24-.LFB24
 2554 0aa4 01       		.uleb128 0x1
 2555 0aa5 9C       		.byte	0x9c
 2556 0aa6 D20A0000 		.4byte	0xad2
 2557 0aaa 28       		.uleb128 0x28
 2558 0aab 3C080000 		.4byte	.LASF141
 2559 0aaf 01       		.byte	0x1
 2560 0ab0 4C05     		.2byte	0x54c
 2561 0ab2 0F       		.byte	0xf
 2562 0ab3 6B000000 		.4byte	0x6b
 2563 0ab7 49000000 		.4byte	.LLST16
 2564 0abb 47000000 		.4byte	.LVUS16
 2565 0abf 2A       		.uleb128 0x2a
 2566 0ac0 06000000 		.4byte	.LVL54
 2567 0ac4 990F0000 		.4byte	0xf99
 2568 0ac8 2A       		.uleb128 0x2a
 2569 0ac9 1C000000 		.4byte	.LVL55
 2570 0acd A50F0000 		.4byte	0xfa5
 2571 0ad1 00       		.byte	0
 2572 0ad2 2B       		.uleb128 0x2b
 2573 0ad3 34000000 		.4byte	.LASF161
 2574 0ad7 01       		.byte	0x1
 2575 0ad8 F904     		.2byte	0x4f9
 2576 0ada 0B       		.byte	0xb
 2577 0adb 6B000000 		.4byte	0x6b
 2578 0adf 00000000 		.4byte	.LFB23
 2579 0ae3 20000000 		.4byte	.LFE23-.LFB23
 2580 0ae7 01       		.uleb128 0x1
 2581 0ae8 9C       		.byte	0x9c
 2582 0ae9 030B0000 		.4byte	0xb03
 2583 0aed 28       		.uleb128 0x28
 2584 0aee 78030000 		.4byte	.LASF142
 2585 0af2 01       		.byte	0x1
 2586 0af3 FC04     		.2byte	0x4fc
 2587 0af5 0F       		.byte	0xf
 2588 0af6 6B000000 		.4byte	0x6b
 2589 0afa 60000000 		.4byte	.LLST15
 2590 0afe 5C000000 		.4byte	.LVUS15
 2591 0b02 00       		.byte	0
 2592 0b03 24       		.uleb128 0x24
 2593 0b04 F1000000 		.4byte	.LASF143
 2594 0b08 01       		.byte	0x1
 2595 0b09 CE04     		.2byte	0x4ce
 2596 0b0b 0A       		.byte	0xa
 2597 0b0c 00000000 		.4byte	.LFB22
 2598 0b10 20000000 		.4byte	.LFE22-.LFB22
 2599 0b14 01       		.uleb128 0x1
 2600 0b15 9C       		.byte	0x9c
 2601 0b16 5B0B0000 		.4byte	0xb5b
ARM GAS  C:\Users\jens-\AppData\Local\Temp\ccP7oHVf.s 			page 75


 2602 0b1a 26       		.uleb128 0x26
 2603 0b1b 19000000 		.4byte	.LASF145
 2604 0b1f 01       		.byte	0x1
 2605 0b20 CE04     		.2byte	0x4ce
 2606 0b22 24       		.byte	0x24
 2607 0b23 6B000000 		.4byte	0x6b
 2608 0b27 86000000 		.4byte	.LLST14
 2609 0b2b 7E000000 		.4byte	.LVUS14
 2610 0b2f 2A       		.uleb128 0x2a
 2611 0b30 0E000000 		.4byte	.LVL49
 2612 0b34 120C0000 		.4byte	0xc12
 2613 0b38 2C       		.uleb128 0x2c
 2614 0b39 14000000 		.4byte	.LVL50
 2615 0b3d 120C0000 		.4byte	0xc12
 2616 0b41 4B0B0000 		.4byte	0xb4b
 2617 0b45 2D       		.uleb128 0x2d
 2618 0b46 01       		.uleb128 0x1
 2619 0b47 50       		.byte	0x50
 2620 0b48 01       		.uleb128 0x1
 2621 0b49 3D       		.byte	0x3d
 2622 0b4a 00       		.byte	0
 2623 0b4b 2E       		.uleb128 0x2e
 2624 0b4c 1A000000 		.4byte	.LVL51
 2625 0b50 120C0000 		.4byte	0xc12
 2626 0b54 2D       		.uleb128 0x2d
 2627 0b55 01       		.uleb128 0x1
 2628 0b56 50       		.byte	0x50
 2629 0b57 01       		.uleb128 0x1
 2630 0b58 3A       		.byte	0x3a
 2631 0b59 00       		.byte	0
 2632 0b5a 00       		.byte	0
 2633 0b5b 24       		.uleb128 0x24
 2634 0b5c 3F010000 		.4byte	.LASF146
 2635 0b60 01       		.byte	0x1
 2636 0b61 A704     		.2byte	0x4a7
 2637 0b63 0A       		.byte	0xa
 2638 0b64 00000000 		.4byte	.LFB21
 2639 0b68 28000000 		.4byte	.LFE21-.LFB21
 2640 0b6c 01       		.uleb128 0x1
 2641 0b6d 9C       		.byte	0x9c
 2642 0b6e BB0B0000 		.4byte	0xbbb
 2643 0b72 26       		.uleb128 0x26
 2644 0b73 5B000000 		.4byte	.LASF147
 2645 0b77 01       		.byte	0x1
 2646 0b78 A704     		.2byte	0x4a7
 2647 0b7a 2B       		.byte	0x2b
 2648 0b7b BB0B0000 		.4byte	0xbbb
 2649 0b7f C6000000 		.4byte	.LLST11
 2650 0b83 C0000000 		.4byte	.LVUS11
 2651 0b87 26       		.uleb128 0x26
 2652 0b88 67030000 		.4byte	.LASF148
 2653 0b8c 01       		.byte	0x1
 2654 0b8d A704     		.2byte	0x4a7
 2655 0b8f 3B       		.byte	0x3b
 2656 0b90 6B000000 		.4byte	0x6b
 2657 0b94 F6000000 		.4byte	.LLST12
 2658 0b98 F2000000 		.4byte	.LVUS12
ARM GAS  C:\Users\jens-\AppData\Local\Temp\ccP7oHVf.s 			page 76


 2659 0b9c 28       		.uleb128 0x28
 2660 0b9d C6030000 		.4byte	.LASF149
 2661 0ba1 01       		.byte	0x1
 2662 0ba2 AA04     		.2byte	0x4aa
 2663 0ba4 0F       		.byte	0xf
 2664 0ba5 6B000000 		.4byte	0x6b
 2665 0ba9 1D010000 		.4byte	.LLST13
 2666 0bad 17010000 		.4byte	.LVUS13
 2667 0bb1 2A       		.uleb128 0x2a
 2668 0bb2 1A000000 		.4byte	.LVL42
 2669 0bb6 120C0000 		.4byte	0xc12
 2670 0bba 00       		.byte	0
 2671 0bbb 07       		.uleb128 0x7
 2672 0bbc 04       		.byte	0x4
 2673 0bbd 7D000000 		.4byte	0x7d
 2674 0bc1 24       		.uleb128 0x24
 2675 0bc2 5D010000 		.4byte	.LASF150
 2676 0bc6 01       		.byte	0x1
 2677 0bc7 7904     		.2byte	0x479
 2678 0bc9 0A       		.byte	0xa
 2679 0bca 00000000 		.4byte	.LFB20
 2680 0bce 24000000 		.4byte	.LFE20-.LFB20
 2681 0bd2 01       		.uleb128 0x1
 2682 0bd3 9C       		.byte	0x9c
 2683 0bd4 0C0C0000 		.4byte	0xc0c
 2684 0bd8 26       		.uleb128 0x26
 2685 0bd9 5B000000 		.4byte	.LASF147
 2686 0bdd 01       		.byte	0x1
 2687 0bde 7904     		.2byte	0x479
 2688 0be0 2C       		.byte	0x2c
 2689 0be1 0C0C0000 		.4byte	0xc0c
 2690 0be5 4F010000 		.4byte	.LLST9
 2691 0be9 47010000 		.4byte	.LVUS9
 2692 0bed 28       		.uleb128 0x28
 2693 0bee C6030000 		.4byte	.LASF149
 2694 0bf2 01       		.byte	0x1
 2695 0bf3 7B04     		.2byte	0x47b
 2696 0bf5 10       		.byte	0x10
 2697 0bf6 82000000 		.4byte	0x82
 2698 0bfa 8E010000 		.4byte	.LLST10
 2699 0bfe 86010000 		.4byte	.LVUS10
 2700 0c02 2A       		.uleb128 0x2a
 2701 0c03 18000000 		.4byte	.LVL37
 2702 0c07 120C0000 		.4byte	0xc12
 2703 0c0b 00       		.byte	0
 2704 0c0c 07       		.uleb128 0x7
 2705 0c0d 04       		.byte	0x4
 2706 0c0e B7000000 		.4byte	0xb7
 2707 0c12 24       		.uleb128 0x24
 2708 0c13 42090000 		.4byte	.LASF151
 2709 0c17 01       		.byte	0x1
 2710 0c18 1104     		.2byte	0x411
 2711 0c1a 0A       		.byte	0xa
 2712 0c1b 00000000 		.4byte	.LFB19
 2713 0c1f 18000000 		.4byte	.LFE19-.LFB19
 2714 0c23 01       		.uleb128 0x1
 2715 0c24 9C       		.byte	0x9c
ARM GAS  C:\Users\jens-\AppData\Local\Temp\ccP7oHVf.s 			page 77


 2716 0c25 3F0C0000 		.4byte	0xc3f
 2717 0c29 26       		.uleb128 0x26
 2718 0c2a 19000000 		.4byte	.LASF145
 2719 0c2e 01       		.byte	0x1
 2720 0c2f 1104     		.2byte	0x411
 2721 0c31 24       		.byte	0x24
 2722 0c32 6B000000 		.4byte	0x6b
 2723 0c36 C6010000 		.4byte	.LLST8
 2724 0c3a C4010000 		.4byte	.LVUS8
 2725 0c3e 00       		.byte	0
 2726 0c3f 2F       		.uleb128 0x2f
 2727 0c40 96020000 		.4byte	.LASF173
 2728 0c44 01       		.byte	0x1
 2729 0c45 EB03     		.2byte	0x3eb
 2730 0c47 0B       		.byte	0xb
 2731 0c48 6B000000 		.4byte	0x6b
 2732 0c4c 00000000 		.4byte	.LFB18
 2733 0c50 0C000000 		.4byte	.LFE18-.LFB18
 2734 0c54 01       		.uleb128 0x1
 2735 0c55 9C       		.byte	0x9c
 2736 0c56 24       		.uleb128 0x24
 2737 0c57 50060000 		.4byte	.LASF152
 2738 0c5b 01       		.byte	0x1
 2739 0c5c AE03     		.2byte	0x3ae
 2740 0c5e 0A       		.byte	0xa
 2741 0c5f 00000000 		.4byte	.LFB17
 2742 0c63 14000000 		.4byte	.LFE17-.LFB17
 2743 0c67 01       		.uleb128 0x1
 2744 0c68 9C       		.byte	0x9c
 2745 0c69 7D0C0000 		.4byte	0xc7d
 2746 0c6d 25       		.uleb128 0x25
 2747 0c6e 19000000 		.4byte	.LASF145
 2748 0c72 01       		.byte	0x1
 2749 0c73 AE03     		.2byte	0x3ae
 2750 0c75 28       		.byte	0x28
 2751 0c76 6B000000 		.4byte	0x6b
 2752 0c7a 01       		.uleb128 0x1
 2753 0c7b 50       		.byte	0x50
 2754 0c7c 00       		.byte	0
 2755 0c7d 24       		.uleb128 0x24
 2756 0c7e 5A080000 		.4byte	.LASF154
 2757 0c82 01       		.byte	0x1
 2758 0c83 8C03     		.2byte	0x38c
 2759 0c85 0A       		.byte	0xa
 2760 0c86 00000000 		.4byte	.LFB16
 2761 0c8a 0C000000 		.4byte	.LFE16-.LFB16
 2762 0c8e 01       		.uleb128 0x1
 2763 0c8f 9C       		.byte	0x9c
 2764 0c90 A40C0000 		.4byte	0xca4
 2765 0c94 25       		.uleb128 0x25
 2766 0c95 BF070000 		.4byte	.LASF155
 2767 0c99 01       		.byte	0x1
 2768 0c9a 8C03     		.2byte	0x38c
 2769 0c9c 2F       		.byte	0x2f
 2770 0c9d 6B000000 		.4byte	0x6b
 2771 0ca1 01       		.uleb128 0x1
 2772 0ca2 50       		.byte	0x50
ARM GAS  C:\Users\jens-\AppData\Local\Temp\ccP7oHVf.s 			page 78


 2773 0ca3 00       		.byte	0
 2774 0ca4 24       		.uleb128 0x24
 2775 0ca5 FA070000 		.4byte	.LASF156
 2776 0ca9 01       		.byte	0x1
 2777 0caa 6D03     		.2byte	0x36d
 2778 0cac 0A       		.byte	0xa
 2779 0cad 00000000 		.4byte	.LFB15
 2780 0cb1 0C000000 		.4byte	.LFE15-.LFB15
 2781 0cb5 01       		.uleb128 0x1
 2782 0cb6 9C       		.byte	0x9c
 2783 0cb7 CB0C0000 		.4byte	0xccb
 2784 0cbb 25       		.uleb128 0x25
 2785 0cbc 1B050000 		.4byte	.LASF157
 2786 0cc0 01       		.byte	0x1
 2787 0cc1 6D03     		.2byte	0x36d
 2788 0cc3 2A       		.byte	0x2a
 2789 0cc4 6B000000 		.4byte	0x6b
 2790 0cc8 01       		.uleb128 0x1
 2791 0cc9 50       		.byte	0x50
 2792 0cca 00       		.byte	0
 2793 0ccb 24       		.uleb128 0x24
 2794 0ccc 6D050000 		.4byte	.LASF158
 2795 0cd0 01       		.byte	0x1
 2796 0cd1 5903     		.2byte	0x359
 2797 0cd3 0A       		.byte	0xa
 2798 0cd4 00000000 		.4byte	.LFB14
 2799 0cd8 0C000000 		.4byte	.LFE14-.LFB14
 2800 0cdc 01       		.uleb128 0x1
 2801 0cdd 9C       		.byte	0x9c
 2802 0cde F20C0000 		.4byte	0xcf2
 2803 0ce2 25       		.uleb128 0x25
 2804 0ce3 1B050000 		.4byte	.LASF157
 2805 0ce7 01       		.byte	0x1
 2806 0ce8 5903     		.2byte	0x359
 2807 0cea 2A       		.byte	0x2a
 2808 0ceb 6B000000 		.4byte	0x6b
 2809 0cef 01       		.uleb128 0x1
 2810 0cf0 50       		.byte	0x50
 2811 0cf1 00       		.byte	0
 2812 0cf2 24       		.uleb128 0x24
 2813 0cf3 87050000 		.4byte	.LASF159
 2814 0cf7 01       		.byte	0x1
 2815 0cf8 2D03     		.2byte	0x32d
 2816 0cfa 0A       		.byte	0xa
 2817 0cfb 00000000 		.4byte	.LFB13
 2818 0cff 02000000 		.4byte	.LFE13-.LFB13
 2819 0d03 01       		.uleb128 0x1
 2820 0d04 9C       		.byte	0x9c
 2821 0d05 190D0000 		.4byte	0xd19
 2822 0d09 25       		.uleb128 0x25
 2823 0d0a 4F020000 		.4byte	.LASF153
 2824 0d0e 01       		.byte	0x1
 2825 0d0f 2D03     		.2byte	0x32d
 2826 0d11 2D       		.byte	0x2d
 2827 0d12 6B000000 		.4byte	0x6b
 2828 0d16 01       		.uleb128 0x1
 2829 0d17 50       		.byte	0x50
ARM GAS  C:\Users\jens-\AppData\Local\Temp\ccP7oHVf.s 			page 79


 2830 0d18 00       		.byte	0
 2831 0d19 24       		.uleb128 0x24
 2832 0d1a DD020000 		.4byte	.LASF160
 2833 0d1e 01       		.byte	0x1
 2834 0d1f F502     		.2byte	0x2f5
 2835 0d21 0A       		.byte	0xa
 2836 0d22 00000000 		.4byte	.LFB12
 2837 0d26 24000000 		.4byte	.LFE12-.LFB12
 2838 0d2a 01       		.uleb128 0x1
 2839 0d2b 9C       		.byte	0x9c
 2840 0d2c 580D0000 		.4byte	0xd58
 2841 0d30 28       		.uleb128 0x28
 2842 0d31 3C080000 		.4byte	.LASF141
 2843 0d35 01       		.byte	0x1
 2844 0d36 F702     		.2byte	0x2f7
 2845 0d38 0F       		.byte	0xf
 2846 0d39 6B000000 		.4byte	0x6b
 2847 0d3d DB010000 		.4byte	.LLST7
 2848 0d41 D9010000 		.4byte	.LVUS7
 2849 0d45 2A       		.uleb128 0x2a
 2850 0d46 06000000 		.4byte	.LVL24
 2851 0d4a 990F0000 		.4byte	0xf99
 2852 0d4e 2A       		.uleb128 0x2a
 2853 0d4f 1C000000 		.4byte	.LVL25
 2854 0d53 A50F0000 		.4byte	0xfa5
 2855 0d57 00       		.byte	0
 2856 0d58 2B       		.uleb128 0x2b
 2857 0d59 E9050000 		.4byte	.LASF162
 2858 0d5d 01       		.byte	0x1
 2859 0d5e AB02     		.2byte	0x2ab
 2860 0d60 0B       		.byte	0xb
 2861 0d61 6B000000 		.4byte	0x6b
 2862 0d65 00000000 		.4byte	.LFB11
 2863 0d69 14000000 		.4byte	.LFE11-.LFB11
 2864 0d6d 01       		.uleb128 0x1
 2865 0d6e 9C       		.byte	0x9c
 2866 0d6f 890D0000 		.4byte	0xd89
 2867 0d73 28       		.uleb128 0x28
 2868 0d74 78030000 		.4byte	.LASF142
 2869 0d78 01       		.byte	0x1
 2870 0d79 AE02     		.2byte	0x2ae
 2871 0d7b 0F       		.byte	0xf
 2872 0d7c 6B000000 		.4byte	0x6b
 2873 0d80 F0010000 		.4byte	.LLST6
 2874 0d84 EE010000 		.4byte	.LVUS6
 2875 0d88 00       		.byte	0
 2876 0d89 2B       		.uleb128 0x2b
 2877 0d8a 90030000 		.4byte	.LASF163
 2878 0d8e 01       		.byte	0x1
 2879 0d8f 7A02     		.2byte	0x27a
 2880 0d91 0C       		.byte	0xc
 2881 0d92 82000000 		.4byte	0x82
 2882 0d96 00000000 		.4byte	.LFB10
 2883 0d9a 14000000 		.4byte	.LFE10-.LFB10
 2884 0d9e 01       		.uleb128 0x1
 2885 0d9f 9C       		.byte	0x9c
 2886 0da0 B70D0000 		.4byte	0xdb7
ARM GAS  C:\Users\jens-\AppData\Local\Temp\ccP7oHVf.s 			page 80


 2887 0da4 2A       		.uleb128 0x2a
 2888 0da5 06000000 		.4byte	.LVL21
 2889 0da9 FD0D0000 		.4byte	0xdfd
 2890 0dad 2A       		.uleb128 0x2a
 2891 0dae 0C000000 		.4byte	.LVL22
 2892 0db2 2E0E0000 		.4byte	0xe2e
 2893 0db6 00       		.byte	0
 2894 0db7 2B       		.uleb128 0x2b
 2895 0db8 79080000 		.4byte	.LASF164
 2896 0dbc 01       		.byte	0x1
 2897 0dbd 1402     		.2byte	0x214
 2898 0dbf 0B       		.byte	0xb
 2899 0dc0 6B000000 		.4byte	0x6b
 2900 0dc4 00000000 		.4byte	.LFB9
 2901 0dc8 24000000 		.4byte	.LFE9-.LFB9
 2902 0dcc 01       		.uleb128 0x1
 2903 0dcd 9C       		.byte	0x9c
 2904 0dce FD0D0000 		.4byte	0xdfd
 2905 0dd2 28       		.uleb128 0x28
 2906 0dd3 38070000 		.4byte	.LASF165
 2907 0dd7 01       		.byte	0x1
 2908 0dd8 1602     		.2byte	0x216
 2909 0dda 0F       		.byte	0xf
 2910 0ddb 6B000000 		.4byte	0x6b
 2911 0ddf 07020000 		.4byte	.LLST4
 2912 0de3 03020000 		.4byte	.LVUS4
 2913 0de7 28       		.uleb128 0x28
 2914 0de8 D1080000 		.4byte	.LASF166
 2915 0dec 01       		.byte	0x1
 2916 0ded 1702     		.2byte	0x217
 2917 0def 0F       		.byte	0xf
 2918 0df0 6B000000 		.4byte	0x6b
 2919 0df4 28020000 		.4byte	.LLST5
 2920 0df8 26020000 		.4byte	.LVUS5
 2921 0dfc 00       		.byte	0
 2922 0dfd 2B       		.uleb128 0x2b
 2923 0dfe DC070000 		.4byte	.LASF167
 2924 0e02 01       		.byte	0x1
 2925 0e03 E501     		.2byte	0x1e5
 2926 0e05 0B       		.byte	0xb
 2927 0e06 6B000000 		.4byte	0x6b
 2928 0e0a 00000000 		.4byte	.LFB8
 2929 0e0e 10000000 		.4byte	.LFE8-.LFB8
 2930 0e12 01       		.uleb128 0x1
 2931 0e13 9C       		.byte	0x9c
 2932 0e14 2E0E0000 		.4byte	0xe2e
 2933 0e18 28       		.uleb128 0x28
 2934 0e19 8D010000 		.4byte	.LASF168
 2935 0e1d 01       		.byte	0x1
 2936 0e1e E701     		.2byte	0x1e7
 2937 0e20 0F       		.byte	0xf
 2938 0e21 6B000000 		.4byte	0x6b
 2939 0e25 3D020000 		.4byte	.LLST3
 2940 0e29 3B020000 		.4byte	.LVUS3
 2941 0e2d 00       		.byte	0
 2942 0e2e 2B       		.uleb128 0x2b
 2943 0e2f 0C090000 		.4byte	.LASF169
ARM GAS  C:\Users\jens-\AppData\Local\Temp\ccP7oHVf.s 			page 81


 2944 0e33 01       		.byte	0x1
 2945 0e34 8801     		.2byte	0x188
 2946 0e36 0B       		.byte	0xb
 2947 0e37 6B000000 		.4byte	0x6b
 2948 0e3b 00000000 		.4byte	.LFB7
 2949 0e3f 0C000000 		.4byte	.LFE7-.LFB7
 2950 0e43 01       		.uleb128 0x1
 2951 0e44 9C       		.byte	0x9c
 2952 0e45 5F0E0000 		.4byte	0xe5f
 2953 0e49 28       		.uleb128 0x28
 2954 0e4a 38070000 		.4byte	.LASF165
 2955 0e4e 01       		.byte	0x1
 2956 0e4f 8A01     		.2byte	0x18a
 2957 0e51 0F       		.byte	0xf
 2958 0e52 6B000000 		.4byte	0x6b
 2959 0e56 57020000 		.4byte	.LLST2
 2960 0e5a 55020000 		.4byte	.LVUS2
 2961 0e5e 00       		.byte	0
 2962 0e5f 24       		.uleb128 0x24
 2963 0e60 A4050000 		.4byte	.LASF170
 2964 0e64 01       		.byte	0x1
 2965 0e65 6701     		.2byte	0x167
 2966 0e67 0A       		.byte	0xa
 2967 0e68 00000000 		.4byte	.LFB6
 2968 0e6c 0C000000 		.4byte	.LFE6-.LFB6
 2969 0e70 01       		.uleb128 0x1
 2970 0e71 9C       		.byte	0x9c
 2971 0e72 860E0000 		.4byte	0xe86
 2972 0e76 25       		.uleb128 0x25
 2973 0e77 BF070000 		.4byte	.LASF155
 2974 0e7b 01       		.byte	0x1
 2975 0e7c 6701     		.2byte	0x167
 2976 0e7e 2F       		.byte	0x2f
 2977 0e7f 6B000000 		.4byte	0x6b
 2978 0e83 01       		.uleb128 0x1
 2979 0e84 50       		.byte	0x50
 2980 0e85 00       		.byte	0
 2981 0e86 24       		.uleb128 0x24
 2982 0e87 94010000 		.4byte	.LASF171
 2983 0e8b 01       		.byte	0x1
 2984 0e8c 3F01     		.2byte	0x13f
 2985 0e8e 07       		.byte	0x7
 2986 0e8f 00000000 		.4byte	.LFB5
 2987 0e93 02000000 		.4byte	.LFE5-.LFB5
 2988 0e97 01       		.uleb128 0x1
 2989 0e98 9C       		.byte	0x9c
 2990 0e99 AD0E0000 		.4byte	0xead
 2991 0e9d 25       		.uleb128 0x25
 2992 0e9e 12020000 		.4byte	.LASF172
 2993 0ea2 01       		.byte	0x1
 2994 0ea3 3F01     		.2byte	0x13f
 2995 0ea5 2E       		.byte	0x2e
 2996 0ea6 6B000000 		.4byte	0x6b
 2997 0eaa 01       		.uleb128 0x1
 2998 0eab 50       		.byte	0x50
 2999 0eac 00       		.byte	0
 3000 0ead 2F       		.uleb128 0x2f
ARM GAS  C:\Users\jens-\AppData\Local\Temp\ccP7oHVf.s 			page 82


 3001 0eae 70070000 		.4byte	.LASF174
 3002 0eb2 01       		.byte	0x1
 3003 0eb3 2701     		.2byte	0x127
 3004 0eb5 07       		.byte	0x7
 3005 0eb6 6B000000 		.4byte	0x6b
 3006 0eba 00000000 		.4byte	.LFB4
 3007 0ebe 04000000 		.4byte	.LFE4-.LFB4
 3008 0ec2 01       		.uleb128 0x1
 3009 0ec3 9C       		.byte	0x9c
 3010 0ec4 30       		.uleb128 0x30
 3011 0ec5 92000000 		.4byte	.LASF175
 3012 0ec9 01       		.byte	0x1
 3013 0eca F0       		.byte	0xf0
 3014 0ecb 06       		.byte	0x6
 3015 0ecc 00000000 		.4byte	.LFB3
 3016 0ed0 3C000000 		.4byte	.LFE3-.LFB3
 3017 0ed4 01       		.uleb128 0x1
 3018 0ed5 9C       		.byte	0x9c
 3019 0ed6 110F0000 		.4byte	0xf11
 3020 0eda 31       		.uleb128 0x31
 3021 0edb 3C080000 		.4byte	.LASF141
 3022 0edf 01       		.byte	0x1
 3023 0ee0 F2       		.byte	0xf2
 3024 0ee1 0B       		.byte	0xb
 3025 0ee2 6B000000 		.4byte	0x6b
 3026 0ee6 6C020000 		.4byte	.LLST1
 3027 0eea 6A020000 		.4byte	.LVUS1
 3028 0eee 2A       		.uleb128 0x2a
 3029 0eef 06000000 		.4byte	.LVL7
 3030 0ef3 990F0000 		.4byte	0xf99
 3031 0ef7 2A       		.uleb128 0x2a
 3032 0ef8 16000000 		.4byte	.LVL9
 3033 0efc B10F0000 		.4byte	0xfb1
 3034 0f00 2E       		.uleb128 0x2e
 3035 0f01 30000000 		.4byte	.LVL10
 3036 0f05 A50F0000 		.4byte	0xfa5
 3037 0f09 2D       		.uleb128 0x2d
 3038 0f0a 01       		.uleb128 0x1
 3039 0f0b 50       		.byte	0x50
 3040 0f0c 02       		.uleb128 0x2
 3041 0f0d 74       		.byte	0x74
 3042 0f0e 00       		.sleb128 0
 3043 0f0f 00       		.byte	0
 3044 0f10 00       		.byte	0
 3045 0f11 30       		.uleb128 0x30
 3046 0f12 7F000000 		.4byte	.LASF176
 3047 0f16 01       		.byte	0x1
 3048 0f17 B7       		.byte	0xb7
 3049 0f18 06       		.byte	0x6
 3050 0f19 00000000 		.4byte	.LFB2
 3051 0f1d 38000000 		.4byte	.LFE2-.LFB2
 3052 0f21 01       		.uleb128 0x1
 3053 0f22 9C       		.byte	0x9c
 3054 0f23 5E0F0000 		.4byte	0xf5e
 3055 0f27 31       		.uleb128 0x31
 3056 0f28 3C080000 		.4byte	.LASF141
 3057 0f2c 01       		.byte	0x1
ARM GAS  C:\Users\jens-\AppData\Local\Temp\ccP7oHVf.s 			page 83


 3058 0f2d B9       		.byte	0xb9
 3059 0f2e 0B       		.byte	0xb
 3060 0f2f 6B000000 		.4byte	0x6b
 3061 0f33 81020000 		.4byte	.LLST0
 3062 0f37 7F020000 		.4byte	.LVUS0
 3063 0f3b 2A       		.uleb128 0x2a
 3064 0f3c 06000000 		.4byte	.LVL0
 3065 0f40 990F0000 		.4byte	0xf99
 3066 0f44 2A       		.uleb128 0x2a
 3067 0f45 2A000000 		.4byte	.LVL2
 3068 0f49 BD0F0000 		.4byte	0xfbd
 3069 0f4d 2E       		.uleb128 0x2e
 3070 0f4e 30000000 		.4byte	.LVL3
 3071 0f52 A50F0000 		.4byte	0xfa5
 3072 0f56 2D       		.uleb128 0x2d
 3073 0f57 01       		.uleb128 0x1
 3074 0f58 50       		.byte	0x50
 3075 0f59 02       		.uleb128 0x2
 3076 0f5a 74       		.byte	0x74
 3077 0f5b 00       		.sleb128 0
 3078 0f5c 00       		.byte	0
 3079 0f5d 00       		.byte	0
 3080 0f5e 32       		.uleb128 0x32
 3081 0f5f BD040000 		.4byte	.LASF186
 3082 0f63 01       		.byte	0x1
 3083 0f64 6A       		.byte	0x6a
 3084 0f65 06       		.byte	0x6
 3085 0f66 00000000 		.4byte	.LFB1
 3086 0f6a 24000000 		.4byte	.LFE1-.LFB1
 3087 0f6e 01       		.uleb128 0x1
 3088 0f6f 9C       		.byte	0x9c
 3089 0f70 30       		.uleb128 0x30
 3090 0f71 2A050000 		.4byte	.LASF177
 3091 0f75 01       		.byte	0x1
 3092 0f76 4C       		.byte	0x4c
 3093 0f77 06       		.byte	0x6
 3094 0f78 00000000 		.4byte	.LFB0
 3095 0f7c 20000000 		.4byte	.LFE0-.LFB0
 3096 0f80 01       		.uleb128 0x1
 3097 0f81 9C       		.byte	0x9c
 3098 0f82 990F0000 		.4byte	0xf99
 3099 0f86 2A       		.uleb128 0x2a
 3100 0f87 0C000000 		.4byte	.LVL5
 3101 0f8b 110F0000 		.4byte	0xf11
 3102 0f8f 2A       		.uleb128 0x2a
 3103 0f90 12000000 		.4byte	.LVL6
 3104 0f94 5E0F0000 		.4byte	0xf5e
 3105 0f98 00       		.byte	0
 3106 0f99 33       		.uleb128 0x33
 3107 0f9a DF040000 		.4byte	.LASF178
 3108 0f9e DF040000 		.4byte	.LASF178
 3109 0fa2 0A       		.byte	0xa
 3110 0fa3 7D       		.byte	0x7d
 3111 0fa4 07       		.byte	0x7
 3112 0fa5 33       		.uleb128 0x33
 3113 0fa6 C9050000 		.4byte	.LASF179
 3114 0faa C9050000 		.4byte	.LASF179
ARM GAS  C:\Users\jens-\AppData\Local\Temp\ccP7oHVf.s 			page 84


 3115 0fae 0A       		.byte	0xa
 3116 0faf 7E       		.byte	0x7e
 3117 0fb0 06       		.byte	0x6
 3118 0fb1 33       		.uleb128 0x33
 3119 0fb2 E5030000 		.4byte	.LASF180
 3120 0fb6 E5030000 		.4byte	.LASF180
 3121 0fba 0C       		.byte	0xc
 3122 0fbb 28       		.byte	0x28
 3123 0fbc 06       		.byte	0x6
 3124 0fbd 33       		.uleb128 0x33
 3125 0fbe E7010000 		.4byte	.LASF181
 3126 0fc2 E7010000 		.4byte	.LASF181
 3127 0fc6 0C       		.byte	0xc
 3128 0fc7 27       		.byte	0x27
 3129 0fc8 06       		.byte	0x6
 3130 0fc9 00       		.byte	0
 3131              		.section	.debug_abbrev,"",%progbits
 3132              	.Ldebug_abbrev0:
 3133 0000 01       		.uleb128 0x1
 3134 0001 11       		.uleb128 0x11
 3135 0002 01       		.byte	0x1
 3136 0003 25       		.uleb128 0x25
 3137 0004 0E       		.uleb128 0xe
 3138 0005 13       		.uleb128 0x13
 3139 0006 0B       		.uleb128 0xb
 3140 0007 03       		.uleb128 0x3
 3141 0008 0E       		.uleb128 0xe
 3142 0009 1B       		.uleb128 0x1b
 3143 000a 0E       		.uleb128 0xe
 3144 000b 55       		.uleb128 0x55
 3145 000c 17       		.uleb128 0x17
 3146 000d 11       		.uleb128 0x11
 3147 000e 01       		.uleb128 0x1
 3148 000f 10       		.uleb128 0x10
 3149 0010 17       		.uleb128 0x17
 3150 0011 00       		.byte	0
 3151 0012 00       		.byte	0
 3152 0013 02       		.uleb128 0x2
 3153 0014 24       		.uleb128 0x24
 3154 0015 00       		.byte	0
 3155 0016 0B       		.uleb128 0xb
 3156 0017 0B       		.uleb128 0xb
 3157 0018 3E       		.uleb128 0x3e
 3158 0019 0B       		.uleb128 0xb
 3159 001a 03       		.uleb128 0x3
 3160 001b 0E       		.uleb128 0xe
 3161 001c 00       		.byte	0
 3162 001d 00       		.byte	0
 3163 001e 03       		.uleb128 0x3
 3164 001f 24       		.uleb128 0x24
 3165 0020 00       		.byte	0
 3166 0021 0B       		.uleb128 0xb
 3167 0022 0B       		.uleb128 0xb
 3168 0023 3E       		.uleb128 0x3e
 3169 0024 0B       		.uleb128 0xb
 3170 0025 03       		.uleb128 0x3
 3171 0026 08       		.uleb128 0x8
ARM GAS  C:\Users\jens-\AppData\Local\Temp\ccP7oHVf.s 			page 85


 3172 0027 00       		.byte	0
 3173 0028 00       		.byte	0
 3174 0029 04       		.uleb128 0x4
 3175 002a 16       		.uleb128 0x16
 3176 002b 00       		.byte	0
 3177 002c 03       		.uleb128 0x3
 3178 002d 0E       		.uleb128 0xe
 3179 002e 3A       		.uleb128 0x3a
 3180 002f 0B       		.uleb128 0xb
 3181 0030 3B       		.uleb128 0x3b
 3182 0031 05       		.uleb128 0x5
 3183 0032 39       		.uleb128 0x39
 3184 0033 0B       		.uleb128 0xb
 3185 0034 49       		.uleb128 0x49
 3186 0035 13       		.uleb128 0x13
 3187 0036 00       		.byte	0
 3188 0037 00       		.byte	0
 3189 0038 05       		.uleb128 0x5
 3190 0039 35       		.uleb128 0x35
 3191 003a 00       		.byte	0
 3192 003b 49       		.uleb128 0x49
 3193 003c 13       		.uleb128 0x13
 3194 003d 00       		.byte	0
 3195 003e 00       		.byte	0
 3196 003f 06       		.uleb128 0x6
 3197 0040 26       		.uleb128 0x26
 3198 0041 00       		.byte	0
 3199 0042 49       		.uleb128 0x49
 3200 0043 13       		.uleb128 0x13
 3201 0044 00       		.byte	0
 3202 0045 00       		.byte	0
 3203 0046 07       		.uleb128 0x7
 3204 0047 0F       		.uleb128 0xf
 3205 0048 00       		.byte	0
 3206 0049 0B       		.uleb128 0xb
 3207 004a 0B       		.uleb128 0xb
 3208 004b 49       		.uleb128 0x49
 3209 004c 13       		.uleb128 0x13
 3210 004d 00       		.byte	0
 3211 004e 00       		.byte	0
 3212 004f 08       		.uleb128 0x8
 3213 0050 15       		.uleb128 0x15
 3214 0051 00       		.byte	0
 3215 0052 27       		.uleb128 0x27
 3216 0053 19       		.uleb128 0x19
 3217 0054 00       		.byte	0
 3218 0055 00       		.byte	0
 3219 0056 09       		.uleb128 0x9
 3220 0057 16       		.uleb128 0x16
 3221 0058 00       		.byte	0
 3222 0059 03       		.uleb128 0x3
 3223 005a 0E       		.uleb128 0xe
 3224 005b 3A       		.uleb128 0x3a
 3225 005c 0B       		.uleb128 0xb
 3226 005d 3B       		.uleb128 0x3b
 3227 005e 0B       		.uleb128 0xb
 3228 005f 39       		.uleb128 0x39
ARM GAS  C:\Users\jens-\AppData\Local\Temp\ccP7oHVf.s 			page 86


 3229 0060 0B       		.uleb128 0xb
 3230 0061 49       		.uleb128 0x49
 3231 0062 13       		.uleb128 0x13
 3232 0063 00       		.byte	0
 3233 0064 00       		.byte	0
 3234 0065 0A       		.uleb128 0xa
 3235 0066 13       		.uleb128 0x13
 3236 0067 00       		.byte	0
 3237 0068 03       		.uleb128 0x3
 3238 0069 0E       		.uleb128 0xe
 3239 006a 3C       		.uleb128 0x3c
 3240 006b 19       		.uleb128 0x19
 3241 006c 00       		.byte	0
 3242 006d 00       		.byte	0
 3243 006e 0B       		.uleb128 0xb
 3244 006f 17       		.uleb128 0x17
 3245 0070 01       		.byte	0x1
 3246 0071 0B       		.uleb128 0xb
 3247 0072 0B       		.uleb128 0xb
 3248 0073 3A       		.uleb128 0x3a
 3249 0074 0B       		.uleb128 0xb
 3250 0075 3B       		.uleb128 0x3b
 3251 0076 0B       		.uleb128 0xb
 3252 0077 39       		.uleb128 0x39
 3253 0078 0B       		.uleb128 0xb
 3254 0079 01       		.uleb128 0x1
 3255 007a 13       		.uleb128 0x13
 3256 007b 00       		.byte	0
 3257 007c 00       		.byte	0
 3258 007d 0C       		.uleb128 0xc
 3259 007e 0D       		.uleb128 0xd
 3260 007f 00       		.byte	0
 3261 0080 03       		.uleb128 0x3
 3262 0081 0E       		.uleb128 0xe
 3263 0082 3A       		.uleb128 0x3a
 3264 0083 0B       		.uleb128 0xb
 3265 0084 3B       		.uleb128 0x3b
 3266 0085 0B       		.uleb128 0xb
 3267 0086 39       		.uleb128 0x39
 3268 0087 0B       		.uleb128 0xb
 3269 0088 49       		.uleb128 0x49
 3270 0089 13       		.uleb128 0x13
 3271 008a 00       		.byte	0
 3272 008b 00       		.byte	0
 3273 008c 0D       		.uleb128 0xd
 3274 008d 01       		.uleb128 0x1
 3275 008e 01       		.byte	0x1
 3276 008f 49       		.uleb128 0x49
 3277 0090 13       		.uleb128 0x13
 3278 0091 01       		.uleb128 0x1
 3279 0092 13       		.uleb128 0x13
 3280 0093 00       		.byte	0
 3281 0094 00       		.byte	0
 3282 0095 0E       		.uleb128 0xe
 3283 0096 21       		.uleb128 0x21
 3284 0097 00       		.byte	0
 3285 0098 49       		.uleb128 0x49
ARM GAS  C:\Users\jens-\AppData\Local\Temp\ccP7oHVf.s 			page 87


 3286 0099 13       		.uleb128 0x13
 3287 009a 2F       		.uleb128 0x2f
 3288 009b 0B       		.uleb128 0xb
 3289 009c 00       		.byte	0
 3290 009d 00       		.byte	0
 3291 009e 0F       		.uleb128 0xf
 3292 009f 13       		.uleb128 0x13
 3293 00a0 01       		.byte	0x1
 3294 00a1 0B       		.uleb128 0xb
 3295 00a2 0B       		.uleb128 0xb
 3296 00a3 3A       		.uleb128 0x3a
 3297 00a4 0B       		.uleb128 0xb
 3298 00a5 3B       		.uleb128 0x3b
 3299 00a6 0B       		.uleb128 0xb
 3300 00a7 39       		.uleb128 0x39
 3301 00a8 0B       		.uleb128 0xb
 3302 00a9 01       		.uleb128 0x1
 3303 00aa 13       		.uleb128 0x13
 3304 00ab 00       		.byte	0
 3305 00ac 00       		.byte	0
 3306 00ad 10       		.uleb128 0x10
 3307 00ae 0D       		.uleb128 0xd
 3308 00af 00       		.byte	0
 3309 00b0 03       		.uleb128 0x3
 3310 00b1 0E       		.uleb128 0xe
 3311 00b2 3A       		.uleb128 0x3a
 3312 00b3 0B       		.uleb128 0xb
 3313 00b4 3B       		.uleb128 0x3b
 3314 00b5 0B       		.uleb128 0xb
 3315 00b6 39       		.uleb128 0x39
 3316 00b7 0B       		.uleb128 0xb
 3317 00b8 49       		.uleb128 0x49
 3318 00b9 13       		.uleb128 0x13
 3319 00ba 38       		.uleb128 0x38
 3320 00bb 0B       		.uleb128 0xb
 3321 00bc 00       		.byte	0
 3322 00bd 00       		.byte	0
 3323 00be 11       		.uleb128 0x11
 3324 00bf 0F       		.uleb128 0xf
 3325 00c0 00       		.byte	0
 3326 00c1 0B       		.uleb128 0xb
 3327 00c2 0B       		.uleb128 0xb
 3328 00c3 00       		.byte	0
 3329 00c4 00       		.byte	0
 3330 00c5 12       		.uleb128 0x12
 3331 00c6 13       		.uleb128 0x13
 3332 00c7 01       		.byte	0x1
 3333 00c8 03       		.uleb128 0x3
 3334 00c9 0E       		.uleb128 0xe
 3335 00ca 0B       		.uleb128 0xb
 3336 00cb 0B       		.uleb128 0xb
 3337 00cc 3A       		.uleb128 0x3a
 3338 00cd 0B       		.uleb128 0xb
 3339 00ce 3B       		.uleb128 0x3b
 3340 00cf 0B       		.uleb128 0xb
 3341 00d0 39       		.uleb128 0x39
 3342 00d1 0B       		.uleb128 0xb
ARM GAS  C:\Users\jens-\AppData\Local\Temp\ccP7oHVf.s 			page 88


 3343 00d2 01       		.uleb128 0x1
 3344 00d3 13       		.uleb128 0x13
 3345 00d4 00       		.byte	0
 3346 00d5 00       		.byte	0
 3347 00d6 13       		.uleb128 0x13
 3348 00d7 0D       		.uleb128 0xd
 3349 00d8 00       		.byte	0
 3350 00d9 03       		.uleb128 0x3
 3351 00da 08       		.uleb128 0x8
 3352 00db 3A       		.uleb128 0x3a
 3353 00dc 0B       		.uleb128 0xb
 3354 00dd 3B       		.uleb128 0x3b
 3355 00de 0B       		.uleb128 0xb
 3356 00df 39       		.uleb128 0x39
 3357 00e0 0B       		.uleb128 0xb
 3358 00e1 49       		.uleb128 0x49
 3359 00e2 13       		.uleb128 0x13
 3360 00e3 38       		.uleb128 0x38
 3361 00e4 0B       		.uleb128 0xb
 3362 00e5 00       		.byte	0
 3363 00e6 00       		.byte	0
 3364 00e7 14       		.uleb128 0x14
 3365 00e8 13       		.uleb128 0x13
 3366 00e9 01       		.byte	0x1
 3367 00ea 03       		.uleb128 0x3
 3368 00eb 0E       		.uleb128 0xe
 3369 00ec 0B       		.uleb128 0xb
 3370 00ed 05       		.uleb128 0x5
 3371 00ee 3A       		.uleb128 0x3a
 3372 00ef 0B       		.uleb128 0xb
 3373 00f0 3B       		.uleb128 0x3b
 3374 00f1 0B       		.uleb128 0xb
 3375 00f2 39       		.uleb128 0x39
 3376 00f3 0B       		.uleb128 0xb
 3377 00f4 01       		.uleb128 0x1
 3378 00f5 13       		.uleb128 0x13
 3379 00f6 00       		.byte	0
 3380 00f7 00       		.byte	0
 3381 00f8 15       		.uleb128 0x15
 3382 00f9 0D       		.uleb128 0xd
 3383 00fa 00       		.byte	0
 3384 00fb 03       		.uleb128 0x3
 3385 00fc 0E       		.uleb128 0xe
 3386 00fd 3A       		.uleb128 0x3a
 3387 00fe 0B       		.uleb128 0xb
 3388 00ff 3B       		.uleb128 0x3b
 3389 0100 0B       		.uleb128 0xb
 3390 0101 39       		.uleb128 0x39
 3391 0102 0B       		.uleb128 0xb
 3392 0103 49       		.uleb128 0x49
 3393 0104 13       		.uleb128 0x13
 3394 0105 38       		.uleb128 0x38
 3395 0106 05       		.uleb128 0x5
 3396 0107 00       		.byte	0
 3397 0108 00       		.byte	0
 3398 0109 16       		.uleb128 0x16
 3399 010a 15       		.uleb128 0x15
ARM GAS  C:\Users\jens-\AppData\Local\Temp\ccP7oHVf.s 			page 89


 3400 010b 01       		.byte	0x1
 3401 010c 27       		.uleb128 0x27
 3402 010d 19       		.uleb128 0x19
 3403 010e 49       		.uleb128 0x49
 3404 010f 13       		.uleb128 0x13
 3405 0110 01       		.uleb128 0x1
 3406 0111 13       		.uleb128 0x13
 3407 0112 00       		.byte	0
 3408 0113 00       		.byte	0
 3409 0114 17       		.uleb128 0x17
 3410 0115 05       		.uleb128 0x5
 3411 0116 00       		.byte	0
 3412 0117 49       		.uleb128 0x49
 3413 0118 13       		.uleb128 0x13
 3414 0119 00       		.byte	0
 3415 011a 00       		.byte	0
 3416 011b 18       		.uleb128 0x18
 3417 011c 13       		.uleb128 0x13
 3418 011d 01       		.byte	0x1
 3419 011e 03       		.uleb128 0x3
 3420 011f 0E       		.uleb128 0xe
 3421 0120 0B       		.uleb128 0xb
 3422 0121 05       		.uleb128 0x5
 3423 0122 3A       		.uleb128 0x3a
 3424 0123 0B       		.uleb128 0xb
 3425 0124 3B       		.uleb128 0x3b
 3426 0125 05       		.uleb128 0x5
 3427 0126 39       		.uleb128 0x39
 3428 0127 0B       		.uleb128 0xb
 3429 0128 01       		.uleb128 0x1
 3430 0129 13       		.uleb128 0x13
 3431 012a 00       		.byte	0
 3432 012b 00       		.byte	0
 3433 012c 19       		.uleb128 0x19
 3434 012d 0D       		.uleb128 0xd
 3435 012e 00       		.byte	0
 3436 012f 03       		.uleb128 0x3
 3437 0130 0E       		.uleb128 0xe
 3438 0131 3A       		.uleb128 0x3a
 3439 0132 0B       		.uleb128 0xb
 3440 0133 3B       		.uleb128 0x3b
 3441 0134 05       		.uleb128 0x5
 3442 0135 39       		.uleb128 0x39
 3443 0136 0B       		.uleb128 0xb
 3444 0137 49       		.uleb128 0x49
 3445 0138 13       		.uleb128 0x13
 3446 0139 38       		.uleb128 0x38
 3447 013a 0B       		.uleb128 0xb
 3448 013b 00       		.byte	0
 3449 013c 00       		.byte	0
 3450 013d 1A       		.uleb128 0x1a
 3451 013e 0D       		.uleb128 0xd
 3452 013f 00       		.byte	0
 3453 0140 03       		.uleb128 0x3
 3454 0141 0E       		.uleb128 0xe
 3455 0142 3A       		.uleb128 0x3a
 3456 0143 0B       		.uleb128 0xb
ARM GAS  C:\Users\jens-\AppData\Local\Temp\ccP7oHVf.s 			page 90


 3457 0144 3B       		.uleb128 0x3b
 3458 0145 05       		.uleb128 0x5
 3459 0146 39       		.uleb128 0x39
 3460 0147 0B       		.uleb128 0xb
 3461 0148 49       		.uleb128 0x49
 3462 0149 13       		.uleb128 0x13
 3463 014a 38       		.uleb128 0x38
 3464 014b 05       		.uleb128 0x5
 3465 014c 00       		.byte	0
 3466 014d 00       		.byte	0
 3467 014e 1B       		.uleb128 0x1b
 3468 014f 13       		.uleb128 0x13
 3469 0150 01       		.byte	0x1
 3470 0151 03       		.uleb128 0x3
 3471 0152 0E       		.uleb128 0xe
 3472 0153 0B       		.uleb128 0xb
 3473 0154 0B       		.uleb128 0xb
 3474 0155 3A       		.uleb128 0x3a
 3475 0156 0B       		.uleb128 0xb
 3476 0157 3B       		.uleb128 0x3b
 3477 0158 05       		.uleb128 0x5
 3478 0159 39       		.uleb128 0x39
 3479 015a 0B       		.uleb128 0xb
 3480 015b 01       		.uleb128 0x1
 3481 015c 13       		.uleb128 0x13
 3482 015d 00       		.byte	0
 3483 015e 00       		.byte	0
 3484 015f 1C       		.uleb128 0x1c
 3485 0160 13       		.uleb128 0x13
 3486 0161 01       		.byte	0x1
 3487 0162 0B       		.uleb128 0xb
 3488 0163 0B       		.uleb128 0xb
 3489 0164 3A       		.uleb128 0x3a
 3490 0165 0B       		.uleb128 0xb
 3491 0166 3B       		.uleb128 0x3b
 3492 0167 05       		.uleb128 0x5
 3493 0168 39       		.uleb128 0x39
 3494 0169 0B       		.uleb128 0xb
 3495 016a 01       		.uleb128 0x1
 3496 016b 13       		.uleb128 0x13
 3497 016c 00       		.byte	0
 3498 016d 00       		.byte	0
 3499 016e 1D       		.uleb128 0x1d
 3500 016f 17       		.uleb128 0x17
 3501 0170 01       		.byte	0x1
 3502 0171 0B       		.uleb128 0xb
 3503 0172 0B       		.uleb128 0xb
 3504 0173 3A       		.uleb128 0x3a
 3505 0174 0B       		.uleb128 0xb
 3506 0175 3B       		.uleb128 0x3b
 3507 0176 05       		.uleb128 0x5
 3508 0177 39       		.uleb128 0x39
 3509 0178 0B       		.uleb128 0xb
 3510 0179 01       		.uleb128 0x1
 3511 017a 13       		.uleb128 0x13
 3512 017b 00       		.byte	0
 3513 017c 00       		.byte	0
ARM GAS  C:\Users\jens-\AppData\Local\Temp\ccP7oHVf.s 			page 91


 3514 017d 1E       		.uleb128 0x1e
 3515 017e 0D       		.uleb128 0xd
 3516 017f 00       		.byte	0
 3517 0180 03       		.uleb128 0x3
 3518 0181 0E       		.uleb128 0xe
 3519 0182 3A       		.uleb128 0x3a
 3520 0183 0B       		.uleb128 0xb
 3521 0184 3B       		.uleb128 0x3b
 3522 0185 05       		.uleb128 0x5
 3523 0186 39       		.uleb128 0x39
 3524 0187 0B       		.uleb128 0xb
 3525 0188 49       		.uleb128 0x49
 3526 0189 13       		.uleb128 0x13
 3527 018a 00       		.byte	0
 3528 018b 00       		.byte	0
 3529 018c 1F       		.uleb128 0x1f
 3530 018d 15       		.uleb128 0x15
 3531 018e 01       		.byte	0x1
 3532 018f 27       		.uleb128 0x27
 3533 0190 19       		.uleb128 0x19
 3534 0191 01       		.uleb128 0x1
 3535 0192 13       		.uleb128 0x13
 3536 0193 00       		.byte	0
 3537 0194 00       		.byte	0
 3538 0195 20       		.uleb128 0x20
 3539 0196 34       		.uleb128 0x34
 3540 0197 00       		.byte	0
 3541 0198 03       		.uleb128 0x3
 3542 0199 0E       		.uleb128 0xe
 3543 019a 3A       		.uleb128 0x3a
 3544 019b 0B       		.uleb128 0xb
 3545 019c 3B       		.uleb128 0x3b
 3546 019d 05       		.uleb128 0x5
 3547 019e 39       		.uleb128 0x39
 3548 019f 0B       		.uleb128 0xb
 3549 01a0 49       		.uleb128 0x49
 3550 01a1 13       		.uleb128 0x13
 3551 01a2 3F       		.uleb128 0x3f
 3552 01a3 19       		.uleb128 0x19
 3553 01a4 3C       		.uleb128 0x3c
 3554 01a5 19       		.uleb128 0x19
 3555 01a6 00       		.byte	0
 3556 01a7 00       		.byte	0
 3557 01a8 21       		.uleb128 0x21
 3558 01a9 21       		.uleb128 0x21
 3559 01aa 00       		.byte	0
 3560 01ab 00       		.byte	0
 3561 01ac 00       		.byte	0
 3562 01ad 22       		.uleb128 0x22
 3563 01ae 34       		.uleb128 0x34
 3564 01af 00       		.byte	0
 3565 01b0 03       		.uleb128 0x3
 3566 01b1 0E       		.uleb128 0xe
 3567 01b2 3A       		.uleb128 0x3a
 3568 01b3 0B       		.uleb128 0xb
 3569 01b4 3B       		.uleb128 0x3b
 3570 01b5 0B       		.uleb128 0xb
ARM GAS  C:\Users\jens-\AppData\Local\Temp\ccP7oHVf.s 			page 92


 3571 01b6 39       		.uleb128 0x39
 3572 01b7 0B       		.uleb128 0xb
 3573 01b8 49       		.uleb128 0x49
 3574 01b9 13       		.uleb128 0x13
 3575 01ba 3F       		.uleb128 0x3f
 3576 01bb 19       		.uleb128 0x19
 3577 01bc 3C       		.uleb128 0x3c
 3578 01bd 19       		.uleb128 0x19
 3579 01be 00       		.byte	0
 3580 01bf 00       		.byte	0
 3581 01c0 23       		.uleb128 0x23
 3582 01c1 34       		.uleb128 0x34
 3583 01c2 00       		.byte	0
 3584 01c3 47       		.uleb128 0x47
 3585 01c4 13       		.uleb128 0x13
 3586 01c5 3A       		.uleb128 0x3a
 3587 01c6 0B       		.uleb128 0xb
 3588 01c7 3B       		.uleb128 0x3b
 3589 01c8 0B       		.uleb128 0xb
 3590 01c9 39       		.uleb128 0x39
 3591 01ca 0B       		.uleb128 0xb
 3592 01cb 02       		.uleb128 0x2
 3593 01cc 18       		.uleb128 0x18
 3594 01cd 00       		.byte	0
 3595 01ce 00       		.byte	0
 3596 01cf 24       		.uleb128 0x24
 3597 01d0 2E       		.uleb128 0x2e
 3598 01d1 01       		.byte	0x1
 3599 01d2 3F       		.uleb128 0x3f
 3600 01d3 19       		.uleb128 0x19
 3601 01d4 03       		.uleb128 0x3
 3602 01d5 0E       		.uleb128 0xe
 3603 01d6 3A       		.uleb128 0x3a
 3604 01d7 0B       		.uleb128 0xb
 3605 01d8 3B       		.uleb128 0x3b
 3606 01d9 05       		.uleb128 0x5
 3607 01da 39       		.uleb128 0x39
 3608 01db 0B       		.uleb128 0xb
 3609 01dc 27       		.uleb128 0x27
 3610 01dd 19       		.uleb128 0x19
 3611 01de 11       		.uleb128 0x11
 3612 01df 01       		.uleb128 0x1
 3613 01e0 12       		.uleb128 0x12
 3614 01e1 06       		.uleb128 0x6
 3615 01e2 40       		.uleb128 0x40
 3616 01e3 18       		.uleb128 0x18
 3617 01e4 9742     		.uleb128 0x2117
 3618 01e6 19       		.uleb128 0x19
 3619 01e7 01       		.uleb128 0x1
 3620 01e8 13       		.uleb128 0x13
 3621 01e9 00       		.byte	0
 3622 01ea 00       		.byte	0
 3623 01eb 25       		.uleb128 0x25
 3624 01ec 05       		.uleb128 0x5
 3625 01ed 00       		.byte	0
 3626 01ee 03       		.uleb128 0x3
 3627 01ef 0E       		.uleb128 0xe
ARM GAS  C:\Users\jens-\AppData\Local\Temp\ccP7oHVf.s 			page 93


 3628 01f0 3A       		.uleb128 0x3a
 3629 01f1 0B       		.uleb128 0xb
 3630 01f2 3B       		.uleb128 0x3b
 3631 01f3 05       		.uleb128 0x5
 3632 01f4 39       		.uleb128 0x39
 3633 01f5 0B       		.uleb128 0xb
 3634 01f6 49       		.uleb128 0x49
 3635 01f7 13       		.uleb128 0x13
 3636 01f8 02       		.uleb128 0x2
 3637 01f9 18       		.uleb128 0x18
 3638 01fa 00       		.byte	0
 3639 01fb 00       		.byte	0
 3640 01fc 26       		.uleb128 0x26
 3641 01fd 05       		.uleb128 0x5
 3642 01fe 00       		.byte	0
 3643 01ff 03       		.uleb128 0x3
 3644 0200 0E       		.uleb128 0xe
 3645 0201 3A       		.uleb128 0x3a
 3646 0202 0B       		.uleb128 0xb
 3647 0203 3B       		.uleb128 0x3b
 3648 0204 05       		.uleb128 0x5
 3649 0205 39       		.uleb128 0x39
 3650 0206 0B       		.uleb128 0xb
 3651 0207 49       		.uleb128 0x49
 3652 0208 13       		.uleb128 0x13
 3653 0209 02       		.uleb128 0x2
 3654 020a 17       		.uleb128 0x17
 3655 020b B742     		.uleb128 0x2137
 3656 020d 17       		.uleb128 0x17
 3657 020e 00       		.byte	0
 3658 020f 00       		.byte	0
 3659 0210 27       		.uleb128 0x27
 3660 0211 0B       		.uleb128 0xb
 3661 0212 01       		.byte	0x1
 3662 0213 11       		.uleb128 0x11
 3663 0214 01       		.uleb128 0x1
 3664 0215 12       		.uleb128 0x12
 3665 0216 06       		.uleb128 0x6
 3666 0217 00       		.byte	0
 3667 0218 00       		.byte	0
 3668 0219 28       		.uleb128 0x28
 3669 021a 34       		.uleb128 0x34
 3670 021b 00       		.byte	0
 3671 021c 03       		.uleb128 0x3
 3672 021d 0E       		.uleb128 0xe
 3673 021e 3A       		.uleb128 0x3a
 3674 021f 0B       		.uleb128 0xb
 3675 0220 3B       		.uleb128 0x3b
 3676 0221 05       		.uleb128 0x5
 3677 0222 39       		.uleb128 0x39
 3678 0223 0B       		.uleb128 0xb
 3679 0224 49       		.uleb128 0x49
 3680 0225 13       		.uleb128 0x13
 3681 0226 02       		.uleb128 0x2
 3682 0227 17       		.uleb128 0x17
 3683 0228 B742     		.uleb128 0x2137
 3684 022a 17       		.uleb128 0x17
ARM GAS  C:\Users\jens-\AppData\Local\Temp\ccP7oHVf.s 			page 94


 3685 022b 00       		.byte	0
 3686 022c 00       		.byte	0
 3687 022d 29       		.uleb128 0x29
 3688 022e 34       		.uleb128 0x34
 3689 022f 00       		.byte	0
 3690 0230 03       		.uleb128 0x3
 3691 0231 0E       		.uleb128 0xe
 3692 0232 3A       		.uleb128 0x3a
 3693 0233 0B       		.uleb128 0xb
 3694 0234 3B       		.uleb128 0x3b
 3695 0235 05       		.uleb128 0x5
 3696 0236 39       		.uleb128 0x39
 3697 0237 0B       		.uleb128 0xb
 3698 0238 49       		.uleb128 0x49
 3699 0239 13       		.uleb128 0x13
 3700 023a 02       		.uleb128 0x2
 3701 023b 18       		.uleb128 0x18
 3702 023c 00       		.byte	0
 3703 023d 00       		.byte	0
 3704 023e 2A       		.uleb128 0x2a
 3705 023f 898201   		.uleb128 0x4109
 3706 0242 00       		.byte	0
 3707 0243 11       		.uleb128 0x11
 3708 0244 01       		.uleb128 0x1
 3709 0245 31       		.uleb128 0x31
 3710 0246 13       		.uleb128 0x13
 3711 0247 00       		.byte	0
 3712 0248 00       		.byte	0
 3713 0249 2B       		.uleb128 0x2b
 3714 024a 2E       		.uleb128 0x2e
 3715 024b 01       		.byte	0x1
 3716 024c 3F       		.uleb128 0x3f
 3717 024d 19       		.uleb128 0x19
 3718 024e 03       		.uleb128 0x3
 3719 024f 0E       		.uleb128 0xe
 3720 0250 3A       		.uleb128 0x3a
 3721 0251 0B       		.uleb128 0xb
 3722 0252 3B       		.uleb128 0x3b
 3723 0253 05       		.uleb128 0x5
 3724 0254 39       		.uleb128 0x39
 3725 0255 0B       		.uleb128 0xb
 3726 0256 27       		.uleb128 0x27
 3727 0257 19       		.uleb128 0x19
 3728 0258 49       		.uleb128 0x49
 3729 0259 13       		.uleb128 0x13
 3730 025a 11       		.uleb128 0x11
 3731 025b 01       		.uleb128 0x1
 3732 025c 12       		.uleb128 0x12
 3733 025d 06       		.uleb128 0x6
 3734 025e 40       		.uleb128 0x40
 3735 025f 18       		.uleb128 0x18
 3736 0260 9742     		.uleb128 0x2117
 3737 0262 19       		.uleb128 0x19
 3738 0263 01       		.uleb128 0x1
 3739 0264 13       		.uleb128 0x13
 3740 0265 00       		.byte	0
 3741 0266 00       		.byte	0
ARM GAS  C:\Users\jens-\AppData\Local\Temp\ccP7oHVf.s 			page 95


 3742 0267 2C       		.uleb128 0x2c
 3743 0268 898201   		.uleb128 0x4109
 3744 026b 01       		.byte	0x1
 3745 026c 11       		.uleb128 0x11
 3746 026d 01       		.uleb128 0x1
 3747 026e 31       		.uleb128 0x31
 3748 026f 13       		.uleb128 0x13
 3749 0270 01       		.uleb128 0x1
 3750 0271 13       		.uleb128 0x13
 3751 0272 00       		.byte	0
 3752 0273 00       		.byte	0
 3753 0274 2D       		.uleb128 0x2d
 3754 0275 8A8201   		.uleb128 0x410a
 3755 0278 00       		.byte	0
 3756 0279 02       		.uleb128 0x2
 3757 027a 18       		.uleb128 0x18
 3758 027b 9142     		.uleb128 0x2111
 3759 027d 18       		.uleb128 0x18
 3760 027e 00       		.byte	0
 3761 027f 00       		.byte	0
 3762 0280 2E       		.uleb128 0x2e
 3763 0281 898201   		.uleb128 0x4109
 3764 0284 01       		.byte	0x1
 3765 0285 11       		.uleb128 0x11
 3766 0286 01       		.uleb128 0x1
 3767 0287 31       		.uleb128 0x31
 3768 0288 13       		.uleb128 0x13
 3769 0289 00       		.byte	0
 3770 028a 00       		.byte	0
 3771 028b 2F       		.uleb128 0x2f
 3772 028c 2E       		.uleb128 0x2e
 3773 028d 00       		.byte	0
 3774 028e 3F       		.uleb128 0x3f
 3775 028f 19       		.uleb128 0x19
 3776 0290 03       		.uleb128 0x3
 3777 0291 0E       		.uleb128 0xe
 3778 0292 3A       		.uleb128 0x3a
 3779 0293 0B       		.uleb128 0xb
 3780 0294 3B       		.uleb128 0x3b
 3781 0295 05       		.uleb128 0x5
 3782 0296 39       		.uleb128 0x39
 3783 0297 0B       		.uleb128 0xb
 3784 0298 27       		.uleb128 0x27
 3785 0299 19       		.uleb128 0x19
 3786 029a 49       		.uleb128 0x49
 3787 029b 13       		.uleb128 0x13
 3788 029c 11       		.uleb128 0x11
 3789 029d 01       		.uleb128 0x1
 3790 029e 12       		.uleb128 0x12
 3791 029f 06       		.uleb128 0x6
 3792 02a0 40       		.uleb128 0x40
 3793 02a1 18       		.uleb128 0x18
 3794 02a2 9742     		.uleb128 0x2117
 3795 02a4 19       		.uleb128 0x19
 3796 02a5 00       		.byte	0
 3797 02a6 00       		.byte	0
 3798 02a7 30       		.uleb128 0x30
ARM GAS  C:\Users\jens-\AppData\Local\Temp\ccP7oHVf.s 			page 96


 3799 02a8 2E       		.uleb128 0x2e
 3800 02a9 01       		.byte	0x1
 3801 02aa 3F       		.uleb128 0x3f
 3802 02ab 19       		.uleb128 0x19
 3803 02ac 03       		.uleb128 0x3
 3804 02ad 0E       		.uleb128 0xe
 3805 02ae 3A       		.uleb128 0x3a
 3806 02af 0B       		.uleb128 0xb
 3807 02b0 3B       		.uleb128 0x3b
 3808 02b1 0B       		.uleb128 0xb
 3809 02b2 39       		.uleb128 0x39
 3810 02b3 0B       		.uleb128 0xb
 3811 02b4 27       		.uleb128 0x27
 3812 02b5 19       		.uleb128 0x19
 3813 02b6 11       		.uleb128 0x11
 3814 02b7 01       		.uleb128 0x1
 3815 02b8 12       		.uleb128 0x12
 3816 02b9 06       		.uleb128 0x6
 3817 02ba 40       		.uleb128 0x40
 3818 02bb 18       		.uleb128 0x18
 3819 02bc 9742     		.uleb128 0x2117
 3820 02be 19       		.uleb128 0x19
 3821 02bf 01       		.uleb128 0x1
 3822 02c0 13       		.uleb128 0x13
 3823 02c1 00       		.byte	0
 3824 02c2 00       		.byte	0
 3825 02c3 31       		.uleb128 0x31
 3826 02c4 34       		.uleb128 0x34
 3827 02c5 00       		.byte	0
 3828 02c6 03       		.uleb128 0x3
 3829 02c7 0E       		.uleb128 0xe
 3830 02c8 3A       		.uleb128 0x3a
 3831 02c9 0B       		.uleb128 0xb
 3832 02ca 3B       		.uleb128 0x3b
 3833 02cb 0B       		.uleb128 0xb
 3834 02cc 39       		.uleb128 0x39
 3835 02cd 0B       		.uleb128 0xb
 3836 02ce 49       		.uleb128 0x49
 3837 02cf 13       		.uleb128 0x13
 3838 02d0 02       		.uleb128 0x2
 3839 02d1 17       		.uleb128 0x17
 3840 02d2 B742     		.uleb128 0x2137
 3841 02d4 17       		.uleb128 0x17
 3842 02d5 00       		.byte	0
 3843 02d6 00       		.byte	0
 3844 02d7 32       		.uleb128 0x32
 3845 02d8 2E       		.uleb128 0x2e
 3846 02d9 00       		.byte	0
 3847 02da 3F       		.uleb128 0x3f
 3848 02db 19       		.uleb128 0x19
 3849 02dc 03       		.uleb128 0x3
 3850 02dd 0E       		.uleb128 0xe
 3851 02de 3A       		.uleb128 0x3a
 3852 02df 0B       		.uleb128 0xb
 3853 02e0 3B       		.uleb128 0x3b
 3854 02e1 0B       		.uleb128 0xb
 3855 02e2 39       		.uleb128 0x39
ARM GAS  C:\Users\jens-\AppData\Local\Temp\ccP7oHVf.s 			page 97


 3856 02e3 0B       		.uleb128 0xb
 3857 02e4 27       		.uleb128 0x27
 3858 02e5 19       		.uleb128 0x19
 3859 02e6 11       		.uleb128 0x11
 3860 02e7 01       		.uleb128 0x1
 3861 02e8 12       		.uleb128 0x12
 3862 02e9 06       		.uleb128 0x6
 3863 02ea 40       		.uleb128 0x40
 3864 02eb 18       		.uleb128 0x18
 3865 02ec 9742     		.uleb128 0x2117
 3866 02ee 19       		.uleb128 0x19
 3867 02ef 00       		.byte	0
 3868 02f0 00       		.byte	0
 3869 02f1 33       		.uleb128 0x33
 3870 02f2 2E       		.uleb128 0x2e
 3871 02f3 00       		.byte	0
 3872 02f4 3F       		.uleb128 0x3f
 3873 02f5 19       		.uleb128 0x19
 3874 02f6 3C       		.uleb128 0x3c
 3875 02f7 19       		.uleb128 0x19
 3876 02f8 6E       		.uleb128 0x6e
 3877 02f9 0E       		.uleb128 0xe
 3878 02fa 03       		.uleb128 0x3
 3879 02fb 0E       		.uleb128 0xe
 3880 02fc 3A       		.uleb128 0x3a
 3881 02fd 0B       		.uleb128 0xb
 3882 02fe 3B       		.uleb128 0x3b
 3883 02ff 0B       		.uleb128 0xb
 3884 0300 39       		.uleb128 0x39
 3885 0301 0B       		.uleb128 0xb
 3886 0302 00       		.byte	0
 3887 0303 00       		.byte	0
 3888 0304 00       		.byte	0
 3889              		.section	.debug_loc,"",%progbits
 3890              	.Ldebug_loc0:
 3891              	.LVUS17:
 3892 0000 00       		.uleb128 0
 3893 0001 00       		.uleb128 .LVU241
 3894 0002 00       		.uleb128 .LVU241
 3895 0003 00       		.uleb128 0
 3896              	.LLST17:
 3897 0004 00000000 		.4byte	.LVL56
 3898 0008 3C000000 		.4byte	.LVL61
 3899 000c 0100     		.2byte	0x1
 3900 000e 50       		.byte	0x50
 3901 000f 3C000000 		.4byte	.LVL61
 3902 0013 58000000 		.4byte	.LFE25
 3903 0017 0400     		.2byte	0x4
 3904 0019 F3       		.byte	0xf3
 3905 001a 01       		.uleb128 0x1
 3906 001b 50       		.byte	0x50
 3907 001c 9F       		.byte	0x9f
 3908 001d 00000000 		.4byte	0
 3909 0021 00000000 		.4byte	0
 3910              	.LVUS18:
 3911 0025 00       		.uleb128 .LVU229
 3912 0026 00       		.uleb128 .LVU231
ARM GAS  C:\Users\jens-\AppData\Local\Temp\ccP7oHVf.s 			page 98


 3913 0027 00       		.uleb128 .LVU237
 3914 0028 00       		.uleb128 .LVU239
 3915              	.LLST18:
 3916 0029 22000000 		.4byte	.LVL57
 3917 002d 28000000 		.4byte	.LVL58
 3918 0031 0100     		.2byte	0x1
 3919 0033 53       		.byte	0x53
 3920 0034 34000000 		.4byte	.LVL59
 3921 0038 3A000000 		.4byte	.LVL60
 3922 003c 0100     		.2byte	0x1
 3923 003e 53       		.byte	0x53
 3924 003f 00000000 		.4byte	0
 3925 0043 00000000 		.4byte	0
 3926              	.LVUS16:
 3927 0047 00       		.uleb128 .LVU204
 3928 0048 00       		.uleb128 .LVU209
 3929              	.LLST16:
 3930 0049 06000000 		.4byte	.LVL54
 3931 004d 1B000000 		.4byte	.LVL55-1
 3932 0051 0100     		.2byte	0x1
 3933 0053 50       		.byte	0x50
 3934 0054 00000000 		.4byte	0
 3935 0058 00000000 		.4byte	0
 3936              	.LVUS15:
 3937 005c 00       		.uleb128 .LVU192
 3938 005d 00       		.uleb128 .LVU198
 3939 005e 00       		.uleb128 .LVU198
 3940 005f 00       		.uleb128 0
 3941              	.LLST15:
 3942 0060 06000000 		.4byte	.LVL52
 3943 0064 1A000000 		.4byte	.LVL53
 3944 0068 0100     		.2byte	0x1
 3945 006a 53       		.byte	0x53
 3946 006b 1A000000 		.4byte	.LVL53
 3947 006f 20000000 		.4byte	.LFE23
 3948 0073 0100     		.2byte	0x1
 3949 0075 50       		.byte	0x50
 3950 0076 00000000 		.4byte	0
 3951 007a 00000000 		.4byte	0
 3952              	.LVUS14:
 3953 007e 00       		.uleb128 0
 3954 007f 00       		.uleb128 .LVU183
 3955 0080 00       		.uleb128 .LVU183
 3956 0081 00       		.uleb128 .LVU184
 3957 0082 00       		.uleb128 .LVU184
 3958 0083 00       		.uleb128 .LVU185
 3959 0084 00       		.uleb128 .LVU185
 3960 0085 00       		.uleb128 0
 3961              	.LLST14:
 3962 0086 00000000 		.4byte	.LVL46
 3963 008a 08000000 		.4byte	.LVL47
 3964 008e 0100     		.2byte	0x1
 3965 0090 50       		.byte	0x50
 3966 0091 08000000 		.4byte	.LVL47
 3967 0095 0A000000 		.4byte	.LVL48
 3968 0099 0400     		.2byte	0x4
 3969 009b F3       		.byte	0xf3
ARM GAS  C:\Users\jens-\AppData\Local\Temp\ccP7oHVf.s 			page 99


 3970 009c 01       		.uleb128 0x1
 3971 009d 50       		.byte	0x50
 3972 009e 9F       		.byte	0x9f
 3973 009f 0A000000 		.4byte	.LVL48
 3974 00a3 0D000000 		.4byte	.LVL49-1
 3975 00a7 0100     		.2byte	0x1
 3976 00a9 50       		.byte	0x50
 3977 00aa 0D000000 		.4byte	.LVL49-1
 3978 00ae 20000000 		.4byte	.LFE22
 3979 00b2 0400     		.2byte	0x4
 3980 00b4 F3       		.byte	0xf3
 3981 00b5 01       		.uleb128 0x1
 3982 00b6 50       		.byte	0x50
 3983 00b7 9F       		.byte	0x9f
 3984 00b8 00000000 		.4byte	0
 3985 00bc 00000000 		.4byte	0
 3986              	.LVUS11:
 3987 00c0 00       		.uleb128 0
 3988 00c1 00       		.uleb128 .LVU170
 3989 00c2 00       		.uleb128 .LVU170
 3990 00c3 00       		.uleb128 .LVU177
 3991 00c4 00       		.uleb128 .LVU177
 3992 00c5 00       		.uleb128 0
 3993              	.LLST11:
 3994 00c6 00000000 		.4byte	.LVL40
 3995 00ca 10000000 		.4byte	.LVL41
 3996 00ce 0100     		.2byte	0x1
 3997 00d0 50       		.byte	0x50
 3998 00d1 10000000 		.4byte	.LVL41
 3999 00d5 22000000 		.4byte	.LVL45
 4000 00d9 0100     		.2byte	0x1
 4001 00db 56       		.byte	0x56
 4002 00dc 22000000 		.4byte	.LVL45
 4003 00e0 28000000 		.4byte	.LFE21
 4004 00e4 0400     		.2byte	0x4
 4005 00e6 F3       		.byte	0xf3
 4006 00e7 01       		.uleb128 0x1
 4007 00e8 50       		.byte	0x50
 4008 00e9 9F       		.byte	0x9f
 4009 00ea 00000000 		.4byte	0
 4010 00ee 00000000 		.4byte	0
 4011              	.LVUS12:
 4012 00f2 00       		.uleb128 0
 4013 00f3 00       		.uleb128 .LVU170
 4014 00f4 00       		.uleb128 .LVU170
 4015 00f5 00       		.uleb128 0
 4016              	.LLST12:
 4017 00f6 00000000 		.4byte	.LVL40
 4018 00fa 10000000 		.4byte	.LVL41
 4019 00fe 0100     		.2byte	0x1
 4020 0100 51       		.byte	0x51
 4021 0101 10000000 		.4byte	.LVL41
 4022 0105 28000000 		.4byte	.LFE21
 4023 0109 0400     		.2byte	0x4
 4024 010b F3       		.byte	0xf3
 4025 010c 01       		.uleb128 0x1
 4026 010d 51       		.byte	0x51
ARM GAS  C:\Users\jens-\AppData\Local\Temp\ccP7oHVf.s 			page 100


 4027 010e 9F       		.byte	0x9f
 4028 010f 00000000 		.4byte	0
 4029 0113 00000000 		.4byte	0
 4030              	.LVUS13:
 4031 0117 02       		.uleb128 .LVU165
 4032 0118 00       		.uleb128 .LVU170
 4033 0119 00       		.uleb128 .LVU170
 4034 011a 00       		.uleb128 .LVU174
 4035 011b 00       		.uleb128 .LVU175
 4036 011c 00       		.uleb128 .LVU177
 4037              	.LLST13:
 4038 011d 00000000 		.4byte	.LVL40
 4039 0121 10000000 		.4byte	.LVL41
 4040 0125 0200     		.2byte	0x2
 4041 0127 30       		.byte	0x30
 4042 0128 9F       		.byte	0x9f
 4043 0129 10000000 		.4byte	.LVL41
 4044 012d 1C000000 		.4byte	.LVL43
 4045 0131 0100     		.2byte	0x1
 4046 0133 54       		.byte	0x54
 4047 0134 1E000000 		.4byte	.LVL44
 4048 0138 22000000 		.4byte	.LVL45
 4049 013c 0100     		.2byte	0x1
 4050 013e 54       		.byte	0x54
 4051 013f 00000000 		.4byte	0
 4052 0143 00000000 		.4byte	0
 4053              	.LVUS9:
 4054 0147 00       		.uleb128 0
 4055 0148 00       		.uleb128 .LVU152
 4056 0149 00       		.uleb128 .LVU152
 4057 014a 00       		.uleb128 .LVU153
 4058 014b 00       		.uleb128 .LVU153
 4059 014c 00       		.uleb128 .LVU155
 4060 014d 00       		.uleb128 .LVU155
 4061 014e 00       		.uleb128 0
 4062              	.LLST9:
 4063 014f 00000000 		.4byte	.LVL32
 4064 0153 08000000 		.4byte	.LVL34
 4065 0157 0100     		.2byte	0x1
 4066 0159 50       		.byte	0x50
 4067 015a 08000000 		.4byte	.LVL34
 4068 015e 0A000000 		.4byte	.LVL35
 4069 0162 0400     		.2byte	0x4
 4070 0164 F3       		.byte	0xf3
 4071 0165 01       		.uleb128 0x1
 4072 0166 50       		.byte	0x50
 4073 0167 9F       		.byte	0x9f
 4074 0168 0A000000 		.4byte	.LVL35
 4075 016c 0E000000 		.4byte	.LVL36
 4076 0170 0100     		.2byte	0x1
 4077 0172 50       		.byte	0x50
 4078 0173 0E000000 		.4byte	.LVL36
 4079 0177 24000000 		.4byte	.LFE20
 4080 017b 0100     		.2byte	0x1
 4081 017d 55       		.byte	0x55
 4082 017e 00000000 		.4byte	0
 4083 0182 00000000 		.4byte	0
ARM GAS  C:\Users\jens-\AppData\Local\Temp\ccP7oHVf.s 			page 101


 4084              	.LVUS10:
 4085 0186 01       		.uleb128 .LVU149
 4086 0187 00       		.uleb128 .LVU152
 4087 0188 00       		.uleb128 .LVU153
 4088 0189 00       		.uleb128 .LVU155
 4089 018a 00       		.uleb128 .LVU155
 4090 018b 00       		.uleb128 .LVU161
 4091 018c 00       		.uleb128 .LVU162
 4092 018d 00       		.uleb128 0
 4093              	.LLST10:
 4094 018e 02000000 		.4byte	.LVL33
 4095 0192 08000000 		.4byte	.LVL34
 4096 0196 0200     		.2byte	0x2
 4097 0198 30       		.byte	0x30
 4098 0199 9F       		.byte	0x9f
 4099 019a 0A000000 		.4byte	.LVL35
 4100 019e 0E000000 		.4byte	.LVL36
 4101 01a2 0200     		.2byte	0x2
 4102 01a4 30       		.byte	0x30
 4103 01a5 9F       		.byte	0x9f
 4104 01a6 0E000000 		.4byte	.LVL36
 4105 01aa 1A000000 		.4byte	.LVL38
 4106 01ae 0100     		.2byte	0x1
 4107 01b0 54       		.byte	0x54
 4108 01b1 1C000000 		.4byte	.LVL39
 4109 01b5 24000000 		.4byte	.LFE20
 4110 01b9 0100     		.2byte	0x1
 4111 01bb 54       		.byte	0x54
 4112 01bc 00000000 		.4byte	0
 4113 01c0 00000000 		.4byte	0
 4114              	.LVUS8:
 4115 01c4 01       		.uleb128 .LVU139
 4116 01c5 00       		.uleb128 0
 4117              	.LLST8:
 4118 01c6 00000000 		.4byte	.LVL31
 4119 01ca 18000000 		.4byte	.LFE19
 4120 01ce 0100     		.2byte	0x1
 4121 01d0 50       		.byte	0x50
 4122 01d1 00000000 		.4byte	0
 4123 01d5 00000000 		.4byte	0
 4124              	.LVUS7:
 4125 01d9 00       		.uleb128 .LVU105
 4126 01da 00       		.uleb128 .LVU110
 4127              	.LLST7:
 4128 01db 06000000 		.4byte	.LVL24
 4129 01df 1B000000 		.4byte	.LVL25-1
 4130 01e3 0100     		.2byte	0x1
 4131 01e5 50       		.byte	0x50
 4132 01e6 00000000 		.4byte	0
 4133 01ea 00000000 		.4byte	0
 4134              	.LVUS6:
 4135 01ee 00       		.uleb128 .LVU99
 4136 01ef 00       		.uleb128 0
 4137              	.LLST6:
 4138 01f0 0C000000 		.4byte	.LVL23
 4139 01f4 14000000 		.4byte	.LFE11
 4140 01f8 0100     		.2byte	0x1
ARM GAS  C:\Users\jens-\AppData\Local\Temp\ccP7oHVf.s 			page 102


 4141 01fa 50       		.byte	0x50
 4142 01fb 00000000 		.4byte	0
 4143 01ff 00000000 		.4byte	0
 4144              	.LVUS4:
 4145 0203 02       		.uleb128 .LVU75
 4146 0204 00       		.uleb128 .LVU82
 4147 0205 00       		.uleb128 .LVU82
 4148 0206 00       		.uleb128 0
 4149              	.LLST4:
 4150 0207 00000000 		.4byte	.LVL17
 4151 020b 12000000 		.4byte	.LVL19
 4152 020f 0200     		.2byte	0x2
 4153 0211 30       		.byte	0x30
 4154 0212 9F       		.byte	0x9f
 4155 0213 12000000 		.4byte	.LVL19
 4156 0217 24000000 		.4byte	.LFE9
 4157 021b 0100     		.2byte	0x1
 4158 021d 50       		.byte	0x50
 4159 021e 00000000 		.4byte	0
 4160 0222 00000000 		.4byte	0
 4161              	.LVUS5:
 4162 0226 00       		.uleb128 .LVU78
 4163 0227 00       		.uleb128 0
 4164              	.LLST5:
 4165 0228 06000000 		.4byte	.LVL18
 4166 022c 24000000 		.4byte	.LFE9
 4167 0230 0100     		.2byte	0x1
 4168 0232 53       		.byte	0x53
 4169 0233 00000000 		.4byte	0
 4170 0237 00000000 		.4byte	0
 4171              	.LVUS3:
 4172 023b 00       		.uleb128 .LVU70
 4173 023c 00       		.uleb128 .LVU72
 4174              	.LLST3:
 4175 023d 04000000 		.4byte	.LVL15
 4176 0241 08000000 		.4byte	.LVL16
 4177 0245 0600     		.2byte	0x6
 4178 0247 70       		.byte	0x70
 4179 0248 00       		.sleb128 0
 4180 0249 08       		.byte	0x8
 4181 024a 7F       		.byte	0x7f
 4182 024b 1A       		.byte	0x1a
 4183 024c 9F       		.byte	0x9f
 4184 024d 00000000 		.4byte	0
 4185 0251 00000000 		.4byte	0
 4186              	.LVUS2:
 4187 0255 00       		.uleb128 .LVU64
 4188 0256 00       		.uleb128 0
 4189              	.LLST2:
 4190 0257 04000000 		.4byte	.LVL14
 4191 025b 0C000000 		.4byte	.LFE7
 4192 025f 0100     		.2byte	0x1
 4193 0261 50       		.byte	0x50
 4194 0262 00000000 		.4byte	0
 4195 0266 00000000 		.4byte	0
 4196              	.LVUS1:
 4197 026a 00       		.uleb128 .LVU39
ARM GAS  C:\Users\jens-\AppData\Local\Temp\ccP7oHVf.s 			page 103


 4198 026b 00       		.uleb128 .LVU48
 4199              	.LLST1:
 4200 026c 08000000 		.4byte	.LVL8
 4201 0270 32000000 		.4byte	.LVL11
 4202 0274 0100     		.2byte	0x1
 4203 0276 54       		.byte	0x54
 4204 0277 00000000 		.4byte	0
 4205 027b 00000000 		.4byte	0
 4206              	.LVUS0:
 4207 027f 00       		.uleb128 .LVU16
 4208 0280 00       		.uleb128 .LVU25
 4209              	.LLST0:
 4210 0281 08000000 		.4byte	.LVL1
 4211 0285 32000000 		.4byte	.LVL4
 4212 0289 0100     		.2byte	0x1
 4213 028b 54       		.byte	0x54
 4214 028c 00000000 		.4byte	0
 4215 0290 00000000 		.4byte	0
 4216              		.section	.debug_aranges,"",%progbits
 4217 0000 EC000000 		.4byte	0xec
 4218 0004 0200     		.2byte	0x2
 4219 0006 00000000 		.4byte	.Ldebug_info0
 4220 000a 04       		.byte	0x4
 4221 000b 00       		.byte	0
 4222 000c 0000     		.2byte	0
 4223 000e 0000     		.2byte	0
 4224 0010 00000000 		.4byte	.LFB1
 4225 0014 24000000 		.4byte	.LFE1-.LFB1
 4226 0018 00000000 		.4byte	.LFB2
 4227 001c 38000000 		.4byte	.LFE2-.LFB2
 4228 0020 00000000 		.4byte	.LFB0
 4229 0024 20000000 		.4byte	.LFE0-.LFB0
 4230 0028 00000000 		.4byte	.LFB3
 4231 002c 3C000000 		.4byte	.LFE3-.LFB3
 4232 0030 00000000 		.4byte	.LFB4
 4233 0034 04000000 		.4byte	.LFE4-.LFB4
 4234 0038 00000000 		.4byte	.LFB5
 4235 003c 02000000 		.4byte	.LFE5-.LFB5
 4236 0040 00000000 		.4byte	.LFB6
 4237 0044 0C000000 		.4byte	.LFE6-.LFB6
 4238 0048 00000000 		.4byte	.LFB7
 4239 004c 0C000000 		.4byte	.LFE7-.LFB7
 4240 0050 00000000 		.4byte	.LFB8
 4241 0054 10000000 		.4byte	.LFE8-.LFB8
 4242 0058 00000000 		.4byte	.LFB9
 4243 005c 24000000 		.4byte	.LFE9-.LFB9
 4244 0060 00000000 		.4byte	.LFB10
 4245 0064 14000000 		.4byte	.LFE10-.LFB10
 4246 0068 00000000 		.4byte	.LFB11
 4247 006c 14000000 		.4byte	.LFE11-.LFB11
 4248 0070 00000000 		.4byte	.LFB12
 4249 0074 24000000 		.4byte	.LFE12-.LFB12
 4250 0078 00000000 		.4byte	.LFB13
 4251 007c 02000000 		.4byte	.LFE13-.LFB13
 4252 0080 00000000 		.4byte	.LFB14
 4253 0084 0C000000 		.4byte	.LFE14-.LFB14
 4254 0088 00000000 		.4byte	.LFB15
ARM GAS  C:\Users\jens-\AppData\Local\Temp\ccP7oHVf.s 			page 104


 4255 008c 0C000000 		.4byte	.LFE15-.LFB15
 4256 0090 00000000 		.4byte	.LFB16
 4257 0094 0C000000 		.4byte	.LFE16-.LFB16
 4258 0098 00000000 		.4byte	.LFB17
 4259 009c 14000000 		.4byte	.LFE17-.LFB17
 4260 00a0 00000000 		.4byte	.LFB18
 4261 00a4 0C000000 		.4byte	.LFE18-.LFB18
 4262 00a8 00000000 		.4byte	.LFB19
 4263 00ac 18000000 		.4byte	.LFE19-.LFB19
 4264 00b0 00000000 		.4byte	.LFB20
 4265 00b4 24000000 		.4byte	.LFE20-.LFB20
 4266 00b8 00000000 		.4byte	.LFB21
 4267 00bc 28000000 		.4byte	.LFE21-.LFB21
 4268 00c0 00000000 		.4byte	.LFB22
 4269 00c4 20000000 		.4byte	.LFE22-.LFB22
 4270 00c8 00000000 		.4byte	.LFB23
 4271 00cc 20000000 		.4byte	.LFE23-.LFB23
 4272 00d0 00000000 		.4byte	.LFB24
 4273 00d4 24000000 		.4byte	.LFE24-.LFB24
 4274 00d8 00000000 		.4byte	.LFB25
 4275 00dc 58000000 		.4byte	.LFE25-.LFB25
 4276 00e0 00000000 		.4byte	.LFB26
 4277 00e4 02000000 		.4byte	.LFE26-.LFB26
 4278 00e8 00000000 		.4byte	0
 4279 00ec 00000000 		.4byte	0
 4280              		.section	.debug_ranges,"",%progbits
 4281              	.Ldebug_ranges0:
 4282 0000 00000000 		.4byte	.LFB1
 4283 0004 24000000 		.4byte	.LFE1
 4284 0008 00000000 		.4byte	.LFB2
 4285 000c 38000000 		.4byte	.LFE2
 4286 0010 00000000 		.4byte	.LFB0
 4287 0014 20000000 		.4byte	.LFE0
 4288 0018 00000000 		.4byte	.LFB3
 4289 001c 3C000000 		.4byte	.LFE3
 4290 0020 00000000 		.4byte	.LFB4
 4291 0024 04000000 		.4byte	.LFE4
 4292 0028 00000000 		.4byte	.LFB5
 4293 002c 02000000 		.4byte	.LFE5
 4294 0030 00000000 		.4byte	.LFB6
 4295 0034 0C000000 		.4byte	.LFE6
 4296 0038 00000000 		.4byte	.LFB7
 4297 003c 0C000000 		.4byte	.LFE7
 4298 0040 00000000 		.4byte	.LFB8
 4299 0044 10000000 		.4byte	.LFE8
 4300 0048 00000000 		.4byte	.LFB9
 4301 004c 24000000 		.4byte	.LFE9
 4302 0050 00000000 		.4byte	.LFB10
 4303 0054 14000000 		.4byte	.LFE10
 4304 0058 00000000 		.4byte	.LFB11
 4305 005c 14000000 		.4byte	.LFE11
 4306 0060 00000000 		.4byte	.LFB12
 4307 0064 24000000 		.4byte	.LFE12
 4308 0068 00000000 		.4byte	.LFB13
 4309 006c 02000000 		.4byte	.LFE13
 4310 0070 00000000 		.4byte	.LFB14
 4311 0074 0C000000 		.4byte	.LFE14
ARM GAS  C:\Users\jens-\AppData\Local\Temp\ccP7oHVf.s 			page 105


 4312 0078 00000000 		.4byte	.LFB15
 4313 007c 0C000000 		.4byte	.LFE15
 4314 0080 00000000 		.4byte	.LFB16
 4315 0084 0C000000 		.4byte	.LFE16
 4316 0088 00000000 		.4byte	.LFB17
 4317 008c 14000000 		.4byte	.LFE17
 4318 0090 00000000 		.4byte	.LFB18
 4319 0094 0C000000 		.4byte	.LFE18
 4320 0098 00000000 		.4byte	.LFB19
 4321 009c 18000000 		.4byte	.LFE19
 4322 00a0 00000000 		.4byte	.LFB20
 4323 00a4 24000000 		.4byte	.LFE20
 4324 00a8 00000000 		.4byte	.LFB21
 4325 00ac 28000000 		.4byte	.LFE21
 4326 00b0 00000000 		.4byte	.LFB22
 4327 00b4 20000000 		.4byte	.LFE22
 4328 00b8 00000000 		.4byte	.LFB23
 4329 00bc 20000000 		.4byte	.LFE23
 4330 00c0 00000000 		.4byte	.LFB24
 4331 00c4 24000000 		.4byte	.LFE24
 4332 00c8 00000000 		.4byte	.LFB25
 4333 00cc 58000000 		.4byte	.LFE25
 4334 00d0 00000000 		.4byte	.LFB26
 4335 00d4 02000000 		.4byte	.LFE26
 4336 00d8 00000000 		.4byte	0
 4337 00dc 00000000 		.4byte	0
 4338              		.section	.debug_line,"",%progbits
 4339              	.Ldebug_line0:
 4340 0000 4D070000 		.section	.debug_str,"MS",%progbits,1
 4340      03001802 
 4340      00000201 
 4340      FB0E0D00 
 4340      01010101 
 4341              	.LASF46:
 4342 0000 5F64736F 		.ascii	"_dso_handle\000"
 4342      5F68616E 
 4342      646C6500 
 4343              	.LASF10:
 4344 000c 75696E74 		.ascii	"uint16\000"
 4344      313600
 4345              	.LASF54:
 4346 0013 5F73697A 		.ascii	"_size\000"
 4346      6500
 4347              	.LASF145:
 4348 0019 74784461 		.ascii	"txDataByte\000"
 4348      74614279 
 4348      746500
 4349              	.LASF45:
 4350 0024 5F666E61 		.ascii	"_fnargs\000"
 4350      72677300 
 4351              	.LASF98:
 4352 002c 5F72616E 		.ascii	"_rand48\000"
 4352      64343800 
 4353              	.LASF161:
 4354 0034 55415254 		.ascii	"UART_tester_GetTxBufferSize\000"
 4354      5F746573 
 4354      7465725F 
ARM GAS  C:\Users\jens-\AppData\Local\Temp\ccP7oHVf.s 			page 106


 4354      47657454 
 4354      78427566 
 4355              	.LASF78:
 4356 0050 5F656D65 		.ascii	"_emergency\000"
 4356      7267656E 
 4356      637900
 4357              	.LASF147:
 4358 005b 73747269 		.ascii	"string\000"
 4358      6E6700
 4359              	.LASF137:
 4360 0062 55415254 		.ascii	"UART_tester_SetTxAddressMode\000"
 4360      5F746573 
 4360      7465725F 
 4360      53657454 
 4360      78416464 
 4361              	.LASF176:
 4362 007f 55415254 		.ascii	"UART_tester_Enable\000"
 4362      5F746573 
 4362      7465725F 
 4362      456E6162 
 4362      6C6500
 4363              	.LASF175:
 4364 0092 55415254 		.ascii	"UART_tester_Stop\000"
 4364      5F746573 
 4364      7465725F 
 4364      53746F70 
 4364      00
 4365              	.LASF68:
 4366 00a3 5F646174 		.ascii	"_data\000"
 4366      6100
 4367              	.LASF118:
 4368 00a9 5F776372 		.ascii	"_wcrtomb_state\000"
 4368      746F6D62 
 4368      5F737461 
 4368      746500
 4369              	.LASF119:
 4370 00b8 5F776373 		.ascii	"_wcsrtombs_state\000"
 4370      72746F6D 
 4370      62735F73 
 4370      74617465 
 4370      00
 4371              	.LASF7:
 4372 00c9 6C6F6E67 		.ascii	"long long unsigned int\000"
 4372      206C6F6E 
 4372      6720756E 
 4372      7369676E 
 4372      65642069 
 4373              	.LASF58:
 4374 00e0 5F6C6266 		.ascii	"_lbfsize\000"
 4374      73697A65 
 4374      00
 4375              	.LASF144:
 4376 00e9 7265744D 		.ascii	"retMode\000"
 4376      6F646500 
 4377              	.LASF143:
 4378 00f1 55415254 		.ascii	"UART_tester_PutCRLF\000"
 4378      5F746573 
ARM GAS  C:\Users\jens-\AppData\Local\Temp\ccP7oHVf.s 			page 107


 4378      7465725F 
 4378      50757443 
 4378      524C4600 
 4379              	.LASF125:
 4380 0105 5F5F6C6F 		.ascii	"__locale_t\000"
 4380      63616C65 
 4380      5F7400
 4381              	.LASF130:
 4382 0110 64696554 		.ascii	"dieTemperature\000"
 4382      656D7065 
 4382      72617475 
 4382      726500
 4383              	.LASF116:
 4384 011f 5F6D6272 		.ascii	"_mbrtowc_state\000"
 4384      746F7763 
 4384      5F737461 
 4384      746500
 4385              	.LASF134:
 4386 012e 63796465 		.ascii	"cydelay_freq_mhz\000"
 4386      6C61795F 
 4386      66726571 
 4386      5F6D687A 
 4386      00
 4387              	.LASF146:
 4388 013f 55415254 		.ascii	"UART_tester_PutArray\000"
 4388      5F746573 
 4388      7465725F 
 4388      50757441 
 4388      72726179 
 4389              	.LASF35:
 4390 0154 5F5F746D 		.ascii	"__tm_sec\000"
 4390      5F736563 
 4390      00
 4391              	.LASF150:
 4392 015d 55415254 		.ascii	"UART_tester_PutString\000"
 4392      5F746573 
 4392      7465725F 
 4392      50757453 
 4392      7472696E 
 4393              	.LASF6:
 4394 0173 6C6F6E67 		.ascii	"long long int\000"
 4394      206C6F6E 
 4394      6720696E 
 4394      7400
 4395              	.LASF0:
 4396 0181 7369676E 		.ascii	"signed char\000"
 4396      65642063 
 4396      68617200 
 4397              	.LASF168:
 4398 018d 73746174 		.ascii	"status\000"
 4398      757300
 4399              	.LASF171:
 4400 0194 55415254 		.ascii	"UART_tester_WriteControlRegister\000"
 4400      5F746573 
 4400      7465725F 
 4400      57726974 
 4400      65436F6E 
ARM GAS  C:\Users\jens-\AppData\Local\Temp\ccP7oHVf.s 			page 108


 4401              	.LASF185:
 4402 01b5 74785065 		.ascii	"txPeriod\000"
 4402      72696F64 
 4402      00
 4403              	.LASF64:
 4404 01be 5F756275 		.ascii	"_ubuf\000"
 4404      6600
 4405              	.LASF53:
 4406 01c4 5F626173 		.ascii	"_base\000"
 4406      6500
 4407              	.LASF37:
 4408 01ca 5F5F746D 		.ascii	"__tm_hour\000"
 4408      5F686F75 
 4408      7200
 4409              	.LASF93:
 4410 01d4 5F5F7366 		.ascii	"__sf\000"
 4410      00
 4411              	.LASF44:
 4412 01d9 5F6F6E5F 		.ascii	"_on_exit_args\000"
 4412      65786974 
 4412      5F617267 
 4412      7300
 4413              	.LASF181:
 4414 01e7 55415254 		.ascii	"UART_tester_IntClock_Start\000"
 4414      5F746573 
 4414      7465725F 
 4414      496E7443 
 4414      6C6F636B 
 4415              	.LASF59:
 4416 0202 5F636F6F 		.ascii	"_cookie\000"
 4416      6B696500 
 4417              	.LASF92:
 4418 020a 5F5F7367 		.ascii	"__sglue\000"
 4418      6C756500 
 4419              	.LASF172:
 4420 0212 636F6E74 		.ascii	"control\000"
 4420      726F6C00 
 4421              	.LASF4:
 4422 021a 6C6F6E67 		.ascii	"long int\000"
 4422      20696E74 
 4422      00
 4423              	.LASF56:
 4424 0223 5F666C61 		.ascii	"_flags\000"
 4424      677300
 4425              	.LASF48:
 4426 022a 5F69735F 		.ascii	"_is_cxa\000"
 4426      63786100 
 4427              	.LASF74:
 4428 0232 5F737464 		.ascii	"_stdin\000"
 4428      696E00
 4429              	.LASF66:
 4430 0239 5F626C6B 		.ascii	"_blksize\000"
 4430      73697A65 
 4430      00
 4431              	.LASF9:
 4432 0242 75696E74 		.ascii	"uint8\000"
 4432      3800
ARM GAS  C:\Users\jens-\AppData\Local\Temp\ccP7oHVf.s 			page 109


 4433              	.LASF13:
 4434 0248 646F7562 		.ascii	"double\000"
 4434      6C6500
 4435              	.LASF153:
 4436 024f 61646472 		.ascii	"addressMode\000"
 4436      6573734D 
 4436      6F646500 
 4437              	.LASF88:
 4438 025b 5F637674 		.ascii	"_cvtbuf\000"
 4438      62756600 
 4439              	.LASF67:
 4440 0263 5F6F6666 		.ascii	"_offset\000"
 4440      73657400 
 4441              	.LASF117:
 4442 026b 5F6D6273 		.ascii	"_mbsrtowcs_state\000"
 4442      72746F77 
 4442      63735F73 
 4442      74617465 
 4442      00
 4443              	.LASF115:
 4444 027c 5F6D6272 		.ascii	"_mbrlen_state\000"
 4444      6C656E5F 
 4444      73746174 
 4444      6500
 4445              	.LASF11:
 4446 028a 75696E74 		.ascii	"uint32\000"
 4446      333200
 4447              	.LASF51:
 4448 0291 5F666E73 		.ascii	"_fns\000"
 4448      00
 4449              	.LASF173:
 4450 0296 55415254 		.ascii	"UART_tester_ReadTxStatus\000"
 4450      5F746573 
 4450      7465725F 
 4450      52656164 
 4450      54785374 
 4451              	.LASF31:
 4452 02af 5F736967 		.ascii	"_sign\000"
 4452      6E00
 4453              	.LASF27:
 4454 02b5 5F666C6F 		.ascii	"_flock_t\000"
 4454      636B5F74 
 4454      00
 4455              	.LASF76:
 4456 02be 5F737464 		.ascii	"_stderr\000"
 4456      65727200 
 4457              	.LASF33:
 4458 02c6 5F426967 		.ascii	"_Bigint\000"
 4458      696E7400 
 4459              	.LASF106:
 4460 02ce 5F67616D 		.ascii	"_gamma_signgam\000"
 4460      6D615F73 
 4460      69676E67 
 4460      616D00
 4461              	.LASF160:
 4462 02dd 55415254 		.ascii	"UART_tester_ClearRxBuffer\000"
 4462      5F746573 
ARM GAS  C:\Users\jens-\AppData\Local\Temp\ccP7oHVf.s 			page 110


 4462      7465725F 
 4462      436C6561 
 4462      72527842 
 4463              	.LASF60:
 4464 02f7 5F726561 		.ascii	"_read\000"
 4464      6400
 4465              	.LASF84:
 4466 02fd 5F726573 		.ascii	"_result_k\000"
 4466      756C745F 
 4466      6B00
 4467              	.LASF34:
 4468 0307 5F5F746D 		.ascii	"__tm\000"
 4468      00
 4469              	.LASF8:
 4470 030c 756E7369 		.ascii	"unsigned int\000"
 4470      676E6564 
 4470      20696E74 
 4470      00
 4471              	.LASF23:
 4472 0319 5F5F7763 		.ascii	"__wchb\000"
 4472      686200
 4473              	.LASF75:
 4474 0320 5F737464 		.ascii	"_stdout\000"
 4474      6F757400 
 4475              	.LASF87:
 4476 0328 5F637674 		.ascii	"_cvtlen\000"
 4476      6C656E00 
 4477              	.LASF5:
 4478 0330 6C6F6E67 		.ascii	"long unsigned int\000"
 4478      20756E73 
 4478      69676E65 
 4478      6420696E 
 4478      7400
 4479              	.LASF183:
 4480 0342 47656E65 		.ascii	"Generated_Source\\PSoC5\\UART_tester.c\000"
 4480      72617465 
 4480      645F536F 
 4480      75726365 
 4480      5C50536F 
 4481              	.LASF148:
 4482 0367 62797465 		.ascii	"byteCount\000"
 4482      436F756E 
 4482      7400
 4483              	.LASF96:
 4484 0371 5F6E696F 		.ascii	"_niobs\000"
 4484      627300
 4485              	.LASF142:
 4486 0378 73697A65 		.ascii	"size\000"
 4486      00
 4487              	.LASF3:
 4488 037d 73686F72 		.ascii	"short unsigned int\000"
 4488      7420756E 
 4488      7369676E 
 4488      65642069 
 4488      6E7400
 4489              	.LASF163:
 4490 0390 55415254 		.ascii	"UART_tester_GetByte\000"
ARM GAS  C:\Users\jens-\AppData\Local\Temp\ccP7oHVf.s 			page 111


 4490      5F746573 
 4490      7465725F 
 4490      47657442 
 4490      79746500 
 4491              	.LASF90:
 4492 03a4 5F617465 		.ascii	"_atexit0\000"
 4492      78697430 
 4492      00
 4493              	.LASF113:
 4494 03ad 5F736967 		.ascii	"_signal_buf\000"
 4494      6E616C5F 
 4494      62756600 
 4495              	.LASF104:
 4496 03b9 5F617363 		.ascii	"_asctime_buf\000"
 4496      74696D65 
 4496      5F627566 
 4496      00
 4497              	.LASF149:
 4498 03c6 62756649 		.ascii	"bufIndex\000"
 4498      6E646578 
 4498      00
 4499              	.LASF83:
 4500 03cf 5F726573 		.ascii	"_result\000"
 4500      756C7400 
 4501              	.LASF22:
 4502 03d7 5F5F7763 		.ascii	"__wch\000"
 4502      6800
 4503              	.LASF18:
 4504 03dd 5F4C4F43 		.ascii	"_LOCK_T\000"
 4504      4B5F5400 
 4505              	.LASF180:
 4506 03e5 55415254 		.ascii	"UART_tester_IntClock_Stop\000"
 4506      5F746573 
 4506      7465725F 
 4506      496E7443 
 4506      6C6F636B 
 4507              	.LASF21:
 4508 03ff 77696E74 		.ascii	"wint_t\000"
 4508      5F7400
 4509              	.LASF69:
 4510 0406 5F6C6F63 		.ascii	"_lock\000"
 4510      6B00
 4511              	.LASF71:
 4512 040c 5F666C61 		.ascii	"_flags2\000"
 4512      67733200 
 4513              	.LASF182:
 4514 0414 474E5520 		.ascii	"GNU C17 9.2.1 20191025 (release) [ARM/arm-9-branch "
 4514      43313720 
 4514      392E322E 
 4514      31203230 
 4514      31393130 
 4515 0447 72657669 		.ascii	"revision 277599] -mcpu=cortex-m3 -mthumb -mfloat-ab"
 4515      73696F6E 
 4515      20323737 
 4515      3539395D 
 4515      202D6D63 
 4516 047a 693D736F 		.ascii	"i=soft -march=armv7-m -g -Og -ffunction-sections -f"
ARM GAS  C:\Users\jens-\AppData\Local\Temp\ccP7oHVf.s 			page 112


 4516      6674202D 
 4516      6D617263 
 4516      683D6172 
 4516      6D76372D 
 4517 04ad 6661742D 		.ascii	"fat-lto-objects\000"
 4517      6C746F2D 
 4517      6F626A65 
 4517      63747300 
 4518              	.LASF186:
 4519 04bd 55415254 		.ascii	"UART_tester_Init\000"
 4519      5F746573 
 4519      7465725F 
 4519      496E6974 
 4519      00
 4520              	.LASF61:
 4521 04ce 5F777269 		.ascii	"_write\000"
 4521      746500
 4522              	.LASF40:
 4523 04d5 5F5F746D 		.ascii	"__tm_year\000"
 4523      5F796561 
 4523      7200
 4524              	.LASF178:
 4525 04df 4379456E 		.ascii	"CyEnterCriticalSection\000"
 4525      74657243 
 4525      72697469 
 4525      63616C53 
 4525      65637469 
 4526              	.LASF139:
 4527 04f6 746D7053 		.ascii	"tmpStat\000"
 4527      74617400 
 4528              	.LASF133:
 4529 04fe 63796465 		.ascii	"cydelay_freq_khz\000"
 4529      6C61795F 
 4529      66726571 
 4529      5F6B687A 
 4529      00
 4530              	.LASF17:
 4531 050f 6C6F6E67 		.ascii	"long double\000"
 4531      20646F75 
 4531      626C6500 
 4532              	.LASF157:
 4533 051b 61646472 		.ascii	"address\000"
 4533      65737300 
 4534              	.LASF121:
 4535 0523 5F6E6578 		.ascii	"_nextf\000"
 4535      746600
 4536              	.LASF177:
 4537 052a 55415254 		.ascii	"UART_tester_Start\000"
 4537      5F746573 
 4537      7465725F 
 4537      53746172 
 4537      7400
 4538              	.LASF39:
 4539 053c 5F5F746D 		.ascii	"__tm_mon\000"
 4539      5F6D6F6E 
 4539      00
 4540              	.LASF131:
ARM GAS  C:\Users\jens-\AppData\Local\Temp\ccP7oHVf.s 			page 113


 4541 0545 43795265 		.ascii	"CyResetStatus\000"
 4541      73657453 
 4541      74617475 
 4541      7300
 4542              	.LASF49:
 4543 0553 5F617465 		.ascii	"_atexit\000"
 4543      78697400 
 4544              	.LASF81:
 4545 055b 5F5F7364 		.ascii	"__sdidinit\000"
 4545      6964696E 
 4545      697400
 4546              	.LASF19:
 4547 0566 5F6F6666 		.ascii	"_off_t\000"
 4547      5F7400
 4548              	.LASF158:
 4549 056d 55415254 		.ascii	"UART_tester_SetRxAddress1\000"
 4549      5F746573 
 4549      7465725F 
 4549      53657452 
 4549      78416464 
 4550              	.LASF159:
 4551 0587 55415254 		.ascii	"UART_tester_SetRxAddressMode\000"
 4551      5F746573 
 4551      7465725F 
 4551      53657452 
 4551      78416464 
 4552              	.LASF170:
 4553 05a4 55415254 		.ascii	"UART_tester_SetRxInterruptMode\000"
 4553      5F746573 
 4553      7465725F 
 4553      53657452 
 4553      78496E74 
 4554              	.LASF12:
 4555 05c3 666C6F61 		.ascii	"float\000"
 4555      7400
 4556              	.LASF179:
 4557 05c9 43794578 		.ascii	"CyExitCriticalSection\000"
 4557      69744372 
 4557      69746963 
 4557      616C5365 
 4557      6374696F 
 4558              	.LASF86:
 4559 05df 5F667265 		.ascii	"_freelist\000"
 4559      656C6973 
 4559      7400
 4560              	.LASF162:
 4561 05e9 55415254 		.ascii	"UART_tester_GetRxBufferSize\000"
 4561      5F746573 
 4561      7465725F 
 4561      47657452 
 4561      78427566 
 4562              	.LASF111:
 4563 0605 5F776374 		.ascii	"_wctomb_state\000"
 4563      6F6D625F 
 4563      73746174 
 4563      6500
 4564              	.LASF132:
ARM GAS  C:\Users\jens-\AppData\Local\Temp\ccP7oHVf.s 			page 114


 4565 0613 63796465 		.ascii	"cydelay_freq_hz\000"
 4565      6C61795F 
 4565      66726571 
 4565      5F687A00 
 4566              	.LASF16:
 4567 0623 72656738 		.ascii	"reg8\000"
 4567      00
 4568              	.LASF140:
 4569 0628 55415254 		.ascii	"UART_tester_ClearTxBuffer\000"
 4569      5F746573 
 4569      7465725F 
 4569      436C6561 
 4569      72547842 
 4570              	.LASF1:
 4571 0642 756E7369 		.ascii	"unsigned char\000"
 4571      676E6564 
 4571      20636861 
 4571      7200
 4572              	.LASF152:
 4573 0650 55415254 		.ascii	"UART_tester_WriteTxData\000"
 4573      5F746573 
 4573      7465725F 
 4573      57726974 
 4573      65547844 
 4574              	.LASF89:
 4575 0668 5F6E6577 		.ascii	"_new\000"
 4575      00
 4576              	.LASF129:
 4577 066d 5370634C 		.ascii	"SpcLockState\000"
 4577      6F636B53 
 4577      74617465 
 4577      00
 4578              	.LASF120:
 4579 067a 5F685F65 		.ascii	"_h_errno\000"
 4579      72726E6F 
 4579      00
 4580              	.LASF2:
 4581 0683 73686F72 		.ascii	"short int\000"
 4581      7420696E 
 4581      7400
 4582              	.LASF42:
 4583 068d 5F5F746D 		.ascii	"__tm_yday\000"
 4583      5F796461 
 4583      7900
 4584              	.LASF52:
 4585 0697 5F5F7362 		.ascii	"__sbuf\000"
 4585      756600
 4586              	.LASF97:
 4587 069e 5F696F62 		.ascii	"_iobs\000"
 4587      7300
 4588              	.LASF94:
 4589 06a4 5F5F4649 		.ascii	"__FILE\000"
 4589      4C4500
 4590              	.LASF26:
 4591 06ab 5F6D6273 		.ascii	"_mbstate_t\000"
 4591      74617465 
 4591      5F7400
ARM GAS  C:\Users\jens-\AppData\Local\Temp\ccP7oHVf.s 			page 115


 4592              	.LASF55:
 4593 06b6 5F5F7346 		.ascii	"__sFILE\000"
 4593      494C4500 
 4594              	.LASF70:
 4595 06be 5F6D6273 		.ascii	"_mbstate\000"
 4595      74617465 
 4595      00
 4596              	.LASF107:
 4597 06c7 5F72616E 		.ascii	"_rand_next\000"
 4597      645F6E65 
 4597      787400
 4598              	.LASF109:
 4599 06d2 5F6D626C 		.ascii	"_mblen_state\000"
 4599      656E5F73 
 4599      74617465 
 4599      00
 4600              	.LASF77:
 4601 06df 5F696E63 		.ascii	"_inc\000"
 4601      00
 4602              	.LASF50:
 4603 06e4 5F696E64 		.ascii	"_ind\000"
 4603      00
 4604              	.LASF80:
 4605 06e9 5F6C6F63 		.ascii	"_locale\000"
 4605      616C6500 
 4606              	.LASF82:
 4607 06f1 5F5F636C 		.ascii	"__cleanup\000"
 4607      65616E75 
 4607      7000
 4608              	.LASF79:
 4609 06fb 5F756E73 		.ascii	"_unspecified_locale_info\000"
 4609      70656369 
 4609      66696564 
 4609      5F6C6F63 
 4609      616C655F 
 4610              	.LASF30:
 4611 0714 5F6D6178 		.ascii	"_maxwds\000"
 4611      77647300 
 4612              	.LASF72:
 4613 071c 5F726565 		.ascii	"_reent\000"
 4613      6E7400
 4614              	.LASF99:
 4615 0723 5F736565 		.ascii	"_seed\000"
 4615      6400
 4616              	.LASF135:
 4617 0729 63796465 		.ascii	"cydelay_32k_ms\000"
 4617      6C61795F 
 4617      33326B5F 
 4617      6D7300
 4618              	.LASF165:
 4619 0738 72784461 		.ascii	"rxData\000"
 4619      746100
 4620              	.LASF24:
 4621 073f 5F5F636F 		.ascii	"__count\000"
 4621      756E7400 
 4622              	.LASF124:
 4623 0747 5F5F6C6F 		.ascii	"__lock\000"
ARM GAS  C:\Users\jens-\AppData\Local\Temp\ccP7oHVf.s 			page 116


 4623      636B00
 4624              	.LASF25:
 4625 074e 5F5F7661 		.ascii	"__value\000"
 4625      6C756500 
 4626              	.LASF62:
 4627 0756 5F736565 		.ascii	"_seek\000"
 4627      6B00
 4628              	.LASF126:
 4629 075c 5F696D70 		.ascii	"_impure_ptr\000"
 4629      7572655F 
 4629      70747200 
 4630              	.LASF20:
 4631 0768 5F66706F 		.ascii	"_fpos_t\000"
 4631      735F7400 
 4632              	.LASF174:
 4633 0770 55415254 		.ascii	"UART_tester_ReadControlRegister\000"
 4633      5F746573 
 4633      7465725F 
 4633      52656164 
 4633      436F6E74 
 4634              	.LASF73:
 4635 0790 5F657272 		.ascii	"_errno\000"
 4635      6E6F00
 4636              	.LASF15:
 4637 0797 63686172 		.ascii	"char\000"
 4637      00
 4638              	.LASF36:
 4639 079c 5F5F746D 		.ascii	"__tm_min\000"
 4639      5F6D696E 
 4639      00
 4640              	.LASF128:
 4641 07a5 5F637479 		.ascii	"_ctype_\000"
 4641      70655F00 
 4642              	.LASF14:
 4643 07ad 63686172 		.ascii	"char8\000"
 4643      3800
 4644              	.LASF100:
 4645 07b3 5F6D756C 		.ascii	"_mult\000"
 4645      7400
 4646              	.LASF29:
 4647 07b9 5F6E6578 		.ascii	"_next\000"
 4647      7400
 4648              	.LASF155:
 4649 07bf 696E7453 		.ascii	"intSrc\000"
 4649      726300
 4650              	.LASF103:
 4651 07c6 5F737472 		.ascii	"_strtok_last\000"
 4651      746F6B5F 
 4651      6C617374 
 4651      00
 4652              	.LASF47:
 4653 07d3 5F666E74 		.ascii	"_fntypes\000"
 4653      79706573 
 4653      00
 4654              	.LASF167:
 4655 07dc 55415254 		.ascii	"UART_tester_ReadRxStatus\000"
 4655      5F746573 
ARM GAS  C:\Users\jens-\AppData\Local\Temp\ccP7oHVf.s 			page 117


 4655      7465725F 
 4655      52656164 
 4655      52785374 
 4656              	.LASF101:
 4657 07f5 5F616464 		.ascii	"_add\000"
 4657      00
 4658              	.LASF156:
 4659 07fa 55415254 		.ascii	"UART_tester_SetRxAddress2\000"
 4659      5F746573 
 4659      7465725F 
 4659      53657452 
 4659      78416464 
 4660              	.LASF28:
 4661 0814 5F5F554C 		.ascii	"__ULong\000"
 4661      6F6E6700 
 4662              	.LASF114:
 4663 081c 5F676574 		.ascii	"_getdate_err\000"
 4663      64617465 
 4663      5F657272 
 4663      00
 4664              	.LASF127:
 4665 0829 5F676C6F 		.ascii	"_global_impure_ptr\000"
 4665      62616C5F 
 4665      696D7075 
 4665      72655F70 
 4665      747200
 4666              	.LASF141:
 4667 083c 656E6162 		.ascii	"enableInterrupts\000"
 4667      6C65496E 
 4667      74657272 
 4667      75707473 
 4667      00
 4668              	.LASF102:
 4669 084d 5F756E75 		.ascii	"_unused_rand\000"
 4669      7365645F 
 4669      72616E64 
 4669      00
 4670              	.LASF154:
 4671 085a 55415254 		.ascii	"UART_tester_SetTxInterruptMode\000"
 4671      5F746573 
 4671      7465725F 
 4671      53657454 
 4671      78496E74 
 4672              	.LASF164:
 4673 0879 55415254 		.ascii	"UART_tester_GetChar\000"
 4673      5F746573 
 4673      7465725F 
 4673      47657443 
 4673      68617200 
 4674              	.LASF57:
 4675 088d 5F66696C 		.ascii	"_file\000"
 4675      6500
 4676              	.LASF32:
 4677 0893 5F776473 		.ascii	"_wds\000"
 4677      00
 4678              	.LASF41:
 4679 0898 5F5F746D 		.ascii	"__tm_wday\000"
ARM GAS  C:\Users\jens-\AppData\Local\Temp\ccP7oHVf.s 			page 118


 4679      5F776461 
 4679      7900
 4680              	.LASF95:
 4681 08a2 5F676C75 		.ascii	"_glue\000"
 4681      6500
 4682              	.LASF122:
 4683 08a8 5F6E6D61 		.ascii	"_nmalloc\000"
 4683      6C6C6F63 
 4683      00
 4684              	.LASF112:
 4685 08b1 5F6C3634 		.ascii	"_l64a_buf\000"
 4685      615F6275 
 4685      6600
 4686              	.LASF138:
 4687 08bb 55415254 		.ascii	"UART_tester_SendBreak\000"
 4687      5F746573 
 4687      7465725F 
 4687      53656E64 
 4687      42726561 
 4688              	.LASF166:
 4689 08d1 72785374 		.ascii	"rxStatus\000"
 4689      61747573 
 4689      00
 4690              	.LASF91:
 4691 08da 5F736967 		.ascii	"_sig_func\000"
 4691      5F66756E 
 4691      6300
 4692              	.LASF65:
 4693 08e4 5F6E6275 		.ascii	"_nbuf\000"
 4693      6600
 4694              	.LASF123:
 4695 08ea 5F756E75 		.ascii	"_unused\000"
 4695      73656400 
 4696              	.LASF43:
 4697 08f2 5F5F746D 		.ascii	"__tm_isdst\000"
 4697      5F697364 
 4697      737400
 4698              	.LASF105:
 4699 08fd 5F6C6F63 		.ascii	"_localtime_buf\000"
 4699      616C7469 
 4699      6D655F62 
 4699      756600
 4700              	.LASF169:
 4701 090c 55415254 		.ascii	"UART_tester_ReadRxData\000"
 4701      5F746573 
 4701      7465725F 
 4701      52656164 
 4701      52784461 
 4702              	.LASF63:
 4703 0923 5F636C6F 		.ascii	"_close\000"
 4703      736500
 4704              	.LASF108:
 4705 092a 5F723438 		.ascii	"_r48\000"
 4705      00
 4706              	.LASF110:
 4707 092f 5F6D6274 		.ascii	"_mbtowc_state\000"
 4707      6F77635F 
ARM GAS  C:\Users\jens-\AppData\Local\Temp\ccP7oHVf.s 			page 119


 4707      73746174 
 4707      6500
 4708              	.LASF85:
 4709 093d 5F703573 		.ascii	"_p5s\000"
 4709      00
 4710              	.LASF151:
 4711 0942 55415254 		.ascii	"UART_tester_PutChar\000"
 4711      5F746573 
 4711      7465725F 
 4711      50757443 
 4711      68617200 
 4712              	.LASF184:
 4713 0956 433A5C55 		.ascii	"C:\\Users\\jens-\\3.Projekt\\Projekt3\\Proj3_PSOC_C"
 4713      73657273 
 4713      5C6A656E 
 4713      732D5C33 
 4713      2E50726F 
 4714 0984 5C446573 		.ascii	"\\Design01.cydsn\000"
 4714      69676E30 
 4714      312E6379 
 4714      64736E00 
 4715              	.LASF136:
 4716 0994 55415254 		.ascii	"UART_tester_initVar\000"
 4716      5F746573 
 4716      7465725F 
 4716      696E6974 
 4716      56617200 
 4717              	.LASF38:
 4718 09a8 5F5F746D 		.ascii	"__tm_mday\000"
 4718      5F6D6461 
 4718      7900
 4719              		.ident	"GCC: (GNU Tools for Arm Embedded Processors 9-2019-q4-major) 9.2.1 20191025 (release) [ARM
