ARM GAS  C:\Users\jens-\AppData\Local\Temp\cc0iEOVy.s 			page 1


   1              		.cpu cortex-m3
   2              		.eabi_attribute 20, 1
   3              		.eabi_attribute 21, 1
   4              		.eabi_attribute 23, 3
   5              		.eabi_attribute 24, 1
   6              		.eabi_attribute 25, 1
   7              		.eabi_attribute 26, 1
   8              		.eabi_attribute 30, 1
   9              		.eabi_attribute 34, 1
  10              		.eabi_attribute 18, 4
  11              		.file	"UART_tester_PM.c"
  12              		.text
  13              	.Ltext0:
  14              		.cfi_sections	.debug_frame
  15              		.section	.text.UART_tester_SaveConfig,"ax",%progbits
  16              		.align	1
  17              		.global	UART_tester_SaveConfig
  18              		.arch armv7-m
  19              		.syntax unified
  20              		.thumb
  21              		.thumb_func
  22              		.fpu softvfp
  23              		.type	UART_tester_SaveConfig, %function
  24              	UART_tester_SaveConfig:
  25              	.LFB0:
  26              		.file 1 "Generated_Source\\PSoC5\\UART_tester_PM.c"
   1:Generated_Source\PSoC5/UART_tester_PM.c **** /*******************************************************************************
   2:Generated_Source\PSoC5/UART_tester_PM.c **** * File Name: UART_tester_PM.c
   3:Generated_Source\PSoC5/UART_tester_PM.c **** * Version 2.50
   4:Generated_Source\PSoC5/UART_tester_PM.c **** *
   5:Generated_Source\PSoC5/UART_tester_PM.c **** * Description:
   6:Generated_Source\PSoC5/UART_tester_PM.c **** *  This file provides Sleep/WakeUp APIs functionality.
   7:Generated_Source\PSoC5/UART_tester_PM.c **** *
   8:Generated_Source\PSoC5/UART_tester_PM.c **** * Note:
   9:Generated_Source\PSoC5/UART_tester_PM.c **** *
  10:Generated_Source\PSoC5/UART_tester_PM.c **** ********************************************************************************
  11:Generated_Source\PSoC5/UART_tester_PM.c **** * Copyright 2008-2015, Cypress Semiconductor Corporation.  All rights reserved.
  12:Generated_Source\PSoC5/UART_tester_PM.c **** * You may use this file only in accordance with the license, terms, conditions,
  13:Generated_Source\PSoC5/UART_tester_PM.c **** * disclaimers, and limitations in the end user license agreement accompanying
  14:Generated_Source\PSoC5/UART_tester_PM.c **** * the software package with which this file was provided.
  15:Generated_Source\PSoC5/UART_tester_PM.c **** *******************************************************************************/
  16:Generated_Source\PSoC5/UART_tester_PM.c **** 
  17:Generated_Source\PSoC5/UART_tester_PM.c **** #include "UART_tester.h"
  18:Generated_Source\PSoC5/UART_tester_PM.c **** 
  19:Generated_Source\PSoC5/UART_tester_PM.c **** 
  20:Generated_Source\PSoC5/UART_tester_PM.c **** /***************************************
  21:Generated_Source\PSoC5/UART_tester_PM.c **** * Local data allocation
  22:Generated_Source\PSoC5/UART_tester_PM.c **** ***************************************/
  23:Generated_Source\PSoC5/UART_tester_PM.c **** 
  24:Generated_Source\PSoC5/UART_tester_PM.c **** static UART_tester_BACKUP_STRUCT  UART_tester_backup =
  25:Generated_Source\PSoC5/UART_tester_PM.c **** {
  26:Generated_Source\PSoC5/UART_tester_PM.c ****     /* enableState - disabled */
  27:Generated_Source\PSoC5/UART_tester_PM.c ****     0u,
  28:Generated_Source\PSoC5/UART_tester_PM.c **** };
  29:Generated_Source\PSoC5/UART_tester_PM.c **** 
  30:Generated_Source\PSoC5/UART_tester_PM.c **** 
  31:Generated_Source\PSoC5/UART_tester_PM.c **** 
ARM GAS  C:\Users\jens-\AppData\Local\Temp\cc0iEOVy.s 			page 2


  32:Generated_Source\PSoC5/UART_tester_PM.c **** /*******************************************************************************
  33:Generated_Source\PSoC5/UART_tester_PM.c **** * Function Name: UART_tester_SaveConfig
  34:Generated_Source\PSoC5/UART_tester_PM.c **** ********************************************************************************
  35:Generated_Source\PSoC5/UART_tester_PM.c **** *
  36:Generated_Source\PSoC5/UART_tester_PM.c **** * Summary:
  37:Generated_Source\PSoC5/UART_tester_PM.c **** *  This function saves the component nonretention control register.
  38:Generated_Source\PSoC5/UART_tester_PM.c **** *  Does not save the FIFO which is a set of nonretention registers.
  39:Generated_Source\PSoC5/UART_tester_PM.c **** *  This function is called by the UART_tester_Sleep() function.
  40:Generated_Source\PSoC5/UART_tester_PM.c **** *
  41:Generated_Source\PSoC5/UART_tester_PM.c **** * Parameters:
  42:Generated_Source\PSoC5/UART_tester_PM.c **** *  None.
  43:Generated_Source\PSoC5/UART_tester_PM.c **** *
  44:Generated_Source\PSoC5/UART_tester_PM.c **** * Return:
  45:Generated_Source\PSoC5/UART_tester_PM.c **** *  None.
  46:Generated_Source\PSoC5/UART_tester_PM.c **** *
  47:Generated_Source\PSoC5/UART_tester_PM.c **** * Global Variables:
  48:Generated_Source\PSoC5/UART_tester_PM.c **** *  UART_tester_backup - modified when non-retention registers are saved.
  49:Generated_Source\PSoC5/UART_tester_PM.c **** *
  50:Generated_Source\PSoC5/UART_tester_PM.c **** * Reentrant:
  51:Generated_Source\PSoC5/UART_tester_PM.c **** *  No.
  52:Generated_Source\PSoC5/UART_tester_PM.c **** *
  53:Generated_Source\PSoC5/UART_tester_PM.c **** *******************************************************************************/
  54:Generated_Source\PSoC5/UART_tester_PM.c **** void UART_tester_SaveConfig(void)
  55:Generated_Source\PSoC5/UART_tester_PM.c **** {
  27              		.loc 1 55 1 view -0
  28              		.cfi_startproc
  29              		@ args = 0, pretend = 0, frame = 0
  30              		@ frame_needed = 0, uses_anonymous_args = 0
  31              		@ link register save eliminated.
  56:Generated_Source\PSoC5/UART_tester_PM.c ****     #if(UART_tester_CONTROL_REG_REMOVED == 0u)
  57:Generated_Source\PSoC5/UART_tester_PM.c ****         UART_tester_backup.cr = UART_tester_CONTROL_REG;
  58:Generated_Source\PSoC5/UART_tester_PM.c ****     #endif /* End UART_tester_CONTROL_REG_REMOVED */
  59:Generated_Source\PSoC5/UART_tester_PM.c **** }
  32              		.loc 1 59 1 view .LVU1
  33 0000 7047     		bx	lr
  34              		.cfi_endproc
  35              	.LFE0:
  36              		.size	UART_tester_SaveConfig, .-UART_tester_SaveConfig
  37              		.section	.text.UART_tester_RestoreConfig,"ax",%progbits
  38              		.align	1
  39              		.global	UART_tester_RestoreConfig
  40              		.syntax unified
  41              		.thumb
  42              		.thumb_func
  43              		.fpu softvfp
  44              		.type	UART_tester_RestoreConfig, %function
  45              	UART_tester_RestoreConfig:
  46              	.LFB1:
  60:Generated_Source\PSoC5/UART_tester_PM.c **** 
  61:Generated_Source\PSoC5/UART_tester_PM.c **** 
  62:Generated_Source\PSoC5/UART_tester_PM.c **** /*******************************************************************************
  63:Generated_Source\PSoC5/UART_tester_PM.c **** * Function Name: UART_tester_RestoreConfig
  64:Generated_Source\PSoC5/UART_tester_PM.c **** ********************************************************************************
  65:Generated_Source\PSoC5/UART_tester_PM.c **** *
  66:Generated_Source\PSoC5/UART_tester_PM.c **** * Summary:
  67:Generated_Source\PSoC5/UART_tester_PM.c **** *  Restores the nonretention control register except FIFO.
  68:Generated_Source\PSoC5/UART_tester_PM.c **** *  Does not restore the FIFO which is a set of nonretention registers.
ARM GAS  C:\Users\jens-\AppData\Local\Temp\cc0iEOVy.s 			page 3


  69:Generated_Source\PSoC5/UART_tester_PM.c **** *
  70:Generated_Source\PSoC5/UART_tester_PM.c **** * Parameters:
  71:Generated_Source\PSoC5/UART_tester_PM.c **** *  None.
  72:Generated_Source\PSoC5/UART_tester_PM.c **** *
  73:Generated_Source\PSoC5/UART_tester_PM.c **** * Return:
  74:Generated_Source\PSoC5/UART_tester_PM.c **** *  None.
  75:Generated_Source\PSoC5/UART_tester_PM.c **** *
  76:Generated_Source\PSoC5/UART_tester_PM.c **** * Global Variables:
  77:Generated_Source\PSoC5/UART_tester_PM.c **** *  UART_tester_backup - used when non-retention registers are restored.
  78:Generated_Source\PSoC5/UART_tester_PM.c **** *
  79:Generated_Source\PSoC5/UART_tester_PM.c **** * Reentrant:
  80:Generated_Source\PSoC5/UART_tester_PM.c **** *  No.
  81:Generated_Source\PSoC5/UART_tester_PM.c **** *
  82:Generated_Source\PSoC5/UART_tester_PM.c **** * Notes:
  83:Generated_Source\PSoC5/UART_tester_PM.c **** *  If this function is called without calling UART_tester_SaveConfig() 
  84:Generated_Source\PSoC5/UART_tester_PM.c **** *  first, the data loaded may be incorrect.
  85:Generated_Source\PSoC5/UART_tester_PM.c **** *
  86:Generated_Source\PSoC5/UART_tester_PM.c **** *******************************************************************************/
  87:Generated_Source\PSoC5/UART_tester_PM.c **** void UART_tester_RestoreConfig(void)
  88:Generated_Source\PSoC5/UART_tester_PM.c **** {
  47              		.loc 1 88 1 view -0
  48              		.cfi_startproc
  49              		@ args = 0, pretend = 0, frame = 0
  50              		@ frame_needed = 0, uses_anonymous_args = 0
  51              		@ link register save eliminated.
  89:Generated_Source\PSoC5/UART_tester_PM.c ****     #if(UART_tester_CONTROL_REG_REMOVED == 0u)
  90:Generated_Source\PSoC5/UART_tester_PM.c ****         UART_tester_CONTROL_REG = UART_tester_backup.cr;
  91:Generated_Source\PSoC5/UART_tester_PM.c ****     #endif /* End UART_tester_CONTROL_REG_REMOVED */
  92:Generated_Source\PSoC5/UART_tester_PM.c **** }
  52              		.loc 1 92 1 view .LVU3
  53 0000 7047     		bx	lr
  54              		.cfi_endproc
  55              	.LFE1:
  56              		.size	UART_tester_RestoreConfig, .-UART_tester_RestoreConfig
  57              		.section	.text.UART_tester_Sleep,"ax",%progbits
  58              		.align	1
  59              		.global	UART_tester_Sleep
  60              		.syntax unified
  61              		.thumb
  62              		.thumb_func
  63              		.fpu softvfp
  64              		.type	UART_tester_Sleep, %function
  65              	UART_tester_Sleep:
  66              	.LFB2:
  93:Generated_Source\PSoC5/UART_tester_PM.c **** 
  94:Generated_Source\PSoC5/UART_tester_PM.c **** 
  95:Generated_Source\PSoC5/UART_tester_PM.c **** /*******************************************************************************
  96:Generated_Source\PSoC5/UART_tester_PM.c **** * Function Name: UART_tester_Sleep
  97:Generated_Source\PSoC5/UART_tester_PM.c **** ********************************************************************************
  98:Generated_Source\PSoC5/UART_tester_PM.c **** *
  99:Generated_Source\PSoC5/UART_tester_PM.c **** * Summary:
 100:Generated_Source\PSoC5/UART_tester_PM.c **** *  This is the preferred API to prepare the component for sleep. 
 101:Generated_Source\PSoC5/UART_tester_PM.c **** *  The UART_tester_Sleep() API saves the current component state. Then it
 102:Generated_Source\PSoC5/UART_tester_PM.c **** *  calls the UART_tester_Stop() function and calls 
 103:Generated_Source\PSoC5/UART_tester_PM.c **** *  UART_tester_SaveConfig() to save the hardware configuration.
 104:Generated_Source\PSoC5/UART_tester_PM.c **** *  Call the UART_tester_Sleep() function before calling the CyPmSleep() 
 105:Generated_Source\PSoC5/UART_tester_PM.c **** *  or the CyPmHibernate() function. 
ARM GAS  C:\Users\jens-\AppData\Local\Temp\cc0iEOVy.s 			page 4


 106:Generated_Source\PSoC5/UART_tester_PM.c **** *
 107:Generated_Source\PSoC5/UART_tester_PM.c **** * Parameters:
 108:Generated_Source\PSoC5/UART_tester_PM.c **** *  None.
 109:Generated_Source\PSoC5/UART_tester_PM.c **** *
 110:Generated_Source\PSoC5/UART_tester_PM.c **** * Return:
 111:Generated_Source\PSoC5/UART_tester_PM.c **** *  None.
 112:Generated_Source\PSoC5/UART_tester_PM.c **** *
 113:Generated_Source\PSoC5/UART_tester_PM.c **** * Global Variables:
 114:Generated_Source\PSoC5/UART_tester_PM.c **** *  UART_tester_backup - modified when non-retention registers are saved.
 115:Generated_Source\PSoC5/UART_tester_PM.c **** *
 116:Generated_Source\PSoC5/UART_tester_PM.c **** * Reentrant:
 117:Generated_Source\PSoC5/UART_tester_PM.c **** *  No.
 118:Generated_Source\PSoC5/UART_tester_PM.c **** *
 119:Generated_Source\PSoC5/UART_tester_PM.c **** *******************************************************************************/
 120:Generated_Source\PSoC5/UART_tester_PM.c **** void UART_tester_Sleep(void)
 121:Generated_Source\PSoC5/UART_tester_PM.c **** {
  67              		.loc 1 121 1 view -0
  68              		.cfi_startproc
  69              		@ args = 0, pretend = 0, frame = 0
  70              		@ frame_needed = 0, uses_anonymous_args = 0
  71 0000 08B5     		push	{r3, lr}
  72              		.cfi_def_cfa_offset 8
  73              		.cfi_offset 3, -8
  74              		.cfi_offset 14, -4
 122:Generated_Source\PSoC5/UART_tester_PM.c ****     #if(UART_tester_RX_ENABLED || UART_tester_HD_ENABLED)
 123:Generated_Source\PSoC5/UART_tester_PM.c ****         if((UART_tester_RXSTATUS_ACTL_REG  & UART_tester_INT_ENABLE) != 0u)
  75              		.loc 1 123 9 view .LVU5
  76              		.loc 1 123 13 is_stmt 0 view .LVU6
  77 0002 074B     		ldr	r3, .L7
  78 0004 1B78     		ldrb	r3, [r3]	@ zero_extendqisi2
  79              		.loc 1 123 11 view .LVU7
  80 0006 13F0100F 		tst	r3, #16
  81 000a 05D0     		beq	.L4
 124:Generated_Source\PSoC5/UART_tester_PM.c ****         {
 125:Generated_Source\PSoC5/UART_tester_PM.c ****             UART_tester_backup.enableState = 1u;
  82              		.loc 1 125 13 is_stmt 1 view .LVU8
  83              		.loc 1 125 44 is_stmt 0 view .LVU9
  84 000c 054B     		ldr	r3, .L7+4
  85 000e 0122     		movs	r2, #1
  86 0010 1A70     		strb	r2, [r3]
  87              	.L5:
 126:Generated_Source\PSoC5/UART_tester_PM.c ****         }
 127:Generated_Source\PSoC5/UART_tester_PM.c ****         else
 128:Generated_Source\PSoC5/UART_tester_PM.c ****         {
 129:Generated_Source\PSoC5/UART_tester_PM.c ****             UART_tester_backup.enableState = 0u;
 130:Generated_Source\PSoC5/UART_tester_PM.c ****         }
 131:Generated_Source\PSoC5/UART_tester_PM.c ****     #else
 132:Generated_Source\PSoC5/UART_tester_PM.c ****         if((UART_tester_TXSTATUS_ACTL_REG  & UART_tester_INT_ENABLE) !=0u)
 133:Generated_Source\PSoC5/UART_tester_PM.c ****         {
 134:Generated_Source\PSoC5/UART_tester_PM.c ****             UART_tester_backup.enableState = 1u;
 135:Generated_Source\PSoC5/UART_tester_PM.c ****         }
 136:Generated_Source\PSoC5/UART_tester_PM.c ****         else
 137:Generated_Source\PSoC5/UART_tester_PM.c ****         {
 138:Generated_Source\PSoC5/UART_tester_PM.c ****             UART_tester_backup.enableState = 0u;
 139:Generated_Source\PSoC5/UART_tester_PM.c ****         }
 140:Generated_Source\PSoC5/UART_tester_PM.c ****     #endif /* End UART_tester_RX_ENABLED || UART_tester_HD_ENABLED*/
 141:Generated_Source\PSoC5/UART_tester_PM.c **** 
ARM GAS  C:\Users\jens-\AppData\Local\Temp\cc0iEOVy.s 			page 5


 142:Generated_Source\PSoC5/UART_tester_PM.c ****     UART_tester_Stop();
  88              		.loc 1 142 5 is_stmt 1 view .LVU10
  89 0012 FFF7FEFF 		bl	UART_tester_Stop
  90              	.LVL0:
 143:Generated_Source\PSoC5/UART_tester_PM.c ****     UART_tester_SaveConfig();
  91              		.loc 1 143 5 view .LVU11
 144:Generated_Source\PSoC5/UART_tester_PM.c **** }
  92              		.loc 1 144 1 is_stmt 0 view .LVU12
  93 0016 08BD     		pop	{r3, pc}
  94              	.L4:
 129:Generated_Source\PSoC5/UART_tester_PM.c ****         }
  95              		.loc 1 129 13 is_stmt 1 view .LVU13
 129:Generated_Source\PSoC5/UART_tester_PM.c ****         }
  96              		.loc 1 129 44 is_stmt 0 view .LVU14
  97 0018 024B     		ldr	r3, .L7+4
  98 001a 0022     		movs	r2, #0
  99 001c 1A70     		strb	r2, [r3]
 100 001e F8E7     		b	.L5
 101              	.L8:
 102              		.align	2
 103              	.L7:
 104 0020 99650040 		.word	1073767833
 105 0024 00000000 		.word	.LANCHOR0
 106              		.cfi_endproc
 107              	.LFE2:
 108              		.size	UART_tester_Sleep, .-UART_tester_Sleep
 109              		.section	.text.UART_tester_Wakeup,"ax",%progbits
 110              		.align	1
 111              		.global	UART_tester_Wakeup
 112              		.syntax unified
 113              		.thumb
 114              		.thumb_func
 115              		.fpu softvfp
 116              		.type	UART_tester_Wakeup, %function
 117              	UART_tester_Wakeup:
 118              	.LFB3:
 145:Generated_Source\PSoC5/UART_tester_PM.c **** 
 146:Generated_Source\PSoC5/UART_tester_PM.c **** 
 147:Generated_Source\PSoC5/UART_tester_PM.c **** /*******************************************************************************
 148:Generated_Source\PSoC5/UART_tester_PM.c **** * Function Name: UART_tester_Wakeup
 149:Generated_Source\PSoC5/UART_tester_PM.c **** ********************************************************************************
 150:Generated_Source\PSoC5/UART_tester_PM.c **** *
 151:Generated_Source\PSoC5/UART_tester_PM.c **** * Summary:
 152:Generated_Source\PSoC5/UART_tester_PM.c **** *  This is the preferred API to restore the component to the state when 
 153:Generated_Source\PSoC5/UART_tester_PM.c **** *  UART_tester_Sleep() was called. The UART_tester_Wakeup() function
 154:Generated_Source\PSoC5/UART_tester_PM.c **** *  calls the UART_tester_RestoreConfig() function to restore the 
 155:Generated_Source\PSoC5/UART_tester_PM.c **** *  configuration. If the component was enabled before the 
 156:Generated_Source\PSoC5/UART_tester_PM.c **** *  UART_tester_Sleep() function was called, the UART_tester_Wakeup()
 157:Generated_Source\PSoC5/UART_tester_PM.c **** *  function will also re-enable the component.
 158:Generated_Source\PSoC5/UART_tester_PM.c **** *
 159:Generated_Source\PSoC5/UART_tester_PM.c **** * Parameters:
 160:Generated_Source\PSoC5/UART_tester_PM.c **** *  None.
 161:Generated_Source\PSoC5/UART_tester_PM.c **** *
 162:Generated_Source\PSoC5/UART_tester_PM.c **** * Return:
 163:Generated_Source\PSoC5/UART_tester_PM.c **** *  None.
 164:Generated_Source\PSoC5/UART_tester_PM.c **** *
 165:Generated_Source\PSoC5/UART_tester_PM.c **** * Global Variables:
ARM GAS  C:\Users\jens-\AppData\Local\Temp\cc0iEOVy.s 			page 6


 166:Generated_Source\PSoC5/UART_tester_PM.c **** *  UART_tester_backup - used when non-retention registers are restored.
 167:Generated_Source\PSoC5/UART_tester_PM.c **** *
 168:Generated_Source\PSoC5/UART_tester_PM.c **** * Reentrant:
 169:Generated_Source\PSoC5/UART_tester_PM.c **** *  No.
 170:Generated_Source\PSoC5/UART_tester_PM.c **** *
 171:Generated_Source\PSoC5/UART_tester_PM.c **** *******************************************************************************/
 172:Generated_Source\PSoC5/UART_tester_PM.c **** void UART_tester_Wakeup(void)
 173:Generated_Source\PSoC5/UART_tester_PM.c **** {
 119              		.loc 1 173 1 is_stmt 1 view -0
 120              		.cfi_startproc
 121              		@ args = 0, pretend = 0, frame = 0
 122              		@ frame_needed = 0, uses_anonymous_args = 0
 123 0000 08B5     		push	{r3, lr}
 124              		.cfi_def_cfa_offset 8
 125              		.cfi_offset 3, -8
 126              		.cfi_offset 14, -4
 174:Generated_Source\PSoC5/UART_tester_PM.c ****     UART_tester_RestoreConfig();
 127              		.loc 1 174 5 view .LVU16
 175:Generated_Source\PSoC5/UART_tester_PM.c ****     #if( (UART_tester_RX_ENABLED) || (UART_tester_HD_ENABLED) )
 176:Generated_Source\PSoC5/UART_tester_PM.c ****         UART_tester_ClearRxBuffer();
 128              		.loc 1 176 9 view .LVU17
 129 0002 FFF7FEFF 		bl	UART_tester_ClearRxBuffer
 130              	.LVL1:
 177:Generated_Source\PSoC5/UART_tester_PM.c ****     #endif /* End (UART_tester_RX_ENABLED) || (UART_tester_HD_ENABLED) */
 178:Generated_Source\PSoC5/UART_tester_PM.c ****     #if(UART_tester_TX_ENABLED || UART_tester_HD_ENABLED)
 179:Generated_Source\PSoC5/UART_tester_PM.c ****         UART_tester_ClearTxBuffer();
 131              		.loc 1 179 9 view .LVU18
 132 0006 FFF7FEFF 		bl	UART_tester_ClearTxBuffer
 133              	.LVL2:
 180:Generated_Source\PSoC5/UART_tester_PM.c ****     #endif /* End UART_tester_TX_ENABLED || UART_tester_HD_ENABLED */
 181:Generated_Source\PSoC5/UART_tester_PM.c **** 
 182:Generated_Source\PSoC5/UART_tester_PM.c ****     if(UART_tester_backup.enableState != 0u)
 134              		.loc 1 182 5 view .LVU19
 135              		.loc 1 182 26 is_stmt 0 view .LVU20
 136 000a 034B     		ldr	r3, .L13
 137 000c 1B78     		ldrb	r3, [r3]	@ zero_extendqisi2
 138              		.loc 1 182 7 view .LVU21
 139 000e 03B9     		cbnz	r3, .L12
 140              	.L9:
 183:Generated_Source\PSoC5/UART_tester_PM.c ****     {
 184:Generated_Source\PSoC5/UART_tester_PM.c ****         UART_tester_Enable();
 185:Generated_Source\PSoC5/UART_tester_PM.c ****     }
 186:Generated_Source\PSoC5/UART_tester_PM.c **** }
 141              		.loc 1 186 1 view .LVU22
 142 0010 08BD     		pop	{r3, pc}
 143              	.L12:
 184:Generated_Source\PSoC5/UART_tester_PM.c ****     }
 144              		.loc 1 184 9 is_stmt 1 view .LVU23
 145 0012 FFF7FEFF 		bl	UART_tester_Enable
 146              	.LVL3:
 147              		.loc 1 186 1 is_stmt 0 view .LVU24
 148 0016 FBE7     		b	.L9
 149              	.L14:
 150              		.align	2
 151              	.L13:
 152 0018 00000000 		.word	.LANCHOR0
 153              		.cfi_endproc
ARM GAS  C:\Users\jens-\AppData\Local\Temp\cc0iEOVy.s 			page 7


 154              	.LFE3:
 155              		.size	UART_tester_Wakeup, .-UART_tester_Wakeup
 156              		.bss
 157              		.align	2
 158              		.set	.LANCHOR0,. + 0
 159              		.type	UART_tester_backup, %object
 160              		.size	UART_tester_backup, 1
 161              	UART_tester_backup:
 162 0000 00       		.space	1
 163              		.text
 164              	.Letext0:
 165              		.file 2 "Generated_Source\\PSoC5\\cytypes.h"
 166              		.file 3 "c:\\program files (x86)\\cypress\\psoc creator\\4.2\\psoc creator\\import\\gnu\\arm\\5.4.
 167              		.file 4 "c:\\program files (x86)\\cypress\\psoc creator\\4.2\\psoc creator\\import\\gnu\\arm\\5.4.
 168              		.file 5 "c:\\program files (x86)\\cypress\\psoc creator\\4.2\\psoc creator\\import\\gnu\\arm\\5.4.
 169              		.file 6 "c:\\program files (x86)\\cypress\\psoc creator\\4.2\\psoc creator\\import\\gnu\\arm\\5.4.
 170              		.file 7 "c:\\program files (x86)\\cypress\\psoc creator\\4.2\\psoc creator\\import\\gnu\\arm\\5.4.
 171              		.file 8 "Generated_Source\\PSoC5\\CySpc.h"
 172              		.file 9 "Generated_Source\\PSoC5\\CyFlash.h"
 173              		.file 10 "Generated_Source\\PSoC5\\CyLib.h"
 174              		.file 11 "Generated_Source\\PSoC5\\UART_tester.h"