ARM GAS  C:\Users\jens-\AppData\Local\Temp\ccP7oHVf.s 			page 1


   1              		.cpu cortex-m3
   2              		.eabi_attribute 20, 1
   3              		.eabi_attribute 21, 1
   4              		.eabi_attribute 23, 3
   5              		.eabi_attribute 24, 1
   6              		.eabi_attribute 25, 1
   7              		.eabi_attribute 26, 1
   8              		.eabi_attribute 30, 1
   9              		.eabi_attribute 34, 1
  10              		.eabi_attribute 18, 4
  11              		.file	"UART_tester.c"
  12              		.text
  13              	.Ltext0:
  14              		.cfi_sections	.debug_frame
  15              		.section	.text.UART_tester_Init,"ax",%progbits
  16              		.align	1
  17              		.global	UART_tester_Init
  18              		.arch armv7-m
  19              		.syntax unified
  20              		.thumb
  21              		.thumb_func
  22              		.fpu softvfp
  23              		.type	UART_tester_Init, %function
  24              	UART_tester_Init:
  25              	.LFB1:
  26              		.file 1 "Generated_Source\\PSoC5\\UART_tester.c"
   1:Generated_Source\PSoC5/UART_tester.c **** /*******************************************************************************
   2:Generated_Source\PSoC5/UART_tester.c **** * File Name: UART_tester.c
   3:Generated_Source\PSoC5/UART_tester.c **** * Version 2.50
   4:Generated_Source\PSoC5/UART_tester.c **** *
   5:Generated_Source\PSoC5/UART_tester.c **** * Description:
   6:Generated_Source\PSoC5/UART_tester.c **** *  This file provides all API functionality of the UART component
   7:Generated_Source\PSoC5/UART_tester.c **** *
   8:Generated_Source\PSoC5/UART_tester.c **** * Note:
   9:Generated_Source\PSoC5/UART_tester.c **** *
  10:Generated_Source\PSoC5/UART_tester.c **** ********************************************************************************
  11:Generated_Source\PSoC5/UART_tester.c **** * Copyright 2008-2015, Cypress Semiconductor Corporation.  All rights reserved.
  12:Generated_Source\PSoC5/UART_tester.c **** * You may use this file only in accordance with the license, terms, conditions,
  13:Generated_Source\PSoC5/UART_tester.c **** * disclaimers, and limitations in the end user license agreement accompanying
  14:Generated_Source\PSoC5/UART_tester.c **** * the software package with which this file was provided.
  15:Generated_Source\PSoC5/UART_tester.c **** *******************************************************************************/
  16:Generated_Source\PSoC5/UART_tester.c **** 
  17:Generated_Source\PSoC5/UART_tester.c **** #include "UART_tester.h"
  18:Generated_Source\PSoC5/UART_tester.c **** #if (UART_tester_INTERNAL_CLOCK_USED)
  19:Generated_Source\PSoC5/UART_tester.c ****     #include "UART_tester_IntClock.h"
  20:Generated_Source\PSoC5/UART_tester.c **** #endif /* End UART_tester_INTERNAL_CLOCK_USED */
  21:Generated_Source\PSoC5/UART_tester.c **** 
  22:Generated_Source\PSoC5/UART_tester.c **** 
  23:Generated_Source\PSoC5/UART_tester.c **** /***************************************
  24:Generated_Source\PSoC5/UART_tester.c **** * Global data allocation
  25:Generated_Source\PSoC5/UART_tester.c **** ***************************************/
  26:Generated_Source\PSoC5/UART_tester.c **** 
  27:Generated_Source\PSoC5/UART_tester.c **** uint8 UART_tester_initVar = 0u;
  28:Generated_Source\PSoC5/UART_tester.c **** 
  29:Generated_Source\PSoC5/UART_tester.c **** #if (UART_tester_TX_INTERRUPT_ENABLED && UART_tester_TX_ENABLED)
  30:Generated_Source\PSoC5/UART_tester.c ****     volatile uint8 UART_tester_txBuffer[UART_tester_TX_BUFFER_SIZE];
  31:Generated_Source\PSoC5/UART_tester.c ****     volatile uint8 UART_tester_txBufferRead = 0u;
ARM GAS  C:\Users\jens-\AppData\Local\Temp\ccP7oHVf.s 			page 2


  32:Generated_Source\PSoC5/UART_tester.c ****     uint8 UART_tester_txBufferWrite = 0u;
  33:Generated_Source\PSoC5/UART_tester.c **** #endif /* (UART_tester_TX_INTERRUPT_ENABLED && UART_tester_TX_ENABLED) */
  34:Generated_Source\PSoC5/UART_tester.c **** 
  35:Generated_Source\PSoC5/UART_tester.c **** #if (UART_tester_RX_INTERRUPT_ENABLED && (UART_tester_RX_ENABLED || UART_tester_HD_ENABLED))
  36:Generated_Source\PSoC5/UART_tester.c ****     uint8 UART_tester_errorStatus = 0u;
  37:Generated_Source\PSoC5/UART_tester.c ****     volatile uint8 UART_tester_rxBuffer[UART_tester_RX_BUFFER_SIZE];
  38:Generated_Source\PSoC5/UART_tester.c ****     volatile uint8 UART_tester_rxBufferRead  = 0u;
  39:Generated_Source\PSoC5/UART_tester.c ****     volatile uint8 UART_tester_rxBufferWrite = 0u;
  40:Generated_Source\PSoC5/UART_tester.c ****     volatile uint8 UART_tester_rxBufferLoopDetect = 0u;
  41:Generated_Source\PSoC5/UART_tester.c ****     volatile uint8 UART_tester_rxBufferOverflow   = 0u;
  42:Generated_Source\PSoC5/UART_tester.c ****     #if (UART_tester_RXHW_ADDRESS_ENABLED)
  43:Generated_Source\PSoC5/UART_tester.c ****         volatile uint8 UART_tester_rxAddressMode = UART_tester_RX_ADDRESS_MODE;
  44:Generated_Source\PSoC5/UART_tester.c ****         volatile uint8 UART_tester_rxAddressDetected = 0u;
  45:Generated_Source\PSoC5/UART_tester.c ****     #endif /* (UART_tester_RXHW_ADDRESS_ENABLED) */
  46:Generated_Source\PSoC5/UART_tester.c **** #endif /* (UART_tester_RX_INTERRUPT_ENABLED && (UART_tester_RX_ENABLED || UART_tester_HD_ENABLED)) 
  47:Generated_Source\PSoC5/UART_tester.c **** 
  48:Generated_Source\PSoC5/UART_tester.c **** 
  49:Generated_Source\PSoC5/UART_tester.c **** /*******************************************************************************
  50:Generated_Source\PSoC5/UART_tester.c **** * Function Name: UART_tester_Start
  51:Generated_Source\PSoC5/UART_tester.c **** ********************************************************************************
  52:Generated_Source\PSoC5/UART_tester.c **** *
  53:Generated_Source\PSoC5/UART_tester.c **** * Summary:
  54:Generated_Source\PSoC5/UART_tester.c **** *  This is the preferred method to begin component operation.
  55:Generated_Source\PSoC5/UART_tester.c **** *  UART_tester_Start() sets the initVar variable, calls the
  56:Generated_Source\PSoC5/UART_tester.c **** *  UART_tester_Init() function, and then calls the
  57:Generated_Source\PSoC5/UART_tester.c **** *  UART_tester_Enable() function.
  58:Generated_Source\PSoC5/UART_tester.c **** *
  59:Generated_Source\PSoC5/UART_tester.c **** * Parameters:
  60:Generated_Source\PSoC5/UART_tester.c **** *  None.
  61:Generated_Source\PSoC5/UART_tester.c **** *
  62:Generated_Source\PSoC5/UART_tester.c **** * Return:
  63:Generated_Source\PSoC5/UART_tester.c **** *  None.
  64:Generated_Source\PSoC5/UART_tester.c **** *
  65:Generated_Source\PSoC5/UART_tester.c **** * Global variables:
  66:Generated_Source\PSoC5/UART_tester.c **** *  The UART_tester_intiVar variable is used to indicate initial
  67:Generated_Source\PSoC5/UART_tester.c **** *  configuration of this component. The variable is initialized to zero (0u)
  68:Generated_Source\PSoC5/UART_tester.c **** *  and set to one (1u) the first time UART_tester_Start() is called. This
  69:Generated_Source\PSoC5/UART_tester.c **** *  allows for component initialization without re-initialization in all
  70:Generated_Source\PSoC5/UART_tester.c **** *  subsequent calls to the UART_tester_Start() routine.
  71:Generated_Source\PSoC5/UART_tester.c **** *
  72:Generated_Source\PSoC5/UART_tester.c **** * Reentrant:
  73:Generated_Source\PSoC5/UART_tester.c **** *  No.
  74:Generated_Source\PSoC5/UART_tester.c **** *
  75:Generated_Source\PSoC5/UART_tester.c **** *******************************************************************************/
  76:Generated_Source\PSoC5/UART_tester.c **** void UART_tester_Start(void) 
  77:Generated_Source\PSoC5/UART_tester.c **** {
  78:Generated_Source\PSoC5/UART_tester.c ****     /* If not initialized then initialize all required hardware and software */
  79:Generated_Source\PSoC5/UART_tester.c ****     if(UART_tester_initVar == 0u)
  80:Generated_Source\PSoC5/UART_tester.c ****     {
  81:Generated_Source\PSoC5/UART_tester.c ****         UART_tester_Init();
  82:Generated_Source\PSoC5/UART_tester.c ****         UART_tester_initVar = 1u;
  83:Generated_Source\PSoC5/UART_tester.c ****     }
  84:Generated_Source\PSoC5/UART_tester.c **** 
  85:Generated_Source\PSoC5/UART_tester.c ****     UART_tester_Enable();
  86:Generated_Source\PSoC5/UART_tester.c **** }
  87:Generated_Source\PSoC5/UART_tester.c **** 
  88:Generated_Source\PSoC5/UART_tester.c **** 
ARM GAS  C:\Users\jens-\AppData\Local\Temp\ccP7oHVf.s 			page 3


  89:Generated_Source\PSoC5/UART_tester.c **** /*******************************************************************************
  90:Generated_Source\PSoC5/UART_tester.c **** * Function Name: UART_tester_Init
  91:Generated_Source\PSoC5/UART_tester.c **** ********************************************************************************
  92:Generated_Source\PSoC5/UART_tester.c **** *
  93:Generated_Source\PSoC5/UART_tester.c **** * Summary:
  94:Generated_Source\PSoC5/UART_tester.c **** *  Initializes or restores the component according to the customizer Configure
  95:Generated_Source\PSoC5/UART_tester.c **** *  dialog settings. It is not necessary to call UART_tester_Init() because
  96:Generated_Source\PSoC5/UART_tester.c **** *  the UART_tester_Start() API calls this function and is the preferred
  97:Generated_Source\PSoC5/UART_tester.c **** *  method to begin component operation.
  98:Generated_Source\PSoC5/UART_tester.c **** *
  99:Generated_Source\PSoC5/UART_tester.c **** * Parameters:
 100:Generated_Source\PSoC5/UART_tester.c **** *  None.
 101:Generated_Source\PSoC5/UART_tester.c **** *
 102:Generated_Source\PSoC5/UART_tester.c **** * Return:
 103:Generated_Source\PSoC5/UART_tester.c **** *  None.
 104:Generated_Source\PSoC5/UART_tester.c **** *
 105:Generated_Source\PSoC5/UART_tester.c **** *******************************************************************************/
 106:Generated_Source\PSoC5/UART_tester.c **** void UART_tester_Init(void) 
 107:Generated_Source\PSoC5/UART_tester.c **** {
  27              		.loc 1 107 1 view -0
  28              		.cfi_startproc
  29              		@ args = 0, pretend = 0, frame = 0
  30              		@ frame_needed = 0, uses_anonymous_args = 0
  31              		@ link register save eliminated.
 108:Generated_Source\PSoC5/UART_tester.c ****     #if(UART_tester_RX_ENABLED || UART_tester_HD_ENABLED)
 109:Generated_Source\PSoC5/UART_tester.c **** 
 110:Generated_Source\PSoC5/UART_tester.c ****         #if (UART_tester_RX_INTERRUPT_ENABLED)
 111:Generated_Source\PSoC5/UART_tester.c ****             /* Set RX interrupt vector and priority */
 112:Generated_Source\PSoC5/UART_tester.c ****             (void) CyIntSetVector(UART_tester_RX_VECT_NUM, &UART_tester_RXISR);
 113:Generated_Source\PSoC5/UART_tester.c ****             CyIntSetPriority(UART_tester_RX_VECT_NUM, UART_tester_RX_PRIOR_NUM);
 114:Generated_Source\PSoC5/UART_tester.c ****             UART_tester_errorStatus = 0u;
 115:Generated_Source\PSoC5/UART_tester.c ****         #endif /* (UART_tester_RX_INTERRUPT_ENABLED) */
 116:Generated_Source\PSoC5/UART_tester.c **** 
 117:Generated_Source\PSoC5/UART_tester.c ****         #if (UART_tester_RXHW_ADDRESS_ENABLED)
 118:Generated_Source\PSoC5/UART_tester.c ****             UART_tester_SetRxAddressMode(UART_tester_RX_ADDRESS_MODE);
 119:Generated_Source\PSoC5/UART_tester.c ****             UART_tester_SetRxAddress1(UART_tester_RX_HW_ADDRESS1);
 120:Generated_Source\PSoC5/UART_tester.c ****             UART_tester_SetRxAddress2(UART_tester_RX_HW_ADDRESS2);
 121:Generated_Source\PSoC5/UART_tester.c ****         #endif /* End UART_tester_RXHW_ADDRESS_ENABLED */
 122:Generated_Source\PSoC5/UART_tester.c **** 
 123:Generated_Source\PSoC5/UART_tester.c ****         /* Init Count7 period */
 124:Generated_Source\PSoC5/UART_tester.c ****         UART_tester_RXBITCTR_PERIOD_REG = UART_tester_RXBITCTR_INIT;
  32              		.loc 1 124 9 view .LVU1
  33              		.loc 1 124 41 is_stmt 0 view .LVU2
  34 0000 074B     		ldr	r3, .L2
  35 0002 7222     		movs	r2, #114
  36 0004 1A70     		strb	r2, [r3]
 125:Generated_Source\PSoC5/UART_tester.c ****         /* Configure the Initial RX interrupt mask */
 126:Generated_Source\PSoC5/UART_tester.c ****         UART_tester_RXSTATUS_MASK_REG  = UART_tester_INIT_RX_INTERRUPTS_MASK;
  37              		.loc 1 126 9 is_stmt 1 view .LVU3
  38              		.loc 1 126 40 is_stmt 0 view .LVU4
  39 0006 0133     		adds	r3, r3, #1
  40 0008 2022     		movs	r2, #32
  41 000a 1A70     		strb	r2, [r3]
 127:Generated_Source\PSoC5/UART_tester.c ****     #endif /* End UART_tester_RX_ENABLED || UART_tester_HD_ENABLED*/
 128:Generated_Source\PSoC5/UART_tester.c **** 
 129:Generated_Source\PSoC5/UART_tester.c ****     #if(UART_tester_TX_ENABLED)
 130:Generated_Source\PSoC5/UART_tester.c ****         #if (UART_tester_TX_INTERRUPT_ENABLED)
ARM GAS  C:\Users\jens-\AppData\Local\Temp\ccP7oHVf.s 			page 4


 131:Generated_Source\PSoC5/UART_tester.c ****             /* Set TX interrupt vector and priority */
 132:Generated_Source\PSoC5/UART_tester.c ****             (void) CyIntSetVector(UART_tester_TX_VECT_NUM, &UART_tester_TXISR);
 133:Generated_Source\PSoC5/UART_tester.c ****             CyIntSetPriority(UART_tester_TX_VECT_NUM, UART_tester_TX_PRIOR_NUM);
 134:Generated_Source\PSoC5/UART_tester.c ****         #endif /* (UART_tester_TX_INTERRUPT_ENABLED) */
 135:Generated_Source\PSoC5/UART_tester.c **** 
 136:Generated_Source\PSoC5/UART_tester.c ****         /* Write Counter Value for TX Bit Clk Generator*/
 137:Generated_Source\PSoC5/UART_tester.c ****         #if (UART_tester_TXCLKGEN_DP)
 138:Generated_Source\PSoC5/UART_tester.c ****             UART_tester_TXBITCLKGEN_CTR_REG = UART_tester_BIT_CENTER;
  42              		.loc 1 138 13 is_stmt 1 view .LVU5
  43              		.loc 1 138 45 is_stmt 0 view .LVU6
  44 000c 5F3B     		subs	r3, r3, #95
  45 000e 0622     		movs	r2, #6
  46 0010 1A70     		strb	r2, [r3]
 139:Generated_Source\PSoC5/UART_tester.c ****             UART_tester_TXBITCLKTX_COMPLETE_REG = ((UART_tester_NUMBER_OF_DATA_BITS +
  47              		.loc 1 139 13 is_stmt 1 view .LVU7
  48              		.loc 1 139 49 is_stmt 0 view .LVU8
  49 0012 1033     		adds	r3, r3, #16
  50 0014 4722     		movs	r2, #71
  51 0016 1A70     		strb	r2, [r3]
 140:Generated_Source\PSoC5/UART_tester.c ****                         UART_tester_NUMBER_OF_START_BIT) * UART_tester_OVER_SAMPLE_COUNT) - 1u;
 141:Generated_Source\PSoC5/UART_tester.c ****         #else
 142:Generated_Source\PSoC5/UART_tester.c ****             UART_tester_TXBITCTR_PERIOD_REG = ((UART_tester_NUMBER_OF_DATA_BITS +
 143:Generated_Source\PSoC5/UART_tester.c ****                         UART_tester_NUMBER_OF_START_BIT) * UART_tester_OVER_SAMPLE_8) - 1u;
 144:Generated_Source\PSoC5/UART_tester.c ****         #endif /* End UART_tester_TXCLKGEN_DP */
 145:Generated_Source\PSoC5/UART_tester.c **** 
 146:Generated_Source\PSoC5/UART_tester.c ****         /* Configure the Initial TX interrupt mask */
 147:Generated_Source\PSoC5/UART_tester.c ****         #if (UART_tester_TX_INTERRUPT_ENABLED)
 148:Generated_Source\PSoC5/UART_tester.c ****             UART_tester_TXSTATUS_MASK_REG = UART_tester_TX_STS_FIFO_EMPTY;
 149:Generated_Source\PSoC5/UART_tester.c ****         #else
 150:Generated_Source\PSoC5/UART_tester.c ****             UART_tester_TXSTATUS_MASK_REG = UART_tester_INIT_TX_INTERRUPTS_MASK;
  52              		.loc 1 150 13 is_stmt 1 view .LVU9
  53              		.loc 1 150 43 is_stmt 0 view .LVU10
  54 0018 5133     		adds	r3, r3, #81
  55 001a 0022     		movs	r2, #0
  56 001c 1A70     		strb	r2, [r3]
 151:Generated_Source\PSoC5/UART_tester.c ****         #endif /*End UART_tester_TX_INTERRUPT_ENABLED*/
 152:Generated_Source\PSoC5/UART_tester.c **** 
 153:Generated_Source\PSoC5/UART_tester.c ****     #endif /* End UART_tester_TX_ENABLED */
 154:Generated_Source\PSoC5/UART_tester.c **** 
 155:Generated_Source\PSoC5/UART_tester.c ****     #if(UART_tester_PARITY_TYPE_SW)  /* Write Parity to Control Register */
 156:Generated_Source\PSoC5/UART_tester.c ****         UART_tester_WriteControlRegister( \
 157:Generated_Source\PSoC5/UART_tester.c ****             (UART_tester_ReadControlRegister() & (uint8)~UART_tester_CTRL_PARITY_TYPE_MASK) | \
 158:Generated_Source\PSoC5/UART_tester.c ****             (uint8)(UART_tester_PARITY_TYPE << UART_tester_CTRL_PARITY_TYPE0_SHIFT) );
 159:Generated_Source\PSoC5/UART_tester.c ****     #endif /* End UART_tester_PARITY_TYPE_SW */
 160:Generated_Source\PSoC5/UART_tester.c **** }
  57              		.loc 1 160 1 view .LVU11
  58 001e 7047     		bx	lr
  59              	.L3:
  60              		.align	2
  61              	.L2:
  62 0020 88650040 		.word	1073767816
  63              		.cfi_endproc
  64              	.LFE1:
  65              		.size	UART_tester_Init, .-UART_tester_Init
  66              		.section	.text.UART_tester_Enable,"ax",%progbits
  67              		.align	1
  68              		.global	UART_tester_Enable
ARM GAS  C:\Users\jens-\AppData\Local\Temp\ccP7oHVf.s 			page 5


  69              		.syntax unified
  70              		.thumb
  71              		.thumb_func
  72              		.fpu softvfp
  73              		.type	UART_tester_Enable, %function
  74              	UART_tester_Enable:
  75              	.LFB2:
 161:Generated_Source\PSoC5/UART_tester.c **** 
 162:Generated_Source\PSoC5/UART_tester.c **** 
 163:Generated_Source\PSoC5/UART_tester.c **** /*******************************************************************************
 164:Generated_Source\PSoC5/UART_tester.c **** * Function Name: UART_tester_Enable
 165:Generated_Source\PSoC5/UART_tester.c **** ********************************************************************************
 166:Generated_Source\PSoC5/UART_tester.c **** *
 167:Generated_Source\PSoC5/UART_tester.c **** * Summary:
 168:Generated_Source\PSoC5/UART_tester.c **** *  Activates the hardware and begins component operation. It is not necessary
 169:Generated_Source\PSoC5/UART_tester.c **** *  to call UART_tester_Enable() because the UART_tester_Start() API
 170:Generated_Source\PSoC5/UART_tester.c **** *  calls this function, which is the preferred method to begin component
 171:Generated_Source\PSoC5/UART_tester.c **** *  operation.
 172:Generated_Source\PSoC5/UART_tester.c **** 
 173:Generated_Source\PSoC5/UART_tester.c **** * Parameters:
 174:Generated_Source\PSoC5/UART_tester.c **** *  None.
 175:Generated_Source\PSoC5/UART_tester.c **** *
 176:Generated_Source\PSoC5/UART_tester.c **** * Return:
 177:Generated_Source\PSoC5/UART_tester.c **** *  None.
 178:Generated_Source\PSoC5/UART_tester.c **** *
 179:Generated_Source\PSoC5/UART_tester.c **** * Global Variables:
 180:Generated_Source\PSoC5/UART_tester.c **** *  UART_tester_rxAddressDetected - set to initial state (0).
 181:Generated_Source\PSoC5/UART_tester.c **** *
 182:Generated_Source\PSoC5/UART_tester.c **** *******************************************************************************/
 183:Generated_Source\PSoC5/UART_tester.c **** void UART_tester_Enable(void) 
 184:Generated_Source\PSoC5/UART_tester.c **** {
  76              		.loc 1 184 1 is_stmt 1 view -0
  77              		.cfi_startproc
  78              		@ args = 0, pretend = 0, frame = 0
  79              		@ frame_needed = 0, uses_anonymous_args = 0
  80 0000 10B5     		push	{r4, lr}
  81              		.cfi_def_cfa_offset 8
  82              		.cfi_offset 4, -8
  83              		.cfi_offset 14, -4
 185:Generated_Source\PSoC5/UART_tester.c ****     uint8 enableInterrupts;
  84              		.loc 1 185 5 view .LVU13
 186:Generated_Source\PSoC5/UART_tester.c ****     enableInterrupts = CyEnterCriticalSection();
  85              		.loc 1 186 5 view .LVU14
  86              		.loc 1 186 24 is_stmt 0 view .LVU15
  87 0002 FFF7FEFF 		bl	CyEnterCriticalSection
  88              	.LVL0:
  89 0006 0446     		mov	r4, r0
  90              	.LVL1:
 187:Generated_Source\PSoC5/UART_tester.c **** 
 188:Generated_Source\PSoC5/UART_tester.c ****     #if (UART_tester_RX_ENABLED || UART_tester_HD_ENABLED)
 189:Generated_Source\PSoC5/UART_tester.c ****         /* RX Counter (Count7) Enable */
 190:Generated_Source\PSoC5/UART_tester.c ****         UART_tester_RXBITCTR_CONTROL_REG |= UART_tester_CNTR_ENABLE;
  91              		.loc 1 190 9 is_stmt 1 view .LVU16
  92              		.loc 1 190 42 is_stmt 0 view .LVU17
  93 0008 0A4A     		ldr	r2, .L6
  94 000a 1378     		ldrb	r3, [r2]	@ zero_extendqisi2
  95 000c 43F02003 		orr	r3, r3, #32
ARM GAS  C:\Users\jens-\AppData\Local\Temp\ccP7oHVf.s 			page 6


  96 0010 1370     		strb	r3, [r2]
 191:Generated_Source\PSoC5/UART_tester.c **** 
 192:Generated_Source\PSoC5/UART_tester.c ****         /* Enable the RX Interrupt */
 193:Generated_Source\PSoC5/UART_tester.c ****         UART_tester_RXSTATUS_ACTL_REG  |= UART_tester_INT_ENABLE;
  97              		.loc 1 193 9 is_stmt 1 view .LVU18
  98              		.loc 1 193 40 is_stmt 0 view .LVU19
  99 0012 0132     		adds	r2, r2, #1
 100 0014 1378     		ldrb	r3, [r2]	@ zero_extendqisi2
 101 0016 43F01003 		orr	r3, r3, #16
 102 001a 1370     		strb	r3, [r2]
 194:Generated_Source\PSoC5/UART_tester.c **** 
 195:Generated_Source\PSoC5/UART_tester.c ****         #if (UART_tester_RX_INTERRUPT_ENABLED)
 196:Generated_Source\PSoC5/UART_tester.c ****             UART_tester_EnableRxInt();
 197:Generated_Source\PSoC5/UART_tester.c **** 
 198:Generated_Source\PSoC5/UART_tester.c ****             #if (UART_tester_RXHW_ADDRESS_ENABLED)
 199:Generated_Source\PSoC5/UART_tester.c ****                 UART_tester_rxAddressDetected = 0u;
 200:Generated_Source\PSoC5/UART_tester.c ****             #endif /* (UART_tester_RXHW_ADDRESS_ENABLED) */
 201:Generated_Source\PSoC5/UART_tester.c ****         #endif /* (UART_tester_RX_INTERRUPT_ENABLED) */
 202:Generated_Source\PSoC5/UART_tester.c ****     #endif /* (UART_tester_RX_ENABLED || UART_tester_HD_ENABLED) */
 203:Generated_Source\PSoC5/UART_tester.c **** 
 204:Generated_Source\PSoC5/UART_tester.c ****     #if(UART_tester_TX_ENABLED)
 205:Generated_Source\PSoC5/UART_tester.c ****         /* TX Counter (DP/Count7) Enable */
 206:Generated_Source\PSoC5/UART_tester.c ****         #if(!UART_tester_TXCLKGEN_DP)
 207:Generated_Source\PSoC5/UART_tester.c ****             UART_tester_TXBITCTR_CONTROL_REG |= UART_tester_CNTR_ENABLE;
 208:Generated_Source\PSoC5/UART_tester.c ****         #endif /* End UART_tester_TXCLKGEN_DP */
 209:Generated_Source\PSoC5/UART_tester.c **** 
 210:Generated_Source\PSoC5/UART_tester.c ****         /* Enable the TX Interrupt */
 211:Generated_Source\PSoC5/UART_tester.c ****         UART_tester_TXSTATUS_ACTL_REG |= UART_tester_INT_ENABLE;
 103              		.loc 1 211 9 is_stmt 1 view .LVU20
 104              		.loc 1 211 39 is_stmt 0 view .LVU21
 105 001c 0232     		adds	r2, r2, #2
 106 001e 1378     		ldrb	r3, [r2]	@ zero_extendqisi2
 107 0020 43F01003 		orr	r3, r3, #16
 108 0024 1370     		strb	r3, [r2]
 212:Generated_Source\PSoC5/UART_tester.c ****         #if (UART_tester_TX_INTERRUPT_ENABLED)
 213:Generated_Source\PSoC5/UART_tester.c ****             UART_tester_ClearPendingTxInt(); /* Clear history of TX_NOT_EMPTY */
 214:Generated_Source\PSoC5/UART_tester.c ****             UART_tester_EnableTxInt();
 215:Generated_Source\PSoC5/UART_tester.c ****         #endif /* (UART_tester_TX_INTERRUPT_ENABLED) */
 216:Generated_Source\PSoC5/UART_tester.c ****      #endif /* (UART_tester_TX_INTERRUPT_ENABLED) */
 217:Generated_Source\PSoC5/UART_tester.c **** 
 218:Generated_Source\PSoC5/UART_tester.c ****     #if (UART_tester_INTERNAL_CLOCK_USED)
 219:Generated_Source\PSoC5/UART_tester.c ****         UART_tester_IntClock_Start();  /* Enable the clock */
 109              		.loc 1 219 9 is_stmt 1 view .LVU22
 110 0026 FFF7FEFF 		bl	UART_tester_IntClock_Start
 111              	.LVL2:
 220:Generated_Source\PSoC5/UART_tester.c ****     #endif /* (UART_tester_INTERNAL_CLOCK_USED) */
 221:Generated_Source\PSoC5/UART_tester.c **** 
 222:Generated_Source\PSoC5/UART_tester.c ****     CyExitCriticalSection(enableInterrupts);
 112              		.loc 1 222 5 view .LVU23
 113 002a 2046     		mov	r0, r4
 114 002c FFF7FEFF 		bl	CyExitCriticalSection
 115              	.LVL3:
 223:Generated_Source\PSoC5/UART_tester.c **** }
 116              		.loc 1 223 1 is_stmt 0 view .LVU24
 117 0030 10BD     		pop	{r4, pc}
 118              	.LVL4:
 119              	.L7:
ARM GAS  C:\Users\jens-\AppData\Local\Temp\ccP7oHVf.s 			page 7


 120              		.loc 1 223 1 view .LVU25
 121 0032 00BF     		.align	2
 122              	.L6:
 123 0034 98650040 		.word	1073767832
 124              		.cfi_endproc
 125              	.LFE2:
 126              		.size	UART_tester_Enable, .-UART_tester_Enable
 127              		.section	.text.UART_tester_Start,"ax",%progbits
 128              		.align	1
 129              		.global	UART_tester_Start
 130              		.syntax unified
 131              		.thumb
 132              		.thumb_func
 133              		.fpu softvfp
 134              		.type	UART_tester_Start, %function
 135              	UART_tester_Start:
 136              	.LFB0:
  77:Generated_Source\PSoC5/UART_tester.c ****     /* If not initialized then initialize all required hardware and software */
 137              		.loc 1 77 1 is_stmt 1 view -0
 138              		.cfi_startproc
 139              		@ args = 0, pretend = 0, frame = 0
 140              		@ frame_needed = 0, uses_anonymous_args = 0
 141 0000 08B5     		push	{r3, lr}
 142              		.cfi_def_cfa_offset 8
 143              		.cfi_offset 3, -8
 144              		.cfi_offset 14, -4
  79:Generated_Source\PSoC5/UART_tester.c ****     {
 145              		.loc 1 79 5 view .LVU27
  79:Generated_Source\PSoC5/UART_tester.c ****     {
 146              		.loc 1 79 28 is_stmt 0 view .LVU28
 147 0002 064B     		ldr	r3, .L12
 148 0004 1B78     		ldrb	r3, [r3]	@ zero_extendqisi2
  79:Generated_Source\PSoC5/UART_tester.c ****     {
 149              		.loc 1 79 7 view .LVU29
 150 0006 13B1     		cbz	r3, .L11
 151              	.L9:
  85:Generated_Source\PSoC5/UART_tester.c **** }
 152              		.loc 1 85 5 is_stmt 1 view .LVU30
 153 0008 FFF7FEFF 		bl	UART_tester_Enable
 154              	.LVL5:
  86:Generated_Source\PSoC5/UART_tester.c **** 
 155              		.loc 1 86 1 is_stmt 0 view .LVU31
 156 000c 08BD     		pop	{r3, pc}
 157              	.L11:
  81:Generated_Source\PSoC5/UART_tester.c ****         UART_tester_initVar = 1u;
 158              		.loc 1 81 9 is_stmt 1 view .LVU32
 159 000e FFF7FEFF 		bl	UART_tester_Init
 160              	.LVL6:
  82:Generated_Source\PSoC5/UART_tester.c ****     }
 161              		.loc 1 82 9 view .LVU33
  82:Generated_Source\PSoC5/UART_tester.c ****     }
 162              		.loc 1 82 29 is_stmt 0 view .LVU34
 163 0012 024B     		ldr	r3, .L12
 164 0014 0122     		movs	r2, #1
 165 0016 1A70     		strb	r2, [r3]
 166 0018 F6E7     		b	.L9
 167              	.L13:
ARM GAS  C:\Users\jens-\AppData\Local\Temp\ccP7oHVf.s 			page 8


 168 001a 00BF     		.align	2
 169              	.L12:
 170 001c 00000000 		.word	.LANCHOR0
 171              		.cfi_endproc
 172              	.LFE0:
 173              		.size	UART_tester_Start, .-UART_tester_Start
 174              		.section	.text.UART_tester_Stop,"ax",%progbits
 175              		.align	1
 176              		.global	UART_tester_Stop
 177              		.syntax unified
 178              		.thumb
 179              		.thumb_func
 180              		.fpu softvfp
 181              		.type	UART_tester_Stop, %function
 182              	UART_tester_Stop:
 183              	.LFB3:
 224:Generated_Source\PSoC5/UART_tester.c **** 
 225:Generated_Source\PSoC5/UART_tester.c **** 
 226:Generated_Source\PSoC5/UART_tester.c **** /*******************************************************************************
 227:Generated_Source\PSoC5/UART_tester.c **** * Function Name: UART_tester_Stop
 228:Generated_Source\PSoC5/UART_tester.c **** ********************************************************************************
 229:Generated_Source\PSoC5/UART_tester.c **** *
 230:Generated_Source\PSoC5/UART_tester.c **** * Summary:
 231:Generated_Source\PSoC5/UART_tester.c **** *  Disables the UART operation.
 232:Generated_Source\PSoC5/UART_tester.c **** *
 233:Generated_Source\PSoC5/UART_tester.c **** * Parameters:
 234:Generated_Source\PSoC5/UART_tester.c **** *  None.
 235:Generated_Source\PSoC5/UART_tester.c **** *
 236:Generated_Source\PSoC5/UART_tester.c **** * Return:
 237:Generated_Source\PSoC5/UART_tester.c **** *  None.
 238:Generated_Source\PSoC5/UART_tester.c **** *
 239:Generated_Source\PSoC5/UART_tester.c **** *******************************************************************************/
 240:Generated_Source\PSoC5/UART_tester.c **** void UART_tester_Stop(void) 
 241:Generated_Source\PSoC5/UART_tester.c **** {
 184              		.loc 1 241 1 is_stmt 1 view -0
 185              		.cfi_startproc
 186              		@ args = 0, pretend = 0, frame = 0
 187              		@ frame_needed = 0, uses_anonymous_args = 0
 188 0000 10B5     		push	{r4, lr}
 189              		.cfi_def_cfa_offset 8
 190              		.cfi_offset 4, -8
 191              		.cfi_offset 14, -4
 242:Generated_Source\PSoC5/UART_tester.c ****     uint8 enableInterrupts;
 192              		.loc 1 242 5 view .LVU36
 243:Generated_Source\PSoC5/UART_tester.c ****     enableInterrupts = CyEnterCriticalSection();
 193              		.loc 1 243 5 view .LVU37
 194              		.loc 1 243 24 is_stmt 0 view .LVU38
 195 0002 FFF7FEFF 		bl	CyEnterCriticalSection
 196              	.LVL7:
 197 0006 0446     		mov	r4, r0
 198              	.LVL8:
 244:Generated_Source\PSoC5/UART_tester.c **** 
 245:Generated_Source\PSoC5/UART_tester.c ****     /* Write Bit Counter Disable */
 246:Generated_Source\PSoC5/UART_tester.c ****     #if (UART_tester_RX_ENABLED || UART_tester_HD_ENABLED)
 247:Generated_Source\PSoC5/UART_tester.c ****         UART_tester_RXBITCTR_CONTROL_REG &= (uint8) ~UART_tester_CNTR_ENABLE;
 199              		.loc 1 247 9 is_stmt 1 view .LVU39
 200              		.loc 1 247 42 is_stmt 0 view .LVU40
ARM GAS  C:\Users\jens-\AppData\Local\Temp\ccP7oHVf.s 			page 9


 201 0008 0A4A     		ldr	r2, .L16
 202 000a 1378     		ldrb	r3, [r2]	@ zero_extendqisi2
 203 000c 03F0DF03 		and	r3, r3, #223
 204 0010 1370     		strb	r3, [r2]
 248:Generated_Source\PSoC5/UART_tester.c ****     #endif /* (UART_tester_RX_ENABLED || UART_tester_HD_ENABLED) */
 249:Generated_Source\PSoC5/UART_tester.c **** 
 250:Generated_Source\PSoC5/UART_tester.c ****     #if (UART_tester_TX_ENABLED)
 251:Generated_Source\PSoC5/UART_tester.c ****         #if(!UART_tester_TXCLKGEN_DP)
 252:Generated_Source\PSoC5/UART_tester.c ****             UART_tester_TXBITCTR_CONTROL_REG &= (uint8) ~UART_tester_CNTR_ENABLE;
 253:Generated_Source\PSoC5/UART_tester.c ****         #endif /* (!UART_tester_TXCLKGEN_DP) */
 254:Generated_Source\PSoC5/UART_tester.c ****     #endif /* (UART_tester_TX_ENABLED) */
 255:Generated_Source\PSoC5/UART_tester.c **** 
 256:Generated_Source\PSoC5/UART_tester.c ****     #if (UART_tester_INTERNAL_CLOCK_USED)
 257:Generated_Source\PSoC5/UART_tester.c ****         UART_tester_IntClock_Stop();   /* Disable the clock */
 205              		.loc 1 257 9 is_stmt 1 view .LVU41
 206 0012 FFF7FEFF 		bl	UART_tester_IntClock_Stop
 207              	.LVL9:
 258:Generated_Source\PSoC5/UART_tester.c ****     #endif /* (UART_tester_INTERNAL_CLOCK_USED) */
 259:Generated_Source\PSoC5/UART_tester.c **** 
 260:Generated_Source\PSoC5/UART_tester.c ****     /* Disable internal interrupt component */
 261:Generated_Source\PSoC5/UART_tester.c ****     #if (UART_tester_RX_ENABLED || UART_tester_HD_ENABLED)
 262:Generated_Source\PSoC5/UART_tester.c ****         UART_tester_RXSTATUS_ACTL_REG  &= (uint8) ~UART_tester_INT_ENABLE;
 208              		.loc 1 262 9 view .LVU42
 209              		.loc 1 262 40 is_stmt 0 view .LVU43
 210 0016 084A     		ldr	r2, .L16+4
 211 0018 1378     		ldrb	r3, [r2]	@ zero_extendqisi2
 212 001a 03F0EF03 		and	r3, r3, #239
 213 001e 1370     		strb	r3, [r2]
 263:Generated_Source\PSoC5/UART_tester.c **** 
 264:Generated_Source\PSoC5/UART_tester.c ****         #if (UART_tester_RX_INTERRUPT_ENABLED)
 265:Generated_Source\PSoC5/UART_tester.c ****             UART_tester_DisableRxInt();
 266:Generated_Source\PSoC5/UART_tester.c ****         #endif /* (UART_tester_RX_INTERRUPT_ENABLED) */
 267:Generated_Source\PSoC5/UART_tester.c ****     #endif /* (UART_tester_RX_ENABLED || UART_tester_HD_ENABLED) */
 268:Generated_Source\PSoC5/UART_tester.c **** 
 269:Generated_Source\PSoC5/UART_tester.c ****     #if (UART_tester_TX_ENABLED)
 270:Generated_Source\PSoC5/UART_tester.c ****         UART_tester_TXSTATUS_ACTL_REG &= (uint8) ~UART_tester_INT_ENABLE;
 214              		.loc 1 270 9 is_stmt 1 view .LVU44
 215              		.loc 1 270 39 is_stmt 0 view .LVU45
 216 0020 0232     		adds	r2, r2, #2
 217 0022 1378     		ldrb	r3, [r2]	@ zero_extendqisi2
 218 0024 03F0EF03 		and	r3, r3, #239
 219 0028 1370     		strb	r3, [r2]
 271:Generated_Source\PSoC5/UART_tester.c **** 
 272:Generated_Source\PSoC5/UART_tester.c ****         #if (UART_tester_TX_INTERRUPT_ENABLED)
 273:Generated_Source\PSoC5/UART_tester.c ****             UART_tester_DisableTxInt();
 274:Generated_Source\PSoC5/UART_tester.c ****         #endif /* (UART_tester_TX_INTERRUPT_ENABLED) */
 275:Generated_Source\PSoC5/UART_tester.c ****     #endif /* (UART_tester_TX_ENABLED) */
 276:Generated_Source\PSoC5/UART_tester.c **** 
 277:Generated_Source\PSoC5/UART_tester.c ****     CyExitCriticalSection(enableInterrupts);
 220              		.loc 1 277 5 is_stmt 1 view .LVU46
 221 002a 2046     		mov	r0, r4
 222 002c FFF7FEFF 		bl	CyExitCriticalSection
 223              	.LVL10:
 278:Generated_Source\PSoC5/UART_tester.c **** }
 224              		.loc 1 278 1 is_stmt 0 view .LVU47
 225 0030 10BD     		pop	{r4, pc}
 226              	.LVL11:
ARM GAS  C:\Users\jens-\AppData\Local\Temp\ccP7oHVf.s 			page 10


 227              	.L17:
 228              		.loc 1 278 1 view .LVU48
 229 0032 00BF     		.align	2
 230              	.L16:
 231 0034 98650040 		.word	1073767832
 232 0038 99650040 		.word	1073767833
 233              		.cfi_endproc
 234              	.LFE3:
 235              		.size	UART_tester_Stop, .-UART_tester_Stop
 236              		.section	.text.UART_tester_ReadControlRegister,"ax",%progbits
 237              		.align	1
 238              		.global	UART_tester_ReadControlRegister
 239              		.syntax unified
 240              		.thumb
 241              		.thumb_func
 242              		.fpu softvfp
 243              		.type	UART_tester_ReadControlRegister, %function
 244              	UART_tester_ReadControlRegister:
 245              	.LFB4:
 279:Generated_Source\PSoC5/UART_tester.c **** 
 280:Generated_Source\PSoC5/UART_tester.c **** 
 281:Generated_Source\PSoC5/UART_tester.c **** /*******************************************************************************
 282:Generated_Source\PSoC5/UART_tester.c **** * Function Name: UART_tester_ReadControlRegister
 283:Generated_Source\PSoC5/UART_tester.c **** ********************************************************************************
 284:Generated_Source\PSoC5/UART_tester.c **** *
 285:Generated_Source\PSoC5/UART_tester.c **** * Summary:
 286:Generated_Source\PSoC5/UART_tester.c **** *  Returns the current value of the control register.
 287:Generated_Source\PSoC5/UART_tester.c **** *
 288:Generated_Source\PSoC5/UART_tester.c **** * Parameters:
 289:Generated_Source\PSoC5/UART_tester.c **** *  None.
 290:Generated_Source\PSoC5/UART_tester.c **** *
 291:Generated_Source\PSoC5/UART_tester.c **** * Return:
 292:Generated_Source\PSoC5/UART_tester.c **** *  Contents of the control register.
 293:Generated_Source\PSoC5/UART_tester.c **** *
 294:Generated_Source\PSoC5/UART_tester.c **** *******************************************************************************/
 295:Generated_Source\PSoC5/UART_tester.c **** uint8 UART_tester_ReadControlRegister(void) 
 296:Generated_Source\PSoC5/UART_tester.c **** {
 246              		.loc 1 296 1 is_stmt 1 view -0
 247              		.cfi_startproc
 248              		@ args = 0, pretend = 0, frame = 0
 249              		@ frame_needed = 0, uses_anonymous_args = 0
 250              		@ link register save eliminated.
 297:Generated_Source\PSoC5/UART_tester.c ****     #if (UART_tester_CONTROL_REG_REMOVED)
 298:Generated_Source\PSoC5/UART_tester.c ****         return(0u);
 251              		.loc 1 298 9 view .LVU50
 299:Generated_Source\PSoC5/UART_tester.c ****     #else
 300:Generated_Source\PSoC5/UART_tester.c ****         return(UART_tester_CONTROL_REG);
 301:Generated_Source\PSoC5/UART_tester.c ****     #endif /* (UART_tester_CONTROL_REG_REMOVED) */
 302:Generated_Source\PSoC5/UART_tester.c **** }
 252              		.loc 1 302 1 is_stmt 0 view .LVU51
 253 0000 0020     		movs	r0, #0
 254 0002 7047     		bx	lr
 255              		.cfi_endproc
 256              	.LFE4:
 257              		.size	UART_tester_ReadControlRegister, .-UART_tester_ReadControlRegister
 258              		.section	.text.UART_tester_WriteControlRegister,"ax",%progbits
 259              		.align	1
ARM GAS  C:\Users\jens-\AppData\Local\Temp\ccP7oHVf.s 			page 11


 260              		.global	UART_tester_WriteControlRegister
 261              		.syntax unified
 262              		.thumb
 263              		.thumb_func
 264              		.fpu softvfp
 265              		.type	UART_tester_WriteControlRegister, %function
 266              	UART_tester_WriteControlRegister:
 267              	.LVL12:
 268              	.LFB5:
 303:Generated_Source\PSoC5/UART_tester.c **** 
 304:Generated_Source\PSoC5/UART_tester.c **** 
 305:Generated_Source\PSoC5/UART_tester.c **** /*******************************************************************************
 306:Generated_Source\PSoC5/UART_tester.c **** * Function Name: UART_tester_WriteControlRegister
 307:Generated_Source\PSoC5/UART_tester.c **** ********************************************************************************
 308:Generated_Source\PSoC5/UART_tester.c **** *
 309:Generated_Source\PSoC5/UART_tester.c **** * Summary:
 310:Generated_Source\PSoC5/UART_tester.c **** *  Writes an 8-bit value into the control register
 311:Generated_Source\PSoC5/UART_tester.c **** *
 312:Generated_Source\PSoC5/UART_tester.c **** * Parameters:
 313:Generated_Source\PSoC5/UART_tester.c **** *  control:  control register value
 314:Generated_Source\PSoC5/UART_tester.c **** *
 315:Generated_Source\PSoC5/UART_tester.c **** * Return:
 316:Generated_Source\PSoC5/UART_tester.c **** *  None.
 317:Generated_Source\PSoC5/UART_tester.c **** *
 318:Generated_Source\PSoC5/UART_tester.c **** *******************************************************************************/
 319:Generated_Source\PSoC5/UART_tester.c **** void  UART_tester_WriteControlRegister(uint8 control) 
 320:Generated_Source\PSoC5/UART_tester.c **** {
 269              		.loc 1 320 1 is_stmt 1 view -0
 270              		.cfi_startproc
 271              		@ args = 0, pretend = 0, frame = 0
 272              		@ frame_needed = 0, uses_anonymous_args = 0
 273              		@ link register save eliminated.
 321:Generated_Source\PSoC5/UART_tester.c ****     #if (UART_tester_CONTROL_REG_REMOVED)
 322:Generated_Source\PSoC5/UART_tester.c ****         if(0u != control)
 274              		.loc 1 322 9 view .LVU53
 323:Generated_Source\PSoC5/UART_tester.c ****         {
 324:Generated_Source\PSoC5/UART_tester.c ****             /* Suppress compiler warning */
 325:Generated_Source\PSoC5/UART_tester.c ****         }
 275              		.loc 1 325 9 view .LVU54
 326:Generated_Source\PSoC5/UART_tester.c ****     #else
 327:Generated_Source\PSoC5/UART_tester.c ****        UART_tester_CONTROL_REG = control;
 328:Generated_Source\PSoC5/UART_tester.c ****     #endif /* (UART_tester_CONTROL_REG_REMOVED) */
 329:Generated_Source\PSoC5/UART_tester.c **** }
 276              		.loc 1 329 1 is_stmt 0 view .LVU55
 277 0000 7047     		bx	lr
 278              		.cfi_endproc
 279              	.LFE5:
 280              		.size	UART_tester_WriteControlRegister, .-UART_tester_WriteControlRegister
 281              		.section	.text.UART_tester_SetRxInterruptMode,"ax",%progbits
 282              		.align	1
 283              		.global	UART_tester_SetRxInterruptMode
 284              		.syntax unified
 285              		.thumb
 286              		.thumb_func
 287              		.fpu softvfp
 288              		.type	UART_tester_SetRxInterruptMode, %function
 289              	UART_tester_SetRxInterruptMode:
ARM GAS  C:\Users\jens-\AppData\Local\Temp\ccP7oHVf.s 			page 12


 290              	.LVL13:
 291              	.LFB6:
 330:Generated_Source\PSoC5/UART_tester.c **** 
 331:Generated_Source\PSoC5/UART_tester.c **** 
 332:Generated_Source\PSoC5/UART_tester.c **** #if(UART_tester_RX_ENABLED || UART_tester_HD_ENABLED)
 333:Generated_Source\PSoC5/UART_tester.c ****     /*******************************************************************************
 334:Generated_Source\PSoC5/UART_tester.c ****     * Function Name: UART_tester_SetRxInterruptMode
 335:Generated_Source\PSoC5/UART_tester.c ****     ********************************************************************************
 336:Generated_Source\PSoC5/UART_tester.c ****     *
 337:Generated_Source\PSoC5/UART_tester.c ****     * Summary:
 338:Generated_Source\PSoC5/UART_tester.c ****     *  Configures the RX interrupt sources enabled.
 339:Generated_Source\PSoC5/UART_tester.c ****     *
 340:Generated_Source\PSoC5/UART_tester.c ****     * Parameters:
 341:Generated_Source\PSoC5/UART_tester.c ****     *  IntSrc:  Bit field containing the RX interrupts to enable. Based on the 
 342:Generated_Source\PSoC5/UART_tester.c ****     *  bit-field arrangement of the status register. This value must be a 
 343:Generated_Source\PSoC5/UART_tester.c ****     *  combination of status register bit-masks shown below:
 344:Generated_Source\PSoC5/UART_tester.c ****     *      UART_tester_RX_STS_FIFO_NOTEMPTY    Interrupt on byte received.
 345:Generated_Source\PSoC5/UART_tester.c ****     *      UART_tester_RX_STS_PAR_ERROR        Interrupt on parity error.
 346:Generated_Source\PSoC5/UART_tester.c ****     *      UART_tester_RX_STS_STOP_ERROR       Interrupt on stop error.
 347:Generated_Source\PSoC5/UART_tester.c ****     *      UART_tester_RX_STS_BREAK            Interrupt on break.
 348:Generated_Source\PSoC5/UART_tester.c ****     *      UART_tester_RX_STS_OVERRUN          Interrupt on overrun error.
 349:Generated_Source\PSoC5/UART_tester.c ****     *      UART_tester_RX_STS_ADDR_MATCH       Interrupt on address match.
 350:Generated_Source\PSoC5/UART_tester.c ****     *      UART_tester_RX_STS_MRKSPC           Interrupt on address detect.
 351:Generated_Source\PSoC5/UART_tester.c ****     *
 352:Generated_Source\PSoC5/UART_tester.c ****     * Return:
 353:Generated_Source\PSoC5/UART_tester.c ****     *  None.
 354:Generated_Source\PSoC5/UART_tester.c ****     *
 355:Generated_Source\PSoC5/UART_tester.c ****     * Theory:
 356:Generated_Source\PSoC5/UART_tester.c ****     *  Enables the output of specific status bits to the interrupt controller
 357:Generated_Source\PSoC5/UART_tester.c ****     *
 358:Generated_Source\PSoC5/UART_tester.c ****     *******************************************************************************/
 359:Generated_Source\PSoC5/UART_tester.c ****     void UART_tester_SetRxInterruptMode(uint8 intSrc) 
 360:Generated_Source\PSoC5/UART_tester.c ****     {
 292              		.loc 1 360 5 is_stmt 1 view -0
 293              		.cfi_startproc
 294              		@ args = 0, pretend = 0, frame = 0
 295              		@ frame_needed = 0, uses_anonymous_args = 0
 296              		@ link register save eliminated.
 361:Generated_Source\PSoC5/UART_tester.c ****         UART_tester_RXSTATUS_MASK_REG  = intSrc;
 297              		.loc 1 361 9 view .LVU57
 298              		.loc 1 361 40 is_stmt 0 view .LVU58
 299 0000 014B     		ldr	r3, .L21
 300 0002 1870     		strb	r0, [r3]
 362:Generated_Source\PSoC5/UART_tester.c ****     }
 301              		.loc 1 362 5 view .LVU59
 302 0004 7047     		bx	lr
 303              	.L22:
 304 0006 00BF     		.align	2
 305              	.L21:
 306 0008 89650040 		.word	1073767817
 307              		.cfi_endproc
 308              	.LFE6:
 309              		.size	UART_tester_SetRxInterruptMode, .-UART_tester_SetRxInterruptMode
 310              		.section	.text.UART_tester_ReadRxData,"ax",%progbits
 311              		.align	1
 312              		.global	UART_tester_ReadRxData
 313              		.syntax unified
ARM GAS  C:\Users\jens-\AppData\Local\Temp\ccP7oHVf.s 			page 13


 314              		.thumb
 315              		.thumb_func
 316              		.fpu softvfp
 317              		.type	UART_tester_ReadRxData, %function
 318              	UART_tester_ReadRxData:
 319              	.LFB7:
 363:Generated_Source\PSoC5/UART_tester.c **** 
 364:Generated_Source\PSoC5/UART_tester.c **** 
 365:Generated_Source\PSoC5/UART_tester.c ****     /*******************************************************************************
 366:Generated_Source\PSoC5/UART_tester.c ****     * Function Name: UART_tester_ReadRxData
 367:Generated_Source\PSoC5/UART_tester.c ****     ********************************************************************************
 368:Generated_Source\PSoC5/UART_tester.c ****     *
 369:Generated_Source\PSoC5/UART_tester.c ****     * Summary:
 370:Generated_Source\PSoC5/UART_tester.c ****     *  Returns the next byte of received data. This function returns data without
 371:Generated_Source\PSoC5/UART_tester.c ****     *  checking the status. You must check the status separately.
 372:Generated_Source\PSoC5/UART_tester.c ****     *
 373:Generated_Source\PSoC5/UART_tester.c ****     * Parameters:
 374:Generated_Source\PSoC5/UART_tester.c ****     *  None.
 375:Generated_Source\PSoC5/UART_tester.c ****     *
 376:Generated_Source\PSoC5/UART_tester.c ****     * Return:
 377:Generated_Source\PSoC5/UART_tester.c ****     *  Received data from RX register
 378:Generated_Source\PSoC5/UART_tester.c ****     *
 379:Generated_Source\PSoC5/UART_tester.c ****     * Global Variables:
 380:Generated_Source\PSoC5/UART_tester.c ****     *  UART_tester_rxBuffer - RAM buffer pointer for save received data.
 381:Generated_Source\PSoC5/UART_tester.c ****     *  UART_tester_rxBufferWrite - cyclic index for write to rxBuffer,
 382:Generated_Source\PSoC5/UART_tester.c ****     *     checked to identify new data.
 383:Generated_Source\PSoC5/UART_tester.c ****     *  UART_tester_rxBufferRead - cyclic index for read from rxBuffer,
 384:Generated_Source\PSoC5/UART_tester.c ****     *     incremented after each byte has been read from buffer.
 385:Generated_Source\PSoC5/UART_tester.c ****     *  UART_tester_rxBufferLoopDetect - cleared if loop condition was detected
 386:Generated_Source\PSoC5/UART_tester.c ****     *     in RX ISR.
 387:Generated_Source\PSoC5/UART_tester.c ****     *
 388:Generated_Source\PSoC5/UART_tester.c ****     * Reentrant:
 389:Generated_Source\PSoC5/UART_tester.c ****     *  No.
 390:Generated_Source\PSoC5/UART_tester.c ****     *
 391:Generated_Source\PSoC5/UART_tester.c ****     *******************************************************************************/
 392:Generated_Source\PSoC5/UART_tester.c ****     uint8 UART_tester_ReadRxData(void) 
 393:Generated_Source\PSoC5/UART_tester.c ****     {
 320              		.loc 1 393 5 is_stmt 1 view -0
 321              		.cfi_startproc
 322              		@ args = 0, pretend = 0, frame = 0
 323              		@ frame_needed = 0, uses_anonymous_args = 0
 324              		@ link register save eliminated.
 394:Generated_Source\PSoC5/UART_tester.c ****         uint8 rxData;
 325              		.loc 1 394 9 view .LVU61
 395:Generated_Source\PSoC5/UART_tester.c **** 
 396:Generated_Source\PSoC5/UART_tester.c ****     #if (UART_tester_RX_INTERRUPT_ENABLED)
 397:Generated_Source\PSoC5/UART_tester.c **** 
 398:Generated_Source\PSoC5/UART_tester.c ****         uint8 locRxBufferRead;
 399:Generated_Source\PSoC5/UART_tester.c ****         uint8 locRxBufferWrite;
 400:Generated_Source\PSoC5/UART_tester.c **** 
 401:Generated_Source\PSoC5/UART_tester.c ****         /* Protect variables that could change on interrupt */
 402:Generated_Source\PSoC5/UART_tester.c ****         UART_tester_DisableRxInt();
 403:Generated_Source\PSoC5/UART_tester.c **** 
 404:Generated_Source\PSoC5/UART_tester.c ****         locRxBufferRead  = UART_tester_rxBufferRead;
 405:Generated_Source\PSoC5/UART_tester.c ****         locRxBufferWrite = UART_tester_rxBufferWrite;
 406:Generated_Source\PSoC5/UART_tester.c **** 
 407:Generated_Source\PSoC5/UART_tester.c ****         if( (UART_tester_rxBufferLoopDetect != 0u) || (locRxBufferRead != locRxBufferWrite) )
ARM GAS  C:\Users\jens-\AppData\Local\Temp\ccP7oHVf.s 			page 14


 408:Generated_Source\PSoC5/UART_tester.c ****         {
 409:Generated_Source\PSoC5/UART_tester.c ****             rxData = UART_tester_rxBuffer[locRxBufferRead];
 410:Generated_Source\PSoC5/UART_tester.c ****             locRxBufferRead++;
 411:Generated_Source\PSoC5/UART_tester.c **** 
 412:Generated_Source\PSoC5/UART_tester.c ****             if(locRxBufferRead >= UART_tester_RX_BUFFER_SIZE)
 413:Generated_Source\PSoC5/UART_tester.c ****             {
 414:Generated_Source\PSoC5/UART_tester.c ****                 locRxBufferRead = 0u;
 415:Generated_Source\PSoC5/UART_tester.c ****             }
 416:Generated_Source\PSoC5/UART_tester.c ****             /* Update the real pointer */
 417:Generated_Source\PSoC5/UART_tester.c ****             UART_tester_rxBufferRead = locRxBufferRead;
 418:Generated_Source\PSoC5/UART_tester.c **** 
 419:Generated_Source\PSoC5/UART_tester.c ****             if(UART_tester_rxBufferLoopDetect != 0u)
 420:Generated_Source\PSoC5/UART_tester.c ****             {
 421:Generated_Source\PSoC5/UART_tester.c ****                 UART_tester_rxBufferLoopDetect = 0u;
 422:Generated_Source\PSoC5/UART_tester.c ****                 #if ((UART_tester_RX_INTERRUPT_ENABLED) && (UART_tester_FLOW_CONTROL != 0u))
 423:Generated_Source\PSoC5/UART_tester.c ****                     /* When Hardware Flow Control selected - return RX mask */
 424:Generated_Source\PSoC5/UART_tester.c ****                     #if( UART_tester_HD_ENABLED )
 425:Generated_Source\PSoC5/UART_tester.c ****                         if((UART_tester_CONTROL_REG & UART_tester_CTRL_HD_SEND) == 0u)
 426:Generated_Source\PSoC5/UART_tester.c ****                         {   /* In Half duplex mode return RX mask only in RX
 427:Generated_Source\PSoC5/UART_tester.c ****                             *  configuration set, otherwise
 428:Generated_Source\PSoC5/UART_tester.c ****                             *  mask will be returned in LoadRxConfig() API.
 429:Generated_Source\PSoC5/UART_tester.c ****                             */
 430:Generated_Source\PSoC5/UART_tester.c ****                             UART_tester_RXSTATUS_MASK_REG  |= UART_tester_RX_STS_FIFO_NOTEMPTY;
 431:Generated_Source\PSoC5/UART_tester.c ****                         }
 432:Generated_Source\PSoC5/UART_tester.c ****                     #else
 433:Generated_Source\PSoC5/UART_tester.c ****                         UART_tester_RXSTATUS_MASK_REG  |= UART_tester_RX_STS_FIFO_NOTEMPTY;
 434:Generated_Source\PSoC5/UART_tester.c ****                     #endif /* end UART_tester_HD_ENABLED */
 435:Generated_Source\PSoC5/UART_tester.c ****                 #endif /* ((UART_tester_RX_INTERRUPT_ENABLED) && (UART_tester_FLOW_CONTROL != 0u)) 
 436:Generated_Source\PSoC5/UART_tester.c ****             }
 437:Generated_Source\PSoC5/UART_tester.c ****         }
 438:Generated_Source\PSoC5/UART_tester.c ****         else
 439:Generated_Source\PSoC5/UART_tester.c ****         {   /* Needs to check status for RX_STS_FIFO_NOTEMPTY bit */
 440:Generated_Source\PSoC5/UART_tester.c ****             rxData = UART_tester_RXDATA_REG;
 441:Generated_Source\PSoC5/UART_tester.c ****         }
 442:Generated_Source\PSoC5/UART_tester.c **** 
 443:Generated_Source\PSoC5/UART_tester.c ****         UART_tester_EnableRxInt();
 444:Generated_Source\PSoC5/UART_tester.c **** 
 445:Generated_Source\PSoC5/UART_tester.c ****     #else
 446:Generated_Source\PSoC5/UART_tester.c **** 
 447:Generated_Source\PSoC5/UART_tester.c ****         /* Needs to check status for RX_STS_FIFO_NOTEMPTY bit */
 448:Generated_Source\PSoC5/UART_tester.c ****         rxData = UART_tester_RXDATA_REG;
 326              		.loc 1 448 9 view .LVU62
 327              		.loc 1 448 16 is_stmt 0 view .LVU63
 328 0000 014B     		ldr	r3, .L24
 329 0002 1878     		ldrb	r0, [r3]	@ zero_extendqisi2
 330              	.LVL14:
 449:Generated_Source\PSoC5/UART_tester.c **** 
 450:Generated_Source\PSoC5/UART_tester.c ****     #endif /* (UART_tester_RX_INTERRUPT_ENABLED) */
 451:Generated_Source\PSoC5/UART_tester.c **** 
 452:Generated_Source\PSoC5/UART_tester.c ****         return(rxData);
 331              		.loc 1 452 9 is_stmt 1 view .LVU64
 453:Generated_Source\PSoC5/UART_tester.c ****     }
 332              		.loc 1 453 5 is_stmt 0 view .LVU65
 333 0004 7047     		bx	lr
 334              	.L25:
 335 0006 00BF     		.align	2
 336              	.L24:
ARM GAS  C:\Users\jens-\AppData\Local\Temp\ccP7oHVf.s 			page 15


 337 0008 48650040 		.word	1073767752
 338              		.cfi_endproc
 339              	.LFE7:
 340              		.size	UART_tester_ReadRxData, .-UART_tester_ReadRxData
 341              		.section	.text.UART_tester_ReadRxStatus,"ax",%progbits
 342              		.align	1
 343              		.global	UART_tester_ReadRxStatus
 344              		.syntax unified
 345              		.thumb
 346              		.thumb_func
 347              		.fpu softvfp
 348              		.type	UART_tester_ReadRxStatus, %function
 349              	UART_tester_ReadRxStatus:
 350              	.LFB8:
 454:Generated_Source\PSoC5/UART_tester.c **** 
 455:Generated_Source\PSoC5/UART_tester.c **** 
 456:Generated_Source\PSoC5/UART_tester.c ****     /*******************************************************************************
 457:Generated_Source\PSoC5/UART_tester.c ****     * Function Name: UART_tester_ReadRxStatus
 458:Generated_Source\PSoC5/UART_tester.c ****     ********************************************************************************
 459:Generated_Source\PSoC5/UART_tester.c ****     *
 460:Generated_Source\PSoC5/UART_tester.c ****     * Summary:
 461:Generated_Source\PSoC5/UART_tester.c ****     *  Returns the current state of the receiver status register and the software
 462:Generated_Source\PSoC5/UART_tester.c ****     *  buffer overflow status.
 463:Generated_Source\PSoC5/UART_tester.c ****     *
 464:Generated_Source\PSoC5/UART_tester.c ****     * Parameters:
 465:Generated_Source\PSoC5/UART_tester.c ****     *  None.
 466:Generated_Source\PSoC5/UART_tester.c ****     *
 467:Generated_Source\PSoC5/UART_tester.c ****     * Return:
 468:Generated_Source\PSoC5/UART_tester.c ****     *  Current state of the status register.
 469:Generated_Source\PSoC5/UART_tester.c ****     *
 470:Generated_Source\PSoC5/UART_tester.c ****     * Side Effect:
 471:Generated_Source\PSoC5/UART_tester.c ****     *  All status register bits are clear-on-read except
 472:Generated_Source\PSoC5/UART_tester.c ****     *  UART_tester_RX_STS_FIFO_NOTEMPTY.
 473:Generated_Source\PSoC5/UART_tester.c ****     *  UART_tester_RX_STS_FIFO_NOTEMPTY clears immediately after RX data
 474:Generated_Source\PSoC5/UART_tester.c ****     *  register read.
 475:Generated_Source\PSoC5/UART_tester.c ****     *
 476:Generated_Source\PSoC5/UART_tester.c ****     * Global Variables:
 477:Generated_Source\PSoC5/UART_tester.c ****     *  UART_tester_rxBufferOverflow - used to indicate overload condition.
 478:Generated_Source\PSoC5/UART_tester.c ****     *   It set to one in RX interrupt when there isn't free space in
 479:Generated_Source\PSoC5/UART_tester.c ****     *   UART_tester_rxBufferRead to write new data. This condition returned
 480:Generated_Source\PSoC5/UART_tester.c ****     *   and cleared to zero by this API as an
 481:Generated_Source\PSoC5/UART_tester.c ****     *   UART_tester_RX_STS_SOFT_BUFF_OVER bit along with RX Status register
 482:Generated_Source\PSoC5/UART_tester.c ****     *   bits.
 483:Generated_Source\PSoC5/UART_tester.c ****     *
 484:Generated_Source\PSoC5/UART_tester.c ****     *******************************************************************************/
 485:Generated_Source\PSoC5/UART_tester.c ****     uint8 UART_tester_ReadRxStatus(void) 
 486:Generated_Source\PSoC5/UART_tester.c ****     {
 351              		.loc 1 486 5 is_stmt 1 view -0
 352              		.cfi_startproc
 353              		@ args = 0, pretend = 0, frame = 0
 354              		@ frame_needed = 0, uses_anonymous_args = 0
 355              		@ link register save eliminated.
 487:Generated_Source\PSoC5/UART_tester.c ****         uint8 status;
 356              		.loc 1 487 9 view .LVU67
 488:Generated_Source\PSoC5/UART_tester.c **** 
 489:Generated_Source\PSoC5/UART_tester.c ****         status = UART_tester_RXSTATUS_REG & UART_tester_RX_HW_MASK;
 357              		.loc 1 489 9 view .LVU68
ARM GAS  C:\Users\jens-\AppData\Local\Temp\ccP7oHVf.s 			page 16


 358              		.loc 1 489 18 is_stmt 0 view .LVU69
 359 0000 024B     		ldr	r3, .L27
 360 0002 1878     		ldrb	r0, [r3]	@ zero_extendqisi2
 361              	.LVL15:
 490:Generated_Source\PSoC5/UART_tester.c **** 
 491:Generated_Source\PSoC5/UART_tester.c ****     #if (UART_tester_RX_INTERRUPT_ENABLED)
 492:Generated_Source\PSoC5/UART_tester.c ****         if(UART_tester_rxBufferOverflow != 0u)
 493:Generated_Source\PSoC5/UART_tester.c ****         {
 494:Generated_Source\PSoC5/UART_tester.c ****             status |= UART_tester_RX_STS_SOFT_BUFF_OVER;
 495:Generated_Source\PSoC5/UART_tester.c ****             UART_tester_rxBufferOverflow = 0u;
 496:Generated_Source\PSoC5/UART_tester.c ****         }
 497:Generated_Source\PSoC5/UART_tester.c ****     #endif /* (UART_tester_RX_INTERRUPT_ENABLED) */
 498:Generated_Source\PSoC5/UART_tester.c **** 
 499:Generated_Source\PSoC5/UART_tester.c ****         return(status);
 362              		.loc 1 499 9 is_stmt 1 view .LVU70
 500:Generated_Source\PSoC5/UART_tester.c ****     }
 363              		.loc 1 500 5 is_stmt 0 view .LVU71
 364 0004 00F07F00 		and	r0, r0, #127
 365              	.LVL16:
 366              		.loc 1 500 5 view .LVU72
 367 0008 7047     		bx	lr
 368              	.L28:
 369 000a 00BF     		.align	2
 370              	.L27:
 371 000c 69650040 		.word	1073767785
 372              		.cfi_endproc
 373              	.LFE8:
 374              		.size	UART_tester_ReadRxStatus, .-UART_tester_ReadRxStatus
 375              		.section	.text.UART_tester_GetChar,"ax",%progbits
 376              		.align	1
 377              		.global	UART_tester_GetChar
 378              		.syntax unified
 379              		.thumb
 380              		.thumb_func
 381              		.fpu softvfp
 382              		.type	UART_tester_GetChar, %function
 383              	UART_tester_GetChar:
 384              	.LFB9:
 501:Generated_Source\PSoC5/UART_tester.c **** 
 502:Generated_Source\PSoC5/UART_tester.c **** 
 503:Generated_Source\PSoC5/UART_tester.c ****     /*******************************************************************************
 504:Generated_Source\PSoC5/UART_tester.c ****     * Function Name: UART_tester_GetChar
 505:Generated_Source\PSoC5/UART_tester.c ****     ********************************************************************************
 506:Generated_Source\PSoC5/UART_tester.c ****     *
 507:Generated_Source\PSoC5/UART_tester.c ****     * Summary:
 508:Generated_Source\PSoC5/UART_tester.c ****     *  Returns the last received byte of data. UART_tester_GetChar() is
 509:Generated_Source\PSoC5/UART_tester.c ****     *  designed for ASCII characters and returns a uint8 where 1 to 255 are values
 510:Generated_Source\PSoC5/UART_tester.c ****     *  for valid characters and 0 indicates an error occurred or no data is present.
 511:Generated_Source\PSoC5/UART_tester.c ****     *
 512:Generated_Source\PSoC5/UART_tester.c ****     * Parameters:
 513:Generated_Source\PSoC5/UART_tester.c ****     *  None.
 514:Generated_Source\PSoC5/UART_tester.c ****     *
 515:Generated_Source\PSoC5/UART_tester.c ****     * Return:
 516:Generated_Source\PSoC5/UART_tester.c ****     *  Character read from UART RX buffer. ASCII characters from 1 to 255 are valid.
 517:Generated_Source\PSoC5/UART_tester.c ****     *  A returned zero signifies an error condition or no data available.
 518:Generated_Source\PSoC5/UART_tester.c ****     *
 519:Generated_Source\PSoC5/UART_tester.c ****     * Global Variables:
ARM GAS  C:\Users\jens-\AppData\Local\Temp\ccP7oHVf.s 			page 17


 520:Generated_Source\PSoC5/UART_tester.c ****     *  UART_tester_rxBuffer - RAM buffer pointer for save received data.
 521:Generated_Source\PSoC5/UART_tester.c ****     *  UART_tester_rxBufferWrite - cyclic index for write to rxBuffer,
 522:Generated_Source\PSoC5/UART_tester.c ****     *     checked to identify new data.
 523:Generated_Source\PSoC5/UART_tester.c ****     *  UART_tester_rxBufferRead - cyclic index for read from rxBuffer,
 524:Generated_Source\PSoC5/UART_tester.c ****     *     incremented after each byte has been read from buffer.
 525:Generated_Source\PSoC5/UART_tester.c ****     *  UART_tester_rxBufferLoopDetect - cleared if loop condition was detected
 526:Generated_Source\PSoC5/UART_tester.c ****     *     in RX ISR.
 527:Generated_Source\PSoC5/UART_tester.c ****     *
 528:Generated_Source\PSoC5/UART_tester.c ****     * Reentrant:
 529:Generated_Source\PSoC5/UART_tester.c ****     *  No.
 530:Generated_Source\PSoC5/UART_tester.c ****     *
 531:Generated_Source\PSoC5/UART_tester.c ****     *******************************************************************************/
 532:Generated_Source\PSoC5/UART_tester.c ****     uint8 UART_tester_GetChar(void) 
 533:Generated_Source\PSoC5/UART_tester.c ****     {
 385              		.loc 1 533 5 is_stmt 1 view -0
 386              		.cfi_startproc
 387              		@ args = 0, pretend = 0, frame = 0
 388              		@ frame_needed = 0, uses_anonymous_args = 0
 389              		@ link register save eliminated.
 534:Generated_Source\PSoC5/UART_tester.c ****         uint8 rxData = 0u;
 390              		.loc 1 534 9 view .LVU74
 391              	.LVL17:
 535:Generated_Source\PSoC5/UART_tester.c ****         uint8 rxStatus;
 392              		.loc 1 535 9 view .LVU75
 536:Generated_Source\PSoC5/UART_tester.c **** 
 537:Generated_Source\PSoC5/UART_tester.c ****     #if (UART_tester_RX_INTERRUPT_ENABLED)
 538:Generated_Source\PSoC5/UART_tester.c ****         uint8 locRxBufferRead;
 539:Generated_Source\PSoC5/UART_tester.c ****         uint8 locRxBufferWrite;
 540:Generated_Source\PSoC5/UART_tester.c **** 
 541:Generated_Source\PSoC5/UART_tester.c ****         /* Protect variables that could change on interrupt */
 542:Generated_Source\PSoC5/UART_tester.c ****         UART_tester_DisableRxInt();
 543:Generated_Source\PSoC5/UART_tester.c **** 
 544:Generated_Source\PSoC5/UART_tester.c ****         locRxBufferRead  = UART_tester_rxBufferRead;
 545:Generated_Source\PSoC5/UART_tester.c ****         locRxBufferWrite = UART_tester_rxBufferWrite;
 546:Generated_Source\PSoC5/UART_tester.c **** 
 547:Generated_Source\PSoC5/UART_tester.c ****         if( (UART_tester_rxBufferLoopDetect != 0u) || (locRxBufferRead != locRxBufferWrite) )
 548:Generated_Source\PSoC5/UART_tester.c ****         {
 549:Generated_Source\PSoC5/UART_tester.c ****             rxData = UART_tester_rxBuffer[locRxBufferRead];
 550:Generated_Source\PSoC5/UART_tester.c ****             locRxBufferRead++;
 551:Generated_Source\PSoC5/UART_tester.c ****             if(locRxBufferRead >= UART_tester_RX_BUFFER_SIZE)
 552:Generated_Source\PSoC5/UART_tester.c ****             {
 553:Generated_Source\PSoC5/UART_tester.c ****                 locRxBufferRead = 0u;
 554:Generated_Source\PSoC5/UART_tester.c ****             }
 555:Generated_Source\PSoC5/UART_tester.c ****             /* Update the real pointer */
 556:Generated_Source\PSoC5/UART_tester.c ****             UART_tester_rxBufferRead = locRxBufferRead;
 557:Generated_Source\PSoC5/UART_tester.c **** 
 558:Generated_Source\PSoC5/UART_tester.c ****             if(UART_tester_rxBufferLoopDetect != 0u)
 559:Generated_Source\PSoC5/UART_tester.c ****             {
 560:Generated_Source\PSoC5/UART_tester.c ****                 UART_tester_rxBufferLoopDetect = 0u;
 561:Generated_Source\PSoC5/UART_tester.c ****                 #if( (UART_tester_RX_INTERRUPT_ENABLED) && (UART_tester_FLOW_CONTROL != 0u) )
 562:Generated_Source\PSoC5/UART_tester.c ****                     /* When Hardware Flow Control selected - return RX mask */
 563:Generated_Source\PSoC5/UART_tester.c ****                     #if( UART_tester_HD_ENABLED )
 564:Generated_Source\PSoC5/UART_tester.c ****                         if((UART_tester_CONTROL_REG & UART_tester_CTRL_HD_SEND) == 0u)
 565:Generated_Source\PSoC5/UART_tester.c ****                         {   /* In Half duplex mode return RX mask only if
 566:Generated_Source\PSoC5/UART_tester.c ****                             *  RX configuration set, otherwise
 567:Generated_Source\PSoC5/UART_tester.c ****                             *  mask will be returned in LoadRxConfig() API.
 568:Generated_Source\PSoC5/UART_tester.c ****                             */
ARM GAS  C:\Users\jens-\AppData\Local\Temp\ccP7oHVf.s 			page 18


 569:Generated_Source\PSoC5/UART_tester.c ****                             UART_tester_RXSTATUS_MASK_REG |= UART_tester_RX_STS_FIFO_NOTEMPTY;
 570:Generated_Source\PSoC5/UART_tester.c ****                         }
 571:Generated_Source\PSoC5/UART_tester.c ****                     #else
 572:Generated_Source\PSoC5/UART_tester.c ****                         UART_tester_RXSTATUS_MASK_REG |= UART_tester_RX_STS_FIFO_NOTEMPTY;
 573:Generated_Source\PSoC5/UART_tester.c ****                     #endif /* end UART_tester_HD_ENABLED */
 574:Generated_Source\PSoC5/UART_tester.c ****                 #endif /* UART_tester_RX_INTERRUPT_ENABLED and Hardware flow control*/
 575:Generated_Source\PSoC5/UART_tester.c ****             }
 576:Generated_Source\PSoC5/UART_tester.c **** 
 577:Generated_Source\PSoC5/UART_tester.c ****         }
 578:Generated_Source\PSoC5/UART_tester.c ****         else
 579:Generated_Source\PSoC5/UART_tester.c ****         {   rxStatus = UART_tester_RXSTATUS_REG;
 580:Generated_Source\PSoC5/UART_tester.c ****             if((rxStatus & UART_tester_RX_STS_FIFO_NOTEMPTY) != 0u)
 581:Generated_Source\PSoC5/UART_tester.c ****             {   /* Read received data from FIFO */
 582:Generated_Source\PSoC5/UART_tester.c ****                 rxData = UART_tester_RXDATA_REG;
 583:Generated_Source\PSoC5/UART_tester.c ****                 /*Check status on error*/
 584:Generated_Source\PSoC5/UART_tester.c ****                 if((rxStatus & (UART_tester_RX_STS_BREAK | UART_tester_RX_STS_PAR_ERROR |
 585:Generated_Source\PSoC5/UART_tester.c ****                                 UART_tester_RX_STS_STOP_ERROR | UART_tester_RX_STS_OVERRUN)) != 0u)
 586:Generated_Source\PSoC5/UART_tester.c ****                 {
 587:Generated_Source\PSoC5/UART_tester.c ****                     rxData = 0u;
 588:Generated_Source\PSoC5/UART_tester.c ****                 }
 589:Generated_Source\PSoC5/UART_tester.c ****             }
 590:Generated_Source\PSoC5/UART_tester.c ****         }
 591:Generated_Source\PSoC5/UART_tester.c **** 
 592:Generated_Source\PSoC5/UART_tester.c ****         UART_tester_EnableRxInt();
 593:Generated_Source\PSoC5/UART_tester.c **** 
 594:Generated_Source\PSoC5/UART_tester.c ****     #else
 595:Generated_Source\PSoC5/UART_tester.c **** 
 596:Generated_Source\PSoC5/UART_tester.c ****         rxStatus =UART_tester_RXSTATUS_REG;
 393              		.loc 1 596 9 view .LVU76
 394              		.loc 1 596 18 is_stmt 0 view .LVU77
 395 0000 064B     		ldr	r3, .L32
 396 0002 1878     		ldrb	r0, [r3]	@ zero_extendqisi2
 397 0004 C3B2     		uxtb	r3, r0
 398              	.LVL18:
 597:Generated_Source\PSoC5/UART_tester.c ****         if((rxStatus & UART_tester_RX_STS_FIFO_NOTEMPTY) != 0u)
 399              		.loc 1 597 9 is_stmt 1 view .LVU78
 400              		.loc 1 597 11 is_stmt 0 view .LVU79
 401 0006 10F02000 		ands	r0, r0, #32
 402 000a 06D0     		beq	.L30
 598:Generated_Source\PSoC5/UART_tester.c ****         {
 599:Generated_Source\PSoC5/UART_tester.c ****             /* Read received data from FIFO */
 600:Generated_Source\PSoC5/UART_tester.c ****             rxData = UART_tester_RXDATA_REG;
 403              		.loc 1 600 13 is_stmt 1 view .LVU80
 404              		.loc 1 600 20 is_stmt 0 view .LVU81
 405 000c 044A     		ldr	r2, .L32+4
 406 000e 1078     		ldrb	r0, [r2]	@ zero_extendqisi2
 407 0010 C0B2     		uxtb	r0, r0
 408              	.LVL19:
 601:Generated_Source\PSoC5/UART_tester.c **** 
 602:Generated_Source\PSoC5/UART_tester.c ****             /*Check status on error*/
 603:Generated_Source\PSoC5/UART_tester.c ****             if((rxStatus & (UART_tester_RX_STS_BREAK | UART_tester_RX_STS_PAR_ERROR |
 409              		.loc 1 603 13 is_stmt 1 view .LVU82
 410              		.loc 1 603 15 is_stmt 0 view .LVU83
 411 0012 13F01E0F 		tst	r3, #30
 412 0016 00D0     		beq	.L30
 604:Generated_Source\PSoC5/UART_tester.c ****                             UART_tester_RX_STS_STOP_ERROR | UART_tester_RX_STS_OVERRUN)) != 0u)
 605:Generated_Source\PSoC5/UART_tester.c ****             {
ARM GAS  C:\Users\jens-\AppData\Local\Temp\ccP7oHVf.s 			page 19


 606:Generated_Source\PSoC5/UART_tester.c ****                 rxData = 0u;
 413              		.loc 1 606 24 view .LVU84
 414 0018 0020     		movs	r0, #0
 415              	.LVL20:
 416              	.L30:
 607:Generated_Source\PSoC5/UART_tester.c ****             }
 608:Generated_Source\PSoC5/UART_tester.c ****         }
 609:Generated_Source\PSoC5/UART_tester.c ****     #endif /* (UART_tester_RX_INTERRUPT_ENABLED) */
 610:Generated_Source\PSoC5/UART_tester.c **** 
 611:Generated_Source\PSoC5/UART_tester.c ****         return(rxData);
 417              		.loc 1 611 9 is_stmt 1 view .LVU85
 612:Generated_Source\PSoC5/UART_tester.c ****     }
 418              		.loc 1 612 5 is_stmt 0 view .LVU86
 419 001a 7047     		bx	lr
 420              	.L33:
 421              		.align	2
 422              	.L32:
 423 001c 69650040 		.word	1073767785
 424 0020 48650040 		.word	1073767752
 425              		.cfi_endproc
 426              	.LFE9:
 427              		.size	UART_tester_GetChar, .-UART_tester_GetChar
 428              		.section	.text.UART_tester_GetByte,"ax",%progbits
 429              		.align	1
 430              		.global	UART_tester_GetByte
 431              		.syntax unified
 432              		.thumb
 433              		.thumb_func
 434              		.fpu softvfp
 435              		.type	UART_tester_GetByte, %function
 436              	UART_tester_GetByte:
 437              	.LFB10:
 613:Generated_Source\PSoC5/UART_tester.c **** 
 614:Generated_Source\PSoC5/UART_tester.c **** 
 615:Generated_Source\PSoC5/UART_tester.c ****     /*******************************************************************************
 616:Generated_Source\PSoC5/UART_tester.c ****     * Function Name: UART_tester_GetByte
 617:Generated_Source\PSoC5/UART_tester.c ****     ********************************************************************************
 618:Generated_Source\PSoC5/UART_tester.c ****     *
 619:Generated_Source\PSoC5/UART_tester.c ****     * Summary:
 620:Generated_Source\PSoC5/UART_tester.c ****     *  Reads UART RX buffer immediately, returns received character and error
 621:Generated_Source\PSoC5/UART_tester.c ****     *  condition.
 622:Generated_Source\PSoC5/UART_tester.c ****     *
 623:Generated_Source\PSoC5/UART_tester.c ****     * Parameters:
 624:Generated_Source\PSoC5/UART_tester.c ****     *  None.
 625:Generated_Source\PSoC5/UART_tester.c ****     *
 626:Generated_Source\PSoC5/UART_tester.c ****     * Return:
 627:Generated_Source\PSoC5/UART_tester.c ****     *  MSB contains status and LSB contains UART RX data. If the MSB is nonzero,
 628:Generated_Source\PSoC5/UART_tester.c ****     *  an error has occurred.
 629:Generated_Source\PSoC5/UART_tester.c ****     *
 630:Generated_Source\PSoC5/UART_tester.c ****     * Reentrant:
 631:Generated_Source\PSoC5/UART_tester.c ****     *  No.
 632:Generated_Source\PSoC5/UART_tester.c ****     *
 633:Generated_Source\PSoC5/UART_tester.c ****     *******************************************************************************/
 634:Generated_Source\PSoC5/UART_tester.c ****     uint16 UART_tester_GetByte(void) 
 635:Generated_Source\PSoC5/UART_tester.c ****     {
 438              		.loc 1 635 5 is_stmt 1 view -0
 439              		.cfi_startproc
ARM GAS  C:\Users\jens-\AppData\Local\Temp\ccP7oHVf.s 			page 20


 440              		@ args = 0, pretend = 0, frame = 0
 441              		@ frame_needed = 0, uses_anonymous_args = 0
 442 0000 10B5     		push	{r4, lr}
 443              		.cfi_def_cfa_offset 8
 444              		.cfi_offset 4, -8
 445              		.cfi_offset 14, -4
 636:Generated_Source\PSoC5/UART_tester.c ****         
 637:Generated_Source\PSoC5/UART_tester.c ****     #if (UART_tester_RX_INTERRUPT_ENABLED)
 638:Generated_Source\PSoC5/UART_tester.c ****         uint16 locErrorStatus;
 639:Generated_Source\PSoC5/UART_tester.c ****         /* Protect variables that could change on interrupt */
 640:Generated_Source\PSoC5/UART_tester.c ****         UART_tester_DisableRxInt();
 641:Generated_Source\PSoC5/UART_tester.c ****         locErrorStatus = (uint16)UART_tester_errorStatus;
 642:Generated_Source\PSoC5/UART_tester.c ****         UART_tester_errorStatus = 0u;
 643:Generated_Source\PSoC5/UART_tester.c ****         UART_tester_EnableRxInt();
 644:Generated_Source\PSoC5/UART_tester.c ****         return ( (uint16)(locErrorStatus << 8u) | UART_tester_ReadRxData() );
 645:Generated_Source\PSoC5/UART_tester.c ****     #else
 646:Generated_Source\PSoC5/UART_tester.c ****         return ( ((uint16)UART_tester_ReadRxStatus() << 8u) | UART_tester_ReadRxData() );
 446              		.loc 1 646 9 view .LVU88
 447              		.loc 1 646 27 is_stmt 0 view .LVU89
 448 0002 FFF7FEFF 		bl	UART_tester_ReadRxStatus
 449              	.LVL21:
 450              		.loc 1 646 54 view .LVU90
 451 0006 0402     		lsls	r4, r0, #8
 452              		.loc 1 646 63 view .LVU91
 453 0008 FFF7FEFF 		bl	UART_tester_ReadRxData
 454              	.LVL22:
 455 000c 00B2     		sxth	r0, r0
 456              		.loc 1 646 61 view .LVU92
 457 000e 2043     		orrs	r0, r0, r4
 647:Generated_Source\PSoC5/UART_tester.c ****     #endif /* UART_tester_RX_INTERRUPT_ENABLED */
 648:Generated_Source\PSoC5/UART_tester.c ****         
 649:Generated_Source\PSoC5/UART_tester.c ****     }
 458              		.loc 1 649 5 view .LVU93
 459 0010 80B2     		uxth	r0, r0
 460 0012 10BD     		pop	{r4, pc}
 461              		.cfi_endproc
 462              	.LFE10:
 463              		.size	UART_tester_GetByte, .-UART_tester_GetByte
 464              		.section	.text.UART_tester_GetRxBufferSize,"ax",%progbits
 465              		.align	1
 466              		.global	UART_tester_GetRxBufferSize
 467              		.syntax unified
 468              		.thumb
 469              		.thumb_func
 470              		.fpu softvfp
 471              		.type	UART_tester_GetRxBufferSize, %function
 472              	UART_tester_GetRxBufferSize:
 473              	.LFB11:
 650:Generated_Source\PSoC5/UART_tester.c **** 
 651:Generated_Source\PSoC5/UART_tester.c **** 
 652:Generated_Source\PSoC5/UART_tester.c ****     /*******************************************************************************
 653:Generated_Source\PSoC5/UART_tester.c ****     * Function Name: UART_tester_GetRxBufferSize
 654:Generated_Source\PSoC5/UART_tester.c ****     ********************************************************************************
 655:Generated_Source\PSoC5/UART_tester.c ****     *
 656:Generated_Source\PSoC5/UART_tester.c ****     * Summary:
 657:Generated_Source\PSoC5/UART_tester.c ****     *  Returns the number of received bytes available in the RX buffer.
 658:Generated_Source\PSoC5/UART_tester.c ****     *  * RX software buffer is disabled (RX Buffer Size parameter is equal to 4): 
ARM GAS  C:\Users\jens-\AppData\Local\Temp\ccP7oHVf.s 			page 21


 659:Generated_Source\PSoC5/UART_tester.c ****     *    returns 0 for empty RX FIFO or 1 for not empty RX FIFO.
 660:Generated_Source\PSoC5/UART_tester.c ****     *  * RX software buffer is enabled: returns the number of bytes available in 
 661:Generated_Source\PSoC5/UART_tester.c ****     *    the RX software buffer. Bytes available in the RX FIFO do not take to 
 662:Generated_Source\PSoC5/UART_tester.c ****     *    account.
 663:Generated_Source\PSoC5/UART_tester.c ****     *
 664:Generated_Source\PSoC5/UART_tester.c ****     * Parameters:
 665:Generated_Source\PSoC5/UART_tester.c ****     *  None.
 666:Generated_Source\PSoC5/UART_tester.c ****     *
 667:Generated_Source\PSoC5/UART_tester.c ****     * Return:
 668:Generated_Source\PSoC5/UART_tester.c ****     *  uint8: Number of bytes in the RX buffer. 
 669:Generated_Source\PSoC5/UART_tester.c ****     *    Return value type depends on RX Buffer Size parameter.
 670:Generated_Source\PSoC5/UART_tester.c ****     *
 671:Generated_Source\PSoC5/UART_tester.c ****     * Global Variables:
 672:Generated_Source\PSoC5/UART_tester.c ****     *  UART_tester_rxBufferWrite - used to calculate left bytes.
 673:Generated_Source\PSoC5/UART_tester.c ****     *  UART_tester_rxBufferRead - used to calculate left bytes.
 674:Generated_Source\PSoC5/UART_tester.c ****     *  UART_tester_rxBufferLoopDetect - checked to decide left bytes amount.
 675:Generated_Source\PSoC5/UART_tester.c ****     *
 676:Generated_Source\PSoC5/UART_tester.c ****     * Reentrant:
 677:Generated_Source\PSoC5/UART_tester.c ****     *  No.
 678:Generated_Source\PSoC5/UART_tester.c ****     *
 679:Generated_Source\PSoC5/UART_tester.c ****     * Theory:
 680:Generated_Source\PSoC5/UART_tester.c ****     *  Allows the user to find out how full the RX Buffer is.
 681:Generated_Source\PSoC5/UART_tester.c ****     *
 682:Generated_Source\PSoC5/UART_tester.c ****     *******************************************************************************/
 683:Generated_Source\PSoC5/UART_tester.c ****     uint8 UART_tester_GetRxBufferSize(void)
 684:Generated_Source\PSoC5/UART_tester.c ****                                                             
 685:Generated_Source\PSoC5/UART_tester.c ****     {
 474              		.loc 1 685 5 is_stmt 1 view -0
 475              		.cfi_startproc
 476              		@ args = 0, pretend = 0, frame = 0
 477              		@ frame_needed = 0, uses_anonymous_args = 0
 478              		@ link register save eliminated.
 686:Generated_Source\PSoC5/UART_tester.c ****         uint8 size;
 479              		.loc 1 686 9 view .LVU95
 687:Generated_Source\PSoC5/UART_tester.c **** 
 688:Generated_Source\PSoC5/UART_tester.c ****     #if (UART_tester_RX_INTERRUPT_ENABLED)
 689:Generated_Source\PSoC5/UART_tester.c **** 
 690:Generated_Source\PSoC5/UART_tester.c ****         /* Protect variables that could change on interrupt */
 691:Generated_Source\PSoC5/UART_tester.c ****         UART_tester_DisableRxInt();
 692:Generated_Source\PSoC5/UART_tester.c **** 
 693:Generated_Source\PSoC5/UART_tester.c ****         if(UART_tester_rxBufferRead == UART_tester_rxBufferWrite)
 694:Generated_Source\PSoC5/UART_tester.c ****         {
 695:Generated_Source\PSoC5/UART_tester.c ****             if(UART_tester_rxBufferLoopDetect != 0u)
 696:Generated_Source\PSoC5/UART_tester.c ****             {
 697:Generated_Source\PSoC5/UART_tester.c ****                 size = UART_tester_RX_BUFFER_SIZE;
 698:Generated_Source\PSoC5/UART_tester.c ****             }
 699:Generated_Source\PSoC5/UART_tester.c ****             else
 700:Generated_Source\PSoC5/UART_tester.c ****             {
 701:Generated_Source\PSoC5/UART_tester.c ****                 size = 0u;
 702:Generated_Source\PSoC5/UART_tester.c ****             }
 703:Generated_Source\PSoC5/UART_tester.c ****         }
 704:Generated_Source\PSoC5/UART_tester.c ****         else if(UART_tester_rxBufferRead < UART_tester_rxBufferWrite)
 705:Generated_Source\PSoC5/UART_tester.c ****         {
 706:Generated_Source\PSoC5/UART_tester.c ****             size = (UART_tester_rxBufferWrite - UART_tester_rxBufferRead);
 707:Generated_Source\PSoC5/UART_tester.c ****         }
 708:Generated_Source\PSoC5/UART_tester.c ****         else
 709:Generated_Source\PSoC5/UART_tester.c ****         {
ARM GAS  C:\Users\jens-\AppData\Local\Temp\ccP7oHVf.s 			page 22


 710:Generated_Source\PSoC5/UART_tester.c ****             size = (UART_tester_RX_BUFFER_SIZE - UART_tester_rxBufferRead) + UART_tester_rxBufferWr
 711:Generated_Source\PSoC5/UART_tester.c ****         }
 712:Generated_Source\PSoC5/UART_tester.c **** 
 713:Generated_Source\PSoC5/UART_tester.c ****         UART_tester_EnableRxInt();
 714:Generated_Source\PSoC5/UART_tester.c **** 
 715:Generated_Source\PSoC5/UART_tester.c ****     #else
 716:Generated_Source\PSoC5/UART_tester.c **** 
 717:Generated_Source\PSoC5/UART_tester.c ****         /* We can only know if there is data in the fifo. */
 718:Generated_Source\PSoC5/UART_tester.c ****         size = ((UART_tester_RXSTATUS_REG & UART_tester_RX_STS_FIFO_NOTEMPTY) != 0u) ? 1u : 0u;
 480              		.loc 1 718 9 view .LVU96
 481              		.loc 1 718 18 is_stmt 0 view .LVU97
 482 0000 034B     		ldr	r3, .L38
 483 0002 1878     		ldrb	r0, [r3]	@ zero_extendqisi2
 484              		.loc 1 718 14 view .LVU98
 485 0004 10F02000 		ands	r0, r0, #32
 486 0008 00D0     		beq	.L37
 487 000a 0120     		movs	r0, #1
 488              	.L37:
 489              	.LVL23:
 719:Generated_Source\PSoC5/UART_tester.c **** 
 720:Generated_Source\PSoC5/UART_tester.c ****     #endif /* (UART_tester_RX_INTERRUPT_ENABLED) */
 721:Generated_Source\PSoC5/UART_tester.c **** 
 722:Generated_Source\PSoC5/UART_tester.c ****         return(size);
 490              		.loc 1 722 9 is_stmt 1 discriminator 4 view .LVU99
 723:Generated_Source\PSoC5/UART_tester.c ****     }
 491              		.loc 1 723 5 is_stmt 0 discriminator 4 view .LVU100
 492 000c 7047     		bx	lr
 493              	.L39:
 494 000e 00BF     		.align	2
 495              	.L38:
 496 0010 69650040 		.word	1073767785
 497              		.cfi_endproc
 498              	.LFE11:
 499              		.size	UART_tester_GetRxBufferSize, .-UART_tester_GetRxBufferSize
 500              		.section	.text.UART_tester_ClearRxBuffer,"ax",%progbits
 501              		.align	1
 502              		.global	UART_tester_ClearRxBuffer
 503              		.syntax unified
 504              		.thumb
 505              		.thumb_func
 506              		.fpu softvfp
 507              		.type	UART_tester_ClearRxBuffer, %function
 508              	UART_tester_ClearRxBuffer:
 509              	.LFB12:
 724:Generated_Source\PSoC5/UART_tester.c **** 
 725:Generated_Source\PSoC5/UART_tester.c **** 
 726:Generated_Source\PSoC5/UART_tester.c ****     /*******************************************************************************
 727:Generated_Source\PSoC5/UART_tester.c ****     * Function Name: UART_tester_ClearRxBuffer
 728:Generated_Source\PSoC5/UART_tester.c ****     ********************************************************************************
 729:Generated_Source\PSoC5/UART_tester.c ****     *
 730:Generated_Source\PSoC5/UART_tester.c ****     * Summary:
 731:Generated_Source\PSoC5/UART_tester.c ****     *  Clears the receiver memory buffer and hardware RX FIFO of all received data.
 732:Generated_Source\PSoC5/UART_tester.c ****     *
 733:Generated_Source\PSoC5/UART_tester.c ****     * Parameters:
 734:Generated_Source\PSoC5/UART_tester.c ****     *  None.
 735:Generated_Source\PSoC5/UART_tester.c ****     *
 736:Generated_Source\PSoC5/UART_tester.c ****     * Return:
ARM GAS  C:\Users\jens-\AppData\Local\Temp\ccP7oHVf.s 			page 23


 737:Generated_Source\PSoC5/UART_tester.c ****     *  None.
 738:Generated_Source\PSoC5/UART_tester.c ****     *
 739:Generated_Source\PSoC5/UART_tester.c ****     * Global Variables:
 740:Generated_Source\PSoC5/UART_tester.c ****     *  UART_tester_rxBufferWrite - cleared to zero.
 741:Generated_Source\PSoC5/UART_tester.c ****     *  UART_tester_rxBufferRead - cleared to zero.
 742:Generated_Source\PSoC5/UART_tester.c ****     *  UART_tester_rxBufferLoopDetect - cleared to zero.
 743:Generated_Source\PSoC5/UART_tester.c ****     *  UART_tester_rxBufferOverflow - cleared to zero.
 744:Generated_Source\PSoC5/UART_tester.c ****     *
 745:Generated_Source\PSoC5/UART_tester.c ****     * Reentrant:
 746:Generated_Source\PSoC5/UART_tester.c ****     *  No.
 747:Generated_Source\PSoC5/UART_tester.c ****     *
 748:Generated_Source\PSoC5/UART_tester.c ****     * Theory:
 749:Generated_Source\PSoC5/UART_tester.c ****     *  Setting the pointers to zero makes the system believe there is no data to
 750:Generated_Source\PSoC5/UART_tester.c ****     *  read and writing will resume at address 0 overwriting any data that may
 751:Generated_Source\PSoC5/UART_tester.c ****     *  have remained in the RAM.
 752:Generated_Source\PSoC5/UART_tester.c ****     *
 753:Generated_Source\PSoC5/UART_tester.c ****     * Side Effects:
 754:Generated_Source\PSoC5/UART_tester.c ****     *  Any received data not read from the RAM or FIFO buffer will be lost.
 755:Generated_Source\PSoC5/UART_tester.c ****     *
 756:Generated_Source\PSoC5/UART_tester.c ****     *******************************************************************************/
 757:Generated_Source\PSoC5/UART_tester.c ****     void UART_tester_ClearRxBuffer(void) 
 758:Generated_Source\PSoC5/UART_tester.c ****     {
 510              		.loc 1 758 5 is_stmt 1 view -0
 511              		.cfi_startproc
 512              		@ args = 0, pretend = 0, frame = 0
 513              		@ frame_needed = 0, uses_anonymous_args = 0
 514 0000 08B5     		push	{r3, lr}
 515              		.cfi_def_cfa_offset 8
 516              		.cfi_offset 3, -8
 517              		.cfi_offset 14, -4
 759:Generated_Source\PSoC5/UART_tester.c ****         uint8 enableInterrupts;
 518              		.loc 1 759 9 view .LVU102
 760:Generated_Source\PSoC5/UART_tester.c **** 
 761:Generated_Source\PSoC5/UART_tester.c ****         /* Clear the HW FIFO */
 762:Generated_Source\PSoC5/UART_tester.c ****         enableInterrupts = CyEnterCriticalSection();
 519              		.loc 1 762 9 view .LVU103
 520              		.loc 1 762 28 is_stmt 0 view .LVU104
 521 0002 FFF7FEFF 		bl	CyEnterCriticalSection
 522              	.LVL24:
 763:Generated_Source\PSoC5/UART_tester.c ****         UART_tester_RXDATA_AUX_CTL_REG |= (uint8)  UART_tester_RX_FIFO_CLR;
 523              		.loc 1 763 9 is_stmt 1 view .LVU105
 524              		.loc 1 763 40 is_stmt 0 view .LVU106
 525 0006 064B     		ldr	r3, .L42
 526 0008 1A78     		ldrb	r2, [r3]	@ zero_extendqisi2
 527 000a 42F00102 		orr	r2, r2, #1
 528 000e 1A70     		strb	r2, [r3]
 764:Generated_Source\PSoC5/UART_tester.c ****         UART_tester_RXDATA_AUX_CTL_REG &= (uint8) ~UART_tester_RX_FIFO_CLR;
 529              		.loc 1 764 9 is_stmt 1 view .LVU107
 530              		.loc 1 764 40 is_stmt 0 view .LVU108
 531 0010 1A78     		ldrb	r2, [r3]	@ zero_extendqisi2
 532 0012 02F0FE02 		and	r2, r2, #254
 533 0016 1A70     		strb	r2, [r3]
 765:Generated_Source\PSoC5/UART_tester.c ****         CyExitCriticalSection(enableInterrupts);
 534              		.loc 1 765 9 is_stmt 1 view .LVU109
 535 0018 FFF7FEFF 		bl	CyExitCriticalSection
 536              	.LVL25:
 766:Generated_Source\PSoC5/UART_tester.c **** 
ARM GAS  C:\Users\jens-\AppData\Local\Temp\ccP7oHVf.s 			page 24


 767:Generated_Source\PSoC5/UART_tester.c ****     #if (UART_tester_RX_INTERRUPT_ENABLED)
 768:Generated_Source\PSoC5/UART_tester.c **** 
 769:Generated_Source\PSoC5/UART_tester.c ****         /* Protect variables that could change on interrupt. */
 770:Generated_Source\PSoC5/UART_tester.c ****         UART_tester_DisableRxInt();
 771:Generated_Source\PSoC5/UART_tester.c **** 
 772:Generated_Source\PSoC5/UART_tester.c ****         UART_tester_rxBufferRead = 0u;
 773:Generated_Source\PSoC5/UART_tester.c ****         UART_tester_rxBufferWrite = 0u;
 774:Generated_Source\PSoC5/UART_tester.c ****         UART_tester_rxBufferLoopDetect = 0u;
 775:Generated_Source\PSoC5/UART_tester.c ****         UART_tester_rxBufferOverflow = 0u;
 776:Generated_Source\PSoC5/UART_tester.c **** 
 777:Generated_Source\PSoC5/UART_tester.c ****         UART_tester_EnableRxInt();
 778:Generated_Source\PSoC5/UART_tester.c **** 
 779:Generated_Source\PSoC5/UART_tester.c ****     #endif /* (UART_tester_RX_INTERRUPT_ENABLED) */
 780:Generated_Source\PSoC5/UART_tester.c **** 
 781:Generated_Source\PSoC5/UART_tester.c ****     }
 537              		.loc 1 781 5 is_stmt 0 view .LVU110
 538 001c 08BD     		pop	{r3, pc}
 539              	.L43:
 540 001e 00BF     		.align	2
 541              	.L42:
 542 0020 98650040 		.word	1073767832
 543              		.cfi_endproc
 544              	.LFE12:
 545              		.size	UART_tester_ClearRxBuffer, .-UART_tester_ClearRxBuffer
 546              		.section	.text.UART_tester_SetRxAddressMode,"ax",%progbits
 547              		.align	1
 548              		.global	UART_tester_SetRxAddressMode
 549              		.syntax unified
 550              		.thumb
 551              		.thumb_func
 552              		.fpu softvfp
 553              		.type	UART_tester_SetRxAddressMode, %function
 554              	UART_tester_SetRxAddressMode:
 555              	.LVL26:
 556              	.LFB13:
 782:Generated_Source\PSoC5/UART_tester.c **** 
 783:Generated_Source\PSoC5/UART_tester.c **** 
 784:Generated_Source\PSoC5/UART_tester.c ****     /*******************************************************************************
 785:Generated_Source\PSoC5/UART_tester.c ****     * Function Name: UART_tester_SetRxAddressMode
 786:Generated_Source\PSoC5/UART_tester.c ****     ********************************************************************************
 787:Generated_Source\PSoC5/UART_tester.c ****     *
 788:Generated_Source\PSoC5/UART_tester.c ****     * Summary:
 789:Generated_Source\PSoC5/UART_tester.c ****     *  Sets the software controlled Addressing mode used by the RX portion of the
 790:Generated_Source\PSoC5/UART_tester.c ****     *  UART.
 791:Generated_Source\PSoC5/UART_tester.c ****     *
 792:Generated_Source\PSoC5/UART_tester.c ****     * Parameters:
 793:Generated_Source\PSoC5/UART_tester.c ****     *  addressMode: Enumerated value indicating the mode of RX addressing
 794:Generated_Source\PSoC5/UART_tester.c ****     *  UART_tester__B_UART__AM_SW_BYTE_BYTE -  Software Byte-by-Byte address
 795:Generated_Source\PSoC5/UART_tester.c ****     *                                               detection
 796:Generated_Source\PSoC5/UART_tester.c ****     *  UART_tester__B_UART__AM_SW_DETECT_TO_BUFFER - Software Detect to Buffer
 797:Generated_Source\PSoC5/UART_tester.c ****     *                                               address detection
 798:Generated_Source\PSoC5/UART_tester.c ****     *  UART_tester__B_UART__AM_HW_BYTE_BY_BYTE - Hardware Byte-by-Byte address
 799:Generated_Source\PSoC5/UART_tester.c ****     *                                               detection
 800:Generated_Source\PSoC5/UART_tester.c ****     *  UART_tester__B_UART__AM_HW_DETECT_TO_BUFFER - Hardware Detect to Buffer
 801:Generated_Source\PSoC5/UART_tester.c ****     *                                               address detection
 802:Generated_Source\PSoC5/UART_tester.c ****     *  UART_tester__B_UART__AM_NONE - No address detection
 803:Generated_Source\PSoC5/UART_tester.c ****     *
ARM GAS  C:\Users\jens-\AppData\Local\Temp\ccP7oHVf.s 			page 25


 804:Generated_Source\PSoC5/UART_tester.c ****     * Return:
 805:Generated_Source\PSoC5/UART_tester.c ****     *  None.
 806:Generated_Source\PSoC5/UART_tester.c ****     *
 807:Generated_Source\PSoC5/UART_tester.c ****     * Global Variables:
 808:Generated_Source\PSoC5/UART_tester.c ****     *  UART_tester_rxAddressMode - the parameter stored in this variable for
 809:Generated_Source\PSoC5/UART_tester.c ****     *   the farther usage in RX ISR.
 810:Generated_Source\PSoC5/UART_tester.c ****     *  UART_tester_rxAddressDetected - set to initial state (0).
 811:Generated_Source\PSoC5/UART_tester.c ****     *
 812:Generated_Source\PSoC5/UART_tester.c ****     *******************************************************************************/
 813:Generated_Source\PSoC5/UART_tester.c ****     void UART_tester_SetRxAddressMode(uint8 addressMode)
 814:Generated_Source\PSoC5/UART_tester.c ****                                                         
 815:Generated_Source\PSoC5/UART_tester.c ****     {
 557              		.loc 1 815 5 is_stmt 1 view -0
 558              		.cfi_startproc
 559              		@ args = 0, pretend = 0, frame = 0
 560              		@ frame_needed = 0, uses_anonymous_args = 0
 561              		@ link register save eliminated.
 816:Generated_Source\PSoC5/UART_tester.c ****         #if(UART_tester_RXHW_ADDRESS_ENABLED)
 817:Generated_Source\PSoC5/UART_tester.c ****             #if(UART_tester_CONTROL_REG_REMOVED)
 818:Generated_Source\PSoC5/UART_tester.c ****                 if(0u != addressMode)
 819:Generated_Source\PSoC5/UART_tester.c ****                 {
 820:Generated_Source\PSoC5/UART_tester.c ****                     /* Suppress compiler warning */
 821:Generated_Source\PSoC5/UART_tester.c ****                 }
 822:Generated_Source\PSoC5/UART_tester.c ****             #else /* UART_tester_CONTROL_REG_REMOVED */
 823:Generated_Source\PSoC5/UART_tester.c ****                 uint8 tmpCtrl;
 824:Generated_Source\PSoC5/UART_tester.c ****                 tmpCtrl = UART_tester_CONTROL_REG & (uint8)~UART_tester_CTRL_RXADDR_MODE_MASK;
 825:Generated_Source\PSoC5/UART_tester.c ****                 tmpCtrl |= (uint8)(addressMode << UART_tester_CTRL_RXADDR_MODE0_SHIFT);
 826:Generated_Source\PSoC5/UART_tester.c ****                 UART_tester_CONTROL_REG = tmpCtrl;
 827:Generated_Source\PSoC5/UART_tester.c **** 
 828:Generated_Source\PSoC5/UART_tester.c ****                 #if(UART_tester_RX_INTERRUPT_ENABLED && \
 829:Generated_Source\PSoC5/UART_tester.c ****                    (UART_tester_RXBUFFERSIZE > UART_tester_FIFO_LENGTH) )
 830:Generated_Source\PSoC5/UART_tester.c ****                     UART_tester_rxAddressMode = addressMode;
 831:Generated_Source\PSoC5/UART_tester.c ****                     UART_tester_rxAddressDetected = 0u;
 832:Generated_Source\PSoC5/UART_tester.c ****                 #endif /* End UART_tester_RXBUFFERSIZE > UART_tester_FIFO_LENGTH*/
 833:Generated_Source\PSoC5/UART_tester.c ****             #endif /* End UART_tester_CONTROL_REG_REMOVED */
 834:Generated_Source\PSoC5/UART_tester.c ****         #else /* UART_tester_RXHW_ADDRESS_ENABLED */
 835:Generated_Source\PSoC5/UART_tester.c ****             if(0u != addressMode)
 562              		.loc 1 835 13 view .LVU112
 836:Generated_Source\PSoC5/UART_tester.c ****             {
 837:Generated_Source\PSoC5/UART_tester.c ****                 /* Suppress compiler warning */
 838:Generated_Source\PSoC5/UART_tester.c ****             }
 563              		.loc 1 838 13 view .LVU113
 839:Generated_Source\PSoC5/UART_tester.c ****         #endif /* End UART_tester_RXHW_ADDRESS_ENABLED */
 840:Generated_Source\PSoC5/UART_tester.c ****     }
 564              		.loc 1 840 5 is_stmt 0 view .LVU114
 565 0000 7047     		bx	lr
 566              		.cfi_endproc
 567              	.LFE13:
 568              		.size	UART_tester_SetRxAddressMode, .-UART_tester_SetRxAddressMode
 569              		.section	.text.UART_tester_SetRxAddress1,"ax",%progbits
 570              		.align	1
 571              		.global	UART_tester_SetRxAddress1
 572              		.syntax unified
 573              		.thumb
 574              		.thumb_func
 575              		.fpu softvfp
 576              		.type	UART_tester_SetRxAddress1, %function
ARM GAS  C:\Users\jens-\AppData\Local\Temp\ccP7oHVf.s 			page 26


 577              	UART_tester_SetRxAddress1:
 578              	.LVL27:
 579              	.LFB14:
 841:Generated_Source\PSoC5/UART_tester.c **** 
 842:Generated_Source\PSoC5/UART_tester.c **** 
 843:Generated_Source\PSoC5/UART_tester.c ****     /*******************************************************************************
 844:Generated_Source\PSoC5/UART_tester.c ****     * Function Name: UART_tester_SetRxAddress1
 845:Generated_Source\PSoC5/UART_tester.c ****     ********************************************************************************
 846:Generated_Source\PSoC5/UART_tester.c ****     *
 847:Generated_Source\PSoC5/UART_tester.c ****     * Summary:
 848:Generated_Source\PSoC5/UART_tester.c ****     *  Sets the first of two hardware-detectable receiver addresses.
 849:Generated_Source\PSoC5/UART_tester.c ****     *
 850:Generated_Source\PSoC5/UART_tester.c ****     * Parameters:
 851:Generated_Source\PSoC5/UART_tester.c ****     *  address: Address #1 for hardware address detection.
 852:Generated_Source\PSoC5/UART_tester.c ****     *
 853:Generated_Source\PSoC5/UART_tester.c ****     * Return:
 854:Generated_Source\PSoC5/UART_tester.c ****     *  None.
 855:Generated_Source\PSoC5/UART_tester.c ****     *
 856:Generated_Source\PSoC5/UART_tester.c ****     *******************************************************************************/
 857:Generated_Source\PSoC5/UART_tester.c ****     void UART_tester_SetRxAddress1(uint8 address) 
 858:Generated_Source\PSoC5/UART_tester.c ****     {
 580              		.loc 1 858 5 is_stmt 1 view -0
 581              		.cfi_startproc
 582              		@ args = 0, pretend = 0, frame = 0
 583              		@ frame_needed = 0, uses_anonymous_args = 0
 584              		@ link register save eliminated.
 859:Generated_Source\PSoC5/UART_tester.c ****         UART_tester_RXADDRESS1_REG = address;
 585              		.loc 1 859 9 view .LVU116
 586              		.loc 1 859 36 is_stmt 0 view .LVU117
 587 0000 014B     		ldr	r3, .L46
 588 0002 1870     		strb	r0, [r3]
 860:Generated_Source\PSoC5/UART_tester.c ****     }
 589              		.loc 1 860 5 view .LVU118
 590 0004 7047     		bx	lr
 591              	.L47:
 592 0006 00BF     		.align	2
 593              	.L46:
 594 0008 28650040 		.word	1073767720
 595              		.cfi_endproc
 596              	.LFE14:
 597              		.size	UART_tester_SetRxAddress1, .-UART_tester_SetRxAddress1
 598              		.section	.text.UART_tester_SetRxAddress2,"ax",%progbits
 599              		.align	1
 600              		.global	UART_tester_SetRxAddress2
 601              		.syntax unified
 602              		.thumb
 603              		.thumb_func
 604              		.fpu softvfp
 605              		.type	UART_tester_SetRxAddress2, %function
 606              	UART_tester_SetRxAddress2:
 607              	.LVL28:
 608              	.LFB15:
 861:Generated_Source\PSoC5/UART_tester.c **** 
 862:Generated_Source\PSoC5/UART_tester.c **** 
 863:Generated_Source\PSoC5/UART_tester.c ****     /*******************************************************************************
 864:Generated_Source\PSoC5/UART_tester.c ****     * Function Name: UART_tester_SetRxAddress2
 865:Generated_Source\PSoC5/UART_tester.c ****     ********************************************************************************
ARM GAS  C:\Users\jens-\AppData\Local\Temp\ccP7oHVf.s 			page 27


 866:Generated_Source\PSoC5/UART_tester.c ****     *
 867:Generated_Source\PSoC5/UART_tester.c ****     * Summary:
 868:Generated_Source\PSoC5/UART_tester.c ****     *  Sets the second of two hardware-detectable receiver addresses.
 869:Generated_Source\PSoC5/UART_tester.c ****     *
 870:Generated_Source\PSoC5/UART_tester.c ****     * Parameters:
 871:Generated_Source\PSoC5/UART_tester.c ****     *  address: Address #2 for hardware address detection.
 872:Generated_Source\PSoC5/UART_tester.c ****     *
 873:Generated_Source\PSoC5/UART_tester.c ****     * Return:
 874:Generated_Source\PSoC5/UART_tester.c ****     *  None.
 875:Generated_Source\PSoC5/UART_tester.c ****     *
 876:Generated_Source\PSoC5/UART_tester.c ****     *******************************************************************************/
 877:Generated_Source\PSoC5/UART_tester.c ****     void UART_tester_SetRxAddress2(uint8 address) 
 878:Generated_Source\PSoC5/UART_tester.c ****     {
 609              		.loc 1 878 5 is_stmt 1 view -0
 610              		.cfi_startproc
 611              		@ args = 0, pretend = 0, frame = 0
 612              		@ frame_needed = 0, uses_anonymous_args = 0
 613              		@ link register save eliminated.
 879:Generated_Source\PSoC5/UART_tester.c ****         UART_tester_RXADDRESS2_REG = address;
 614              		.loc 1 879 9 view .LVU120
 615              		.loc 1 879 36 is_stmt 0 view .LVU121
 616 0000 014B     		ldr	r3, .L49
 617 0002 1870     		strb	r0, [r3]
 880:Generated_Source\PSoC5/UART_tester.c ****     }
 618              		.loc 1 880 5 view .LVU122
 619 0004 7047     		bx	lr
 620              	.L50:
 621 0006 00BF     		.align	2
 622              	.L49:
 623 0008 38650040 		.word	1073767736
 624              		.cfi_endproc
 625              	.LFE15:
 626              		.size	UART_tester_SetRxAddress2, .-UART_tester_SetRxAddress2
 627              		.section	.text.UART_tester_SetTxInterruptMode,"ax",%progbits
 628              		.align	1
 629              		.global	UART_tester_SetTxInterruptMode
 630              		.syntax unified
 631              		.thumb
 632              		.thumb_func
 633              		.fpu softvfp
 634              		.type	UART_tester_SetTxInterruptMode, %function
 635              	UART_tester_SetTxInterruptMode:
 636              	.LVL29:
 637              	.LFB16:
 881:Generated_Source\PSoC5/UART_tester.c **** 
 882:Generated_Source\PSoC5/UART_tester.c **** #endif  /* UART_tester_RX_ENABLED || UART_tester_HD_ENABLED*/
 883:Generated_Source\PSoC5/UART_tester.c **** 
 884:Generated_Source\PSoC5/UART_tester.c **** 
 885:Generated_Source\PSoC5/UART_tester.c **** #if( (UART_tester_TX_ENABLED) || (UART_tester_HD_ENABLED) )
 886:Generated_Source\PSoC5/UART_tester.c ****     /*******************************************************************************
 887:Generated_Source\PSoC5/UART_tester.c ****     * Function Name: UART_tester_SetTxInterruptMode
 888:Generated_Source\PSoC5/UART_tester.c ****     ********************************************************************************
 889:Generated_Source\PSoC5/UART_tester.c ****     *
 890:Generated_Source\PSoC5/UART_tester.c ****     * Summary:
 891:Generated_Source\PSoC5/UART_tester.c ****     *  Configures the TX interrupt sources to be enabled, but does not enable the
 892:Generated_Source\PSoC5/UART_tester.c ****     *  interrupt.
 893:Generated_Source\PSoC5/UART_tester.c ****     *
ARM GAS  C:\Users\jens-\AppData\Local\Temp\ccP7oHVf.s 			page 28


 894:Generated_Source\PSoC5/UART_tester.c ****     * Parameters:
 895:Generated_Source\PSoC5/UART_tester.c ****     *  intSrc: Bit field containing the TX interrupt sources to enable
 896:Generated_Source\PSoC5/UART_tester.c ****     *   UART_tester_TX_STS_COMPLETE        Interrupt on TX byte complete
 897:Generated_Source\PSoC5/UART_tester.c ****     *   UART_tester_TX_STS_FIFO_EMPTY      Interrupt when TX FIFO is empty
 898:Generated_Source\PSoC5/UART_tester.c ****     *   UART_tester_TX_STS_FIFO_FULL       Interrupt when TX FIFO is full
 899:Generated_Source\PSoC5/UART_tester.c ****     *   UART_tester_TX_STS_FIFO_NOT_FULL   Interrupt when TX FIFO is not full
 900:Generated_Source\PSoC5/UART_tester.c ****     *
 901:Generated_Source\PSoC5/UART_tester.c ****     * Return:
 902:Generated_Source\PSoC5/UART_tester.c ****     *  None.
 903:Generated_Source\PSoC5/UART_tester.c ****     *
 904:Generated_Source\PSoC5/UART_tester.c ****     * Theory:
 905:Generated_Source\PSoC5/UART_tester.c ****     *  Enables the output of specific status bits to the interrupt controller
 906:Generated_Source\PSoC5/UART_tester.c ****     *
 907:Generated_Source\PSoC5/UART_tester.c ****     *******************************************************************************/
 908:Generated_Source\PSoC5/UART_tester.c ****     void UART_tester_SetTxInterruptMode(uint8 intSrc) 
 909:Generated_Source\PSoC5/UART_tester.c ****     {
 638              		.loc 1 909 5 is_stmt 1 view -0
 639              		.cfi_startproc
 640              		@ args = 0, pretend = 0, frame = 0
 641              		@ frame_needed = 0, uses_anonymous_args = 0
 642              		@ link register save eliminated.
 910:Generated_Source\PSoC5/UART_tester.c ****         UART_tester_TXSTATUS_MASK_REG = intSrc;
 643              		.loc 1 910 9 view .LVU124
 644              		.loc 1 910 39 is_stmt 0 view .LVU125
 645 0000 014B     		ldr	r3, .L52
 646 0002 1870     		strb	r0, [r3]
 911:Generated_Source\PSoC5/UART_tester.c ****     }
 647              		.loc 1 911 5 view .LVU126
 648 0004 7047     		bx	lr
 649              	.L53:
 650 0006 00BF     		.align	2
 651              	.L52:
 652 0008 8B650040 		.word	1073767819
 653              		.cfi_endproc
 654              	.LFE16:
 655              		.size	UART_tester_SetTxInterruptMode, .-UART_tester_SetTxInterruptMode
 656              		.section	.text.UART_tester_WriteTxData,"ax",%progbits
 657              		.align	1
 658              		.global	UART_tester_WriteTxData
 659              		.syntax unified
 660              		.thumb
 661              		.thumb_func
 662              		.fpu softvfp
 663              		.type	UART_tester_WriteTxData, %function
 664              	UART_tester_WriteTxData:
 665              	.LVL30:
 666              	.LFB17:
 912:Generated_Source\PSoC5/UART_tester.c **** 
 913:Generated_Source\PSoC5/UART_tester.c **** 
 914:Generated_Source\PSoC5/UART_tester.c ****     /*******************************************************************************
 915:Generated_Source\PSoC5/UART_tester.c ****     * Function Name: UART_tester_WriteTxData
 916:Generated_Source\PSoC5/UART_tester.c ****     ********************************************************************************
 917:Generated_Source\PSoC5/UART_tester.c ****     *
 918:Generated_Source\PSoC5/UART_tester.c ****     * Summary:
 919:Generated_Source\PSoC5/UART_tester.c ****     *  Places a byte of data into the transmit buffer to be sent when the bus is
 920:Generated_Source\PSoC5/UART_tester.c ****     *  available without checking the TX status register. You must check status
 921:Generated_Source\PSoC5/UART_tester.c ****     *  separately.
ARM GAS  C:\Users\jens-\AppData\Local\Temp\ccP7oHVf.s 			page 29


 922:Generated_Source\PSoC5/UART_tester.c ****     *
 923:Generated_Source\PSoC5/UART_tester.c ****     * Parameters:
 924:Generated_Source\PSoC5/UART_tester.c ****     *  txDataByte: data byte
 925:Generated_Source\PSoC5/UART_tester.c ****     *
 926:Generated_Source\PSoC5/UART_tester.c ****     * Return:
 927:Generated_Source\PSoC5/UART_tester.c ****     * None.
 928:Generated_Source\PSoC5/UART_tester.c ****     *
 929:Generated_Source\PSoC5/UART_tester.c ****     * Global Variables:
 930:Generated_Source\PSoC5/UART_tester.c ****     *  UART_tester_txBuffer - RAM buffer pointer for save data for transmission
 931:Generated_Source\PSoC5/UART_tester.c ****     *  UART_tester_txBufferWrite - cyclic index for write to txBuffer,
 932:Generated_Source\PSoC5/UART_tester.c ****     *    incremented after each byte saved to buffer.
 933:Generated_Source\PSoC5/UART_tester.c ****     *  UART_tester_txBufferRead - cyclic index for read from txBuffer,
 934:Generated_Source\PSoC5/UART_tester.c ****     *    checked to identify the condition to write to FIFO directly or to TX buffer
 935:Generated_Source\PSoC5/UART_tester.c ****     *  UART_tester_initVar - checked to identify that the component has been
 936:Generated_Source\PSoC5/UART_tester.c ****     *    initialized.
 937:Generated_Source\PSoC5/UART_tester.c ****     *
 938:Generated_Source\PSoC5/UART_tester.c ****     * Reentrant:
 939:Generated_Source\PSoC5/UART_tester.c ****     *  No.
 940:Generated_Source\PSoC5/UART_tester.c ****     *
 941:Generated_Source\PSoC5/UART_tester.c ****     *******************************************************************************/
 942:Generated_Source\PSoC5/UART_tester.c ****     void UART_tester_WriteTxData(uint8 txDataByte) 
 943:Generated_Source\PSoC5/UART_tester.c ****     {
 667              		.loc 1 943 5 is_stmt 1 view -0
 668              		.cfi_startproc
 669              		@ args = 0, pretend = 0, frame = 0
 670              		@ frame_needed = 0, uses_anonymous_args = 0
 671              		@ link register save eliminated.
 944:Generated_Source\PSoC5/UART_tester.c ****         /* If not Initialized then skip this function*/
 945:Generated_Source\PSoC5/UART_tester.c ****         if(UART_tester_initVar != 0u)
 672              		.loc 1 945 9 view .LVU128
 673              		.loc 1 945 32 is_stmt 0 view .LVU129
 674 0000 024B     		ldr	r3, .L56
 675 0002 1B78     		ldrb	r3, [r3]	@ zero_extendqisi2
 676              		.loc 1 945 11 view .LVU130
 677 0004 0BB1     		cbz	r3, .L54
 946:Generated_Source\PSoC5/UART_tester.c ****         {
 947:Generated_Source\PSoC5/UART_tester.c ****         #if (UART_tester_TX_INTERRUPT_ENABLED)
 948:Generated_Source\PSoC5/UART_tester.c **** 
 949:Generated_Source\PSoC5/UART_tester.c ****             /* Protect variables that could change on interrupt. */
 950:Generated_Source\PSoC5/UART_tester.c ****             UART_tester_DisableTxInt();
 951:Generated_Source\PSoC5/UART_tester.c **** 
 952:Generated_Source\PSoC5/UART_tester.c ****             if( (UART_tester_txBufferRead == UART_tester_txBufferWrite) &&
 953:Generated_Source\PSoC5/UART_tester.c ****                 ((UART_tester_TXSTATUS_REG & UART_tester_TX_STS_FIFO_FULL) == 0u) )
 954:Generated_Source\PSoC5/UART_tester.c ****             {
 955:Generated_Source\PSoC5/UART_tester.c ****                 /* Add directly to the FIFO. */
 956:Generated_Source\PSoC5/UART_tester.c ****                 UART_tester_TXDATA_REG = txDataByte;
 957:Generated_Source\PSoC5/UART_tester.c ****             }
 958:Generated_Source\PSoC5/UART_tester.c ****             else
 959:Generated_Source\PSoC5/UART_tester.c ****             {
 960:Generated_Source\PSoC5/UART_tester.c ****                 if(UART_tester_txBufferWrite >= UART_tester_TX_BUFFER_SIZE)
 961:Generated_Source\PSoC5/UART_tester.c ****                 {
 962:Generated_Source\PSoC5/UART_tester.c ****                     UART_tester_txBufferWrite = 0u;
 963:Generated_Source\PSoC5/UART_tester.c ****                 }
 964:Generated_Source\PSoC5/UART_tester.c **** 
 965:Generated_Source\PSoC5/UART_tester.c ****                 UART_tester_txBuffer[UART_tester_txBufferWrite] = txDataByte;
 966:Generated_Source\PSoC5/UART_tester.c **** 
 967:Generated_Source\PSoC5/UART_tester.c ****                 /* Add to the software buffer. */
ARM GAS  C:\Users\jens-\AppData\Local\Temp\ccP7oHVf.s 			page 30


 968:Generated_Source\PSoC5/UART_tester.c ****                 UART_tester_txBufferWrite++;
 969:Generated_Source\PSoC5/UART_tester.c ****             }
 970:Generated_Source\PSoC5/UART_tester.c **** 
 971:Generated_Source\PSoC5/UART_tester.c ****             UART_tester_EnableTxInt();
 972:Generated_Source\PSoC5/UART_tester.c **** 
 973:Generated_Source\PSoC5/UART_tester.c ****         #else
 974:Generated_Source\PSoC5/UART_tester.c **** 
 975:Generated_Source\PSoC5/UART_tester.c ****             /* Add directly to the FIFO. */
 976:Generated_Source\PSoC5/UART_tester.c ****             UART_tester_TXDATA_REG = txDataByte;
 678              		.loc 1 976 13 is_stmt 1 view .LVU131
 679              		.loc 1 976 36 is_stmt 0 view .LVU132
 680 0006 024B     		ldr	r3, .L56+4
 681 0008 1870     		strb	r0, [r3]
 682              	.L54:
 977:Generated_Source\PSoC5/UART_tester.c **** 
 978:Generated_Source\PSoC5/UART_tester.c ****         #endif /*(UART_tester_TX_INTERRUPT_ENABLED) */
 979:Generated_Source\PSoC5/UART_tester.c ****         }
 980:Generated_Source\PSoC5/UART_tester.c ****     }
 683              		.loc 1 980 5 view .LVU133
 684 000a 7047     		bx	lr
 685              	.L57:
 686              		.align	2
 687              	.L56:
 688 000c 00000000 		.word	.LANCHOR0
 689 0010 4B650040 		.word	1073767755
 690              		.cfi_endproc
 691              	.LFE17:
 692              		.size	UART_tester_WriteTxData, .-UART_tester_WriteTxData
 693              		.section	.text.UART_tester_ReadTxStatus,"ax",%progbits
 694              		.align	1
 695              		.global	UART_tester_ReadTxStatus
 696              		.syntax unified
 697              		.thumb
 698              		.thumb_func
 699              		.fpu softvfp
 700              		.type	UART_tester_ReadTxStatus, %function
 701              	UART_tester_ReadTxStatus:
 702              	.LFB18:
 981:Generated_Source\PSoC5/UART_tester.c **** 
 982:Generated_Source\PSoC5/UART_tester.c **** 
 983:Generated_Source\PSoC5/UART_tester.c ****     /*******************************************************************************
 984:Generated_Source\PSoC5/UART_tester.c ****     * Function Name: UART_tester_ReadTxStatus
 985:Generated_Source\PSoC5/UART_tester.c ****     ********************************************************************************
 986:Generated_Source\PSoC5/UART_tester.c ****     *
 987:Generated_Source\PSoC5/UART_tester.c ****     * Summary:
 988:Generated_Source\PSoC5/UART_tester.c ****     *  Reads the status register for the TX portion of the UART.
 989:Generated_Source\PSoC5/UART_tester.c ****     *
 990:Generated_Source\PSoC5/UART_tester.c ****     * Parameters:
 991:Generated_Source\PSoC5/UART_tester.c ****     *  None.
 992:Generated_Source\PSoC5/UART_tester.c ****     *
 993:Generated_Source\PSoC5/UART_tester.c ****     * Return:
 994:Generated_Source\PSoC5/UART_tester.c ****     *  Contents of the status register
 995:Generated_Source\PSoC5/UART_tester.c ****     *
 996:Generated_Source\PSoC5/UART_tester.c ****     * Theory:
 997:Generated_Source\PSoC5/UART_tester.c ****     *  This function reads the TX status register, which is cleared on read.
 998:Generated_Source\PSoC5/UART_tester.c ****     *  It is up to the user to handle all bits in this return value accordingly,
 999:Generated_Source\PSoC5/UART_tester.c ****     *  even if the bit was not enabled as an interrupt source the event happened
ARM GAS  C:\Users\jens-\AppData\Local\Temp\ccP7oHVf.s 			page 31


1000:Generated_Source\PSoC5/UART_tester.c ****     *  and must be handled accordingly.
1001:Generated_Source\PSoC5/UART_tester.c ****     *
1002:Generated_Source\PSoC5/UART_tester.c ****     *******************************************************************************/
1003:Generated_Source\PSoC5/UART_tester.c ****     uint8 UART_tester_ReadTxStatus(void) 
1004:Generated_Source\PSoC5/UART_tester.c ****     {
 703              		.loc 1 1004 5 is_stmt 1 view -0
 704              		.cfi_startproc
 705              		@ args = 0, pretend = 0, frame = 0
 706              		@ frame_needed = 0, uses_anonymous_args = 0
 707              		@ link register save eliminated.
1005:Generated_Source\PSoC5/UART_tester.c ****         return(UART_tester_TXSTATUS_REG);
 708              		.loc 1 1005 9 view .LVU135
 709              		.loc 1 1005 16 is_stmt 0 view .LVU136
 710 0000 014B     		ldr	r3, .L59
 711 0002 1878     		ldrb	r0, [r3]	@ zero_extendqisi2
1006:Generated_Source\PSoC5/UART_tester.c ****     }
 712              		.loc 1 1006 5 view .LVU137
 713 0004 7047     		bx	lr
 714              	.L60:
 715 0006 00BF     		.align	2
 716              	.L59:
 717 0008 6B650040 		.word	1073767787
 718              		.cfi_endproc
 719              	.LFE18:
 720              		.size	UART_tester_ReadTxStatus, .-UART_tester_ReadTxStatus
 721              		.section	.text.UART_tester_PutChar,"ax",%progbits
 722              		.align	1
 723              		.global	UART_tester_PutChar
 724              		.syntax unified
 725              		.thumb
 726              		.thumb_func
 727              		.fpu softvfp
 728              		.type	UART_tester_PutChar, %function
 729              	UART_tester_PutChar:
 730              	.LFB19:
1007:Generated_Source\PSoC5/UART_tester.c **** 
1008:Generated_Source\PSoC5/UART_tester.c **** 
1009:Generated_Source\PSoC5/UART_tester.c ****     /*******************************************************************************
1010:Generated_Source\PSoC5/UART_tester.c ****     * Function Name: UART_tester_PutChar
1011:Generated_Source\PSoC5/UART_tester.c ****     ********************************************************************************
1012:Generated_Source\PSoC5/UART_tester.c ****     *
1013:Generated_Source\PSoC5/UART_tester.c ****     * Summary:
1014:Generated_Source\PSoC5/UART_tester.c ****     *  Puts a byte of data into the transmit buffer to be sent when the bus is
1015:Generated_Source\PSoC5/UART_tester.c ****     *  available. This is a blocking API that waits until the TX buffer has room to
1016:Generated_Source\PSoC5/UART_tester.c ****     *  hold the data.
1017:Generated_Source\PSoC5/UART_tester.c ****     *
1018:Generated_Source\PSoC5/UART_tester.c ****     * Parameters:
1019:Generated_Source\PSoC5/UART_tester.c ****     *  txDataByte: Byte containing the data to transmit
1020:Generated_Source\PSoC5/UART_tester.c ****     *
1021:Generated_Source\PSoC5/UART_tester.c ****     * Return:
1022:Generated_Source\PSoC5/UART_tester.c ****     *  None.
1023:Generated_Source\PSoC5/UART_tester.c ****     *
1024:Generated_Source\PSoC5/UART_tester.c ****     * Global Variables:
1025:Generated_Source\PSoC5/UART_tester.c ****     *  UART_tester_txBuffer - RAM buffer pointer for save data for transmission
1026:Generated_Source\PSoC5/UART_tester.c ****     *  UART_tester_txBufferWrite - cyclic index for write to txBuffer,
1027:Generated_Source\PSoC5/UART_tester.c ****     *     checked to identify free space in txBuffer and incremented after each byte
1028:Generated_Source\PSoC5/UART_tester.c ****     *     saved to buffer.
ARM GAS  C:\Users\jens-\AppData\Local\Temp\ccP7oHVf.s 			page 32


1029:Generated_Source\PSoC5/UART_tester.c ****     *  UART_tester_txBufferRead - cyclic index for read from txBuffer,
1030:Generated_Source\PSoC5/UART_tester.c ****     *     checked to identify free space in txBuffer.
1031:Generated_Source\PSoC5/UART_tester.c ****     *  UART_tester_initVar - checked to identify that the component has been
1032:Generated_Source\PSoC5/UART_tester.c ****     *     initialized.
1033:Generated_Source\PSoC5/UART_tester.c ****     *
1034:Generated_Source\PSoC5/UART_tester.c ****     * Reentrant:
1035:Generated_Source\PSoC5/UART_tester.c ****     *  No.
1036:Generated_Source\PSoC5/UART_tester.c ****     *
1037:Generated_Source\PSoC5/UART_tester.c ****     * Theory:
1038:Generated_Source\PSoC5/UART_tester.c ****     *  Allows the user to transmit any byte of data in a single transfer
1039:Generated_Source\PSoC5/UART_tester.c ****     *
1040:Generated_Source\PSoC5/UART_tester.c ****     *******************************************************************************/
1041:Generated_Source\PSoC5/UART_tester.c ****     void UART_tester_PutChar(uint8 txDataByte) 
1042:Generated_Source\PSoC5/UART_tester.c ****     {
 731              		.loc 1 1042 5 is_stmt 1 view -0
 732              		.cfi_startproc
 733              		@ args = 0, pretend = 0, frame = 0
 734              		@ frame_needed = 0, uses_anonymous_args = 0
 735              		@ link register save eliminated.
 736              	.LVL31:
 737              	.L62:
1043:Generated_Source\PSoC5/UART_tester.c ****     #if (UART_tester_TX_INTERRUPT_ENABLED)
1044:Generated_Source\PSoC5/UART_tester.c ****         /* The temporary output pointer is used since it takes two instructions
1045:Generated_Source\PSoC5/UART_tester.c ****         *  to increment with a wrap, and we can't risk doing that with the real
1046:Generated_Source\PSoC5/UART_tester.c ****         *  pointer and getting an interrupt in between instructions.
1047:Generated_Source\PSoC5/UART_tester.c ****         */
1048:Generated_Source\PSoC5/UART_tester.c ****         uint8 locTxBufferWrite;
1049:Generated_Source\PSoC5/UART_tester.c ****         uint8 locTxBufferRead;
1050:Generated_Source\PSoC5/UART_tester.c **** 
1051:Generated_Source\PSoC5/UART_tester.c ****         do
1052:Generated_Source\PSoC5/UART_tester.c ****         { /* Block if software buffer is full, so we don't overwrite. */
1053:Generated_Source\PSoC5/UART_tester.c **** 
1054:Generated_Source\PSoC5/UART_tester.c ****         #if ((UART_tester_TX_BUFFER_SIZE > UART_tester_MAX_BYTE_VALUE) && (CY_PSOC3))
1055:Generated_Source\PSoC5/UART_tester.c ****             /* Disable TX interrupt to protect variables from modification */
1056:Generated_Source\PSoC5/UART_tester.c ****             UART_tester_DisableTxInt();
1057:Generated_Source\PSoC5/UART_tester.c ****         #endif /* (UART_tester_TX_BUFFER_SIZE > UART_tester_MAX_BYTE_VALUE) && (CY_PSOC3) */
1058:Generated_Source\PSoC5/UART_tester.c **** 
1059:Generated_Source\PSoC5/UART_tester.c ****             locTxBufferWrite = UART_tester_txBufferWrite;
1060:Generated_Source\PSoC5/UART_tester.c ****             locTxBufferRead  = UART_tester_txBufferRead;
1061:Generated_Source\PSoC5/UART_tester.c **** 
1062:Generated_Source\PSoC5/UART_tester.c ****         #if ((UART_tester_TX_BUFFER_SIZE > UART_tester_MAX_BYTE_VALUE) && (CY_PSOC3))
1063:Generated_Source\PSoC5/UART_tester.c ****             /* Enable interrupt to continue transmission */
1064:Generated_Source\PSoC5/UART_tester.c ****             UART_tester_EnableTxInt();
1065:Generated_Source\PSoC5/UART_tester.c ****         #endif /* (UART_tester_TX_BUFFER_SIZE > UART_tester_MAX_BYTE_VALUE) && (CY_PSOC3) */
1066:Generated_Source\PSoC5/UART_tester.c ****         }
1067:Generated_Source\PSoC5/UART_tester.c ****         while( (locTxBufferWrite < locTxBufferRead) ? (locTxBufferWrite == (locTxBufferRead - 1u)) 
1068:Generated_Source\PSoC5/UART_tester.c ****                                 ((locTxBufferWrite - locTxBufferRead) ==
1069:Generated_Source\PSoC5/UART_tester.c ****                                 (uint8)(UART_tester_TX_BUFFER_SIZE - 1u)) );
1070:Generated_Source\PSoC5/UART_tester.c **** 
1071:Generated_Source\PSoC5/UART_tester.c ****         if( (locTxBufferRead == locTxBufferWrite) &&
1072:Generated_Source\PSoC5/UART_tester.c ****             ((UART_tester_TXSTATUS_REG & UART_tester_TX_STS_FIFO_FULL) == 0u) )
1073:Generated_Source\PSoC5/UART_tester.c ****         {
1074:Generated_Source\PSoC5/UART_tester.c ****             /* Add directly to the FIFO */
1075:Generated_Source\PSoC5/UART_tester.c ****             UART_tester_TXDATA_REG = txDataByte;
1076:Generated_Source\PSoC5/UART_tester.c ****         }
1077:Generated_Source\PSoC5/UART_tester.c ****         else
1078:Generated_Source\PSoC5/UART_tester.c ****         {
ARM GAS  C:\Users\jens-\AppData\Local\Temp\ccP7oHVf.s 			page 33


1079:Generated_Source\PSoC5/UART_tester.c ****             if(locTxBufferWrite >= UART_tester_TX_BUFFER_SIZE)
1080:Generated_Source\PSoC5/UART_tester.c ****             {
1081:Generated_Source\PSoC5/UART_tester.c ****                 locTxBufferWrite = 0u;
1082:Generated_Source\PSoC5/UART_tester.c ****             }
1083:Generated_Source\PSoC5/UART_tester.c ****             /* Add to the software buffer. */
1084:Generated_Source\PSoC5/UART_tester.c ****             UART_tester_txBuffer[locTxBufferWrite] = txDataByte;
1085:Generated_Source\PSoC5/UART_tester.c ****             locTxBufferWrite++;
1086:Generated_Source\PSoC5/UART_tester.c **** 
1087:Generated_Source\PSoC5/UART_tester.c ****             /* Finally, update the real output pointer */
1088:Generated_Source\PSoC5/UART_tester.c ****         #if ((UART_tester_TX_BUFFER_SIZE > UART_tester_MAX_BYTE_VALUE) && (CY_PSOC3))
1089:Generated_Source\PSoC5/UART_tester.c ****             UART_tester_DisableTxInt();
1090:Generated_Source\PSoC5/UART_tester.c ****         #endif /* (UART_tester_TX_BUFFER_SIZE > UART_tester_MAX_BYTE_VALUE) && (CY_PSOC3) */
1091:Generated_Source\PSoC5/UART_tester.c **** 
1092:Generated_Source\PSoC5/UART_tester.c ****             UART_tester_txBufferWrite = locTxBufferWrite;
1093:Generated_Source\PSoC5/UART_tester.c **** 
1094:Generated_Source\PSoC5/UART_tester.c ****         #if ((UART_tester_TX_BUFFER_SIZE > UART_tester_MAX_BYTE_VALUE) && (CY_PSOC3))
1095:Generated_Source\PSoC5/UART_tester.c ****             UART_tester_EnableTxInt();
1096:Generated_Source\PSoC5/UART_tester.c ****         #endif /* (UART_tester_TX_BUFFER_SIZE > UART_tester_MAX_BYTE_VALUE) && (CY_PSOC3) */
1097:Generated_Source\PSoC5/UART_tester.c **** 
1098:Generated_Source\PSoC5/UART_tester.c ****             if(0u != (UART_tester_TXSTATUS_REG & UART_tester_TX_STS_FIFO_EMPTY))
1099:Generated_Source\PSoC5/UART_tester.c ****             {
1100:Generated_Source\PSoC5/UART_tester.c ****                 /* Trigger TX interrupt to send software buffer */
1101:Generated_Source\PSoC5/UART_tester.c ****                 UART_tester_SetPendingTxInt();
1102:Generated_Source\PSoC5/UART_tester.c ****             }
1103:Generated_Source\PSoC5/UART_tester.c ****         }
1104:Generated_Source\PSoC5/UART_tester.c **** 
1105:Generated_Source\PSoC5/UART_tester.c ****     #else
1106:Generated_Source\PSoC5/UART_tester.c **** 
1107:Generated_Source\PSoC5/UART_tester.c ****         while((UART_tester_TXSTATUS_REG & UART_tester_TX_STS_FIFO_FULL) != 0u)
1108:Generated_Source\PSoC5/UART_tester.c ****         {
1109:Generated_Source\PSoC5/UART_tester.c ****             /* Wait for room in the FIFO */
1110:Generated_Source\PSoC5/UART_tester.c ****         }
 738              		.loc 1 1110 9 discriminator 1 view .LVU139
1107:Generated_Source\PSoC5/UART_tester.c ****         {
 739              		.loc 1 1107 14 discriminator 1 view .LVU140
1107:Generated_Source\PSoC5/UART_tester.c ****         {
 740              		.loc 1 1107 16 is_stmt 0 discriminator 1 view .LVU141
 741 0000 034B     		ldr	r3, .L63
 742 0002 1B78     		ldrb	r3, [r3]	@ zero_extendqisi2
1107:Generated_Source\PSoC5/UART_tester.c ****         {
 743              		.loc 1 1107 14 discriminator 1 view .LVU142
 744 0004 13F0040F 		tst	r3, #4
 745 0008 FAD1     		bne	.L62
1111:Generated_Source\PSoC5/UART_tester.c **** 
1112:Generated_Source\PSoC5/UART_tester.c ****         /* Add directly to the FIFO */
1113:Generated_Source\PSoC5/UART_tester.c ****         UART_tester_TXDATA_REG = txDataByte;
 746              		.loc 1 1113 9 is_stmt 1 view .LVU143
 747              		.loc 1 1113 32 is_stmt 0 view .LVU144
 748 000a 024B     		ldr	r3, .L63+4
 749 000c 1870     		strb	r0, [r3]
1114:Generated_Source\PSoC5/UART_tester.c **** 
1115:Generated_Source\PSoC5/UART_tester.c ****     #endif /* UART_tester_TX_INTERRUPT_ENABLED */
1116:Generated_Source\PSoC5/UART_tester.c ****     }
 750              		.loc 1 1116 5 view .LVU145
 751 000e 7047     		bx	lr
 752              	.L64:
 753              		.align	2
ARM GAS  C:\Users\jens-\AppData\Local\Temp\ccP7oHVf.s 			page 34


 754              	.L63:
 755 0010 6B650040 		.word	1073767787
 756 0014 4B650040 		.word	1073767755
 757              		.cfi_endproc
 758              	.LFE19:
 759              		.size	UART_tester_PutChar, .-UART_tester_PutChar
 760              		.section	.text.UART_tester_PutString,"ax",%progbits
 761              		.align	1
 762              		.global	UART_tester_PutString
 763              		.syntax unified
 764              		.thumb
 765              		.thumb_func
 766              		.fpu softvfp
 767              		.type	UART_tester_PutString, %function
 768              	UART_tester_PutString:
 769              	.LVL32:
 770              	.LFB20:
1117:Generated_Source\PSoC5/UART_tester.c **** 
1118:Generated_Source\PSoC5/UART_tester.c **** 
1119:Generated_Source\PSoC5/UART_tester.c ****     /*******************************************************************************
1120:Generated_Source\PSoC5/UART_tester.c ****     * Function Name: UART_tester_PutString
1121:Generated_Source\PSoC5/UART_tester.c ****     ********************************************************************************
1122:Generated_Source\PSoC5/UART_tester.c ****     *
1123:Generated_Source\PSoC5/UART_tester.c ****     * Summary:
1124:Generated_Source\PSoC5/UART_tester.c ****     *  Sends a NULL terminated string to the TX buffer for transmission.
1125:Generated_Source\PSoC5/UART_tester.c ****     *
1126:Generated_Source\PSoC5/UART_tester.c ****     * Parameters:
1127:Generated_Source\PSoC5/UART_tester.c ****     *  string[]: Pointer to the null terminated string array residing in RAM or ROM
1128:Generated_Source\PSoC5/UART_tester.c ****     *
1129:Generated_Source\PSoC5/UART_tester.c ****     * Return:
1130:Generated_Source\PSoC5/UART_tester.c ****     *  None.
1131:Generated_Source\PSoC5/UART_tester.c ****     *
1132:Generated_Source\PSoC5/UART_tester.c ****     * Global Variables:
1133:Generated_Source\PSoC5/UART_tester.c ****     *  UART_tester_initVar - checked to identify that the component has been
1134:Generated_Source\PSoC5/UART_tester.c ****     *     initialized.
1135:Generated_Source\PSoC5/UART_tester.c ****     *
1136:Generated_Source\PSoC5/UART_tester.c ****     * Reentrant:
1137:Generated_Source\PSoC5/UART_tester.c ****     *  No.
1138:Generated_Source\PSoC5/UART_tester.c ****     *
1139:Generated_Source\PSoC5/UART_tester.c ****     * Theory:
1140:Generated_Source\PSoC5/UART_tester.c ****     *  If there is not enough memory in the TX buffer for the entire string, this
1141:Generated_Source\PSoC5/UART_tester.c ****     *  function blocks until the last character of the string is loaded into the
1142:Generated_Source\PSoC5/UART_tester.c ****     *  TX buffer.
1143:Generated_Source\PSoC5/UART_tester.c ****     *
1144:Generated_Source\PSoC5/UART_tester.c ****     *******************************************************************************/
1145:Generated_Source\PSoC5/UART_tester.c ****     void UART_tester_PutString(const char8 string[]) 
1146:Generated_Source\PSoC5/UART_tester.c ****     {
 771              		.loc 1 1146 5 is_stmt 1 view -0
 772              		.cfi_startproc
 773              		@ args = 0, pretend = 0, frame = 0
 774              		@ frame_needed = 0, uses_anonymous_args = 0
 775              		.loc 1 1146 5 is_stmt 0 view .LVU147
 776 0000 38B5     		push	{r3, r4, r5, lr}
 777              		.cfi_def_cfa_offset 16
 778              		.cfi_offset 3, -16
 779              		.cfi_offset 4, -12
 780              		.cfi_offset 5, -8
ARM GAS  C:\Users\jens-\AppData\Local\Temp\ccP7oHVf.s 			page 35


 781              		.cfi_offset 14, -4
1147:Generated_Source\PSoC5/UART_tester.c ****         uint16 bufIndex = 0u;
 782              		.loc 1 1147 9 is_stmt 1 view .LVU148
 783              	.LVL33:
1148:Generated_Source\PSoC5/UART_tester.c **** 
1149:Generated_Source\PSoC5/UART_tester.c ****         /* If not Initialized then skip this function */
1150:Generated_Source\PSoC5/UART_tester.c ****         if(UART_tester_initVar != 0u)
 784              		.loc 1 1150 9 view .LVU149
 785              		.loc 1 1150 32 is_stmt 0 view .LVU150
 786 0002 074B     		ldr	r3, .L71
 787 0004 1B78     		ldrb	r3, [r3]	@ zero_extendqisi2
 788              		.loc 1 1150 11 view .LVU151
 789 0006 03B9     		cbnz	r3, .L69
 790              	.LVL34:
 791              	.L65:
1151:Generated_Source\PSoC5/UART_tester.c ****         {
1152:Generated_Source\PSoC5/UART_tester.c ****             /* This is a blocking function, it will not exit until all data is sent */
1153:Generated_Source\PSoC5/UART_tester.c ****             while(string[bufIndex] != (char8) 0)
1154:Generated_Source\PSoC5/UART_tester.c ****             {
1155:Generated_Source\PSoC5/UART_tester.c ****                 UART_tester_PutChar((uint8)string[bufIndex]);
1156:Generated_Source\PSoC5/UART_tester.c ****                 bufIndex++;
1157:Generated_Source\PSoC5/UART_tester.c ****             }
1158:Generated_Source\PSoC5/UART_tester.c ****         }
1159:Generated_Source\PSoC5/UART_tester.c ****     }
 792              		.loc 1 1159 5 view .LVU152
 793 0008 38BD     		pop	{r3, r4, r5, pc}
 794              	.LVL35:
 795              	.L69:
 796              		.loc 1 1159 5 view .LVU153
 797 000a 0546     		mov	r5, r0
1147:Generated_Source\PSoC5/UART_tester.c **** 
 798              		.loc 1 1147 16 view .LVU154
 799 000c 0024     		movs	r4, #0
 800              	.LVL36:
 801              	.L66:
1153:Generated_Source\PSoC5/UART_tester.c ****             {
 802              		.loc 1 1153 18 is_stmt 1 view .LVU155
1153:Generated_Source\PSoC5/UART_tester.c ****             {
 803              		.loc 1 1153 25 is_stmt 0 view .LVU156
 804 000e 285D     		ldrb	r0, [r5, r4]	@ zero_extendqisi2
1153:Generated_Source\PSoC5/UART_tester.c ****             {
 805              		.loc 1 1153 18 view .LVU157
 806 0010 0028     		cmp	r0, #0
 807 0012 F9D0     		beq	.L65
1155:Generated_Source\PSoC5/UART_tester.c ****                 bufIndex++;
 808              		.loc 1 1155 17 is_stmt 1 view .LVU158
 809 0014 FFF7FEFF 		bl	UART_tester_PutChar
 810              	.LVL37:
1156:Generated_Source\PSoC5/UART_tester.c ****             }
 811              		.loc 1 1156 17 view .LVU159
1156:Generated_Source\PSoC5/UART_tester.c ****             }
 812              		.loc 1 1156 25 is_stmt 0 view .LVU160
 813 0018 0134     		adds	r4, r4, #1
 814              	.LVL38:
1156:Generated_Source\PSoC5/UART_tester.c ****             }
 815              		.loc 1 1156 25 view .LVU161
 816 001a A4B2     		uxth	r4, r4
ARM GAS  C:\Users\jens-\AppData\Local\Temp\ccP7oHVf.s 			page 36


 817              	.LVL39:
1156:Generated_Source\PSoC5/UART_tester.c ****             }
 818              		.loc 1 1156 25 view .LVU162
 819 001c F7E7     		b	.L66
 820              	.L72:
 821 001e 00BF     		.align	2
 822              	.L71:
 823 0020 00000000 		.word	.LANCHOR0
 824              		.cfi_endproc
 825              	.LFE20:
 826              		.size	UART_tester_PutString, .-UART_tester_PutString
 827              		.section	.text.UART_tester_PutArray,"ax",%progbits
 828              		.align	1
 829              		.global	UART_tester_PutArray
 830              		.syntax unified
 831              		.thumb
 832              		.thumb_func
 833              		.fpu softvfp
 834              		.type	UART_tester_PutArray, %function
 835              	UART_tester_PutArray:
 836              	.LVL40:
 837              	.LFB21:
1160:Generated_Source\PSoC5/UART_tester.c **** 
1161:Generated_Source\PSoC5/UART_tester.c **** 
1162:Generated_Source\PSoC5/UART_tester.c ****     /*******************************************************************************
1163:Generated_Source\PSoC5/UART_tester.c ****     * Function Name: UART_tester_PutArray
1164:Generated_Source\PSoC5/UART_tester.c ****     ********************************************************************************
1165:Generated_Source\PSoC5/UART_tester.c ****     *
1166:Generated_Source\PSoC5/UART_tester.c ****     * Summary:
1167:Generated_Source\PSoC5/UART_tester.c ****     *  Places N bytes of data from a memory array into the TX buffer for
1168:Generated_Source\PSoC5/UART_tester.c ****     *  transmission.
1169:Generated_Source\PSoC5/UART_tester.c ****     *
1170:Generated_Source\PSoC5/UART_tester.c ****     * Parameters:
1171:Generated_Source\PSoC5/UART_tester.c ****     *  string[]: Address of the memory array residing in RAM or ROM.
1172:Generated_Source\PSoC5/UART_tester.c ****     *  byteCount: Number of bytes to be transmitted. The type depends on TX Buffer
1173:Generated_Source\PSoC5/UART_tester.c ****     *             Size parameter.
1174:Generated_Source\PSoC5/UART_tester.c ****     *
1175:Generated_Source\PSoC5/UART_tester.c ****     * Return:
1176:Generated_Source\PSoC5/UART_tester.c ****     *  None.
1177:Generated_Source\PSoC5/UART_tester.c ****     *
1178:Generated_Source\PSoC5/UART_tester.c ****     * Global Variables:
1179:Generated_Source\PSoC5/UART_tester.c ****     *  UART_tester_initVar - checked to identify that the component has been
1180:Generated_Source\PSoC5/UART_tester.c ****     *     initialized.
1181:Generated_Source\PSoC5/UART_tester.c ****     *
1182:Generated_Source\PSoC5/UART_tester.c ****     * Reentrant:
1183:Generated_Source\PSoC5/UART_tester.c ****     *  No.
1184:Generated_Source\PSoC5/UART_tester.c ****     *
1185:Generated_Source\PSoC5/UART_tester.c ****     * Theory:
1186:Generated_Source\PSoC5/UART_tester.c ****     *  If there is not enough memory in the TX buffer for the entire string, this
1187:Generated_Source\PSoC5/UART_tester.c ****     *  function blocks until the last character of the string is loaded into the
1188:Generated_Source\PSoC5/UART_tester.c ****     *  TX buffer.
1189:Generated_Source\PSoC5/UART_tester.c ****     *
1190:Generated_Source\PSoC5/UART_tester.c ****     *******************************************************************************/
1191:Generated_Source\PSoC5/UART_tester.c ****     void UART_tester_PutArray(const uint8 string[], uint8 byteCount)
1192:Generated_Source\PSoC5/UART_tester.c ****                                                                     
1193:Generated_Source\PSoC5/UART_tester.c ****     {
 838              		.loc 1 1193 5 is_stmt 1 view -0
ARM GAS  C:\Users\jens-\AppData\Local\Temp\ccP7oHVf.s 			page 37


 839              		.cfi_startproc
 840              		@ args = 0, pretend = 0, frame = 0
 841              		@ frame_needed = 0, uses_anonymous_args = 0
1194:Generated_Source\PSoC5/UART_tester.c ****         uint8 bufIndex = 0u;
 842              		.loc 1 1194 9 view .LVU164
1195:Generated_Source\PSoC5/UART_tester.c **** 
1196:Generated_Source\PSoC5/UART_tester.c ****         /* If not Initialized then skip this function */
1197:Generated_Source\PSoC5/UART_tester.c ****         if(UART_tester_initVar != 0u)
 843              		.loc 1 1197 9 view .LVU165
 844              		.loc 1 1197 32 is_stmt 0 view .LVU166
 845 0000 084B     		ldr	r3, .L82
 846 0002 1B78     		ldrb	r3, [r3]	@ zero_extendqisi2
 847              		.loc 1 1197 11 view .LVU167
 848 0004 03B9     		cbnz	r3, .L77
 849 0006 7047     		bx	lr
 850              	.L77:
1193:Generated_Source\PSoC5/UART_tester.c ****         uint8 bufIndex = 0u;
 851              		.loc 1 1193 5 view .LVU168
 852 0008 70B5     		push	{r4, r5, r6, lr}
 853              		.cfi_def_cfa_offset 16
 854              		.cfi_offset 4, -16
 855              		.cfi_offset 5, -12
 856              		.cfi_offset 6, -8
 857              		.cfi_offset 14, -4
 858 000a 0646     		mov	r6, r0
 859 000c 0D46     		mov	r5, r1
1194:Generated_Source\PSoC5/UART_tester.c ****         uint8 bufIndex = 0u;
 860              		.loc 1 1194 15 view .LVU169
 861 000e 0024     		movs	r4, #0
 862              	.LVL41:
 863              	.L74:
1198:Generated_Source\PSoC5/UART_tester.c ****         {
1199:Generated_Source\PSoC5/UART_tester.c ****             while(bufIndex < byteCount)
 864              		.loc 1 1199 18 is_stmt 1 view .LVU170
 865 0010 AC42     		cmp	r4, r5
 866 0012 05D2     		bcs	.L81
1200:Generated_Source\PSoC5/UART_tester.c ****             {
1201:Generated_Source\PSoC5/UART_tester.c ****                 UART_tester_PutChar(string[bufIndex]);
 867              		.loc 1 1201 17 view .LVU171
 868 0014 305D     		ldrb	r0, [r6, r4]	@ zero_extendqisi2
 869 0016 FFF7FEFF 		bl	UART_tester_PutChar
 870              	.LVL42:
1202:Generated_Source\PSoC5/UART_tester.c ****                 bufIndex++;
 871              		.loc 1 1202 17 view .LVU172
 872              		.loc 1 1202 25 is_stmt 0 view .LVU173
 873 001a 0134     		adds	r4, r4, #1
 874              	.LVL43:
 875              		.loc 1 1202 25 view .LVU174
 876 001c E4B2     		uxtb	r4, r4
 877              	.LVL44:
 878              		.loc 1 1202 25 view .LVU175
 879 001e F7E7     		b	.L74
 880              	.L81:
1203:Generated_Source\PSoC5/UART_tester.c ****             }
1204:Generated_Source\PSoC5/UART_tester.c ****         }
1205:Generated_Source\PSoC5/UART_tester.c ****     }
 881              		.loc 1 1205 5 view .LVU176
ARM GAS  C:\Users\jens-\AppData\Local\Temp\ccP7oHVf.s 			page 38


 882 0020 70BD     		pop	{r4, r5, r6, pc}
 883              	.LVL45:
 884              	.L83:
 885              		.loc 1 1205 5 view .LVU177
 886 0022 00BF     		.align	2
 887              	.L82:
 888 0024 00000000 		.word	.LANCHOR0
 889              		.cfi_endproc
 890              	.LFE21:
 891              		.size	UART_tester_PutArray, .-UART_tester_PutArray
 892              		.section	.text.UART_tester_PutCRLF,"ax",%progbits
 893              		.align	1
 894              		.global	UART_tester_PutCRLF
 895              		.syntax unified
 896              		.thumb
 897              		.thumb_func
 898              		.fpu softvfp
 899              		.type	UART_tester_PutCRLF, %function
 900              	UART_tester_PutCRLF:
 901              	.LVL46:
 902              	.LFB22:
1206:Generated_Source\PSoC5/UART_tester.c **** 
1207:Generated_Source\PSoC5/UART_tester.c **** 
1208:Generated_Source\PSoC5/UART_tester.c ****     /*******************************************************************************
1209:Generated_Source\PSoC5/UART_tester.c ****     * Function Name: UART_tester_PutCRLF
1210:Generated_Source\PSoC5/UART_tester.c ****     ********************************************************************************
1211:Generated_Source\PSoC5/UART_tester.c ****     *
1212:Generated_Source\PSoC5/UART_tester.c ****     * Summary:
1213:Generated_Source\PSoC5/UART_tester.c ****     *  Writes a byte of data followed by a carriage return (0x0D) and line feed
1214:Generated_Source\PSoC5/UART_tester.c ****     *  (0x0A) to the transmit buffer.
1215:Generated_Source\PSoC5/UART_tester.c ****     *
1216:Generated_Source\PSoC5/UART_tester.c ****     * Parameters:
1217:Generated_Source\PSoC5/UART_tester.c ****     *  txDataByte: Data byte to transmit before the carriage return and line feed.
1218:Generated_Source\PSoC5/UART_tester.c ****     *
1219:Generated_Source\PSoC5/UART_tester.c ****     * Return:
1220:Generated_Source\PSoC5/UART_tester.c ****     *  None.
1221:Generated_Source\PSoC5/UART_tester.c ****     *
1222:Generated_Source\PSoC5/UART_tester.c ****     * Global Variables:
1223:Generated_Source\PSoC5/UART_tester.c ****     *  UART_tester_initVar - checked to identify that the component has been
1224:Generated_Source\PSoC5/UART_tester.c ****     *     initialized.
1225:Generated_Source\PSoC5/UART_tester.c ****     *
1226:Generated_Source\PSoC5/UART_tester.c ****     * Reentrant:
1227:Generated_Source\PSoC5/UART_tester.c ****     *  No.
1228:Generated_Source\PSoC5/UART_tester.c ****     *
1229:Generated_Source\PSoC5/UART_tester.c ****     *******************************************************************************/
1230:Generated_Source\PSoC5/UART_tester.c ****     void UART_tester_PutCRLF(uint8 txDataByte) 
1231:Generated_Source\PSoC5/UART_tester.c ****     {
 903              		.loc 1 1231 5 is_stmt 1 view -0
 904              		.cfi_startproc
 905              		@ args = 0, pretend = 0, frame = 0
 906              		@ frame_needed = 0, uses_anonymous_args = 0
 907              		.loc 1 1231 5 is_stmt 0 view .LVU179
 908 0000 08B5     		push	{r3, lr}
 909              		.cfi_def_cfa_offset 8
 910              		.cfi_offset 3, -8
 911              		.cfi_offset 14, -4
1232:Generated_Source\PSoC5/UART_tester.c ****         /* If not Initialized then skip this function */
ARM GAS  C:\Users\jens-\AppData\Local\Temp\ccP7oHVf.s 			page 39


1233:Generated_Source\PSoC5/UART_tester.c ****         if(UART_tester_initVar != 0u)
 912              		.loc 1 1233 9 is_stmt 1 view .LVU180
 913              		.loc 1 1233 32 is_stmt 0 view .LVU181
 914 0002 064B     		ldr	r3, .L88
 915 0004 1B78     		ldrb	r3, [r3]	@ zero_extendqisi2
 916              		.loc 1 1233 11 view .LVU182
 917 0006 03B9     		cbnz	r3, .L87
 918              	.LVL47:
 919              	.L84:
1234:Generated_Source\PSoC5/UART_tester.c ****         {
1235:Generated_Source\PSoC5/UART_tester.c ****             UART_tester_PutChar(txDataByte);
1236:Generated_Source\PSoC5/UART_tester.c ****             UART_tester_PutChar(0x0Du);
1237:Generated_Source\PSoC5/UART_tester.c ****             UART_tester_PutChar(0x0Au);
1238:Generated_Source\PSoC5/UART_tester.c ****         }
1239:Generated_Source\PSoC5/UART_tester.c ****     }
 920              		.loc 1 1239 5 view .LVU183
 921 0008 08BD     		pop	{r3, pc}
 922              	.LVL48:
 923              	.L87:
1235:Generated_Source\PSoC5/UART_tester.c ****             UART_tester_PutChar(0x0Du);
 924              		.loc 1 1235 13 is_stmt 1 view .LVU184
 925 000a FFF7FEFF 		bl	UART_tester_PutChar
 926              	.LVL49:
1236:Generated_Source\PSoC5/UART_tester.c ****             UART_tester_PutChar(0x0Au);
 927              		.loc 1 1236 13 view .LVU185
 928 000e 0D20     		movs	r0, #13
 929 0010 FFF7FEFF 		bl	UART_tester_PutChar
 930              	.LVL50:
1237:Generated_Source\PSoC5/UART_tester.c ****         }
 931              		.loc 1 1237 13 view .LVU186
 932 0014 0A20     		movs	r0, #10
 933 0016 FFF7FEFF 		bl	UART_tester_PutChar
 934              	.LVL51:
 935              		.loc 1 1239 5 is_stmt 0 view .LVU187
 936 001a F5E7     		b	.L84
 937              	.L89:
 938              		.align	2
 939              	.L88:
 940 001c 00000000 		.word	.LANCHOR0
 941              		.cfi_endproc
 942              	.LFE22:
 943              		.size	UART_tester_PutCRLF, .-UART_tester_PutCRLF
 944              		.section	.text.UART_tester_GetTxBufferSize,"ax",%progbits
 945              		.align	1
 946              		.global	UART_tester_GetTxBufferSize
 947              		.syntax unified
 948              		.thumb
 949              		.thumb_func
 950              		.fpu softvfp
 951              		.type	UART_tester_GetTxBufferSize, %function
 952              	UART_tester_GetTxBufferSize:
 953              	.LFB23:
1240:Generated_Source\PSoC5/UART_tester.c **** 
1241:Generated_Source\PSoC5/UART_tester.c **** 
1242:Generated_Source\PSoC5/UART_tester.c ****     /*******************************************************************************
1243:Generated_Source\PSoC5/UART_tester.c ****     * Function Name: UART_tester_GetTxBufferSize
1244:Generated_Source\PSoC5/UART_tester.c ****     ********************************************************************************
ARM GAS  C:\Users\jens-\AppData\Local\Temp\ccP7oHVf.s 			page 40


1245:Generated_Source\PSoC5/UART_tester.c ****     *
1246:Generated_Source\PSoC5/UART_tester.c ****     * Summary:
1247:Generated_Source\PSoC5/UART_tester.c ****     *  Returns the number of bytes in the TX buffer which are waiting to be 
1248:Generated_Source\PSoC5/UART_tester.c ****     *  transmitted.
1249:Generated_Source\PSoC5/UART_tester.c ****     *  * TX software buffer is disabled (TX Buffer Size parameter is equal to 4): 
1250:Generated_Source\PSoC5/UART_tester.c ****     *    returns 0 for empty TX FIFO, 1 for not full TX FIFO or 4 for full TX FIFO.
1251:Generated_Source\PSoC5/UART_tester.c ****     *  * TX software buffer is enabled: returns the number of bytes in the TX 
1252:Generated_Source\PSoC5/UART_tester.c ****     *    software buffer which are waiting to be transmitted. Bytes available in the
1253:Generated_Source\PSoC5/UART_tester.c ****     *    TX FIFO do not count.
1254:Generated_Source\PSoC5/UART_tester.c ****     *
1255:Generated_Source\PSoC5/UART_tester.c ****     * Parameters:
1256:Generated_Source\PSoC5/UART_tester.c ****     *  None.
1257:Generated_Source\PSoC5/UART_tester.c ****     *
1258:Generated_Source\PSoC5/UART_tester.c ****     * Return:
1259:Generated_Source\PSoC5/UART_tester.c ****     *  Number of bytes used in the TX buffer. Return value type depends on the TX 
1260:Generated_Source\PSoC5/UART_tester.c ****     *  Buffer Size parameter.
1261:Generated_Source\PSoC5/UART_tester.c ****     *
1262:Generated_Source\PSoC5/UART_tester.c ****     * Global Variables:
1263:Generated_Source\PSoC5/UART_tester.c ****     *  UART_tester_txBufferWrite - used to calculate left space.
1264:Generated_Source\PSoC5/UART_tester.c ****     *  UART_tester_txBufferRead - used to calculate left space.
1265:Generated_Source\PSoC5/UART_tester.c ****     *
1266:Generated_Source\PSoC5/UART_tester.c ****     * Reentrant:
1267:Generated_Source\PSoC5/UART_tester.c ****     *  No.
1268:Generated_Source\PSoC5/UART_tester.c ****     *
1269:Generated_Source\PSoC5/UART_tester.c ****     * Theory:
1270:Generated_Source\PSoC5/UART_tester.c ****     *  Allows the user to find out how full the TX Buffer is.
1271:Generated_Source\PSoC5/UART_tester.c ****     *
1272:Generated_Source\PSoC5/UART_tester.c ****     *******************************************************************************/
1273:Generated_Source\PSoC5/UART_tester.c ****     uint8 UART_tester_GetTxBufferSize(void)
1274:Generated_Source\PSoC5/UART_tester.c ****                                                             
1275:Generated_Source\PSoC5/UART_tester.c ****     {
 954              		.loc 1 1275 5 is_stmt 1 view -0
 955              		.cfi_startproc
 956              		@ args = 0, pretend = 0, frame = 0
 957              		@ frame_needed = 0, uses_anonymous_args = 0
 958              		@ link register save eliminated.
1276:Generated_Source\PSoC5/UART_tester.c ****         uint8 size;
 959              		.loc 1 1276 9 view .LVU189
1277:Generated_Source\PSoC5/UART_tester.c **** 
1278:Generated_Source\PSoC5/UART_tester.c ****     #if (UART_tester_TX_INTERRUPT_ENABLED)
1279:Generated_Source\PSoC5/UART_tester.c **** 
1280:Generated_Source\PSoC5/UART_tester.c ****         /* Protect variables that could change on interrupt. */
1281:Generated_Source\PSoC5/UART_tester.c ****         UART_tester_DisableTxInt();
1282:Generated_Source\PSoC5/UART_tester.c **** 
1283:Generated_Source\PSoC5/UART_tester.c ****         if(UART_tester_txBufferRead == UART_tester_txBufferWrite)
1284:Generated_Source\PSoC5/UART_tester.c ****         {
1285:Generated_Source\PSoC5/UART_tester.c ****             size = 0u;
1286:Generated_Source\PSoC5/UART_tester.c ****         }
1287:Generated_Source\PSoC5/UART_tester.c ****         else if(UART_tester_txBufferRead < UART_tester_txBufferWrite)
1288:Generated_Source\PSoC5/UART_tester.c ****         {
1289:Generated_Source\PSoC5/UART_tester.c ****             size = (UART_tester_txBufferWrite - UART_tester_txBufferRead);
1290:Generated_Source\PSoC5/UART_tester.c ****         }
1291:Generated_Source\PSoC5/UART_tester.c ****         else
1292:Generated_Source\PSoC5/UART_tester.c ****         {
1293:Generated_Source\PSoC5/UART_tester.c ****             size = (UART_tester_TX_BUFFER_SIZE - UART_tester_txBufferRead) +
1294:Generated_Source\PSoC5/UART_tester.c ****                     UART_tester_txBufferWrite;
1295:Generated_Source\PSoC5/UART_tester.c ****         }
ARM GAS  C:\Users\jens-\AppData\Local\Temp\ccP7oHVf.s 			page 41


1296:Generated_Source\PSoC5/UART_tester.c **** 
1297:Generated_Source\PSoC5/UART_tester.c ****         UART_tester_EnableTxInt();
1298:Generated_Source\PSoC5/UART_tester.c **** 
1299:Generated_Source\PSoC5/UART_tester.c ****     #else
1300:Generated_Source\PSoC5/UART_tester.c **** 
1301:Generated_Source\PSoC5/UART_tester.c ****         size = UART_tester_TXSTATUS_REG;
 960              		.loc 1 1301 9 view .LVU190
 961              		.loc 1 1301 14 is_stmt 0 view .LVU191
 962 0000 064B     		ldr	r3, .L94
 963 0002 1878     		ldrb	r0, [r3]	@ zero_extendqisi2
 964 0004 C3B2     		uxtb	r3, r0
 965              	.LVL52:
1302:Generated_Source\PSoC5/UART_tester.c **** 
1303:Generated_Source\PSoC5/UART_tester.c ****         /* Is the fifo is full. */
1304:Generated_Source\PSoC5/UART_tester.c ****         if((size & UART_tester_TX_STS_FIFO_FULL) != 0u)
 966              		.loc 1 1304 9 is_stmt 1 view .LVU192
 967              		.loc 1 1304 11 is_stmt 0 view .LVU193
 968 0006 10F00400 		ands	r0, r0, #4
 969 000a 03D1     		bne	.L92
1305:Generated_Source\PSoC5/UART_tester.c ****         {
1306:Generated_Source\PSoC5/UART_tester.c ****             size = UART_tester_FIFO_LENGTH;
1307:Generated_Source\PSoC5/UART_tester.c ****         }
1308:Generated_Source\PSoC5/UART_tester.c ****         else if((size & UART_tester_TX_STS_FIFO_EMPTY) != 0u)
 970              		.loc 1 1308 14 is_stmt 1 view .LVU194
 971              		.loc 1 1308 16 is_stmt 0 view .LVU195
 972 000c 13F0020F 		tst	r3, #2
 973 0010 02D0     		beq	.L93
 974 0012 7047     		bx	lr
 975              	.L92:
1306:Generated_Source\PSoC5/UART_tester.c ****         }
 976              		.loc 1 1306 18 view .LVU196
 977 0014 0420     		movs	r0, #4
 978 0016 7047     		bx	lr
 979              	.L93:
1309:Generated_Source\PSoC5/UART_tester.c ****         {
1310:Generated_Source\PSoC5/UART_tester.c ****             size = 0u;
1311:Generated_Source\PSoC5/UART_tester.c ****         }
1312:Generated_Source\PSoC5/UART_tester.c ****         else
1313:Generated_Source\PSoC5/UART_tester.c ****         {
1314:Generated_Source\PSoC5/UART_tester.c ****             /* We only know there is data in the fifo. */
1315:Generated_Source\PSoC5/UART_tester.c ****             size = 1u;
 980              		.loc 1 1315 18 view .LVU197
 981 0018 0120     		movs	r0, #1
 982              	.LVL53:
1316:Generated_Source\PSoC5/UART_tester.c ****         }
1317:Generated_Source\PSoC5/UART_tester.c **** 
1318:Generated_Source\PSoC5/UART_tester.c ****     #endif /* (UART_tester_TX_INTERRUPT_ENABLED) */
1319:Generated_Source\PSoC5/UART_tester.c **** 
1320:Generated_Source\PSoC5/UART_tester.c ****     return(size);
 983              		.loc 1 1320 5 is_stmt 1 view .LVU198
1321:Generated_Source\PSoC5/UART_tester.c ****     }
 984              		.loc 1 1321 5 is_stmt 0 view .LVU199
 985 001a 7047     		bx	lr
 986              	.L95:
 987              		.align	2
 988              	.L94:
 989 001c 6B650040 		.word	1073767787
ARM GAS  C:\Users\jens-\AppData\Local\Temp\ccP7oHVf.s 			page 42


 990              		.cfi_endproc
 991              	.LFE23:
 992              		.size	UART_tester_GetTxBufferSize, .-UART_tester_GetTxBufferSize
 993              		.section	.text.UART_tester_ClearTxBuffer,"ax",%progbits
 994              		.align	1
 995              		.global	UART_tester_ClearTxBuffer
 996              		.syntax unified
 997              		.thumb
 998              		.thumb_func
 999              		.fpu softvfp
 1000              		.type	UART_tester_ClearTxBuffer, %function
 1001              	UART_tester_ClearTxBuffer:
 1002              	.LFB24:
1322:Generated_Source\PSoC5/UART_tester.c **** 
1323:Generated_Source\PSoC5/UART_tester.c **** 
1324:Generated_Source\PSoC5/UART_tester.c ****     /*******************************************************************************
1325:Generated_Source\PSoC5/UART_tester.c ****     * Function Name: UART_tester_ClearTxBuffer
1326:Generated_Source\PSoC5/UART_tester.c ****     ********************************************************************************
1327:Generated_Source\PSoC5/UART_tester.c ****     *
1328:Generated_Source\PSoC5/UART_tester.c ****     * Summary:
1329:Generated_Source\PSoC5/UART_tester.c ****     *  Clears all data from the TX buffer and hardware TX FIFO.
1330:Generated_Source\PSoC5/UART_tester.c ****     *
1331:Generated_Source\PSoC5/UART_tester.c ****     * Parameters:
1332:Generated_Source\PSoC5/UART_tester.c ****     *  None.
1333:Generated_Source\PSoC5/UART_tester.c ****     *
1334:Generated_Source\PSoC5/UART_tester.c ****     * Return:
1335:Generated_Source\PSoC5/UART_tester.c ****     *  None.
1336:Generated_Source\PSoC5/UART_tester.c ****     *
1337:Generated_Source\PSoC5/UART_tester.c ****     * Global Variables:
1338:Generated_Source\PSoC5/UART_tester.c ****     *  UART_tester_txBufferWrite - cleared to zero.
1339:Generated_Source\PSoC5/UART_tester.c ****     *  UART_tester_txBufferRead - cleared to zero.
1340:Generated_Source\PSoC5/UART_tester.c ****     *
1341:Generated_Source\PSoC5/UART_tester.c ****     * Reentrant:
1342:Generated_Source\PSoC5/UART_tester.c ****     *  No.
1343:Generated_Source\PSoC5/UART_tester.c ****     *
1344:Generated_Source\PSoC5/UART_tester.c ****     * Theory:
1345:Generated_Source\PSoC5/UART_tester.c ****     *  Setting the pointers to zero makes the system believe there is no data to
1346:Generated_Source\PSoC5/UART_tester.c ****     *  read and writing will resume at address 0 overwriting any data that may have
1347:Generated_Source\PSoC5/UART_tester.c ****     *  remained in the RAM.
1348:Generated_Source\PSoC5/UART_tester.c ****     *
1349:Generated_Source\PSoC5/UART_tester.c ****     * Side Effects:
1350:Generated_Source\PSoC5/UART_tester.c ****     *  Data waiting in the transmit buffer is not sent; a byte that is currently
1351:Generated_Source\PSoC5/UART_tester.c ****     *  transmitting finishes transmitting.
1352:Generated_Source\PSoC5/UART_tester.c ****     *
1353:Generated_Source\PSoC5/UART_tester.c ****     *******************************************************************************/
1354:Generated_Source\PSoC5/UART_tester.c ****     void UART_tester_ClearTxBuffer(void) 
1355:Generated_Source\PSoC5/UART_tester.c ****     {
 1003              		.loc 1 1355 5 is_stmt 1 view -0
 1004              		.cfi_startproc
 1005              		@ args = 0, pretend = 0, frame = 0
 1006              		@ frame_needed = 0, uses_anonymous_args = 0
 1007 0000 08B5     		push	{r3, lr}
 1008              		.cfi_def_cfa_offset 8
 1009              		.cfi_offset 3, -8
 1010              		.cfi_offset 14, -4
1356:Generated_Source\PSoC5/UART_tester.c ****         uint8 enableInterrupts;
 1011              		.loc 1 1356 9 view .LVU201
ARM GAS  C:\Users\jens-\AppData\Local\Temp\ccP7oHVf.s 			page 43


1357:Generated_Source\PSoC5/UART_tester.c **** 
1358:Generated_Source\PSoC5/UART_tester.c ****         enableInterrupts = CyEnterCriticalSection();
 1012              		.loc 1 1358 9 view .LVU202
 1013              		.loc 1 1358 28 is_stmt 0 view .LVU203
 1014 0002 FFF7FEFF 		bl	CyEnterCriticalSection
 1015              	.LVL54:
1359:Generated_Source\PSoC5/UART_tester.c ****         /* Clear the HW FIFO */
1360:Generated_Source\PSoC5/UART_tester.c ****         UART_tester_TXDATA_AUX_CTL_REG |= (uint8)  UART_tester_TX_FIFO_CLR;
 1016              		.loc 1 1360 9 is_stmt 1 view .LVU204
 1017              		.loc 1 1360 40 is_stmt 0 view .LVU205
 1018 0006 064B     		ldr	r3, .L98
 1019 0008 1A78     		ldrb	r2, [r3]	@ zero_extendqisi2
 1020 000a 42F00102 		orr	r2, r2, #1
 1021 000e 1A70     		strb	r2, [r3]
1361:Generated_Source\PSoC5/UART_tester.c ****         UART_tester_TXDATA_AUX_CTL_REG &= (uint8) ~UART_tester_TX_FIFO_CLR;
 1022              		.loc 1 1361 9 is_stmt 1 view .LVU206
 1023              		.loc 1 1361 40 is_stmt 0 view .LVU207
 1024 0010 1A78     		ldrb	r2, [r3]	@ zero_extendqisi2
 1025 0012 02F0FE02 		and	r2, r2, #254
 1026 0016 1A70     		strb	r2, [r3]
1362:Generated_Source\PSoC5/UART_tester.c ****         CyExitCriticalSection(enableInterrupts);
 1027              		.loc 1 1362 9 is_stmt 1 view .LVU208
 1028 0018 FFF7FEFF 		bl	CyExitCriticalSection
 1029              	.LVL55:
1363:Generated_Source\PSoC5/UART_tester.c **** 
1364:Generated_Source\PSoC5/UART_tester.c ****     #if (UART_tester_TX_INTERRUPT_ENABLED)
1365:Generated_Source\PSoC5/UART_tester.c **** 
1366:Generated_Source\PSoC5/UART_tester.c ****         /* Protect variables that could change on interrupt. */
1367:Generated_Source\PSoC5/UART_tester.c ****         UART_tester_DisableTxInt();
1368:Generated_Source\PSoC5/UART_tester.c **** 
1369:Generated_Source\PSoC5/UART_tester.c ****         UART_tester_txBufferRead = 0u;
1370:Generated_Source\PSoC5/UART_tester.c ****         UART_tester_txBufferWrite = 0u;
1371:Generated_Source\PSoC5/UART_tester.c **** 
1372:Generated_Source\PSoC5/UART_tester.c ****         /* Enable Tx interrupt. */
1373:Generated_Source\PSoC5/UART_tester.c ****         UART_tester_EnableTxInt();
1374:Generated_Source\PSoC5/UART_tester.c **** 
1375:Generated_Source\PSoC5/UART_tester.c ****     #endif /* (UART_tester_TX_INTERRUPT_ENABLED) */
1376:Generated_Source\PSoC5/UART_tester.c ****     }
 1030              		.loc 1 1376 5 is_stmt 0 view .LVU209
 1031 001c 08BD     		pop	{r3, pc}
 1032              	.L99:
 1033 001e 00BF     		.align	2
 1034              	.L98:
 1035 0020 9B650040 		.word	1073767835
 1036              		.cfi_endproc
 1037              	.LFE24:
 1038              		.size	UART_tester_ClearTxBuffer, .-UART_tester_ClearTxBuffer
 1039              		.section	.text.UART_tester_SendBreak,"ax",%progbits
 1040              		.align	1
 1041              		.global	UART_tester_SendBreak
 1042              		.syntax unified
 1043              		.thumb
 1044              		.thumb_func
 1045              		.fpu softvfp
 1046              		.type	UART_tester_SendBreak, %function
 1047              	UART_tester_SendBreak:
 1048              	.LVL56:
ARM GAS  C:\Users\jens-\AppData\Local\Temp\ccP7oHVf.s 			page 44


 1049              	.LFB25:
1377:Generated_Source\PSoC5/UART_tester.c **** 
1378:Generated_Source\PSoC5/UART_tester.c **** 
1379:Generated_Source\PSoC5/UART_tester.c ****     /*******************************************************************************
1380:Generated_Source\PSoC5/UART_tester.c ****     * Function Name: UART_tester_SendBreak
1381:Generated_Source\PSoC5/UART_tester.c ****     ********************************************************************************
1382:Generated_Source\PSoC5/UART_tester.c ****     *
1383:Generated_Source\PSoC5/UART_tester.c ****     * Summary:
1384:Generated_Source\PSoC5/UART_tester.c ****     *  Transmits a break signal on the bus.
1385:Generated_Source\PSoC5/UART_tester.c ****     *
1386:Generated_Source\PSoC5/UART_tester.c ****     * Parameters:
1387:Generated_Source\PSoC5/UART_tester.c ****     *  uint8 retMode:  Send Break return mode. See the following table for options.
1388:Generated_Source\PSoC5/UART_tester.c ****     *   UART_tester_SEND_BREAK - Initialize registers for break, send the Break
1389:Generated_Source\PSoC5/UART_tester.c ****     *       signal and return immediately.
1390:Generated_Source\PSoC5/UART_tester.c ****     *   UART_tester_WAIT_FOR_COMPLETE_REINIT - Wait until break transmission is
1391:Generated_Source\PSoC5/UART_tester.c ****     *       complete, reinitialize registers to normal transmission mode then return
1392:Generated_Source\PSoC5/UART_tester.c ****     *   UART_tester_REINIT - Reinitialize registers to normal transmission mode
1393:Generated_Source\PSoC5/UART_tester.c ****     *       then return.
1394:Generated_Source\PSoC5/UART_tester.c ****     *   UART_tester_SEND_WAIT_REINIT - Performs both options: 
1395:Generated_Source\PSoC5/UART_tester.c ****     *      UART_tester_SEND_BREAK and UART_tester_WAIT_FOR_COMPLETE_REINIT.
1396:Generated_Source\PSoC5/UART_tester.c ****     *      This option is recommended for most cases.
1397:Generated_Source\PSoC5/UART_tester.c ****     *
1398:Generated_Source\PSoC5/UART_tester.c ****     * Return:
1399:Generated_Source\PSoC5/UART_tester.c ****     *  None.
1400:Generated_Source\PSoC5/UART_tester.c ****     *
1401:Generated_Source\PSoC5/UART_tester.c ****     * Global Variables:
1402:Generated_Source\PSoC5/UART_tester.c ****     *  UART_tester_initVar - checked to identify that the component has been
1403:Generated_Source\PSoC5/UART_tester.c ****     *     initialized.
1404:Generated_Source\PSoC5/UART_tester.c ****     *  txPeriod - static variable, used for keeping TX period configuration.
1405:Generated_Source\PSoC5/UART_tester.c ****     *
1406:Generated_Source\PSoC5/UART_tester.c ****     * Reentrant:
1407:Generated_Source\PSoC5/UART_tester.c ****     *  No.
1408:Generated_Source\PSoC5/UART_tester.c ****     *
1409:Generated_Source\PSoC5/UART_tester.c ****     * Theory:
1410:Generated_Source\PSoC5/UART_tester.c ****     *  SendBreak function initializes registers to send 13-bit break signal. It is
1411:Generated_Source\PSoC5/UART_tester.c ****     *  important to return the registers configuration to normal for continue 8-bit
1412:Generated_Source\PSoC5/UART_tester.c ****     *  operation.
1413:Generated_Source\PSoC5/UART_tester.c ****     *  There are 3 variants for this API usage:
1414:Generated_Source\PSoC5/UART_tester.c ****     *  1) SendBreak(3) - function will send the Break signal and take care on the
1415:Generated_Source\PSoC5/UART_tester.c ****     *     configuration returning. Function will block CPU until transmission
1416:Generated_Source\PSoC5/UART_tester.c ****     *     complete.
1417:Generated_Source\PSoC5/UART_tester.c ****     *  2) User may want to use blocking time if UART configured to the low speed
1418:Generated_Source\PSoC5/UART_tester.c ****     *     operation
1419:Generated_Source\PSoC5/UART_tester.c ****     *     Example for this case:
1420:Generated_Source\PSoC5/UART_tester.c ****     *     SendBreak(0);     - initialize Break signal transmission
1421:Generated_Source\PSoC5/UART_tester.c ****     *         Add your code here to use CPU time
1422:Generated_Source\PSoC5/UART_tester.c ****     *     SendBreak(1);     - complete Break operation
1423:Generated_Source\PSoC5/UART_tester.c ****     *  3) Same to 2) but user may want to initialize and use the interrupt to
1424:Generated_Source\PSoC5/UART_tester.c ****     *     complete break operation.
1425:Generated_Source\PSoC5/UART_tester.c ****     *     Example for this case:
1426:Generated_Source\PSoC5/UART_tester.c ****     *     Initialize TX interrupt with "TX - On TX Complete" parameter
1427:Generated_Source\PSoC5/UART_tester.c ****     *     SendBreak(0);     - initialize Break signal transmission
1428:Generated_Source\PSoC5/UART_tester.c ****     *         Add your code here to use CPU time
1429:Generated_Source\PSoC5/UART_tester.c ****     *     When interrupt appear with UART_tester_TX_STS_COMPLETE status:
1430:Generated_Source\PSoC5/UART_tester.c ****     *     SendBreak(2);     - complete Break operation
1431:Generated_Source\PSoC5/UART_tester.c ****     *
1432:Generated_Source\PSoC5/UART_tester.c ****     * Side Effects:
ARM GAS  C:\Users\jens-\AppData\Local\Temp\ccP7oHVf.s 			page 45


1433:Generated_Source\PSoC5/UART_tester.c ****     *  The UART_tester_SendBreak() function initializes registers to send a
1434:Generated_Source\PSoC5/UART_tester.c ****     *  break signal.
1435:Generated_Source\PSoC5/UART_tester.c ****     *  Break signal length depends on the break signal bits configuration.
1436:Generated_Source\PSoC5/UART_tester.c ****     *  The register configuration should be reinitialized before normal 8-bit
1437:Generated_Source\PSoC5/UART_tester.c ****     *  communication can continue.
1438:Generated_Source\PSoC5/UART_tester.c ****     *
1439:Generated_Source\PSoC5/UART_tester.c ****     *******************************************************************************/
1440:Generated_Source\PSoC5/UART_tester.c ****     void UART_tester_SendBreak(uint8 retMode) 
1441:Generated_Source\PSoC5/UART_tester.c ****     {
 1050              		.loc 1 1441 5 is_stmt 1 view -0
 1051              		.cfi_startproc
 1052              		@ args = 0, pretend = 0, frame = 0
 1053              		@ frame_needed = 0, uses_anonymous_args = 0
 1054              		@ link register save eliminated.
1442:Generated_Source\PSoC5/UART_tester.c **** 
1443:Generated_Source\PSoC5/UART_tester.c ****         /* If not Initialized then skip this function*/
1444:Generated_Source\PSoC5/UART_tester.c ****         if(UART_tester_initVar != 0u)
 1055              		.loc 1 1444 9 view .LVU211
 1056              		.loc 1 1444 32 is_stmt 0 view .LVU212
 1057 0000 124B     		ldr	r3, .L107
 1058 0002 1B78     		ldrb	r3, [r3]	@ zero_extendqisi2
 1059              		.loc 1 1444 11 view .LVU213
 1060 0004 0BB3     		cbz	r3, .L100
 1061              	.LBB2:
1445:Generated_Source\PSoC5/UART_tester.c ****         {
1446:Generated_Source\PSoC5/UART_tester.c ****             /* Set the Counter to 13-bits and transmit a 00 byte */
1447:Generated_Source\PSoC5/UART_tester.c ****             /* When that is done then reset the counter value back */
1448:Generated_Source\PSoC5/UART_tester.c ****             uint8 tmpStat;
 1062              		.loc 1 1448 13 is_stmt 1 view .LVU214
1449:Generated_Source\PSoC5/UART_tester.c **** 
1450:Generated_Source\PSoC5/UART_tester.c ****         #if(UART_tester_HD_ENABLED) /* Half Duplex mode*/
1451:Generated_Source\PSoC5/UART_tester.c **** 
1452:Generated_Source\PSoC5/UART_tester.c ****             if( (retMode == UART_tester_SEND_BREAK) ||
1453:Generated_Source\PSoC5/UART_tester.c ****                 (retMode == UART_tester_SEND_WAIT_REINIT ) )
1454:Generated_Source\PSoC5/UART_tester.c ****             {
1455:Generated_Source\PSoC5/UART_tester.c ****                 /* CTRL_HD_SEND_BREAK - sends break bits in HD mode */
1456:Generated_Source\PSoC5/UART_tester.c ****                 UART_tester_WriteControlRegister(UART_tester_ReadControlRegister() |
1457:Generated_Source\PSoC5/UART_tester.c ****                                                       UART_tester_CTRL_HD_SEND_BREAK);
1458:Generated_Source\PSoC5/UART_tester.c ****                 /* Send zeros */
1459:Generated_Source\PSoC5/UART_tester.c ****                 UART_tester_TXDATA_REG = 0u;
1460:Generated_Source\PSoC5/UART_tester.c **** 
1461:Generated_Source\PSoC5/UART_tester.c ****                 do /* Wait until transmit starts */
1462:Generated_Source\PSoC5/UART_tester.c ****                 {
1463:Generated_Source\PSoC5/UART_tester.c ****                     tmpStat = UART_tester_TXSTATUS_REG;
1464:Generated_Source\PSoC5/UART_tester.c ****                 }
1465:Generated_Source\PSoC5/UART_tester.c ****                 while((tmpStat & UART_tester_TX_STS_FIFO_EMPTY) != 0u);
1466:Generated_Source\PSoC5/UART_tester.c ****             }
1467:Generated_Source\PSoC5/UART_tester.c **** 
1468:Generated_Source\PSoC5/UART_tester.c ****             if( (retMode == UART_tester_WAIT_FOR_COMPLETE_REINIT) ||
1469:Generated_Source\PSoC5/UART_tester.c ****                 (retMode == UART_tester_SEND_WAIT_REINIT) )
1470:Generated_Source\PSoC5/UART_tester.c ****             {
1471:Generated_Source\PSoC5/UART_tester.c ****                 do /* Wait until transmit complete */
1472:Generated_Source\PSoC5/UART_tester.c ****                 {
1473:Generated_Source\PSoC5/UART_tester.c ****                     tmpStat = UART_tester_TXSTATUS_REG;
1474:Generated_Source\PSoC5/UART_tester.c ****                 }
1475:Generated_Source\PSoC5/UART_tester.c ****                 while(((uint8)~tmpStat & UART_tester_TX_STS_COMPLETE) != 0u);
1476:Generated_Source\PSoC5/UART_tester.c ****             }
ARM GAS  C:\Users\jens-\AppData\Local\Temp\ccP7oHVf.s 			page 46


1477:Generated_Source\PSoC5/UART_tester.c **** 
1478:Generated_Source\PSoC5/UART_tester.c ****             if( (retMode == UART_tester_WAIT_FOR_COMPLETE_REINIT) ||
1479:Generated_Source\PSoC5/UART_tester.c ****                 (retMode == UART_tester_REINIT) ||
1480:Generated_Source\PSoC5/UART_tester.c ****                 (retMode == UART_tester_SEND_WAIT_REINIT) )
1481:Generated_Source\PSoC5/UART_tester.c ****             {
1482:Generated_Source\PSoC5/UART_tester.c ****                 UART_tester_WriteControlRegister(UART_tester_ReadControlRegister() &
1483:Generated_Source\PSoC5/UART_tester.c ****                                               (uint8)~UART_tester_CTRL_HD_SEND_BREAK);
1484:Generated_Source\PSoC5/UART_tester.c ****             }
1485:Generated_Source\PSoC5/UART_tester.c **** 
1486:Generated_Source\PSoC5/UART_tester.c ****         #else /* UART_tester_HD_ENABLED Full Duplex mode */
1487:Generated_Source\PSoC5/UART_tester.c **** 
1488:Generated_Source\PSoC5/UART_tester.c ****             static uint8 txPeriod;
 1063              		.loc 1 1488 13 view .LVU215
1489:Generated_Source\PSoC5/UART_tester.c **** 
1490:Generated_Source\PSoC5/UART_tester.c ****             if( (retMode == UART_tester_SEND_BREAK) ||
 1064              		.loc 1 1490 13 view .LVU216
 1065              		.loc 1 1490 15 is_stmt 0 view .LVU217
 1066 0006 08B1     		cbz	r0, .L102
 1067              		.loc 1 1490 53 discriminator 1 view .LVU218
 1068 0008 0328     		cmp	r0, #3
 1069 000a 0DD1     		bne	.L103
 1070              	.L102:
1491:Generated_Source\PSoC5/UART_tester.c ****                 (retMode == UART_tester_SEND_WAIT_REINIT) )
1492:Generated_Source\PSoC5/UART_tester.c ****             {
1493:Generated_Source\PSoC5/UART_tester.c ****                 /* CTRL_HD_SEND_BREAK - skip to send parity bit at Break signal in Full Duplex mode
1494:Generated_Source\PSoC5/UART_tester.c ****                 #if( (UART_tester_PARITY_TYPE != UART_tester__B_UART__NONE_REVB) || \
1495:Generated_Source\PSoC5/UART_tester.c ****                                     (UART_tester_PARITY_TYPE_SW != 0u) )
1496:Generated_Source\PSoC5/UART_tester.c ****                     UART_tester_WriteControlRegister(UART_tester_ReadControlRegister() |
1497:Generated_Source\PSoC5/UART_tester.c ****                                                           UART_tester_CTRL_HD_SEND_BREAK);
1498:Generated_Source\PSoC5/UART_tester.c ****                 #endif /* End UART_tester_PARITY_TYPE != UART_tester__B_UART__NONE_REVB  */
1499:Generated_Source\PSoC5/UART_tester.c **** 
1500:Generated_Source\PSoC5/UART_tester.c ****                 #if(UART_tester_TXCLKGEN_DP)
1501:Generated_Source\PSoC5/UART_tester.c ****                     txPeriod = UART_tester_TXBITCLKTX_COMPLETE_REG;
 1071              		.loc 1 1501 21 is_stmt 1 view .LVU219
 1072              		.loc 1 1501 32 is_stmt 0 view .LVU220
 1073 000c 104B     		ldr	r3, .L107+4
 1074 000e 1978     		ldrb	r1, [r3]	@ zero_extendqisi2
 1075              		.loc 1 1501 30 view .LVU221
 1076 0010 0E4A     		ldr	r2, .L107
 1077 0012 5170     		strb	r1, [r2, #1]
1502:Generated_Source\PSoC5/UART_tester.c ****                     UART_tester_TXBITCLKTX_COMPLETE_REG = UART_tester_TXBITCTR_BREAKBITS;
 1078              		.loc 1 1502 21 is_stmt 1 view .LVU222
 1079              		.loc 1 1502 57 is_stmt 0 view .LVU223
 1080 0014 6722     		movs	r2, #103
 1081 0016 1A70     		strb	r2, [r3]
1503:Generated_Source\PSoC5/UART_tester.c ****                 #else
1504:Generated_Source\PSoC5/UART_tester.c ****                     txPeriod = UART_tester_TXBITCTR_PERIOD_REG;
1505:Generated_Source\PSoC5/UART_tester.c ****                     UART_tester_TXBITCTR_PERIOD_REG = UART_tester_TXBITCTR_BREAKBITS8X;
1506:Generated_Source\PSoC5/UART_tester.c ****                 #endif /* End UART_tester_TXCLKGEN_DP */
1507:Generated_Source\PSoC5/UART_tester.c **** 
1508:Generated_Source\PSoC5/UART_tester.c ****                 /* Send zeros */
1509:Generated_Source\PSoC5/UART_tester.c ****                 UART_tester_TXDATA_REG = 0u;
 1082              		.loc 1 1509 17 is_stmt 1 view .LVU224
 1083              		.loc 1 1509 40 is_stmt 0 view .LVU225
 1084 0018 1133     		adds	r3, r3, #17
 1085 001a 0022     		movs	r2, #0
 1086 001c 1A70     		strb	r2, [r3]
ARM GAS  C:\Users\jens-\AppData\Local\Temp\ccP7oHVf.s 			page 47


 1087              	.L104:
1510:Generated_Source\PSoC5/UART_tester.c **** 
1511:Generated_Source\PSoC5/UART_tester.c ****                 do /* Wait until transmit starts */
 1088              		.loc 1 1511 17 is_stmt 1 discriminator 1 view .LVU226
1512:Generated_Source\PSoC5/UART_tester.c ****                 {
1513:Generated_Source\PSoC5/UART_tester.c ****                     tmpStat = UART_tester_TXSTATUS_REG;
 1089              		.loc 1 1513 21 discriminator 1 view .LVU227
 1090              		.loc 1 1513 29 is_stmt 0 discriminator 1 view .LVU228
 1091 001e 0D4B     		ldr	r3, .L107+8
 1092 0020 1B78     		ldrb	r3, [r3]	@ zero_extendqisi2
 1093              	.LVL57:
1514:Generated_Source\PSoC5/UART_tester.c ****                 }
1515:Generated_Source\PSoC5/UART_tester.c ****                 while((tmpStat & UART_tester_TX_STS_FIFO_EMPTY) != 0u);
 1094              		.loc 1 1515 22 is_stmt 1 discriminator 1 view .LVU229
 1095              		.loc 1 1515 17 is_stmt 0 discriminator 1 view .LVU230
 1096 0022 13F0020F 		tst	r3, #2
 1097 0026 FAD1     		bne	.L104
 1098              	.LVL58:
 1099              	.L103:
1516:Generated_Source\PSoC5/UART_tester.c ****             }
1517:Generated_Source\PSoC5/UART_tester.c **** 
1518:Generated_Source\PSoC5/UART_tester.c ****             if( (retMode == UART_tester_WAIT_FOR_COMPLETE_REINIT) ||
 1100              		.loc 1 1518 13 is_stmt 1 view .LVU231
 1101              		.loc 1 1518 15 is_stmt 0 view .LVU232
 1102 0028 0128     		cmp	r0, #1
 1103 002a 01D0     		beq	.L105
 1104              		.loc 1 1518 67 discriminator 1 view .LVU233
 1105 002c 0328     		cmp	r0, #3
 1106 002e 04D1     		bne	.L106
 1107              	.L105:
1519:Generated_Source\PSoC5/UART_tester.c ****                 (retMode == UART_tester_SEND_WAIT_REINIT) )
1520:Generated_Source\PSoC5/UART_tester.c ****             {
1521:Generated_Source\PSoC5/UART_tester.c ****                 do /* Wait until transmit complete */
 1108              		.loc 1 1521 17 is_stmt 1 discriminator 1 view .LVU234
1522:Generated_Source\PSoC5/UART_tester.c ****                 {
1523:Generated_Source\PSoC5/UART_tester.c ****                     tmpStat = UART_tester_TXSTATUS_REG;
 1109              		.loc 1 1523 21 discriminator 1 view .LVU235
 1110              		.loc 1 1523 29 is_stmt 0 discriminator 1 view .LVU236
 1111 0030 084B     		ldr	r3, .L107+8
 1112 0032 1B78     		ldrb	r3, [r3]	@ zero_extendqisi2
 1113              	.LVL59:
1524:Generated_Source\PSoC5/UART_tester.c ****                 }
1525:Generated_Source\PSoC5/UART_tester.c ****                 while(((uint8)~tmpStat & UART_tester_TX_STS_COMPLETE) != 0u);
 1114              		.loc 1 1525 22 is_stmt 1 discriminator 1 view .LVU237
 1115              		.loc 1 1525 17 is_stmt 0 discriminator 1 view .LVU238
 1116 0034 13F0010F 		tst	r3, #1
 1117 0038 FAD0     		beq	.L105
 1118              	.LVL60:
 1119              	.L106:
1526:Generated_Source\PSoC5/UART_tester.c ****             }
1527:Generated_Source\PSoC5/UART_tester.c **** 
1528:Generated_Source\PSoC5/UART_tester.c ****             if( (retMode == UART_tester_WAIT_FOR_COMPLETE_REINIT) ||
 1120              		.loc 1 1528 13 is_stmt 1 view .LVU239
1529:Generated_Source\PSoC5/UART_tester.c ****                 (retMode == UART_tester_REINIT) ||
 1121              		.loc 1 1529 49 is_stmt 0 view .LVU240
 1122 003a 0138     		subs	r0, r0, #1
 1123              	.LVL61:
ARM GAS  C:\Users\jens-\AppData\Local\Temp\ccP7oHVf.s 			page 48


 1124              		.loc 1 1529 49 view .LVU241
 1125 003c C0B2     		uxtb	r0, r0
1528:Generated_Source\PSoC5/UART_tester.c ****                 (retMode == UART_tester_REINIT) ||
 1126              		.loc 1 1528 15 view .LVU242
 1127 003e 0228     		cmp	r0, #2
 1128 0040 03D8     		bhi	.L100
1530:Generated_Source\PSoC5/UART_tester.c ****                 (retMode == UART_tester_SEND_WAIT_REINIT) )
1531:Generated_Source\PSoC5/UART_tester.c ****             {
1532:Generated_Source\PSoC5/UART_tester.c **** 
1533:Generated_Source\PSoC5/UART_tester.c ****             #if(UART_tester_TXCLKGEN_DP)
1534:Generated_Source\PSoC5/UART_tester.c ****                 UART_tester_TXBITCLKTX_COMPLETE_REG = txPeriod;
 1129              		.loc 1 1534 17 is_stmt 1 view .LVU243
 1130              		.loc 1 1534 53 is_stmt 0 view .LVU244
 1131 0042 024B     		ldr	r3, .L107
 1132 0044 5A78     		ldrb	r2, [r3, #1]	@ zero_extendqisi2
 1133 0046 024B     		ldr	r3, .L107+4
 1134 0048 1A70     		strb	r2, [r3]
 1135              	.L100:
 1136              	.LBE2:
1535:Generated_Source\PSoC5/UART_tester.c ****             #else
1536:Generated_Source\PSoC5/UART_tester.c ****                 UART_tester_TXBITCTR_PERIOD_REG = txPeriod;
1537:Generated_Source\PSoC5/UART_tester.c ****             #endif /* End UART_tester_TXCLKGEN_DP */
1538:Generated_Source\PSoC5/UART_tester.c **** 
1539:Generated_Source\PSoC5/UART_tester.c ****             #if( (UART_tester_PARITY_TYPE != UART_tester__B_UART__NONE_REVB) || \
1540:Generated_Source\PSoC5/UART_tester.c ****                  (UART_tester_PARITY_TYPE_SW != 0u) )
1541:Generated_Source\PSoC5/UART_tester.c ****                 UART_tester_WriteControlRegister(UART_tester_ReadControlRegister() &
1542:Generated_Source\PSoC5/UART_tester.c ****                                                       (uint8) ~UART_tester_CTRL_HD_SEND_BREAK);
1543:Generated_Source\PSoC5/UART_tester.c ****             #endif /* End UART_tester_PARITY_TYPE != NONE */
1544:Generated_Source\PSoC5/UART_tester.c ****             }
1545:Generated_Source\PSoC5/UART_tester.c ****         #endif    /* End UART_tester_HD_ENABLED */
1546:Generated_Source\PSoC5/UART_tester.c ****         }
1547:Generated_Source\PSoC5/UART_tester.c ****     }
 1137              		.loc 1 1547 5 view .LVU245
 1138 004a 7047     		bx	lr
 1139              	.L108:
 1140              		.align	2
 1141              	.L107:
 1142 004c 00000000 		.word	.LANCHOR0
 1143 0050 3A650040 		.word	1073767738
 1144 0054 6B650040 		.word	1073767787
 1145              		.cfi_endproc
 1146              	.LFE25:
 1147              		.size	UART_tester_SendBreak, .-UART_tester_SendBreak
 1148              		.section	.text.UART_tester_SetTxAddressMode,"ax",%progbits
 1149              		.align	1
 1150              		.global	UART_tester_SetTxAddressMode
 1151              		.syntax unified
 1152              		.thumb
 1153              		.thumb_func
 1154              		.fpu softvfp
 1155              		.type	UART_tester_SetTxAddressMode, %function
 1156              	UART_tester_SetTxAddressMode:
 1157              	.LVL62:
 1158              	.LFB26:
1548:Generated_Source\PSoC5/UART_tester.c **** 
1549:Generated_Source\PSoC5/UART_tester.c **** 
1550:Generated_Source\PSoC5/UART_tester.c ****     /*******************************************************************************
ARM GAS  C:\Users\jens-\AppData\Local\Temp\ccP7oHVf.s 			page 49


1551:Generated_Source\PSoC5/UART_tester.c ****     * Function Name: UART_tester_SetTxAddressMode
1552:Generated_Source\PSoC5/UART_tester.c ****     ********************************************************************************
1553:Generated_Source\PSoC5/UART_tester.c ****     *
1554:Generated_Source\PSoC5/UART_tester.c ****     * Summary:
1555:Generated_Source\PSoC5/UART_tester.c ****     *  Configures the transmitter to signal the next bytes is address or data.
1556:Generated_Source\PSoC5/UART_tester.c ****     *
1557:Generated_Source\PSoC5/UART_tester.c ****     * Parameters:
1558:Generated_Source\PSoC5/UART_tester.c ****     *  addressMode: 
1559:Generated_Source\PSoC5/UART_tester.c ****     *       UART_tester_SET_SPACE - Configure the transmitter to send the next
1560:Generated_Source\PSoC5/UART_tester.c ****     *                                    byte as a data.
1561:Generated_Source\PSoC5/UART_tester.c ****     *       UART_tester_SET_MARK  - Configure the transmitter to send the next
1562:Generated_Source\PSoC5/UART_tester.c ****     *                                    byte as an address.
1563:Generated_Source\PSoC5/UART_tester.c ****     *
1564:Generated_Source\PSoC5/UART_tester.c ****     * Return:
1565:Generated_Source\PSoC5/UART_tester.c ****     *  None.
1566:Generated_Source\PSoC5/UART_tester.c ****     *
1567:Generated_Source\PSoC5/UART_tester.c ****     * Side Effects:
1568:Generated_Source\PSoC5/UART_tester.c ****     *  This function sets and clears UART_tester_CTRL_MARK bit in the Control
1569:Generated_Source\PSoC5/UART_tester.c ****     *  register.
1570:Generated_Source\PSoC5/UART_tester.c ****     *
1571:Generated_Source\PSoC5/UART_tester.c ****     *******************************************************************************/
1572:Generated_Source\PSoC5/UART_tester.c ****     void UART_tester_SetTxAddressMode(uint8 addressMode) 
1573:Generated_Source\PSoC5/UART_tester.c ****     {
 1159              		.loc 1 1573 5 is_stmt 1 view -0
 1160              		.cfi_startproc
 1161              		@ args = 0, pretend = 0, frame = 0
 1162              		@ frame_needed = 0, uses_anonymous_args = 0
 1163              		@ link register save eliminated.
1574:Generated_Source\PSoC5/UART_tester.c ****         /* Mark/Space sending enable */
1575:Generated_Source\PSoC5/UART_tester.c ****         if(addressMode != 0u)
 1164              		.loc 1 1575 9 view .LVU247
1576:Generated_Source\PSoC5/UART_tester.c ****         {
1577:Generated_Source\PSoC5/UART_tester.c ****         #if( UART_tester_CONTROL_REG_REMOVED == 0u )
1578:Generated_Source\PSoC5/UART_tester.c ****             UART_tester_WriteControlRegister(UART_tester_ReadControlRegister() |
1579:Generated_Source\PSoC5/UART_tester.c ****                                                   UART_tester_CTRL_MARK);
1580:Generated_Source\PSoC5/UART_tester.c ****         #endif /* End UART_tester_CONTROL_REG_REMOVED == 0u */
1581:Generated_Source\PSoC5/UART_tester.c ****         }
1582:Generated_Source\PSoC5/UART_tester.c ****         else
1583:Generated_Source\PSoC5/UART_tester.c ****         {
1584:Generated_Source\PSoC5/UART_tester.c ****         #if( UART_tester_CONTROL_REG_REMOVED == 0u )
1585:Generated_Source\PSoC5/UART_tester.c ****             UART_tester_WriteControlRegister(UART_tester_ReadControlRegister() &
1586:Generated_Source\PSoC5/UART_tester.c ****                                                   (uint8) ~UART_tester_CTRL_MARK);
1587:Generated_Source\PSoC5/UART_tester.c ****         #endif /* End UART_tester_CONTROL_REG_REMOVED == 0u */
1588:Generated_Source\PSoC5/UART_tester.c ****         }
 1165              		.loc 1 1588 9 view .LVU248
1589:Generated_Source\PSoC5/UART_tester.c ****     }
 1166              		.loc 1 1589 5 is_stmt 0 view .LVU249
 1167 0000 7047     		bx	lr
 1168              		.cfi_endproc
 1169              	.LFE26:
 1170              		.size	UART_tester_SetTxAddressMode, .-UART_tester_SetTxAddressMode
 1171              		.global	UART_tester_initVar
 1172              		.bss
 1173              		.set	.LANCHOR0,. + 0
 1174              		.type	UART_tester_initVar, %object
 1175              		.size	UART_tester_initVar, 1
 1176              	UART_tester_initVar:
ARM GAS  C:\Users\jens-\AppData\Local\Temp\ccP7oHVf.s 			page 50


 1177 0000 00       		.space	1
 1178              		.type	txPeriod.5206, %object
 1179              		.size	txPeriod.5206, 1
 1180              	txPeriod.5206:
 1181 0001 00       		.space	1
 1182              		.text
 1183              	.Letext0:
 1184              		.file 2 "Generated_Source\\PSoC5\\cytypes.h"
 1185              		.file 3 "c:\\program files (x86)\\cypress\\psoc creator\\4.2\\psoc creator\\import\\gnu\\arm\\5.4.
 1186              		.file 4 "c:\\program files (x86)\\cypress\\psoc creator\\4.2\\psoc creator\\import\\gnu\\arm\\5.4.
 1187              		.file 5 "c:\\program files (x86)\\cypress\\psoc creator\\4.2\\psoc creator\\import\\gnu\\arm\\5.4.
 1188              		.file 6 "c:\\program files (x86)\\cypress\\psoc creator\\4.2\\psoc creator\\import\\gnu\\arm\\5.4.
 1189              		.file 7 "c:\\program files (x86)\\cypress\\psoc creator\\4.2\\psoc creator\\import\\gnu\\arm\\5.4.
 1190              		.file 8 "Generated_Source\\PSoC5\\CySpc.h"
 1191              		.file 9 "Generated_Source\\PSoC5\\CyFlash.h"
 1192              		.file 10 "Generated_Source\\PSoC5\\CyLib.h"
 1193              		.file 11 "Generated_Source\\PSoC5\\UART_tester.h"
 1194              		.file 12 "Generated_Source\\PSoC5\\UART_tester_IntClock.h"