ARM GAS  C:\Users\jens-\AppData\Local\Temp\ccjjYmnj.s 			page 1


   1              		.cpu cortex-m3
   2              		.eabi_attribute 20, 1
   3              		.eabi_attribute 21, 1
   4              		.eabi_attribute 23, 3
   5              		.eabi_attribute 24, 1
   6              		.eabi_attribute 25, 1
   7              		.eabi_attribute 26, 1
   8              		.eabi_attribute 30, 1
   9              		.eabi_attribute 34, 1
  10              		.eabi_attribute 18, 4
  11              		.file	"CyDmac.c"
  12              		.text
  13              	.Ltext0:
  14              		.cfi_sections	.debug_frame
  15              		.section	.text.CyDmacConfigure,"ax",%progbits
  16              		.align	1
  17              		.global	CyDmacConfigure
  18              		.arch armv7-m
  19              		.syntax unified
  20              		.thumb
  21              		.thumb_func
  22              		.fpu softvfp
  23              		.type	CyDmacConfigure, %function
  24              	CyDmacConfigure:
  25              	.LFB0:
  26              		.file 1 "Generated_Source\\PSoC5\\CyDmac.c"
   1:Generated_Source\PSoC5/CyDmac.c **** /***************************************************************************//**
   2:Generated_Source\PSoC5/CyDmac.c **** * \file CyDmac.c
   3:Generated_Source\PSoC5/CyDmac.c **** * \version 5.70
   4:Generated_Source\PSoC5/CyDmac.c **** *
   5:Generated_Source\PSoC5/CyDmac.c **** * \brief
   6:Generated_Source\PSoC5/CyDmac.c **** * Provides an API for the DMAC component. The API includes functions for the
   7:Generated_Source\PSoC5/CyDmac.c **** * DMA controller, DMA channels and Transfer Descriptors. This API is the library
   8:Generated_Source\PSoC5/CyDmac.c **** * version not the auto generated code that gets generated when the user places a
   9:Generated_Source\PSoC5/CyDmac.c **** * DMA component on the schematic.
  10:Generated_Source\PSoC5/CyDmac.c **** *
  11:Generated_Source\PSoC5/CyDmac.c **** * The auto generated code would use the APi's in this module.
  12:Generated_Source\PSoC5/CyDmac.c **** *
  13:Generated_Source\PSoC5/CyDmac.c **** * \note This code is endian agnostic.
  14:Generated_Source\PSoC5/CyDmac.c **** *
  15:Generated_Source\PSoC5/CyDmac.c **** * \note The Transfer Descriptor memory can be used as regular memory if the
  16:Generated_Source\PSoC5/CyDmac.c **** * TD's are not being used.
  17:Generated_Source\PSoC5/CyDmac.c **** *
  18:Generated_Source\PSoC5/CyDmac.c **** * \note This code uses the first byte of each TD to manage the free list of
  19:Generated_Source\PSoC5/CyDmac.c **** * TD's. The user can overwrite this once the TD is allocated.
  20:Generated_Source\PSoC5/CyDmac.c **** *
  21:Generated_Source\PSoC5/CyDmac.c **** ********************************************************************************
  22:Generated_Source\PSoC5/CyDmac.c **** * \copyright
  23:Generated_Source\PSoC5/CyDmac.c **** * Copyright 2008-2018, Cypress Semiconductor Corporation.  All rights reserved.
  24:Generated_Source\PSoC5/CyDmac.c **** * You may use this file only in accordance with the license, terms, conditions,
  25:Generated_Source\PSoC5/CyDmac.c **** * disclaimers, and limitations in the end user license agreement accompanying
  26:Generated_Source\PSoC5/CyDmac.c **** * the software package with which this file was provided.
  27:Generated_Source\PSoC5/CyDmac.c **** *******************************************************************************/
  28:Generated_Source\PSoC5/CyDmac.c **** 
  29:Generated_Source\PSoC5/CyDmac.c **** #include "CyDmac.h"
  30:Generated_Source\PSoC5/CyDmac.c **** 
  31:Generated_Source\PSoC5/CyDmac.c **** 
ARM GAS  C:\Users\jens-\AppData\Local\Temp\ccjjYmnj.s 			page 2


  32:Generated_Source\PSoC5/CyDmac.c **** /*******************************************************************************
  33:Generated_Source\PSoC5/CyDmac.c **** * The following variables are initialized from CyDmacConfigure() function that
  34:Generated_Source\PSoC5/CyDmac.c **** * is executed from initialize_psoc() at the early initialization stage.
  35:Generated_Source\PSoC5/CyDmac.c **** * In case of IAR EW IDE, initialize_psoc() is executed before the data sections
  36:Generated_Source\PSoC5/CyDmac.c **** * are initialized. To avoid zeroing, these variables should be initialized
  37:Generated_Source\PSoC5/CyDmac.c **** * properly during segments initialization as well.
  38:Generated_Source\PSoC5/CyDmac.c **** *******************************************************************************/
  39:Generated_Source\PSoC5/CyDmac.c **** static uint8  CyDmaTdCurrentNumber = CY_DMA_NUMBEROF_TDS;           /* Current Number of free eleme
  40:Generated_Source\PSoC5/CyDmac.c **** static uint8  CyDmaTdFreeIndex = (uint8)(CY_DMA_NUMBEROF_TDS - 1u); /* Index of first available TD 
  41:Generated_Source\PSoC5/CyDmac.c **** static uint32 CyDmaChannels = DMA_CHANNELS_USED__MASK0;              /* Bit map of DMA channel owne
  42:Generated_Source\PSoC5/CyDmac.c **** 
  43:Generated_Source\PSoC5/CyDmac.c **** 
  44:Generated_Source\PSoC5/CyDmac.c **** /*******************************************************************************
  45:Generated_Source\PSoC5/CyDmac.c **** * Function Name: CyDmacConfigure
  46:Generated_Source\PSoC5/CyDmac.c **** ****************************************************************************//**
  47:Generated_Source\PSoC5/CyDmac.c **** *
  48:Generated_Source\PSoC5/CyDmac.c **** * Creates a linked list of all the TDs to be allocated. This function is called
  49:Generated_Source\PSoC5/CyDmac.c **** * by the startup code; you do not normally need to call it. You can call this
  50:Generated_Source\PSoC5/CyDmac.c **** * function if all of the DMA channels are inactive.
  51:Generated_Source\PSoC5/CyDmac.c **** *
  52:Generated_Source\PSoC5/CyDmac.c **** *******************************************************************************/
  53:Generated_Source\PSoC5/CyDmac.c **** void CyDmacConfigure(void) 
  54:Generated_Source\PSoC5/CyDmac.c **** {
  27              		.loc 1 54 1 view -0
  28              		.cfi_startproc
  29              		@ args = 0, pretend = 0, frame = 0
  30              		@ frame_needed = 0, uses_anonymous_args = 0
  31              		@ link register save eliminated.
  55:Generated_Source\PSoC5/CyDmac.c ****     uint8 dmaIndex;
  32              		.loc 1 55 5 view .LVU1
  56:Generated_Source\PSoC5/CyDmac.c **** 
  57:Generated_Source\PSoC5/CyDmac.c ****     /* Set TD list variables. */
  58:Generated_Source\PSoC5/CyDmac.c ****     CyDmaTdFreeIndex     = (uint8)(CY_DMA_NUMBEROF_TDS - 1u);
  33              		.loc 1 58 5 view .LVU2
  34              		.loc 1 58 26 is_stmt 0 view .LVU3
  35 0000 0B4A     		ldr	r2, .L5
  36 0002 7F23     		movs	r3, #127
  37 0004 1370     		strb	r3, [r2]
  59:Generated_Source\PSoC5/CyDmac.c ****     CyDmaTdCurrentNumber = CY_DMA_NUMBEROF_TDS;
  38              		.loc 1 59 5 is_stmt 1 view .LVU4
  39              		.loc 1 59 26 is_stmt 0 view .LVU5
  40 0006 8021     		movs	r1, #128
  41 0008 5170     		strb	r1, [r2, #1]
  60:Generated_Source\PSoC5/CyDmac.c **** 
  61:Generated_Source\PSoC5/CyDmac.c ****     /* Make TD free list. */
  62:Generated_Source\PSoC5/CyDmac.c ****     for(dmaIndex = (uint8)(CY_DMA_NUMBEROF_TDS - 1u); dmaIndex != 0u; dmaIndex--)
  42              		.loc 1 62 5 is_stmt 1 view .LVU6
  43              	.LVL0:
  44              	.L2:
  45              		.loc 1 62 55 discriminator 1 view .LVU7
  46              		.loc 1 62 5 is_stmt 0 discriminator 1 view .LVU8
  47 000a 43B1     		cbz	r3, .L4
  63:Generated_Source\PSoC5/CyDmac.c ****     {
  64:Generated_Source\PSoC5/CyDmac.c ****         CY_DMA_TDMEM_STRUCT_PTR[dmaIndex].TD0[0u] = (uint8)(dmaIndex - 1u);
  48              		.loc 1 64 9 is_stmt 1 discriminator 3 view .LVU9
  49              		.loc 1 64 32 is_stmt 0 discriminator 3 view .LVU10
  50 000c DA00     		lsls	r2, r3, #3
ARM GAS  C:\Users\jens-\AppData\Local\Temp\ccjjYmnj.s 			page 3


  51 000e 02F18042 		add	r2, r2, #1073741824
  52 0012 02F5F042 		add	r2, r2, #30720
  53              		.loc 1 64 53 discriminator 3 view .LVU11
  54 0016 013B     		subs	r3, r3, #1
  55              	.LVL1:
  56              		.loc 1 64 53 discriminator 3 view .LVU12
  57 0018 DBB2     		uxtb	r3, r3
  58              		.loc 1 64 51 discriminator 3 view .LVU13
  59 001a 1370     		strb	r3, [r2]
  62:Generated_Source\PSoC5/CyDmac.c ****     {
  60              		.loc 1 62 71 is_stmt 1 discriminator 3 view .LVU14
  61              	.LVL2:
  62:Generated_Source\PSoC5/CyDmac.c ****     {
  62              		.loc 1 62 71 is_stmt 0 discriminator 3 view .LVU15
  63 001c F5E7     		b	.L2
  64              	.L4:
  65:Generated_Source\PSoC5/CyDmac.c ****     }
  66:Generated_Source\PSoC5/CyDmac.c **** 
  67:Generated_Source\PSoC5/CyDmac.c ****     /* Make last one point to zero. */
  68:Generated_Source\PSoC5/CyDmac.c ****     CY_DMA_TDMEM_STRUCT_PTR[dmaIndex].TD0[0u] = 0u;
  65              		.loc 1 68 5 is_stmt 1 view .LVU16
  66              		.loc 1 68 28 is_stmt 0 view .LVU17
  67 001e DB00     		lsls	r3, r3, #3
  68              	.LVL3:
  69              		.loc 1 68 28 view .LVU18
  70 0020 03F18043 		add	r3, r3, #1073741824
  71 0024 03F5F043 		add	r3, r3, #30720
  72              		.loc 1 68 47 view .LVU19
  73 0028 0022     		movs	r2, #0
  74 002a 1A70     		strb	r2, [r3]
  69:Generated_Source\PSoC5/CyDmac.c **** }
  75              		.loc 1 69 1 view .LVU20
  76 002c 7047     		bx	lr
  77              	.L6:
  78 002e 00BF     		.align	2
  79              	.L5:
  80 0030 00000000 		.word	.LANCHOR0
  81              		.cfi_endproc
  82              	.LFE0:
  83              		.size	CyDmacConfigure, .-CyDmacConfigure
  84              		.section	.text.CyDmacError,"ax",%progbits
  85              		.align	1
  86              		.global	CyDmacError
  87              		.syntax unified
  88              		.thumb
  89              		.thumb_func
  90              		.fpu softvfp
  91              		.type	CyDmacError, %function
  92              	CyDmacError:
  93              	.LFB1:
  70:Generated_Source\PSoC5/CyDmac.c **** 
  71:Generated_Source\PSoC5/CyDmac.c **** 
  72:Generated_Source\PSoC5/CyDmac.c **** /*******************************************************************************
  73:Generated_Source\PSoC5/CyDmac.c **** * Function Name: CyDmacError
  74:Generated_Source\PSoC5/CyDmac.c **** ****************************************************************************//**
  75:Generated_Source\PSoC5/CyDmac.c **** *
  76:Generated_Source\PSoC5/CyDmac.c **** *  Returns errors of the last failed DMA transaction.
ARM GAS  C:\Users\jens-\AppData\Local\Temp\ccjjYmnj.s 			page 4


  77:Generated_Source\PSoC5/CyDmac.c **** *
  78:Generated_Source\PSoC5/CyDmac.c **** * \return Errors of the last failed DMA transaction.
  79:Generated_Source\PSoC5/CyDmac.c **** *
  80:Generated_Source\PSoC5/CyDmac.c **** *  DMAC_PERIPH_ERR:
  81:Generated_Source\PSoC5/CyDmac.c **** *   Set to 1 when a peripheral responds to a bus transaction with an error
  82:Generated_Source\PSoC5/CyDmac.c **** *   response.
  83:Generated_Source\PSoC5/CyDmac.c **** *
  84:Generated_Source\PSoC5/CyDmac.c **** *  DMAC_UNPOP_ACC:
  85:Generated_Source\PSoC5/CyDmac.c **** *   Set to 1 when an access is attempted to an invalid address.
  86:Generated_Source\PSoC5/CyDmac.c **** *
  87:Generated_Source\PSoC5/CyDmac.c **** *  DMAC_BUS_TIMEOUT:
  88:Generated_Source\PSoC5/CyDmac.c **** *   Set to 1 when a bus timeout occurs. Cleared by writing a 1. Timeout values
  89:Generated_Source\PSoC5/CyDmac.c **** *   are determined by the BUS_TIMEOUT field in the PHUBCFG register.
  90:Generated_Source\PSoC5/CyDmac.c **** *
  91:Generated_Source\PSoC5/CyDmac.c **** * Theory:
  92:Generated_Source\PSoC5/CyDmac.c **** *  Once an error occurs the error bits are sticky and are only cleared by
  93:Generated_Source\PSoC5/CyDmac.c **** *  writing 1 to the error register.
  94:Generated_Source\PSoC5/CyDmac.c **** *
  95:Generated_Source\PSoC5/CyDmac.c **** *******************************************************************************/
  96:Generated_Source\PSoC5/CyDmac.c **** uint8 CyDmacError(void) 
  97:Generated_Source\PSoC5/CyDmac.c **** {
  94              		.loc 1 97 1 is_stmt 1 view -0
  95              		.cfi_startproc
  96              		@ args = 0, pretend = 0, frame = 0
  97              		@ frame_needed = 0, uses_anonymous_args = 0
  98              		@ link register save eliminated.
  98:Generated_Source\PSoC5/CyDmac.c ****     return((uint8)(((uint32) 0x0Eu) & *CY_DMA_ERR_PTR));
  99              		.loc 1 98 5 view .LVU22
 100              		.loc 1 98 39 is_stmt 0 view .LVU23
 101 0000 024B     		ldr	r3, .L8
 102 0002 1868     		ldr	r0, [r3]
  99:Generated_Source\PSoC5/CyDmac.c **** }
 103              		.loc 1 99 1 view .LVU24
 104 0004 00F00E00 		and	r0, r0, #14
 105 0008 7047     		bx	lr
 106              	.L9:
 107 000a 00BF     		.align	2
 108              	.L8:
 109 000c 04700040 		.word	1073770500
 110              		.cfi_endproc
 111              	.LFE1:
 112              		.size	CyDmacError, .-CyDmacError
 113              		.section	.text.CyDmacClearError,"ax",%progbits
 114              		.align	1
 115              		.global	CyDmacClearError
 116              		.syntax unified
 117              		.thumb
 118              		.thumb_func
 119              		.fpu softvfp
 120              		.type	CyDmacClearError, %function
 121              	CyDmacClearError:
 122              	.LVL4:
 123              	.LFB2:
 100:Generated_Source\PSoC5/CyDmac.c **** 
 101:Generated_Source\PSoC5/CyDmac.c **** 
 102:Generated_Source\PSoC5/CyDmac.c **** /*******************************************************************************
 103:Generated_Source\PSoC5/CyDmac.c **** * Function Name: CyDmacClearError
ARM GAS  C:\Users\jens-\AppData\Local\Temp\ccjjYmnj.s 			page 5


 104:Generated_Source\PSoC5/CyDmac.c **** ****************************************************************************//**
 105:Generated_Source\PSoC5/CyDmac.c **** *
 106:Generated_Source\PSoC5/CyDmac.c **** *  Clears the error bits in the error register of the DMAC.
 107:Generated_Source\PSoC5/CyDmac.c **** *
 108:Generated_Source\PSoC5/CyDmac.c **** * \param error:
 109:Generated_Source\PSoC5/CyDmac.c **** *   Clears the error bits in the DMAC error register.
 110:Generated_Source\PSoC5/CyDmac.c **** *
 111:Generated_Source\PSoC5/CyDmac.c **** *  \param DMAC_PERIPH_ERR:
 112:Generated_Source\PSoC5/CyDmac.c **** *   Set to 1 when a peripheral responds to a bus transaction with an error
 113:Generated_Source\PSoC5/CyDmac.c **** *   response.
 114:Generated_Source\PSoC5/CyDmac.c **** *
 115:Generated_Source\PSoC5/CyDmac.c **** *  \param DMAC_UNPOP_ACC:
 116:Generated_Source\PSoC5/CyDmac.c **** *   Set to 1 when an access is attempted to an invalid address.
 117:Generated_Source\PSoC5/CyDmac.c **** *
 118:Generated_Source\PSoC5/CyDmac.c **** *  \param DMAC_BUS_TIMEOUT:
 119:Generated_Source\PSoC5/CyDmac.c **** *   Set to 1 when a bus timeout occurs. Cleared by writing 1. Timeout values
 120:Generated_Source\PSoC5/CyDmac.c **** *   are determined by the BUS_TIMEOUT field in the PHUBCFG register.
 121:Generated_Source\PSoC5/CyDmac.c **** *
 122:Generated_Source\PSoC5/CyDmac.c **** * Theory:
 123:Generated_Source\PSoC5/CyDmac.c **** *  Once an error occurs the error bits are sticky and are only cleared by
 124:Generated_Source\PSoC5/CyDmac.c **** *  writing 1 to the error register.
 125:Generated_Source\PSoC5/CyDmac.c **** *
 126:Generated_Source\PSoC5/CyDmac.c **** *******************************************************************************/
 127:Generated_Source\PSoC5/CyDmac.c **** void CyDmacClearError(uint8 error) 
 128:Generated_Source\PSoC5/CyDmac.c **** {
 124              		.loc 1 128 1 is_stmt 1 view -0
 125              		.cfi_startproc
 126              		@ args = 0, pretend = 0, frame = 0
 127              		@ frame_needed = 0, uses_anonymous_args = 0
 128              		@ link register save eliminated.
 129:Generated_Source\PSoC5/CyDmac.c ****     *CY_DMA_ERR_PTR = (((uint32)0x0Fu) & ((uint32)error));
 129              		.loc 1 129 5 view .LVU26
 130              		.loc 1 129 40 is_stmt 0 view .LVU27
 131 0000 00F00F00 		and	r0, r0, #15
 132              	.LVL5:
 133              		.loc 1 129 21 view .LVU28
 134 0004 014B     		ldr	r3, .L11
 135 0006 1860     		str	r0, [r3]
 130:Generated_Source\PSoC5/CyDmac.c **** }
 136              		.loc 1 130 1 view .LVU29
 137 0008 7047     		bx	lr
 138              	.L12:
 139 000a 00BF     		.align	2
 140              	.L11:
 141 000c 04700040 		.word	1073770500
 142              		.cfi_endproc
 143              	.LFE2:
 144              		.size	CyDmacClearError, .-CyDmacClearError
 145              		.section	.text.CyDmacErrorAddress,"ax",%progbits
 146              		.align	1
 147              		.global	CyDmacErrorAddress
 148              		.syntax unified
 149              		.thumb
 150              		.thumb_func
 151              		.fpu softvfp
 152              		.type	CyDmacErrorAddress, %function
 153              	CyDmacErrorAddress:
ARM GAS  C:\Users\jens-\AppData\Local\Temp\ccjjYmnj.s 			page 6


 154              	.LFB3:
 131:Generated_Source\PSoC5/CyDmac.c **** 
 132:Generated_Source\PSoC5/CyDmac.c **** 
 133:Generated_Source\PSoC5/CyDmac.c **** /*******************************************************************************
 134:Generated_Source\PSoC5/CyDmac.c **** * Function Name: CyDmacErrorAddress
 135:Generated_Source\PSoC5/CyDmac.c **** ****************************************************************************//**
 136:Generated_Source\PSoC5/CyDmac.c **** *
 137:Generated_Source\PSoC5/CyDmac.c **** *  When DMAC_BUS_TIMEOUT, DMAC_UNPOP_ACC, and DMAC_PERIPH_ERR occur the
 138:Generated_Source\PSoC5/CyDmac.c **** *  address of the error is written to the error address register and can be read
 139:Generated_Source\PSoC5/CyDmac.c **** *  with this function.
 140:Generated_Source\PSoC5/CyDmac.c **** *
 141:Generated_Source\PSoC5/CyDmac.c **** *  If there are multiple errors, only the address of the first is saved.
 142:Generated_Source\PSoC5/CyDmac.c **** *
 143:Generated_Source\PSoC5/CyDmac.c **** * \return The address that caused the error.
 144:Generated_Source\PSoC5/CyDmac.c **** *
 145:Generated_Source\PSoC5/CyDmac.c **** *******************************************************************************/
 146:Generated_Source\PSoC5/CyDmac.c **** uint32 CyDmacErrorAddress(void) 
 147:Generated_Source\PSoC5/CyDmac.c **** {
 155              		.loc 1 147 1 is_stmt 1 view -0
 156              		.cfi_startproc
 157              		@ args = 0, pretend = 0, frame = 0
 158              		@ frame_needed = 0, uses_anonymous_args = 0
 159              		@ link register save eliminated.
 148:Generated_Source\PSoC5/CyDmac.c ****     return(CY_GET_REG32(CY_DMA_ERR_ADR_PTR));
 160              		.loc 1 148 5 view .LVU31
 161              		.loc 1 148 12 is_stmt 0 view .LVU32
 162 0000 014B     		ldr	r3, .L14
 163 0002 1868     		ldr	r0, [r3]
 149:Generated_Source\PSoC5/CyDmac.c **** }
 164              		.loc 1 149 1 view .LVU33
 165 0004 7047     		bx	lr
 166              	.L15:
 167 0006 00BF     		.align	2
 168              	.L14:
 169 0008 08700040 		.word	1073770504
 170              		.cfi_endproc
 171              	.LFE3:
 172              		.size	CyDmacErrorAddress, .-CyDmacErrorAddress
 173              		.section	.text.CyDmaChAlloc,"ax",%progbits
 174              		.align	1
 175              		.global	CyDmaChAlloc
 176              		.syntax unified
 177              		.thumb
 178              		.thumb_func
 179              		.fpu softvfp
 180              		.type	CyDmaChAlloc, %function
 181              	CyDmaChAlloc:
 182              	.LFB4:
 150:Generated_Source\PSoC5/CyDmac.c **** 
 151:Generated_Source\PSoC5/CyDmac.c **** 
 152:Generated_Source\PSoC5/CyDmac.c **** /*******************************************************************************
 153:Generated_Source\PSoC5/CyDmac.c **** * Function Name: CyDmaChAlloc
 154:Generated_Source\PSoC5/CyDmac.c **** ****************************************************************************//**
 155:Generated_Source\PSoC5/CyDmac.c **** *
 156:Generated_Source\PSoC5/CyDmac.c **** *  Allocates a channel from the DMAC to be used in all functions that require a
 157:Generated_Source\PSoC5/CyDmac.c **** *  channel handle.
 158:Generated_Source\PSoC5/CyDmac.c **** *
ARM GAS  C:\Users\jens-\AppData\Local\Temp\ccjjYmnj.s 			page 7


 159:Generated_Source\PSoC5/CyDmac.c **** * \return The allocated channel number. Zero is a valid channel number.
 160:Generated_Source\PSoC5/CyDmac.c **** *  DMA_INVALID_CHANNEL is returned if there are no channels available.
 161:Generated_Source\PSoC5/CyDmac.c **** *
 162:Generated_Source\PSoC5/CyDmac.c **** *******************************************************************************/
 163:Generated_Source\PSoC5/CyDmac.c **** uint8 CyDmaChAlloc(void) 
 164:Generated_Source\PSoC5/CyDmac.c **** {
 183              		.loc 1 164 1 is_stmt 1 view -0
 184              		.cfi_startproc
 185              		@ args = 0, pretend = 0, frame = 0
 186              		@ frame_needed = 0, uses_anonymous_args = 0
 187 0000 10B5     		push	{r4, lr}
 188              		.cfi_def_cfa_offset 8
 189              		.cfi_offset 4, -8
 190              		.cfi_offset 14, -4
 165:Generated_Source\PSoC5/CyDmac.c ****     uint8 interruptState;
 191              		.loc 1 165 5 view .LVU35
 166:Generated_Source\PSoC5/CyDmac.c ****     uint8 dmaIndex;
 192              		.loc 1 166 5 view .LVU36
 167:Generated_Source\PSoC5/CyDmac.c ****     uint32 channel = 1u;
 193              		.loc 1 167 5 view .LVU37
 194              	.LVL6:
 168:Generated_Source\PSoC5/CyDmac.c **** 
 169:Generated_Source\PSoC5/CyDmac.c **** 
 170:Generated_Source\PSoC5/CyDmac.c ****     /* Enter critical section! */
 171:Generated_Source\PSoC5/CyDmac.c ****     interruptState = CyEnterCriticalSection();
 195              		.loc 1 171 5 view .LVU38
 196              		.loc 1 171 22 is_stmt 0 view .LVU39
 197 0002 FFF7FEFF 		bl	CyEnterCriticalSection
 198              	.LVL7:
 172:Generated_Source\PSoC5/CyDmac.c **** 
 173:Generated_Source\PSoC5/CyDmac.c ****     /* Look for free channel. */
 174:Generated_Source\PSoC5/CyDmac.c ****     for(dmaIndex = 0u; dmaIndex < CY_DMA_NUMBEROF_CHANNELS; dmaIndex++)
 199              		.loc 1 174 5 is_stmt 1 view .LVU40
 167:Generated_Source\PSoC5/CyDmac.c **** 
 200              		.loc 1 167 12 is_stmt 0 view .LVU41
 201 0006 0123     		movs	r3, #1
 202              		.loc 1 174 18 view .LVU42
 203 0008 0024     		movs	r4, #0
 204              	.LVL8:
 205              	.L17:
 206              		.loc 1 174 24 is_stmt 1 discriminator 1 view .LVU43
 207              		.loc 1 174 5 is_stmt 0 discriminator 1 view .LVU44
 208 000a 172C     		cmp	r4, #23
 209 000c 0AD8     		bhi	.L19
 175:Generated_Source\PSoC5/CyDmac.c ****     {
 176:Generated_Source\PSoC5/CyDmac.c ****         if(0uL == (CyDmaChannels & channel))
 210              		.loc 1 176 9 is_stmt 1 view .LVU45
 211              		.loc 1 176 34 is_stmt 0 view .LVU46
 212 000e 094A     		ldr	r2, .L26
 213 0010 1268     		ldr	r2, [r2]
 214              		.loc 1 176 11 view .LVU47
 215 0012 1A42     		tst	r2, r3
 216 0014 03D0     		beq	.L24
 177:Generated_Source\PSoC5/CyDmac.c ****         {
 178:Generated_Source\PSoC5/CyDmac.c ****             /* Mark channel as used. */
 179:Generated_Source\PSoC5/CyDmac.c ****             CyDmaChannels |= channel;
 180:Generated_Source\PSoC5/CyDmac.c ****             break;
ARM GAS  C:\Users\jens-\AppData\Local\Temp\ccjjYmnj.s 			page 8


 181:Generated_Source\PSoC5/CyDmac.c ****         }
 182:Generated_Source\PSoC5/CyDmac.c **** 
 183:Generated_Source\PSoC5/CyDmac.c ****         channel <<= 1u;
 217              		.loc 1 183 9 is_stmt 1 discriminator 2 view .LVU48
 218              		.loc 1 183 17 is_stmt 0 discriminator 2 view .LVU49
 219 0016 5B00     		lsls	r3, r3, #1
 220              	.LVL9:
 174:Generated_Source\PSoC5/CyDmac.c ****     {
 221              		.loc 1 174 61 is_stmt 1 discriminator 2 view .LVU50
 174:Generated_Source\PSoC5/CyDmac.c ****     {
 222              		.loc 1 174 69 is_stmt 0 discriminator 2 view .LVU51
 223 0018 0134     		adds	r4, r4, #1
 224              	.LVL10:
 174:Generated_Source\PSoC5/CyDmac.c ****     {
 225              		.loc 1 174 69 discriminator 2 view .LVU52
 226 001a E4B2     		uxtb	r4, r4
 227              	.LVL11:
 174:Generated_Source\PSoC5/CyDmac.c ****     {
 228              		.loc 1 174 69 discriminator 2 view .LVU53
 229 001c F5E7     		b	.L17
 230              	.L24:
 179:Generated_Source\PSoC5/CyDmac.c ****             break;
 231              		.loc 1 179 13 is_stmt 1 view .LVU54
 179:Generated_Source\PSoC5/CyDmac.c ****             break;
 232              		.loc 1 179 27 is_stmt 0 view .LVU55
 233 001e 1343     		orrs	r3, r3, r2
 234              	.LVL12:
 179:Generated_Source\PSoC5/CyDmac.c ****             break;
 235              		.loc 1 179 27 view .LVU56
 236 0020 044A     		ldr	r2, .L26
 237 0022 1360     		str	r3, [r2]
 180:Generated_Source\PSoC5/CyDmac.c ****         }
 238              		.loc 1 180 13 is_stmt 1 view .LVU57
 239              	.L19:
 184:Generated_Source\PSoC5/CyDmac.c ****     }
 185:Generated_Source\PSoC5/CyDmac.c **** 
 186:Generated_Source\PSoC5/CyDmac.c ****     if(dmaIndex >= CY_DMA_NUMBEROF_CHANNELS)
 240              		.loc 1 186 5 view .LVU58
 241              		.loc 1 186 7 is_stmt 0 view .LVU59
 242 0024 172C     		cmp	r4, #23
 243 0026 03D8     		bhi	.L25
 244              	.LVL13:
 245              	.L21:
 187:Generated_Source\PSoC5/CyDmac.c ****     {
 188:Generated_Source\PSoC5/CyDmac.c ****         dmaIndex = CY_DMA_INVALID_CHANNEL;
 189:Generated_Source\PSoC5/CyDmac.c ****     }
 190:Generated_Source\PSoC5/CyDmac.c **** 
 191:Generated_Source\PSoC5/CyDmac.c ****     /* Exit critical section! */
 192:Generated_Source\PSoC5/CyDmac.c ****     CyExitCriticalSection(interruptState);
 246              		.loc 1 192 5 is_stmt 1 view .LVU60
 247 0028 FFF7FEFF 		bl	CyExitCriticalSection
 248              	.LVL14:
 193:Generated_Source\PSoC5/CyDmac.c **** 
 194:Generated_Source\PSoC5/CyDmac.c ****     return(dmaIndex);
 249              		.loc 1 194 5 view .LVU61
 195:Generated_Source\PSoC5/CyDmac.c **** }
 250              		.loc 1 195 1 is_stmt 0 view .LVU62
ARM GAS  C:\Users\jens-\AppData\Local\Temp\ccjjYmnj.s 			page 9


 251 002c 2046     		mov	r0, r4
 252 002e 10BD     		pop	{r4, pc}
 253              	.LVL15:
 254              	.L25:
 188:Generated_Source\PSoC5/CyDmac.c ****     }
 255              		.loc 1 188 18 view .LVU63
 256 0030 FF24     		movs	r4, #255
 257              	.LVL16:
 188:Generated_Source\PSoC5/CyDmac.c ****     }
 258              		.loc 1 188 18 view .LVU64
 259 0032 F9E7     		b	.L21
 260              	.L27:
 261              		.align	2
 262              	.L26:
 263 0034 00000000 		.word	.LANCHOR1
 264              		.cfi_endproc
 265              	.LFE4:
 266              		.size	CyDmaChAlloc, .-CyDmaChAlloc
 267              		.section	.text.CyDmaChFree,"ax",%progbits
 268              		.align	1
 269              		.global	CyDmaChFree
 270              		.syntax unified
 271              		.thumb
 272              		.thumb_func
 273              		.fpu softvfp
 274              		.type	CyDmaChFree, %function
 275              	CyDmaChFree:
 276              	.LVL17:
 277              	.LFB5:
 196:Generated_Source\PSoC5/CyDmac.c **** 
 197:Generated_Source\PSoC5/CyDmac.c **** 
 198:Generated_Source\PSoC5/CyDmac.c **** /*******************************************************************************
 199:Generated_Source\PSoC5/CyDmac.c **** * Function Name: CyDmaChFree
 200:Generated_Source\PSoC5/CyDmac.c **** ****************************************************************************//**
 201:Generated_Source\PSoC5/CyDmac.c **** *
 202:Generated_Source\PSoC5/CyDmac.c **** * Frees a channel allocated by \ref DmaChAlloc().
 203:Generated_Source\PSoC5/CyDmac.c **** *
 204:Generated_Source\PSoC5/CyDmac.c **** * \param chHandle The handle previously returned by \ref CyDmaChAlloc() or \ref
 205:Generated_Source\PSoC5/CyDmac.c **** * DMA_DmaInitalize().
 206:Generated_Source\PSoC5/CyDmac.c **** *
 207:Generated_Source\PSoC5/CyDmac.c **** * \return CYRET_SUCCESS if successful.
 208:Generated_Source\PSoC5/CyDmac.c **** * \return CYRET_BAD_PARAM if chHandle is invalid.
 209:Generated_Source\PSoC5/CyDmac.c **** *
 210:Generated_Source\PSoC5/CyDmac.c **** *******************************************************************************/
 211:Generated_Source\PSoC5/CyDmac.c **** cystatus CyDmaChFree(uint8 chHandle) 
 212:Generated_Source\PSoC5/CyDmac.c **** {
 278              		.loc 1 212 1 is_stmt 1 view -0
 279              		.cfi_startproc
 280              		@ args = 0, pretend = 0, frame = 0
 281              		@ frame_needed = 0, uses_anonymous_args = 0
 213:Generated_Source\PSoC5/CyDmac.c ****     cystatus status = CYRET_BAD_PARAM;
 282              		.loc 1 213 5 view .LVU66
 214:Generated_Source\PSoC5/CyDmac.c ****     uint8 interruptState;
 283              		.loc 1 214 5 view .LVU67
 215:Generated_Source\PSoC5/CyDmac.c **** 
 216:Generated_Source\PSoC5/CyDmac.c ****     if(chHandle < CY_DMA_NUMBEROF_CHANNELS)
 284              		.loc 1 216 5 view .LVU68
ARM GAS  C:\Users\jens-\AppData\Local\Temp\ccjjYmnj.s 			page 10


 285              		.loc 1 216 7 is_stmt 0 view .LVU69
 286 0000 1728     		cmp	r0, #23
 287 0002 01D9     		bls	.L35
 213:Generated_Source\PSoC5/CyDmac.c ****     uint8 interruptState;
 288              		.loc 1 213 14 view .LVU70
 289 0004 0120     		movs	r0, #1
 290              	.LVL18:
 217:Generated_Source\PSoC5/CyDmac.c ****     {
 218:Generated_Source\PSoC5/CyDmac.c ****         /* Enter critical section */
 219:Generated_Source\PSoC5/CyDmac.c ****         interruptState = CyEnterCriticalSection();
 220:Generated_Source\PSoC5/CyDmac.c **** 
 221:Generated_Source\PSoC5/CyDmac.c ****         /* Clear bit mask that keeps track of ownership. */
 222:Generated_Source\PSoC5/CyDmac.c ****         CyDmaChannels &= ~(((uint32) 1u) << chHandle);
 223:Generated_Source\PSoC5/CyDmac.c **** 
 224:Generated_Source\PSoC5/CyDmac.c ****         /* Exit critical section */
 225:Generated_Source\PSoC5/CyDmac.c ****         CyExitCriticalSection(interruptState);
 226:Generated_Source\PSoC5/CyDmac.c ****         status = CYRET_SUCCESS;
 227:Generated_Source\PSoC5/CyDmac.c ****     }
 228:Generated_Source\PSoC5/CyDmac.c **** 
 229:Generated_Source\PSoC5/CyDmac.c ****     return(status);
 291              		.loc 1 229 5 is_stmt 1 view .LVU71
 230:Generated_Source\PSoC5/CyDmac.c **** }
 292              		.loc 1 230 1 is_stmt 0 view .LVU72
 293 0006 7047     		bx	lr
 294              	.LVL19:
 295              	.L35:
 212:Generated_Source\PSoC5/CyDmac.c ****     cystatus status = CYRET_BAD_PARAM;
 296              		.loc 1 212 1 view .LVU73
 297 0008 10B5     		push	{r4, lr}
 298              		.cfi_def_cfa_offset 8
 299              		.cfi_offset 4, -8
 300              		.cfi_offset 14, -4
 301 000a 0446     		mov	r4, r0
 219:Generated_Source\PSoC5/CyDmac.c **** 
 302              		.loc 1 219 9 is_stmt 1 view .LVU74
 219:Generated_Source\PSoC5/CyDmac.c **** 
 303              		.loc 1 219 26 is_stmt 0 view .LVU75
 304 000c FFF7FEFF 		bl	CyEnterCriticalSection
 305              	.LVL20:
 222:Generated_Source\PSoC5/CyDmac.c **** 
 306              		.loc 1 222 9 is_stmt 1 view .LVU76
 222:Generated_Source\PSoC5/CyDmac.c **** 
 307              		.loc 1 222 42 is_stmt 0 view .LVU77
 308 0010 0123     		movs	r3, #1
 309 0012 03FA04F4 		lsl	r4, r3, r4
 222:Generated_Source\PSoC5/CyDmac.c **** 
 310              		.loc 1 222 23 view .LVU78
 311 0016 044A     		ldr	r2, .L36
 312 0018 1368     		ldr	r3, [r2]
 313 001a 23EA0403 		bic	r3, r3, r4
 314 001e 1360     		str	r3, [r2]
 225:Generated_Source\PSoC5/CyDmac.c ****         status = CYRET_SUCCESS;
 315              		.loc 1 225 9 is_stmt 1 view .LVU79
 316 0020 FFF7FEFF 		bl	CyExitCriticalSection
 317              	.LVL21:
 226:Generated_Source\PSoC5/CyDmac.c ****     }
 318              		.loc 1 226 9 view .LVU80
ARM GAS  C:\Users\jens-\AppData\Local\Temp\ccjjYmnj.s 			page 11


 226:Generated_Source\PSoC5/CyDmac.c ****     }
 319              		.loc 1 226 16 is_stmt 0 view .LVU81
 320 0024 0020     		movs	r0, #0
 321              		.loc 1 230 1 view .LVU82
 322 0026 10BD     		pop	{r4, pc}
 323              	.L37:
 324              		.align	2
 325              	.L36:
 326 0028 00000000 		.word	.LANCHOR1
 327              		.cfi_endproc
 328              	.LFE5:
 329              		.size	CyDmaChFree, .-CyDmaChFree
 330              		.section	.text.CyDmaChEnable,"ax",%progbits
 331              		.align	1
 332              		.global	CyDmaChEnable
 333              		.syntax unified
 334              		.thumb
 335              		.thumb_func
 336              		.fpu softvfp
 337              		.type	CyDmaChEnable, %function
 338              	CyDmaChEnable:
 339              	.LVL22:
 340              	.LFB6:
 231:Generated_Source\PSoC5/CyDmac.c **** 
 232:Generated_Source\PSoC5/CyDmac.c **** 
 233:Generated_Source\PSoC5/CyDmac.c **** /*******************************************************************************
 234:Generated_Source\PSoC5/CyDmac.c **** * Function Name: CyDmaChEnable
 235:Generated_Source\PSoC5/CyDmac.c **** ****************************************************************************//**
 236:Generated_Source\PSoC5/CyDmac.c **** *
 237:Generated_Source\PSoC5/CyDmac.c **** *  Enables the DMA channel. A software or hardware request still must happen
 238:Generated_Source\PSoC5/CyDmac.c **** *  before the channel is executed.
 239:Generated_Source\PSoC5/CyDmac.c **** *
 240:Generated_Source\PSoC5/CyDmac.c **** *  \param chHandle A handle previously returned by \ref CyDmaChAlloc() or \ref
 241:Generated_Source\PSoC5/CyDmac.c **** *  DMA_DmaInitalize().
 242:Generated_Source\PSoC5/CyDmac.c **** *
 243:Generated_Source\PSoC5/CyDmac.c **** *  \param preserveTds Preserves the original TD state when the TD has completed.
 244:Generated_Source\PSoC5/CyDmac.c **** *  This parameter applies to all TDs in the channel.
 245:Generated_Source\PSoC5/CyDmac.c **** *
 246:Generated_Source\PSoC5/CyDmac.c **** *   0 - When TD is completed, the DMAC leaves the TD configuration values in
 247:Generated_Source\PSoC5/CyDmac.c **** *   their current state, and does not restore them to their original state.
 248:Generated_Source\PSoC5/CyDmac.c **** *
 249:Generated_Source\PSoC5/CyDmac.c **** *   1 - When TD is completed, the DMAC restores the original configuration
 250:Generated_Source\PSoC5/CyDmac.c **** *   values of the TD.
 251:Generated_Source\PSoC5/CyDmac.c **** *
 252:Generated_Source\PSoC5/CyDmac.c **** *  When preserveTds is set, the TD slot that equals the channel number becomes
 253:Generated_Source\PSoC5/CyDmac.c **** *  RESERVED and that becomes where the working registers exist. So, for example,
 254:Generated_Source\PSoC5/CyDmac.c **** *  if you are using CH06 and preserveTds is set, you are not allowed to use TD
 255:Generated_Source\PSoC5/CyDmac.c **** *  slot 6. That is reclaimed by the DMA engine for its private use.
 256:Generated_Source\PSoC5/CyDmac.c **** *
 257:Generated_Source\PSoC5/CyDmac.c **** *  \note Do not chain back to a completed TD if the preserveTds for the channel
 258:Generated_Source\PSoC5/CyDmac.c **** *  is set to 0. When a TD has completed preserveTds for the channel set to 0,
 259:Generated_Source\PSoC5/CyDmac.c **** *  the transfer count will be at 0. If a TD with a transfer count of 0 is
 260:Generated_Source\PSoC5/CyDmac.c **** *  started, the TD will transfer an indefinite amount of data.
 261:Generated_Source\PSoC5/CyDmac.c **** *
 262:Generated_Source\PSoC5/CyDmac.c **** *  Take extra precautions when using the hardware request (DRQ) option when the
 263:Generated_Source\PSoC5/CyDmac.c **** *  preserveTds is set to 0, as you might be requesting the wrong data.
 264:Generated_Source\PSoC5/CyDmac.c **** *
ARM GAS  C:\Users\jens-\AppData\Local\Temp\ccjjYmnj.s 			page 12


 265:Generated_Source\PSoC5/CyDmac.c **** * \return CYRET_SUCCESS if successful.
 266:Generated_Source\PSoC5/CyDmac.c **** * \return CYRET_BAD_PARAM if chHandle is invalid.
 267:Generated_Source\PSoC5/CyDmac.c **** *
 268:Generated_Source\PSoC5/CyDmac.c **** *******************************************************************************/
 269:Generated_Source\PSoC5/CyDmac.c **** cystatus CyDmaChEnable(uint8 chHandle, uint8 preserveTds) 
 270:Generated_Source\PSoC5/CyDmac.c **** {
 341              		.loc 1 270 1 is_stmt 1 view -0
 342              		.cfi_startproc
 343              		@ args = 0, pretend = 0, frame = 0
 344              		@ frame_needed = 0, uses_anonymous_args = 0
 345              		@ link register save eliminated.
 271:Generated_Source\PSoC5/CyDmac.c ****     cystatus status = CYRET_BAD_PARAM;
 346              		.loc 1 271 5 view .LVU84
 272:Generated_Source\PSoC5/CyDmac.c **** 
 273:Generated_Source\PSoC5/CyDmac.c ****     if(chHandle < CY_DMA_NUMBEROF_CHANNELS)
 347              		.loc 1 273 5 view .LVU85
 348              		.loc 1 273 7 is_stmt 0 view .LVU86
 349 0000 1728     		cmp	r0, #23
 350 0002 15D8     		bhi	.L42
 274:Generated_Source\PSoC5/CyDmac.c ****     {
 275:Generated_Source\PSoC5/CyDmac.c ****         if (0u != preserveTds)
 351              		.loc 1 275 9 is_stmt 1 view .LVU87
 352              		.loc 1 275 12 is_stmt 0 view .LVU88
 353 0004 69B1     		cbz	r1, .L40
 276:Generated_Source\PSoC5/CyDmac.c ****         {
 277:Generated_Source\PSoC5/CyDmac.c ****             /* Store intermediate TD states separately in CHn_SEP_TD0/1 to
 278:Generated_Source\PSoC5/CyDmac.c ****             *  preserve original TD chain
 279:Generated_Source\PSoC5/CyDmac.c ****             */
 280:Generated_Source\PSoC5/CyDmac.c ****             CY_DMA_CH_STRUCT_PTR[chHandle].basic_cfg[0u] |= CY_DMA_CH_BASIC_CFG_WORK_SEP;
 354              		.loc 1 280 13 is_stmt 1 view .LVU89
 355              		.loc 1 280 58 is_stmt 0 view .LVU90
 356 0006 0301     		lsls	r3, r0, #4
 357 0008 0A49     		ldr	r1, .L43
 358              	.LVL23:
 359              		.loc 1 280 58 view .LVU91
 360 000a 5A5C     		ldrb	r2, [r3, r1]	@ zero_extendqisi2
 361 000c 42F02002 		orr	r2, r2, #32
 362 0010 5A54     		strb	r2, [r3, r1]
 363              	.L41:
 281:Generated_Source\PSoC5/CyDmac.c ****         }
 282:Generated_Source\PSoC5/CyDmac.c ****         else
 283:Generated_Source\PSoC5/CyDmac.c ****         {
 284:Generated_Source\PSoC5/CyDmac.c ****             /* Store intermediate and final TD states on top of original TD chain */
 285:Generated_Source\PSoC5/CyDmac.c ****             CY_DMA_CH_STRUCT_PTR[chHandle].basic_cfg[0u] &= (uint8)(~CY_DMA_CH_BASIC_CFG_WORK_SEP);
 286:Generated_Source\PSoC5/CyDmac.c ****         }
 287:Generated_Source\PSoC5/CyDmac.c **** 
 288:Generated_Source\PSoC5/CyDmac.c ****         /* Enable channel */
 289:Generated_Source\PSoC5/CyDmac.c ****         CY_DMA_CH_STRUCT_PTR[chHandle].basic_cfg[0u] |= CY_DMA_CH_BASIC_CFG_EN;
 364              		.loc 1 289 9 is_stmt 1 view .LVU92
 365              		.loc 1 289 54 is_stmt 0 view .LVU93
 366 0012 0001     		lsls	r0, r0, #4
 367              	.LVL24:
 368              		.loc 1 289 54 view .LVU94
 369 0014 074A     		ldr	r2, .L43
 370 0016 835C     		ldrb	r3, [r0, r2]	@ zero_extendqisi2
 371 0018 43F00103 		orr	r3, r3, #1
 372 001c 8354     		strb	r3, [r0, r2]
ARM GAS  C:\Users\jens-\AppData\Local\Temp\ccjjYmnj.s 			page 13


 290:Generated_Source\PSoC5/CyDmac.c **** 
 291:Generated_Source\PSoC5/CyDmac.c ****         status = CYRET_SUCCESS;
 373              		.loc 1 291 9 is_stmt 1 view .LVU95
 374              	.LVL25:
 375              		.loc 1 291 16 is_stmt 0 view .LVU96
 376 001e 0020     		movs	r0, #0
 377 0020 7047     		bx	lr
 378              	.LVL26:
 379              	.L40:
 285:Generated_Source\PSoC5/CyDmac.c ****         }
 380              		.loc 1 285 13 is_stmt 1 view .LVU97
 285:Generated_Source\PSoC5/CyDmac.c ****         }
 381              		.loc 1 285 58 is_stmt 0 view .LVU98
 382 0022 0301     		lsls	r3, r0, #4
 383 0024 0349     		ldr	r1, .L43
 384              	.LVL27:
 285:Generated_Source\PSoC5/CyDmac.c ****         }
 385              		.loc 1 285 58 view .LVU99
 386 0026 5A5C     		ldrb	r2, [r3, r1]	@ zero_extendqisi2
 387 0028 02F0DF02 		and	r2, r2, #223
 388 002c 5A54     		strb	r2, [r3, r1]
 389 002e F0E7     		b	.L41
 390              	.LVL28:
 391              	.L42:
 271:Generated_Source\PSoC5/CyDmac.c **** 
 392              		.loc 1 271 14 view .LVU100
 393 0030 0120     		movs	r0, #1
 394              	.LVL29:
 292:Generated_Source\PSoC5/CyDmac.c ****     }
 293:Generated_Source\PSoC5/CyDmac.c **** 
 294:Generated_Source\PSoC5/CyDmac.c ****     return(status);
 395              		.loc 1 294 5 is_stmt 1 view .LVU101
 295:Generated_Source\PSoC5/CyDmac.c **** }
 396              		.loc 1 295 1 is_stmt 0 view .LVU102
 397 0032 7047     		bx	lr
 398              	.L44:
 399              		.align	2
 400              	.L43:
 401 0034 10700040 		.word	1073770512
 402              		.cfi_endproc
 403              	.LFE6:
 404              		.size	CyDmaChEnable, .-CyDmaChEnable
 405              		.section	.text.CyDmaChDisable,"ax",%progbits
 406              		.align	1
 407              		.global	CyDmaChDisable
 408              		.syntax unified
 409              		.thumb
 410              		.thumb_func
 411              		.fpu softvfp
 412              		.type	CyDmaChDisable, %function
 413              	CyDmaChDisable:
 414              	.LVL30:
 415              	.LFB7:
 296:Generated_Source\PSoC5/CyDmac.c **** 
 297:Generated_Source\PSoC5/CyDmac.c **** 
 298:Generated_Source\PSoC5/CyDmac.c **** /*******************************************************************************
 299:Generated_Source\PSoC5/CyDmac.c **** * Function Name: CyDmaChDisable
ARM GAS  C:\Users\jens-\AppData\Local\Temp\ccjjYmnj.s 			page 14


 300:Generated_Source\PSoC5/CyDmac.c **** ****************************************************************************//**
 301:Generated_Source\PSoC5/CyDmac.c **** *
 302:Generated_Source\PSoC5/CyDmac.c **** * Disables the DMA channel. Once this function is called, CyDmaChStatus() may
 303:Generated_Source\PSoC5/CyDmac.c **** * be called to determine when the channel is disabled and which TDs were being
 304:Generated_Source\PSoC5/CyDmac.c **** * executed.
 305:Generated_Source\PSoC5/CyDmac.c **** *
 306:Generated_Source\PSoC5/CyDmac.c **** * If it is currently executing it will allow the current burst to finish
 307:Generated_Source\PSoC5/CyDmac.c **** * naturally.
 308:Generated_Source\PSoC5/CyDmac.c **** *
 309:Generated_Source\PSoC5/CyDmac.c **** * \param chHandle A handle previously returned by \ref CyDmaChAlloc() or \ref
 310:Generated_Source\PSoC5/CyDmac.c **** * DMA_DmaInitalize().
 311:Generated_Source\PSoC5/CyDmac.c **** *
 312:Generated_Source\PSoC5/CyDmac.c **** * \return CYRET_SUCCESS if successful.
 313:Generated_Source\PSoC5/CyDmac.c **** * \return CYRET_BAD_PARAM if chHandle is invalid.
 314:Generated_Source\PSoC5/CyDmac.c **** *
 315:Generated_Source\PSoC5/CyDmac.c **** *******************************************************************************/
 316:Generated_Source\PSoC5/CyDmac.c **** cystatus CyDmaChDisable(uint8 chHandle) 
 317:Generated_Source\PSoC5/CyDmac.c **** {
 416              		.loc 1 317 1 is_stmt 1 view -0
 417              		.cfi_startproc
 418              		@ args = 0, pretend = 0, frame = 0
 419              		@ frame_needed = 0, uses_anonymous_args = 0
 420              		@ link register save eliminated.
 318:Generated_Source\PSoC5/CyDmac.c ****     cystatus status = CYRET_BAD_PARAM;
 421              		.loc 1 318 5 view .LVU104
 319:Generated_Source\PSoC5/CyDmac.c **** 
 320:Generated_Source\PSoC5/CyDmac.c ****     if(chHandle < CY_DMA_NUMBEROF_CHANNELS)
 422              		.loc 1 320 5 view .LVU105
 423              		.loc 1 320 7 is_stmt 0 view .LVU106
 424 0000 1728     		cmp	r0, #23
 425 0002 0BD8     		bhi	.L47
 321:Generated_Source\PSoC5/CyDmac.c ****     {
 322:Generated_Source\PSoC5/CyDmac.c ****         /***********************************************************************
 323:Generated_Source\PSoC5/CyDmac.c ****         * Should not change configuration information of a DMA channel when it
 324:Generated_Source\PSoC5/CyDmac.c ****         * is active (or vulnerable to becoming active).
 325:Generated_Source\PSoC5/CyDmac.c ****         ***********************************************************************/
 326:Generated_Source\PSoC5/CyDmac.c **** 
 327:Generated_Source\PSoC5/CyDmac.c ****         /* Disable channel */
 328:Generated_Source\PSoC5/CyDmac.c ****         CY_DMA_CH_STRUCT_PTR[chHandle].basic_cfg[0] &= ((uint8) (~CY_DMA_CH_BASIC_CFG_EN));
 426              		.loc 1 328 9 is_stmt 1 view .LVU107
 427              		.loc 1 328 53 is_stmt 0 view .LVU108
 428 0004 0001     		lsls	r0, r0, #4
 429              	.LVL31:
 430              		.loc 1 328 53 view .LVU109
 431 0006 064B     		ldr	r3, .L48
 432 0008 C25C     		ldrb	r2, [r0, r3]	@ zero_extendqisi2
 433 000a 02F0FE02 		and	r2, r2, #254
 434 000e C254     		strb	r2, [r0, r3]
 329:Generated_Source\PSoC5/CyDmac.c **** 
 330:Generated_Source\PSoC5/CyDmac.c ****         /* Store intermediate and final TD states on top of original TD chain */
 331:Generated_Source\PSoC5/CyDmac.c ****         CY_DMA_CH_STRUCT_PTR[chHandle].basic_cfg[0] &= ((uint8) (~CY_DMA_CH_BASIC_CFG_WORK_SEP));
 435              		.loc 1 331 9 is_stmt 1 view .LVU110
 436              		.loc 1 331 53 is_stmt 0 view .LVU111
 437 0010 C25C     		ldrb	r2, [r0, r3]	@ zero_extendqisi2
 438 0012 02F0DF02 		and	r2, r2, #223
 439 0016 C254     		strb	r2, [r0, r3]
 332:Generated_Source\PSoC5/CyDmac.c ****         status = CYRET_SUCCESS;
ARM GAS  C:\Users\jens-\AppData\Local\Temp\ccjjYmnj.s 			page 15


 440              		.loc 1 332 9 is_stmt 1 view .LVU112
 441              	.LVL32:
 442              		.loc 1 332 16 is_stmt 0 view .LVU113
 443 0018 0020     		movs	r0, #0
 444 001a 7047     		bx	lr
 445              	.LVL33:
 446              	.L47:
 318:Generated_Source\PSoC5/CyDmac.c **** 
 447              		.loc 1 318 14 view .LVU114
 448 001c 0120     		movs	r0, #1
 449              	.LVL34:
 333:Generated_Source\PSoC5/CyDmac.c ****     }
 334:Generated_Source\PSoC5/CyDmac.c **** 
 335:Generated_Source\PSoC5/CyDmac.c ****     return(status);
 450              		.loc 1 335 5 is_stmt 1 view .LVU115
 336:Generated_Source\PSoC5/CyDmac.c **** }
 451              		.loc 1 336 1 is_stmt 0 view .LVU116
 452 001e 7047     		bx	lr
 453              	.L49:
 454              		.align	2
 455              	.L48:
 456 0020 10700040 		.word	1073770512
 457              		.cfi_endproc
 458              	.LFE7:
 459              		.size	CyDmaChDisable, .-CyDmaChDisable
 460              		.section	.text.CyDmaClearPendingDrq,"ax",%progbits
 461              		.align	1
 462              		.global	CyDmaClearPendingDrq
 463              		.syntax unified
 464              		.thumb
 465              		.thumb_func
 466              		.fpu softvfp
 467              		.type	CyDmaClearPendingDrq, %function
 468              	CyDmaClearPendingDrq:
 469              	.LVL35:
 470              	.LFB8:
 337:Generated_Source\PSoC5/CyDmac.c **** 
 338:Generated_Source\PSoC5/CyDmac.c **** 
 339:Generated_Source\PSoC5/CyDmac.c **** /*******************************************************************************
 340:Generated_Source\PSoC5/CyDmac.c **** * Function Name: CyDmaClearPendingDrq
 341:Generated_Source\PSoC5/CyDmac.c **** ****************************************************************************//**
 342:Generated_Source\PSoC5/CyDmac.c **** *
 343:Generated_Source\PSoC5/CyDmac.c **** * Clears pending the DMA data request.
 344:Generated_Source\PSoC5/CyDmac.c **** *
 345:Generated_Source\PSoC5/CyDmac.c **** * \param chHandle Handle to the dma channel.
 346:Generated_Source\PSoC5/CyDmac.c **** *
 347:Generated_Source\PSoC5/CyDmac.c **** * \return CYRET_SUCCESS if successful.
 348:Generated_Source\PSoC5/CyDmac.c **** * \return CYRET_BAD_PARAM if chHandle is invalid.
 349:Generated_Source\PSoC5/CyDmac.c **** *
 350:Generated_Source\PSoC5/CyDmac.c **** *******************************************************************************/
 351:Generated_Source\PSoC5/CyDmac.c **** cystatus CyDmaClearPendingDrq(uint8 chHandle) 
 352:Generated_Source\PSoC5/CyDmac.c **** {
 471              		.loc 1 352 1 is_stmt 1 view -0
 472              		.cfi_startproc
 473              		@ args = 0, pretend = 0, frame = 0
 474              		@ frame_needed = 0, uses_anonymous_args = 0
 475              		@ link register save eliminated.
ARM GAS  C:\Users\jens-\AppData\Local\Temp\ccjjYmnj.s 			page 16


 353:Generated_Source\PSoC5/CyDmac.c ****     cystatus status = CYRET_BAD_PARAM;
 476              		.loc 1 353 5 view .LVU118
 354:Generated_Source\PSoC5/CyDmac.c **** 
 355:Generated_Source\PSoC5/CyDmac.c ****     if(chHandle < CY_DMA_NUMBEROF_CHANNELS)
 477              		.loc 1 355 5 view .LVU119
 478              		.loc 1 355 7 is_stmt 0 view .LVU120
 479 0000 1728     		cmp	r0, #23
 480 0002 0DD8     		bhi	.L52
 356:Generated_Source\PSoC5/CyDmac.c ****     {
 357:Generated_Source\PSoC5/CyDmac.c ****         CY_DMA_CH_STRUCT_PTR[chHandle].action[0] |= CY_DMA_CPU_TERM_CHAIN;
 481              		.loc 1 357 9 is_stmt 1 view .LVU121
 482              		.loc 1 357 50 is_stmt 0 view .LVU122
 483 0004 0101     		lsls	r1, r0, #4
 484 0006 074B     		ldr	r3, .L53
 485 0008 03EB0010 		add	r0, r3, r0, lsl #4
 486              	.LVL36:
 487              		.loc 1 357 50 view .LVU123
 488 000c 0279     		ldrb	r2, [r0, #4]	@ zero_extendqisi2
 489 000e 42F00402 		orr	r2, r2, #4
 490 0012 0271     		strb	r2, [r0, #4]
 358:Generated_Source\PSoC5/CyDmac.c ****         CY_DMA_CH_STRUCT_PTR[chHandle].basic_cfg[0] |= 0x01u;
 491              		.loc 1 358 9 is_stmt 1 view .LVU124
 492              		.loc 1 358 53 is_stmt 0 view .LVU125
 493 0014 CA5C     		ldrb	r2, [r1, r3]	@ zero_extendqisi2
 494 0016 42F00102 		orr	r2, r2, #1
 495 001a CA54     		strb	r2, [r1, r3]
 359:Generated_Source\PSoC5/CyDmac.c ****         status = CYRET_SUCCESS;
 496              		.loc 1 359 9 is_stmt 1 view .LVU126
 497              	.LVL37:
 498              		.loc 1 359 16 is_stmt 0 view .LVU127
 499 001c 0020     		movs	r0, #0
 500 001e 7047     		bx	lr
 501              	.LVL38:
 502              	.L52:
 353:Generated_Source\PSoC5/CyDmac.c **** 
 503              		.loc 1 353 14 view .LVU128
 504 0020 0120     		movs	r0, #1
 505              	.LVL39:
 360:Generated_Source\PSoC5/CyDmac.c ****     }
 361:Generated_Source\PSoC5/CyDmac.c **** 
 362:Generated_Source\PSoC5/CyDmac.c ****     return(status);
 506              		.loc 1 362 5 is_stmt 1 view .LVU129
 363:Generated_Source\PSoC5/CyDmac.c **** }
 507              		.loc 1 363 1 is_stmt 0 view .LVU130
 508 0022 7047     		bx	lr
 509              	.L54:
 510              		.align	2
 511              	.L53:
 512 0024 10700040 		.word	1073770512
 513              		.cfi_endproc
 514              	.LFE8:
 515              		.size	CyDmaClearPendingDrq, .-CyDmaClearPendingDrq
 516              		.section	.text.CyDmaChPriority,"ax",%progbits
 517              		.align	1
 518              		.global	CyDmaChPriority
 519              		.syntax unified
 520              		.thumb
ARM GAS  C:\Users\jens-\AppData\Local\Temp\ccjjYmnj.s 			page 17


 521              		.thumb_func
 522              		.fpu softvfp
 523              		.type	CyDmaChPriority, %function
 524              	CyDmaChPriority:
 525              	.LVL40:
 526              	.LFB9:
 364:Generated_Source\PSoC5/CyDmac.c **** 
 365:Generated_Source\PSoC5/CyDmac.c **** 
 366:Generated_Source\PSoC5/CyDmac.c **** /*******************************************************************************
 367:Generated_Source\PSoC5/CyDmac.c **** * Function Name: CyDmaChPriority
 368:Generated_Source\PSoC5/CyDmac.c **** ****************************************************************************//**
 369:Generated_Source\PSoC5/CyDmac.c **** *
 370:Generated_Source\PSoC5/CyDmac.c **** *  Sets the priority of a DMA channel. You can use this function when you want
 371:Generated_Source\PSoC5/CyDmac.c **** *  to change the priority at run time. If the priority remains the same for a
 372:Generated_Source\PSoC5/CyDmac.c **** *  DMA channel, then you can configure the priority in the .cydwr file.
 373:Generated_Source\PSoC5/CyDmac.c **** *
 374:Generated_Source\PSoC5/CyDmac.c **** *  \param chHandle A handle previously returned by \ref CyDmaChAlloc() or \ref
 375:Generated_Source\PSoC5/CyDmac.c **** *  DMA_DmaInitalize().
 376:Generated_Source\PSoC5/CyDmac.c **** *
 377:Generated_Source\PSoC5/CyDmac.c **** *  \param priority Priority to set the channel to, 0 - 7.
 378:Generated_Source\PSoC5/CyDmac.c **** *
 379:Generated_Source\PSoC5/CyDmac.c **** * \return CYRET_SUCCESS if successful.
 380:Generated_Source\PSoC5/CyDmac.c **** *  \return CYRET_BAD_PARAM if chHandle is invalid.
 381:Generated_Source\PSoC5/CyDmac.c **** *
 382:Generated_Source\PSoC5/CyDmac.c **** *******************************************************************************/
 383:Generated_Source\PSoC5/CyDmac.c **** cystatus CyDmaChPriority(uint8 chHandle, uint8 priority) 
 384:Generated_Source\PSoC5/CyDmac.c **** {
 527              		.loc 1 384 1 is_stmt 1 view -0
 528              		.cfi_startproc
 529              		@ args = 0, pretend = 0, frame = 0
 530              		@ frame_needed = 0, uses_anonymous_args = 0
 531              		@ link register save eliminated.
 385:Generated_Source\PSoC5/CyDmac.c ****     uint8 value;
 532              		.loc 1 385 5 view .LVU132
 386:Generated_Source\PSoC5/CyDmac.c ****     cystatus status = CYRET_BAD_PARAM;
 533              		.loc 1 386 5 view .LVU133
 387:Generated_Source\PSoC5/CyDmac.c **** 
 388:Generated_Source\PSoC5/CyDmac.c ****     if(chHandle < CY_DMA_NUMBEROF_CHANNELS)
 534              		.loc 1 388 5 view .LVU134
 535              		.loc 1 388 7 is_stmt 0 view .LVU135
 536 0000 1728     		cmp	r0, #23
 537 0002 0BD8     		bhi	.L57
 389:Generated_Source\PSoC5/CyDmac.c ****     {
 390:Generated_Source\PSoC5/CyDmac.c ****         value = CY_DMA_CH_STRUCT_PTR[chHandle].basic_cfg[0u] & ((uint8)(~(0x0Eu)));
 538              		.loc 1 390 9 is_stmt 1 view .LVU136
 539              		.loc 1 390 37 is_stmt 0 view .LVU137
 540 0004 0001     		lsls	r0, r0, #4
 541              	.LVL41:
 542              		.loc 1 390 37 view .LVU138
 543 0006 064A     		ldr	r2, .L58
 544              		.loc 1 390 57 view .LVU139
 545 0008 835C     		ldrb	r3, [r0, r2]	@ zero_extendqisi2
 546              		.loc 1 390 15 view .LVU140
 547 000a 03F0F103 		and	r3, r3, #241
 548              	.LVL42:
 391:Generated_Source\PSoC5/CyDmac.c **** 
 392:Generated_Source\PSoC5/CyDmac.c ****         CY_DMA_CH_STRUCT_PTR[chHandle].basic_cfg[0u] = value | ((uint8) ((priority & 0x7u) << 0x01u
ARM GAS  C:\Users\jens-\AppData\Local\Temp\ccjjYmnj.s 			page 18


 549              		.loc 1 392 9 is_stmt 1 view .LVU141
 550              		.loc 1 392 92 is_stmt 0 view .LVU142
 551 000e 4900     		lsls	r1, r1, #1
 552              	.LVL43:
 553              		.loc 1 392 65 view .LVU143
 554 0010 01F00E01 		and	r1, r1, #14
 555              		.loc 1 392 62 view .LVU144
 556 0014 1943     		orrs	r1, r1, r3
 557              		.loc 1 392 54 view .LVU145
 558 0016 8154     		strb	r1, [r0, r2]
 393:Generated_Source\PSoC5/CyDmac.c **** 
 394:Generated_Source\PSoC5/CyDmac.c ****         status = CYRET_SUCCESS;
 559              		.loc 1 394 9 is_stmt 1 view .LVU146
 560              	.LVL44:
 561              		.loc 1 394 16 is_stmt 0 view .LVU147
 562 0018 0020     		movs	r0, #0
 563 001a 7047     		bx	lr
 564              	.LVL45:
 565              	.L57:
 386:Generated_Source\PSoC5/CyDmac.c **** 
 566              		.loc 1 386 14 view .LVU148
 567 001c 0120     		movs	r0, #1
 568              	.LVL46:
 395:Generated_Source\PSoC5/CyDmac.c ****     }
 396:Generated_Source\PSoC5/CyDmac.c **** 
 397:Generated_Source\PSoC5/CyDmac.c ****     return(status);
 569              		.loc 1 397 5 is_stmt 1 view .LVU149
 398:Generated_Source\PSoC5/CyDmac.c **** }
 570              		.loc 1 398 1 is_stmt 0 view .LVU150
 571 001e 7047     		bx	lr
 572              	.L59:
 573              		.align	2
 574              	.L58:
 575 0020 10700040 		.word	1073770512
 576              		.cfi_endproc
 577              	.LFE9:
 578              		.size	CyDmaChPriority, .-CyDmaChPriority
 579              		.section	.text.CyDmaChSetExtendedAddress,"ax",%progbits
 580              		.align	1
 581              		.global	CyDmaChSetExtendedAddress
 582              		.syntax unified
 583              		.thumb
 584              		.thumb_func
 585              		.fpu softvfp
 586              		.type	CyDmaChSetExtendedAddress, %function
 587              	CyDmaChSetExtendedAddress:
 588              	.LVL47:
 589              	.LFB10:
 399:Generated_Source\PSoC5/CyDmac.c **** 
 400:Generated_Source\PSoC5/CyDmac.c **** 
 401:Generated_Source\PSoC5/CyDmac.c **** /*******************************************************************************
 402:Generated_Source\PSoC5/CyDmac.c **** * Function Name: CyDmaChSetExtendedAddress
 403:Generated_Source\PSoC5/CyDmac.c **** ****************************************************************************//**
 404:Generated_Source\PSoC5/CyDmac.c **** *
 405:Generated_Source\PSoC5/CyDmac.c **** *  Sets the high 16 bits of the source and destination addresses for the DMA
 406:Generated_Source\PSoC5/CyDmac.c **** *  channel (valid for all TDs in the chain).
 407:Generated_Source\PSoC5/CyDmac.c **** *
ARM GAS  C:\Users\jens-\AppData\Local\Temp\ccjjYmnj.s 			page 19


 408:Generated_Source\PSoC5/CyDmac.c **** *  \param chHandle A handle previously returned by \ref CyDmaChAlloc() or \ref
 409:Generated_Source\PSoC5/CyDmac.c **** *  DMA_DmaInitalize().
 410:Generated_Source\PSoC5/CyDmac.c **** *
 411:Generated_Source\PSoC5/CyDmac.c **** *  \param source Upper 16 bit address of the DMA transfer source.
 412:Generated_Source\PSoC5/CyDmac.c **** *
 413:Generated_Source\PSoC5/CyDmac.c **** *  \param destination Upper 16 bit address of the DMA transfer destination.
 414:Generated_Source\PSoC5/CyDmac.c **** *
 415:Generated_Source\PSoC5/CyDmac.c **** * \return CYRET_SUCCESS if successful.
 416:Generated_Source\PSoC5/CyDmac.c **** * \return CYRET_BAD_PARAM if chHandle is invalid.
 417:Generated_Source\PSoC5/CyDmac.c **** *
 418:Generated_Source\PSoC5/CyDmac.c **** *******************************************************************************/
 419:Generated_Source\PSoC5/CyDmac.c **** cystatus CyDmaChSetExtendedAddress(uint8 chHandle, uint16 source, uint16 destination) \
 420:Generated_Source\PSoC5/CyDmac.c ****     
 421:Generated_Source\PSoC5/CyDmac.c **** {
 590              		.loc 1 421 1 is_stmt 1 view -0
 591              		.cfi_startproc
 592              		@ args = 0, pretend = 0, frame = 0
 593              		@ frame_needed = 0, uses_anonymous_args = 0
 594              		@ link register save eliminated.
 422:Generated_Source\PSoC5/CyDmac.c ****     cystatus status = CYRET_BAD_PARAM;
 595              		.loc 1 422 5 view .LVU152
 423:Generated_Source\PSoC5/CyDmac.c ****     reg16 *convert;
 596              		.loc 1 423 5 view .LVU153
 424:Generated_Source\PSoC5/CyDmac.c **** 
 425:Generated_Source\PSoC5/CyDmac.c ****     #if(CY_PSOC5)
 426:Generated_Source\PSoC5/CyDmac.c **** 
 427:Generated_Source\PSoC5/CyDmac.c ****         /* 0x1FFF8000-0x1FFFFFFF needs to use alias at 0x20008000-0x2000FFFF */
 428:Generated_Source\PSoC5/CyDmac.c ****         if(source == 0x1FFFu)
 597              		.loc 1 428 9 view .LVU154
 598              		.loc 1 428 11 is_stmt 0 view .LVU155
 599 0000 41F6FF73 		movw	r3, #8191
 600 0004 9942     		cmp	r1, r3
 601 0006 0ED0     		beq	.L67
 602              	.LVL48:
 603              	.L61:
 429:Generated_Source\PSoC5/CyDmac.c ****         {
 430:Generated_Source\PSoC5/CyDmac.c ****             source = 0x2000u;
 431:Generated_Source\PSoC5/CyDmac.c ****         }
 432:Generated_Source\PSoC5/CyDmac.c **** 
 433:Generated_Source\PSoC5/CyDmac.c ****         if(destination == 0x1FFFu)
 604              		.loc 1 433 9 is_stmt 1 view .LVU156
 605              		.loc 1 433 11 is_stmt 0 view .LVU157
 606 0008 41F6FF73 		movw	r3, #8191
 607 000c 9A42     		cmp	r2, r3
 608 000e 0DD0     		beq	.L68
 609              	.LVL49:
 610              	.L62:
 434:Generated_Source\PSoC5/CyDmac.c ****         {
 435:Generated_Source\PSoC5/CyDmac.c ****             destination = 0x2000u;
 436:Generated_Source\PSoC5/CyDmac.c ****         }
 437:Generated_Source\PSoC5/CyDmac.c **** 
 438:Generated_Source\PSoC5/CyDmac.c ****     #endif  /* (CY_PSOC5) */
 439:Generated_Source\PSoC5/CyDmac.c **** 
 440:Generated_Source\PSoC5/CyDmac.c **** 
 441:Generated_Source\PSoC5/CyDmac.c ****     if(chHandle < CY_DMA_NUMBEROF_CHANNELS)
 611              		.loc 1 441 5 is_stmt 1 view .LVU158
 612              		.loc 1 441 7 is_stmt 0 view .LVU159
ARM GAS  C:\Users\jens-\AppData\Local\Temp\ccjjYmnj.s 			page 20


 613 0010 1728     		cmp	r0, #23
 614 0012 0ED8     		bhi	.L66
 442:Generated_Source\PSoC5/CyDmac.c ****     {
 443:Generated_Source\PSoC5/CyDmac.c ****         /* Set source address */
 444:Generated_Source\PSoC5/CyDmac.c ****         convert = (reg16 *) &CY_DMA_CFGMEM_STRUCT_PTR[chHandle].CFG1[0];
 615              		.loc 1 444 9 is_stmt 1 view .LVU160
 616              		.loc 1 444 54 is_stmt 0 view .LVU161
 617 0014 C000     		lsls	r0, r0, #3
 618              	.LVL50:
 619              		.loc 1 444 54 view .LVU162
 620 0016 00F18040 		add	r0, r0, #1073741824
 621 001a 00F5EC40 		add	r0, r0, #30208
 622              	.LVL51:
 445:Generated_Source\PSoC5/CyDmac.c ****         CY_SET_REG16(convert, source);
 623              		.loc 1 445 9 is_stmt 1 view .LVU163
 624 001e 8180     		strh	r1, [r0, #4]	@ movhi
 446:Generated_Source\PSoC5/CyDmac.c **** 
 447:Generated_Source\PSoC5/CyDmac.c ****         /* Set destination address */
 448:Generated_Source\PSoC5/CyDmac.c ****         convert = (reg16 *) &CY_DMA_CFGMEM_STRUCT_PTR[chHandle].CFG1[2u];
 625              		.loc 1 448 9 view .LVU164
 626              	.LVL52:
 449:Generated_Source\PSoC5/CyDmac.c ****         CY_SET_REG16(convert, destination);
 627              		.loc 1 449 9 view .LVU165
 628 0020 C280     		strh	r2, [r0, #6]	@ movhi
 450:Generated_Source\PSoC5/CyDmac.c ****         status = CYRET_SUCCESS;
 629              		.loc 1 450 9 view .LVU166
 630              	.LVL53:
 631              		.loc 1 450 16 is_stmt 0 view .LVU167
 632 0022 0020     		movs	r0, #0
 633              	.LVL54:
 634              		.loc 1 450 16 view .LVU168
 635 0024 7047     		bx	lr
 636              	.LVL55:
 637              	.L67:
 430:Generated_Source\PSoC5/CyDmac.c ****         }
 638              		.loc 1 430 20 view .LVU169
 639 0026 4FF40051 		mov	r1, #8192
 640              	.LVL56:
 430:Generated_Source\PSoC5/CyDmac.c ****         }
 641              		.loc 1 430 20 view .LVU170
 642 002a EDE7     		b	.L61
 643              	.LVL57:
 644              	.L68:
 435:Generated_Source\PSoC5/CyDmac.c ****         }
 645              		.loc 1 435 25 view .LVU171
 646 002c 4FF40052 		mov	r2, #8192
 647              	.LVL58:
 435:Generated_Source\PSoC5/CyDmac.c ****         }
 648              		.loc 1 435 25 view .LVU172
 649 0030 EEE7     		b	.L62
 650              	.LVL59:
 651              	.L66:
 422:Generated_Source\PSoC5/CyDmac.c ****     reg16 *convert;
 652              		.loc 1 422 14 view .LVU173
 653 0032 0120     		movs	r0, #1
 654              	.LVL60:
 451:Generated_Source\PSoC5/CyDmac.c ****     }
ARM GAS  C:\Users\jens-\AppData\Local\Temp\ccjjYmnj.s 			page 21


 452:Generated_Source\PSoC5/CyDmac.c **** 
 453:Generated_Source\PSoC5/CyDmac.c ****     return(status);
 655              		.loc 1 453 5 is_stmt 1 view .LVU174
 454:Generated_Source\PSoC5/CyDmac.c **** }
 656              		.loc 1 454 1 is_stmt 0 view .LVU175
 657 0034 7047     		bx	lr
 658              		.cfi_endproc
 659              	.LFE10:
 660              		.size	CyDmaChSetExtendedAddress, .-CyDmaChSetExtendedAddress
 661              		.section	.text.CyDmaChSetInitialTd,"ax",%progbits
 662              		.align	1
 663              		.global	CyDmaChSetInitialTd
 664              		.syntax unified
 665              		.thumb
 666              		.thumb_func
 667              		.fpu softvfp
 668              		.type	CyDmaChSetInitialTd, %function
 669              	CyDmaChSetInitialTd:
 670              	.LVL61:
 671              	.LFB11:
 455:Generated_Source\PSoC5/CyDmac.c **** 
 456:Generated_Source\PSoC5/CyDmac.c **** 
 457:Generated_Source\PSoC5/CyDmac.c **** /*******************************************************************************
 458:Generated_Source\PSoC5/CyDmac.c **** * Function Name: CyDmaChSetInitialTd
 459:Generated_Source\PSoC5/CyDmac.c **** ****************************************************************************//**
 460:Generated_Source\PSoC5/CyDmac.c **** *
 461:Generated_Source\PSoC5/CyDmac.c **** * Sets the initial TD to be executed for the channel when the \ref CyDmaChEnable()
 462:Generated_Source\PSoC5/CyDmac.c **** * function is called.
 463:Generated_Source\PSoC5/CyDmac.c **** *
 464:Generated_Source\PSoC5/CyDmac.c **** * \param chHandle A handle previously returned by \ref CyDmaChAlloc() or
 465:Generated_Source\PSoC5/CyDmac.c **** * \ref DMA_DmaInitialize().
 466:Generated_Source\PSoC5/CyDmac.c **** *
 467:Generated_Source\PSoC5/CyDmac.c **** * \param startTd Set the TD index as the first TD associated with the
 468:Generated_Source\PSoC5/CyDmac.c **** * channel. Zero is a valid TD index.
 469:Generated_Source\PSoC5/CyDmac.c **** *
 470:Generated_Source\PSoC5/CyDmac.c **** * \return CYRET_SUCCESS if successful.
 471:Generated_Source\PSoC5/CyDmac.c **** * \return CYRET_BAD_PARAM if chHandle is invalid.
 472:Generated_Source\PSoC5/CyDmac.c **** *
 473:Generated_Source\PSoC5/CyDmac.c **** *******************************************************************************/
 474:Generated_Source\PSoC5/CyDmac.c **** cystatus CyDmaChSetInitialTd(uint8 chHandle, uint8 startTd) 
 475:Generated_Source\PSoC5/CyDmac.c **** {
 672              		.loc 1 475 1 is_stmt 1 view -0
 673              		.cfi_startproc
 674              		@ args = 0, pretend = 0, frame = 0
 675              		@ frame_needed = 0, uses_anonymous_args = 0
 676              		@ link register save eliminated.
 476:Generated_Source\PSoC5/CyDmac.c ****     cystatus status = CYRET_BAD_PARAM;
 677              		.loc 1 476 5 view .LVU177
 477:Generated_Source\PSoC5/CyDmac.c **** 
 478:Generated_Source\PSoC5/CyDmac.c ****     if(chHandle < CY_DMA_NUMBEROF_CHANNELS)
 678              		.loc 1 478 5 view .LVU178
 679              		.loc 1 478 7 is_stmt 0 view .LVU179
 680 0000 1728     		cmp	r0, #23
 681 0002 05D8     		bhi	.L71
 479:Generated_Source\PSoC5/CyDmac.c ****     {
 480:Generated_Source\PSoC5/CyDmac.c ****         CY_DMA_CH_STRUCT_PTR[chHandle].basic_status[1u] = startTd;
 682              		.loc 1 480 9 is_stmt 1 view .LVU180
ARM GAS  C:\Users\jens-\AppData\Local\Temp\ccjjYmnj.s 			page 22


 683              		.loc 1 480 29 is_stmt 0 view .LVU181
 684 0004 034B     		ldr	r3, .L72
 685 0006 03EB0010 		add	r0, r3, r0, lsl #4
 686              	.LVL62:
 687              		.loc 1 480 57 view .LVU182
 688 000a 4172     		strb	r1, [r0, #9]
 481:Generated_Source\PSoC5/CyDmac.c ****         status = CYRET_SUCCESS;
 689              		.loc 1 481 9 is_stmt 1 view .LVU183
 690              	.LVL63:
 691              		.loc 1 481 16 is_stmt 0 view .LVU184
 692 000c 0020     		movs	r0, #0
 693 000e 7047     		bx	lr
 694              	.LVL64:
 695              	.L71:
 476:Generated_Source\PSoC5/CyDmac.c **** 
 696              		.loc 1 476 14 view .LVU185
 697 0010 0120     		movs	r0, #1
 698              	.LVL65:
 482:Generated_Source\PSoC5/CyDmac.c ****     }
 483:Generated_Source\PSoC5/CyDmac.c **** 
 484:Generated_Source\PSoC5/CyDmac.c ****     return(status);
 699              		.loc 1 484 5 is_stmt 1 view .LVU186
 485:Generated_Source\PSoC5/CyDmac.c **** }
 700              		.loc 1 485 1 is_stmt 0 view .LVU187
 701 0012 7047     		bx	lr
 702              	.L73:
 703              		.align	2
 704              	.L72:
 705 0014 10700040 		.word	1073770512
 706              		.cfi_endproc
 707              	.LFE11:
 708              		.size	CyDmaChSetInitialTd, .-CyDmaChSetInitialTd
 709              		.section	.text.CyDmaChSetRequest,"ax",%progbits
 710              		.align	1
 711              		.global	CyDmaChSetRequest
 712              		.syntax unified
 713              		.thumb
 714              		.thumb_func
 715              		.fpu softvfp
 716              		.type	CyDmaChSetRequest, %function
 717              	CyDmaChSetRequest:
 718              	.LVL66:
 719              	.LFB12:
 486:Generated_Source\PSoC5/CyDmac.c **** 
 487:Generated_Source\PSoC5/CyDmac.c **** 
 488:Generated_Source\PSoC5/CyDmac.c **** /*******************************************************************************
 489:Generated_Source\PSoC5/CyDmac.c **** * Function Name: CyDmaChSetRequest
 490:Generated_Source\PSoC5/CyDmac.c **** ****************************************************************************//**
 491:Generated_Source\PSoC5/CyDmac.c **** *
 492:Generated_Source\PSoC5/CyDmac.c **** *  Allows the caller to terminate a chain of TDs, terminate one TD, or create a
 493:Generated_Source\PSoC5/CyDmac.c **** *  direct request to start the DMA channel.
 494:Generated_Source\PSoC5/CyDmac.c **** *
 495:Generated_Source\PSoC5/CyDmac.c **** *  \param chHandle A handle previously returned by \ref CyDmaChAlloc() or \ref
 496:Generated_Source\PSoC5/CyDmac.c **** *  DMA_DmaInitalize().
 497:Generated_Source\PSoC5/CyDmac.c **** *
 498:Generated_Source\PSoC5/CyDmac.c **** *  \param request One of the following constants. Each of the constants is a
 499:Generated_Source\PSoC5/CyDmac.c **** *  three-bit value.
ARM GAS  C:\Users\jens-\AppData\Local\Temp\ccjjYmnj.s 			page 23


 500:Generated_Source\PSoC5/CyDmac.c **** *   CPU_REQ         - Create a direct request to start the DMA channel
 501:Generated_Source\PSoC5/CyDmac.c **** *   CPU_TERM_TD     - Terminate one TD
 502:Generated_Source\PSoC5/CyDmac.c **** *   CPU_TERM_CHAIN  - Terminate a chain of TDs
 503:Generated_Source\PSoC5/CyDmac.c **** *
 504:Generated_Source\PSoC5/CyDmac.c **** * \return CYRET_SUCCESS if successful.
 505:Generated_Source\PSoC5/CyDmac.c **** * \return CYRET_BAD_PARAM if chHandle is invalid.
 506:Generated_Source\PSoC5/CyDmac.c **** *
 507:Generated_Source\PSoC5/CyDmac.c **** *******************************************************************************/
 508:Generated_Source\PSoC5/CyDmac.c **** cystatus CyDmaChSetRequest(uint8 chHandle, uint8 request) 
 509:Generated_Source\PSoC5/CyDmac.c **** {
 720              		.loc 1 509 1 is_stmt 1 view -0
 721              		.cfi_startproc
 722              		@ args = 0, pretend = 0, frame = 0
 723              		@ frame_needed = 0, uses_anonymous_args = 0
 724              		@ link register save eliminated.
 510:Generated_Source\PSoC5/CyDmac.c ****     cystatus status = CYRET_BAD_PARAM;
 725              		.loc 1 510 5 view .LVU189
 511:Generated_Source\PSoC5/CyDmac.c **** 
 512:Generated_Source\PSoC5/CyDmac.c ****     if(chHandle < CY_DMA_NUMBEROF_CHANNELS)
 726              		.loc 1 512 5 view .LVU190
 727              		.loc 1 512 7 is_stmt 0 view .LVU191
 728 0000 1728     		cmp	r0, #23
 729 0002 09D8     		bhi	.L76
 513:Generated_Source\PSoC5/CyDmac.c ****     {
 514:Generated_Source\PSoC5/CyDmac.c ****         CY_DMA_CH_STRUCT_PTR[chHandle].action[0u] |= (request & (CPU_REQ | CPU_TERM_TD | CPU_TERM_C
 730              		.loc 1 514 9 is_stmt 1 view .LVU192
 731              		.loc 1 514 51 is_stmt 0 view .LVU193
 732 0004 054B     		ldr	r3, .L77
 733 0006 03EB0010 		add	r0, r3, r0, lsl #4
 734              	.LVL67:
 735              		.loc 1 514 51 view .LVU194
 736 000a 0379     		ldrb	r3, [r0, #4]	@ zero_extendqisi2
 737              		.loc 1 514 63 view .LVU195
 738 000c 01F00701 		and	r1, r1, #7
 739              	.LVL68:
 740              		.loc 1 514 51 view .LVU196
 741 0010 1943     		orrs	r1, r1, r3
 742 0012 0171     		strb	r1, [r0, #4]
 515:Generated_Source\PSoC5/CyDmac.c ****         status = CYRET_SUCCESS;
 743              		.loc 1 515 9 is_stmt 1 view .LVU197
 744              	.LVL69:
 745              		.loc 1 515 16 is_stmt 0 view .LVU198
 746 0014 0020     		movs	r0, #0
 747 0016 7047     		bx	lr
 748              	.LVL70:
 749              	.L76:
 510:Generated_Source\PSoC5/CyDmac.c **** 
 750              		.loc 1 510 14 view .LVU199
 751 0018 0120     		movs	r0, #1
 752              	.LVL71:
 516:Generated_Source\PSoC5/CyDmac.c ****     }
 517:Generated_Source\PSoC5/CyDmac.c **** 
 518:Generated_Source\PSoC5/CyDmac.c ****     return(status);
 753              		.loc 1 518 5 is_stmt 1 view .LVU200
 519:Generated_Source\PSoC5/CyDmac.c **** }
 754              		.loc 1 519 1 is_stmt 0 view .LVU201
 755 001a 7047     		bx	lr
ARM GAS  C:\Users\jens-\AppData\Local\Temp\ccjjYmnj.s 			page 24


 756              	.L78:
 757              		.align	2
 758              	.L77:
 759 001c 10700040 		.word	1073770512
 760              		.cfi_endproc
 761              	.LFE12:
 762              		.size	CyDmaChSetRequest, .-CyDmaChSetRequest
 763              		.section	.text.CyDmaChGetRequest,"ax",%progbits
 764              		.align	1
 765              		.global	CyDmaChGetRequest
 766              		.syntax unified
 767              		.thumb
 768              		.thumb_func
 769              		.fpu softvfp
 770              		.type	CyDmaChGetRequest, %function
 771              	CyDmaChGetRequest:
 772              	.LVL72:
 773              	.LFB13:
 520:Generated_Source\PSoC5/CyDmac.c **** 
 521:Generated_Source\PSoC5/CyDmac.c **** 
 522:Generated_Source\PSoC5/CyDmac.c **** /*******************************************************************************
 523:Generated_Source\PSoC5/CyDmac.c **** * Function Name: CyDmaChGetRequest
 524:Generated_Source\PSoC5/CyDmac.c **** ****************************************************************************//**
 525:Generated_Source\PSoC5/CyDmac.c **** *
 526:Generated_Source\PSoC5/CyDmac.c **** * This function allows the caller of \ref CyDmaChSetRequest() to determine if the
 527:Generated_Source\PSoC5/CyDmac.c **** * request was completed.
 528:Generated_Source\PSoC5/CyDmac.c **** *
 529:Generated_Source\PSoC5/CyDmac.c **** * \param chHandle A handle previously returned by \ref CyDmaChAlloc() or \ref
 530:Generated_Source\PSoC5/CyDmac.c **** * DMA_DmaInitalize().
 531:Generated_Source\PSoC5/CyDmac.c **** *
 532:Generated_Source\PSoC5/CyDmac.c **** * \return Returns a three-bit field, corresponding to the three bits of the
 533:Generated_Source\PSoC5/CyDmac.c **** * request, which describes the state of the previously posted request. If the
 534:Generated_Source\PSoC5/CyDmac.c **** * value is zero, the request was completed. CY_DMA_INVALID_CHANNEL if the handle
 535:Generated_Source\PSoC5/CyDmac.c **** * is invalid.
 536:Generated_Source\PSoC5/CyDmac.c **** *
 537:Generated_Source\PSoC5/CyDmac.c **** *******************************************************************************/
 538:Generated_Source\PSoC5/CyDmac.c **** cystatus CyDmaChGetRequest(uint8 chHandle) 
 539:Generated_Source\PSoC5/CyDmac.c **** {
 774              		.loc 1 539 1 is_stmt 1 view -0
 775              		.cfi_startproc
 776              		@ args = 0, pretend = 0, frame = 0
 777              		@ frame_needed = 0, uses_anonymous_args = 0
 778              		@ link register save eliminated.
 540:Generated_Source\PSoC5/CyDmac.c ****     cystatus status = CY_DMA_INVALID_CHANNEL;
 779              		.loc 1 540 5 view .LVU203
 541:Generated_Source\PSoC5/CyDmac.c **** 
 542:Generated_Source\PSoC5/CyDmac.c ****     if(chHandle < CY_DMA_NUMBEROF_CHANNELS)
 780              		.loc 1 542 5 view .LVU204
 781              		.loc 1 542 7 is_stmt 0 view .LVU205
 782 0000 1728     		cmp	r0, #23
 783 0002 06D8     		bhi	.L81
 543:Generated_Source\PSoC5/CyDmac.c ****     {
 544:Generated_Source\PSoC5/CyDmac.c ****         status = (cystatus) ((uint32)CY_DMA_CH_STRUCT_PTR[chHandle].action[0u] &
 784              		.loc 1 544 9 is_stmt 1 view .LVU206
 785              		.loc 1 544 58 is_stmt 0 view .LVU207
 786 0004 044B     		ldr	r3, .L82
 787 0006 03EB0010 		add	r0, r3, r0, lsl #4
ARM GAS  C:\Users\jens-\AppData\Local\Temp\ccjjYmnj.s 			page 25


 788              	.LVL73:
 789              		.loc 1 544 75 view .LVU208
 790 000a 0079     		ldrb	r0, [r0, #4]	@ zero_extendqisi2
 791              		.loc 1 544 16 view .LVU209
 792 000c 00F00700 		and	r0, r0, #7
 793              	.LVL74:
 794              		.loc 1 544 16 view .LVU210
 795 0010 7047     		bx	lr
 796              	.LVL75:
 797              	.L81:
 540:Generated_Source\PSoC5/CyDmac.c **** 
 798              		.loc 1 540 14 view .LVU211
 799 0012 FF20     		movs	r0, #255
 800              	.LVL76:
 545:Generated_Source\PSoC5/CyDmac.c ****                             (uint32)(CY_DMA_CPU_REQ | CY_DMA_CPU_TERM_TD | CY_DMA_CPU_TERM_CHAIN));
 546:Generated_Source\PSoC5/CyDmac.c ****     }
 547:Generated_Source\PSoC5/CyDmac.c **** 
 548:Generated_Source\PSoC5/CyDmac.c ****     return(status);
 801              		.loc 1 548 5 is_stmt 1 view .LVU212
 549:Generated_Source\PSoC5/CyDmac.c **** }
 802              		.loc 1 549 1 is_stmt 0 view .LVU213
 803 0014 7047     		bx	lr
 804              	.L83:
 805 0016 00BF     		.align	2
 806              	.L82:
 807 0018 10700040 		.word	1073770512
 808              		.cfi_endproc
 809              	.LFE13:
 810              		.size	CyDmaChGetRequest, .-CyDmaChGetRequest
 811              		.section	.text.CyDmaChStatus,"ax",%progbits
 812              		.align	1
 813              		.global	CyDmaChStatus
 814              		.syntax unified
 815              		.thumb
 816              		.thumb_func
 817              		.fpu softvfp
 818              		.type	CyDmaChStatus, %function
 819              	CyDmaChStatus:
 820              	.LVL77:
 821              	.LFB14:
 550:Generated_Source\PSoC5/CyDmac.c **** 
 551:Generated_Source\PSoC5/CyDmac.c **** 
 552:Generated_Source\PSoC5/CyDmac.c **** /*******************************************************************************
 553:Generated_Source\PSoC5/CyDmac.c **** * Function Name: CyDmaChStatus
 554:Generated_Source\PSoC5/CyDmac.c **** ****************************************************************************//**
 555:Generated_Source\PSoC5/CyDmac.c **** *
 556:Generated_Source\PSoC5/CyDmac.c **** *  Determines the status of the DMA channel.
 557:Generated_Source\PSoC5/CyDmac.c **** *
 558:Generated_Source\PSoC5/CyDmac.c **** *  \param chHandle A handle previously returned by \ref CyDmaChAlloc() or \ref
 559:Generated_Source\PSoC5/CyDmac.c **** *  DMA_DmaInitalize().
 560:Generated_Source\PSoC5/CyDmac.c **** *
 561:Generated_Source\PSoC5/CyDmac.c **** *  \param currentTd The address to store the index of the current TD. Can be NULL
 562:Generated_Source\PSoC5/CyDmac.c **** *  if the value is not needed.
 563:Generated_Source\PSoC5/CyDmac.c **** *
 564:Generated_Source\PSoC5/CyDmac.c **** *  \param state The address to store the state of the channel. Can be NULL if the
 565:Generated_Source\PSoC5/CyDmac.c **** *  value is not needed.
 566:Generated_Source\PSoC5/CyDmac.c **** *
ARM GAS  C:\Users\jens-\AppData\Local\Temp\ccjjYmnj.s 			page 26


 567:Generated_Source\PSoC5/CyDmac.c **** *   STATUS_TD_ACTIVE
 568:Generated_Source\PSoC5/CyDmac.c **** *    \param 0: Channel is not currently being serviced by DMAC
 569:Generated_Source\PSoC5/CyDmac.c **** *    \param 1: Channel is currently being serviced by DMAC
 570:Generated_Source\PSoC5/CyDmac.c **** *
 571:Generated_Source\PSoC5/CyDmac.c **** *   STATUS_CHAIN_ACTIVE
 572:Generated_Source\PSoC5/CyDmac.c **** *    \param 0: TD chain is inactive; either no DMA requests have triggered a new chain
 573:Generated_Source\PSoC5/CyDmac.c **** *       or the previous chain has completed.
 574:Generated_Source\PSoC5/CyDmac.c **** *    \param 1: TD chain has been triggered by a DMA request
 575:Generated_Source\PSoC5/CyDmac.c **** *
 576:Generated_Source\PSoC5/CyDmac.c **** * \return CYRET_SUCCESS if successful.
 577:Generated_Source\PSoC5/CyDmac.c **** * \return CYRET_BAD_PARAM if chHandle is invalid.
 578:Generated_Source\PSoC5/CyDmac.c **** *
 579:Generated_Source\PSoC5/CyDmac.c **** * Theory:
 580:Generated_Source\PSoC5/CyDmac.c **** *   The caller can check on the activity of the Current TD and the Chain.
 581:Generated_Source\PSoC5/CyDmac.c **** *
 582:Generated_Source\PSoC5/CyDmac.c **** *******************************************************************************/
 583:Generated_Source\PSoC5/CyDmac.c **** cystatus CyDmaChStatus(uint8 chHandle, uint8 * currentTd, uint8 * state) 
 584:Generated_Source\PSoC5/CyDmac.c **** {
 822              		.loc 1 584 1 is_stmt 1 view -0
 823              		.cfi_startproc
 824              		@ args = 0, pretend = 0, frame = 0
 825              		@ frame_needed = 0, uses_anonymous_args = 0
 826              		@ link register save eliminated.
 585:Generated_Source\PSoC5/CyDmac.c ****     cystatus status = CYRET_BAD_PARAM;
 827              		.loc 1 585 5 view .LVU215
 586:Generated_Source\PSoC5/CyDmac.c **** 
 587:Generated_Source\PSoC5/CyDmac.c ****     if(chHandle < CY_DMA_NUMBEROF_CHANNELS)
 828              		.loc 1 587 5 view .LVU216
 829              		.loc 1 587 7 is_stmt 0 view .LVU217
 830 0000 1728     		cmp	r0, #23
 831 0002 0FD8     		bhi	.L87
 588:Generated_Source\PSoC5/CyDmac.c ****     {
 589:Generated_Source\PSoC5/CyDmac.c ****         if(NULL != currentTd)
 832              		.loc 1 589 9 is_stmt 1 view .LVU218
 833              		.loc 1 589 11 is_stmt 0 view .LVU219
 834 0004 31B1     		cbz	r1, .L86
 590:Generated_Source\PSoC5/CyDmac.c ****         {
 591:Generated_Source\PSoC5/CyDmac.c ****             *currentTd = CY_DMA_CH_STRUCT_PTR[chHandle].basic_status[1] & 0x7Fu;
 835              		.loc 1 591 13 is_stmt 1 view .LVU220
 836              		.loc 1 591 46 is_stmt 0 view .LVU221
 837 0006 094B     		ldr	r3, .L89
 838 0008 03EB0013 		add	r3, r3, r0, lsl #4
 839              		.loc 1 591 69 view .LVU222
 840 000c 5B7A     		ldrb	r3, [r3, #9]	@ zero_extendqisi2
 841              		.loc 1 591 73 view .LVU223
 842 000e 03F07F03 		and	r3, r3, #127
 843              		.loc 1 591 24 view .LVU224
 844 0012 0B70     		strb	r3, [r1]
 845              	.L86:
 592:Generated_Source\PSoC5/CyDmac.c ****         }
 593:Generated_Source\PSoC5/CyDmac.c **** 
 594:Generated_Source\PSoC5/CyDmac.c ****         if(NULL != state)
 846              		.loc 1 594 9 is_stmt 1 view .LVU225
 847              		.loc 1 594 11 is_stmt 0 view .LVU226
 848 0014 42B1     		cbz	r2, .L88
 595:Generated_Source\PSoC5/CyDmac.c ****         {
 596:Generated_Source\PSoC5/CyDmac.c ****             *state= CY_DMA_CH_STRUCT_PTR[chHandle].basic_status[0];
ARM GAS  C:\Users\jens-\AppData\Local\Temp\ccjjYmnj.s 			page 27


 849              		.loc 1 596 13 is_stmt 1 view .LVU227
 850              		.loc 1 596 41 is_stmt 0 view .LVU228
 851 0016 054B     		ldr	r3, .L89
 852 0018 03EB0010 		add	r0, r3, r0, lsl #4
 853              	.LVL78:
 854              		.loc 1 596 64 view .LVU229
 855 001c 037A     		ldrb	r3, [r0, #8]	@ zero_extendqisi2
 856              		.loc 1 596 19 view .LVU230
 857 001e 1370     		strb	r3, [r2]
 597:Generated_Source\PSoC5/CyDmac.c ****         }
 598:Generated_Source\PSoC5/CyDmac.c **** 
 599:Generated_Source\PSoC5/CyDmac.c ****         status = CYRET_SUCCESS;
 858              		.loc 1 599 16 view .LVU231
 859 0020 0020     		movs	r0, #0
 860 0022 7047     		bx	lr
 861              	.LVL79:
 862              	.L87:
 585:Generated_Source\PSoC5/CyDmac.c **** 
 863              		.loc 1 585 14 view .LVU232
 864 0024 0120     		movs	r0, #1
 865              	.LVL80:
 585:Generated_Source\PSoC5/CyDmac.c **** 
 866              		.loc 1 585 14 view .LVU233
 867 0026 7047     		bx	lr
 868              	.LVL81:
 869              	.L88:
 870              		.loc 1 599 16 view .LVU234
 871 0028 0020     		movs	r0, #0
 872              	.LVL82:
 600:Generated_Source\PSoC5/CyDmac.c ****     }
 601:Generated_Source\PSoC5/CyDmac.c **** 
 602:Generated_Source\PSoC5/CyDmac.c ****     return (status);
 873              		.loc 1 602 5 is_stmt 1 view .LVU235
 603:Generated_Source\PSoC5/CyDmac.c **** }
 874              		.loc 1 603 1 is_stmt 0 view .LVU236
 875 002a 7047     		bx	lr
 876              	.L90:
 877              		.align	2
 878              	.L89:
 879 002c 10700040 		.word	1073770512
 880              		.cfi_endproc
 881              	.LFE14:
 882              		.size	CyDmaChStatus, .-CyDmaChStatus
 883              		.section	.text.CyDmaChSetConfiguration,"ax",%progbits
 884              		.align	1
 885              		.global	CyDmaChSetConfiguration
 886              		.syntax unified
 887              		.thumb
 888              		.thumb_func
 889              		.fpu softvfp
 890              		.type	CyDmaChSetConfiguration, %function
 891              	CyDmaChSetConfiguration:
 892              	.LVL83:
 893              	.LFB15:
 604:Generated_Source\PSoC5/CyDmac.c **** 
 605:Generated_Source\PSoC5/CyDmac.c **** 
 606:Generated_Source\PSoC5/CyDmac.c **** /*******************************************************************************
ARM GAS  C:\Users\jens-\AppData\Local\Temp\ccjjYmnj.s 			page 28


 607:Generated_Source\PSoC5/CyDmac.c **** * Function Name: CyDmaChSetConfiguration
 608:Generated_Source\PSoC5/CyDmac.c **** ****************************************************************************//**
 609:Generated_Source\PSoC5/CyDmac.c **** *
 610:Generated_Source\PSoC5/CyDmac.c **** * Sets configuration information of the channel.
 611:Generated_Source\PSoC5/CyDmac.c **** *
 612:Generated_Source\PSoC5/CyDmac.c **** *  \param uint8 chHandle:
 613:Generated_Source\PSoC5/CyDmac.c **** *   A handle previously returned by CyDmaChAlloc() or DMA_DmaInitialize().
 614:Generated_Source\PSoC5/CyDmac.c **** *
 615:Generated_Source\PSoC5/CyDmac.c **** *  \param uint8 burstCount:
 616:Generated_Source\PSoC5/CyDmac.c **** *   Specifies the size of bursts (1 to 127) the data transfer should be divided
 617:Generated_Source\PSoC5/CyDmac.c **** *   into. If this value is zero then the whole transfer is done in one burst.
 618:Generated_Source\PSoC5/CyDmac.c **** *
 619:Generated_Source\PSoC5/CyDmac.c **** *  \param uint8 requestPerBurst:
 620:Generated_Source\PSoC5/CyDmac.c **** *   The whole of the data can be split into multiple bursts, if this is
 621:Generated_Source\PSoC5/CyDmac.c **** *   \param required to complete the transaction:
 622:Generated_Source\PSoC5/CyDmac.c **** *    \param 0: All subsequent bursts after the first burst will be automatically
 623:Generated_Source\PSoC5/CyDmac.c **** *       requested and carried out
 624:Generated_Source\PSoC5/CyDmac.c **** *    \param 1: All subsequent bursts after the first burst must also be individually
 625:Generated_Source\PSoC5/CyDmac.c **** *       requested.
 626:Generated_Source\PSoC5/CyDmac.c **** *
 627:Generated_Source\PSoC5/CyDmac.c **** *  \param uint8 tdDone0:
 628:Generated_Source\PSoC5/CyDmac.c **** *   Selects one of the TERMOUT0 interrupt lines to signal completion. The line
 629:Generated_Source\PSoC5/CyDmac.c **** *   connected to the nrq terminal will determine the TERMOUT0_SEL definition and
 630:Generated_Source\PSoC5/CyDmac.c **** *   should be used as supplied by cyfitter.h
 631:Generated_Source\PSoC5/CyDmac.c **** *
 632:Generated_Source\PSoC5/CyDmac.c **** *  \param uint8 tdDone1:
 633:Generated_Source\PSoC5/CyDmac.c **** *   Selects one of the TERMOUT1 interrupt lines to signal completion. The line
 634:Generated_Source\PSoC5/CyDmac.c **** *   connected to the nrq terminal will determine the TERMOUT1_SEL definition and
 635:Generated_Source\PSoC5/CyDmac.c **** *   should be used as supplied by cyfitter.h
 636:Generated_Source\PSoC5/CyDmac.c **** *
 637:Generated_Source\PSoC5/CyDmac.c **** *  \param uint8 tdStop:
 638:Generated_Source\PSoC5/CyDmac.c **** *   Selects one of the TERMIN interrupt lines to signal to the DMAC that the TD
 639:Generated_Source\PSoC5/CyDmac.c **** *   should terminate. The signal connected to the trq terminal will determine
 640:Generated_Source\PSoC5/CyDmac.c **** *   which TERMIN (termination request) is used.
 641:Generated_Source\PSoC5/CyDmac.c **** *
 642:Generated_Source\PSoC5/CyDmac.c **** * \return
 643:Generated_Source\PSoC5/CyDmac.c **** *  CYRET_SUCCESS if successful.
 644:Generated_Source\PSoC5/CyDmac.c **** *  CYRET_BAD_PARAM if chHandle is invalid.
 645:Generated_Source\PSoC5/CyDmac.c **** *
 646:Generated_Source\PSoC5/CyDmac.c **** *******************************************************************************/
 647:Generated_Source\PSoC5/CyDmac.c **** cystatus CyDmaChSetConfiguration(uint8 chHandle, uint8 burstCount, uint8 requestPerBurst,
 648:Generated_Source\PSoC5/CyDmac.c ****                                  uint8 tdDone0, uint8 tdDone1, uint8 tdStop) 
 649:Generated_Source\PSoC5/CyDmac.c **** {
 894              		.loc 1 649 1 is_stmt 1 view -0
 895              		.cfi_startproc
 896              		@ args = 8, pretend = 0, frame = 0
 897              		@ frame_needed = 0, uses_anonymous_args = 0
 898              		@ link register save eliminated.
 650:Generated_Source\PSoC5/CyDmac.c ****     cystatus status = CYRET_BAD_PARAM;
 899              		.loc 1 650 5 view .LVU238
 651:Generated_Source\PSoC5/CyDmac.c **** 
 652:Generated_Source\PSoC5/CyDmac.c ****     if(chHandle < CY_DMA_NUMBEROF_CHANNELS)
 900              		.loc 1 652 5 view .LVU239
 901              		.loc 1 652 7 is_stmt 0 view .LVU240
 902 0000 1728     		cmp	r0, #23
 903 0002 1CD8     		bhi	.L93
 649:Generated_Source\PSoC5/CyDmac.c ****     cystatus status = CYRET_BAD_PARAM;
ARM GAS  C:\Users\jens-\AppData\Local\Temp\ccjjYmnj.s 			page 29


 904              		.loc 1 649 1 view .LVU241
 905 0004 10B4     		push	{r4}
 906              		.cfi_def_cfa_offset 4
 907              		.cfi_offset 4, -4
 653:Generated_Source\PSoC5/CyDmac.c ****     {
 654:Generated_Source\PSoC5/CyDmac.c ****         CY_DMA_CFGMEM_STRUCT_PTR[chHandle].CFG0[0] = (burstCount & 0x7Fu) | ((uint8)((requestPerBur
 908              		.loc 1 654 9 is_stmt 1 view .LVU242
 909              		.loc 1 654 66 is_stmt 0 view .LVU243
 910 0006 01F07F01 		and	r1, r1, #127
 911              	.LVL84:
 912              		.loc 1 654 78 view .LVU244
 913 000a D201     		lsls	r2, r2, #7
 914              	.LVL85:
 915              		.loc 1 654 78 view .LVU245
 916 000c D4B2     		uxtb	r4, r2
 917              		.loc 1 654 33 view .LVU246
 918 000e C000     		lsls	r0, r0, #3
 919              	.LVL86:
 920              		.loc 1 654 33 view .LVU247
 921 0010 00F18042 		add	r2, r0, #1073741824
 922 0014 02F5EC42 		add	r2, r2, #30208
 923              		.loc 1 654 75 view .LVU248
 924 0018 2143     		orrs	r1, r1, r4
 925              		.loc 1 654 52 view .LVU249
 926 001a 1170     		strb	r1, [r2]
 655:Generated_Source\PSoC5/CyDmac.c ****         CY_DMA_CFGMEM_STRUCT_PTR[chHandle].CFG0[1] = ((uint8)((tdDone1 & 0xFu) << 4u)) | (tdDone0 &
 927              		.loc 1 655 9 is_stmt 1 view .LVU250
 928              		.loc 1 655 55 is_stmt 0 view .LVU251
 929 001c 9DF80410 		ldrb	r1, [sp, #4]	@ zero_extendqisi2
 930 0020 0901     		lsls	r1, r1, #4
 931 0022 C9B2     		uxtb	r1, r1
 932              		.loc 1 655 99 view .LVU252
 933 0024 03F00F03 		and	r3, r3, #15
 934              	.LVL87:
 935              		.loc 1 655 88 view .LVU253
 936 0028 0B43     		orrs	r3, r3, r1
 937              		.loc 1 655 52 view .LVU254
 938 002a 5370     		strb	r3, [r2, #1]
 656:Generated_Source\PSoC5/CyDmac.c ****         CY_DMA_CFGMEM_STRUCT_PTR[chHandle].CFG0[2] = 0x0Fu & tdStop;
 939              		.loc 1 656 9 is_stmt 1 view .LVU255
 940              		.loc 1 656 60 is_stmt 0 view .LVU256
 941 002c 9DF80830 		ldrb	r3, [sp, #8]	@ zero_extendqisi2
 942 0030 03F00F03 		and	r3, r3, #15
 943              		.loc 1 656 52 view .LVU257
 944 0034 9370     		strb	r3, [r2, #2]
 657:Generated_Source\PSoC5/CyDmac.c ****         CY_DMA_CFGMEM_STRUCT_PTR[chHandle].CFG0[3] = 0u; /* burstcount_remain. */
 945              		.loc 1 657 9 is_stmt 1 view .LVU258
 946              		.loc 1 657 52 is_stmt 0 view .LVU259
 947 0036 0020     		movs	r0, #0
 948 0038 D070     		strb	r0, [r2, #3]
 658:Generated_Source\PSoC5/CyDmac.c **** 
 659:Generated_Source\PSoC5/CyDmac.c ****         status = CYRET_SUCCESS;
 949              		.loc 1 659 9 is_stmt 1 view .LVU260
 950              	.LVL88:
 660:Generated_Source\PSoC5/CyDmac.c ****     }
 661:Generated_Source\PSoC5/CyDmac.c **** 
 662:Generated_Source\PSoC5/CyDmac.c ****     return (status);
ARM GAS  C:\Users\jens-\AppData\Local\Temp\ccjjYmnj.s 			page 30


 663:Generated_Source\PSoC5/CyDmac.c **** }
 951              		.loc 1 663 1 is_stmt 0 view .LVU261
 952 003a 10BC     		pop	{r4}
 953              		.cfi_restore 4
 954              		.cfi_def_cfa_offset 0
 955              	.LVL89:
 956              		.loc 1 663 1 view .LVU262
 957 003c 7047     		bx	lr
 958              	.LVL90:
 959              	.L93:
 650:Generated_Source\PSoC5/CyDmac.c **** 
 960              		.loc 1 650 14 view .LVU263
 961 003e 0120     		movs	r0, #1
 962              	.LVL91:
 662:Generated_Source\PSoC5/CyDmac.c **** }
 963              		.loc 1 662 5 is_stmt 1 view .LVU264
 964              		.loc 1 663 1 is_stmt 0 view .LVU265
 965 0040 7047     		bx	lr
 966              		.cfi_endproc
 967              	.LFE15:
 968              		.size	CyDmaChSetConfiguration, .-CyDmaChSetConfiguration
 969              		.section	.text.CyDmaTdAllocate,"ax",%progbits
 970              		.align	1
 971              		.global	CyDmaTdAllocate
 972              		.syntax unified
 973              		.thumb
 974              		.thumb_func
 975              		.fpu softvfp
 976              		.type	CyDmaTdAllocate, %function
 977              	CyDmaTdAllocate:
 978              	.LFB16:
 664:Generated_Source\PSoC5/CyDmac.c **** 
 665:Generated_Source\PSoC5/CyDmac.c **** 
 666:Generated_Source\PSoC5/CyDmac.c **** /*******************************************************************************
 667:Generated_Source\PSoC5/CyDmac.c **** * Function Name: CyDmaTdAllocate
 668:Generated_Source\PSoC5/CyDmac.c **** ****************************************************************************//**
 669:Generated_Source\PSoC5/CyDmac.c **** *
 670:Generated_Source\PSoC5/CyDmac.c **** *  Allocates a TD for use with an allocated DMA channel.
 671:Generated_Source\PSoC5/CyDmac.c **** *
 672:Generated_Source\PSoC5/CyDmac.c **** * \return
 673:Generated_Source\PSoC5/CyDmac.c **** *  Zero-based index of the TD to be used by the caller. Since there are 128 TDs
 674:Generated_Source\PSoC5/CyDmac.c **** *  minus the reserved TDs (0 to 23), the value returned would range from 24 to
 675:Generated_Source\PSoC5/CyDmac.c **** *  127 not 24 to 128. DMA_INVALID_TD is returned if there are no free TDs
 676:Generated_Source\PSoC5/CyDmac.c **** *  available.
 677:Generated_Source\PSoC5/CyDmac.c **** *
 678:Generated_Source\PSoC5/CyDmac.c **** *******************************************************************************/
 679:Generated_Source\PSoC5/CyDmac.c **** uint8 CyDmaTdAllocate(void) 
 680:Generated_Source\PSoC5/CyDmac.c **** {
 979              		.loc 1 680 1 is_stmt 1 view -0
 980              		.cfi_startproc
 981              		@ args = 0, pretend = 0, frame = 0
 982              		@ frame_needed = 0, uses_anonymous_args = 0
 983 0000 10B5     		push	{r4, lr}
 984              		.cfi_def_cfa_offset 8
 985              		.cfi_offset 4, -8
 986              		.cfi_offset 14, -4
 681:Generated_Source\PSoC5/CyDmac.c ****     uint8 interruptState;
ARM GAS  C:\Users\jens-\AppData\Local\Temp\ccjjYmnj.s 			page 31


 987              		.loc 1 681 5 view .LVU267
 682:Generated_Source\PSoC5/CyDmac.c ****     uint8 element = CY_DMA_INVALID_TD;
 988              		.loc 1 682 5 view .LVU268
 989              	.LVL92:
 683:Generated_Source\PSoC5/CyDmac.c **** 
 684:Generated_Source\PSoC5/CyDmac.c ****     /* Enter critical section! */
 685:Generated_Source\PSoC5/CyDmac.c ****     interruptState = CyEnterCriticalSection();
 990              		.loc 1 685 5 view .LVU269
 991              		.loc 1 685 22 is_stmt 0 view .LVU270
 992 0002 FFF7FEFF 		bl	CyEnterCriticalSection
 993              	.LVL93:
 686:Generated_Source\PSoC5/CyDmac.c **** 
 687:Generated_Source\PSoC5/CyDmac.c ****     if(CyDmaTdCurrentNumber > NUMBEROF_CHANNELS)
 994              		.loc 1 687 5 is_stmt 1 view .LVU271
 995              		.loc 1 687 29 is_stmt 0 view .LVU272
 996 0006 0A4B     		ldr	r3, .L102
 997 0008 5B78     		ldrb	r3, [r3, #1]	@ zero_extendqisi2
 998              		.loc 1 687 7 view .LVU273
 999 000a 182B     		cmp	r3, #24
 1000 000c 0ED9     		bls	.L100
 688:Generated_Source\PSoC5/CyDmac.c ****     {
 689:Generated_Source\PSoC5/CyDmac.c ****         /* Get pointer to Next available. */
 690:Generated_Source\PSoC5/CyDmac.c ****         element = CyDmaTdFreeIndex;
 1001              		.loc 1 690 9 is_stmt 1 view .LVU274
 1002              		.loc 1 690 17 is_stmt 0 view .LVU275
 1003 000e 084A     		ldr	r2, .L102
 1004 0010 1478     		ldrb	r4, [r2]	@ zero_extendqisi2
 1005              	.LVL94:
 691:Generated_Source\PSoC5/CyDmac.c **** 
 692:Generated_Source\PSoC5/CyDmac.c ****         /* Decrement the count. */
 693:Generated_Source\PSoC5/CyDmac.c ****         CyDmaTdCurrentNumber--;
 1006              		.loc 1 693 9 is_stmt 1 view .LVU276
 1007              		.loc 1 693 29 is_stmt 0 view .LVU277
 1008 0012 013B     		subs	r3, r3, #1
 1009 0014 5370     		strb	r3, [r2, #1]
 694:Generated_Source\PSoC5/CyDmac.c **** 
 695:Generated_Source\PSoC5/CyDmac.c ****         /* Update next available pointer. */
 696:Generated_Source\PSoC5/CyDmac.c ****         CyDmaTdFreeIndex = CY_DMA_TDMEM_STRUCT_PTR[element].TD0[0];
 1010              		.loc 1 696 9 is_stmt 1 view .LVU278
 1011              		.loc 1 696 51 is_stmt 0 view .LVU279
 1012 0016 E300     		lsls	r3, r4, #3
 1013 0018 03F18043 		add	r3, r3, #1073741824
 1014 001c 03F5F043 		add	r3, r3, #30720
 1015              		.loc 1 696 64 view .LVU280
 1016 0020 1B78     		ldrb	r3, [r3]	@ zero_extendqisi2
 1017              		.loc 1 696 26 view .LVU281
 1018 0022 1370     		strb	r3, [r2]
 1019              	.LVL95:
 1020              	.L99:
 697:Generated_Source\PSoC5/CyDmac.c ****     }
 698:Generated_Source\PSoC5/CyDmac.c **** 
 699:Generated_Source\PSoC5/CyDmac.c ****     /* Exit critical section! */
 700:Generated_Source\PSoC5/CyDmac.c ****     CyExitCriticalSection(interruptState);
 1021              		.loc 1 700 5 is_stmt 1 view .LVU282
 1022 0024 FFF7FEFF 		bl	CyExitCriticalSection
 1023              	.LVL96:
 701:Generated_Source\PSoC5/CyDmac.c **** 
ARM GAS  C:\Users\jens-\AppData\Local\Temp\ccjjYmnj.s 			page 32


 702:Generated_Source\PSoC5/CyDmac.c ****     return(element);
 1024              		.loc 1 702 5 view .LVU283
 703:Generated_Source\PSoC5/CyDmac.c **** }
 1025              		.loc 1 703 1 is_stmt 0 view .LVU284
 1026 0028 2046     		mov	r0, r4
 1027 002a 10BD     		pop	{r4, pc}
 1028              	.LVL97:
 1029              	.L100:
 682:Generated_Source\PSoC5/CyDmac.c **** 
 1030              		.loc 1 682 11 view .LVU285
 1031 002c FF24     		movs	r4, #255
 1032 002e F9E7     		b	.L99
 1033              	.L103:
 1034              		.align	2
 1035              	.L102:
 1036 0030 00000000 		.word	.LANCHOR0
 1037              		.cfi_endproc
 1038              	.LFE16:
 1039              		.size	CyDmaTdAllocate, .-CyDmaTdAllocate
 1040              		.section	.text.CyDmaTdFree,"ax",%progbits
 1041              		.align	1
 1042              		.global	CyDmaTdFree
 1043              		.syntax unified
 1044              		.thumb
 1045              		.thumb_func
 1046              		.fpu softvfp
 1047              		.type	CyDmaTdFree, %function
 1048              	CyDmaTdFree:
 1049              	.LVL98:
 1050              	.LFB17:
 704:Generated_Source\PSoC5/CyDmac.c **** 
 705:Generated_Source\PSoC5/CyDmac.c **** 
 706:Generated_Source\PSoC5/CyDmac.c **** /*******************************************************************************
 707:Generated_Source\PSoC5/CyDmac.c **** * Function Name: CyDmaTdFree
 708:Generated_Source\PSoC5/CyDmac.c **** ****************************************************************************//**
 709:Generated_Source\PSoC5/CyDmac.c **** *
 710:Generated_Source\PSoC5/CyDmac.c **** *  Returns a TD to the free list.
 711:Generated_Source\PSoC5/CyDmac.c **** *
 712:Generated_Source\PSoC5/CyDmac.c **** *  \param uint8 tdHandle:
 713:Generated_Source\PSoC5/CyDmac.c **** *   The TD handle returned by the CyDmaTdAllocate().
 714:Generated_Source\PSoC5/CyDmac.c **** *
 715:Generated_Source\PSoC5/CyDmac.c **** *******************************************************************************/
 716:Generated_Source\PSoC5/CyDmac.c **** void CyDmaTdFree(uint8 tdHandle) 
 717:Generated_Source\PSoC5/CyDmac.c **** {
 1051              		.loc 1 717 1 is_stmt 1 view -0
 1052              		.cfi_startproc
 1053              		@ args = 0, pretend = 0, frame = 0
 1054              		@ frame_needed = 0, uses_anonymous_args = 0
 718:Generated_Source\PSoC5/CyDmac.c ****     if(tdHandle < CY_DMA_NUMBEROF_TDS)
 1055              		.loc 1 718 5 view .LVU287
 1056              		.loc 1 718 7 is_stmt 0 view .LVU288
 1057 0000 10F0800F 		tst	r0, #128
 1058 0004 00D0     		beq	.L110
 1059 0006 7047     		bx	lr
 1060              	.L110:
 717:Generated_Source\PSoC5/CyDmac.c ****     if(tdHandle < CY_DMA_NUMBEROF_TDS)
 1061              		.loc 1 717 1 view .LVU289
ARM GAS  C:\Users\jens-\AppData\Local\Temp\ccjjYmnj.s 			page 33


 1062 0008 10B5     		push	{r4, lr}
 1063              		.cfi_def_cfa_offset 8
 1064              		.cfi_offset 4, -8
 1065              		.cfi_offset 14, -4
 1066 000a 0446     		mov	r4, r0
 1067              	.LBB2:
 719:Generated_Source\PSoC5/CyDmac.c ****     {
 720:Generated_Source\PSoC5/CyDmac.c ****         /* Enter critical section! */
 721:Generated_Source\PSoC5/CyDmac.c ****         uint8 interruptState = CyEnterCriticalSection();
 1068              		.loc 1 721 9 is_stmt 1 view .LVU290
 1069              		.loc 1 721 32 is_stmt 0 view .LVU291
 1070 000c FFF7FEFF 		bl	CyEnterCriticalSection
 1071              	.LVL99:
 722:Generated_Source\PSoC5/CyDmac.c **** 
 723:Generated_Source\PSoC5/CyDmac.c ****         /* Get pointer to Next available. */
 724:Generated_Source\PSoC5/CyDmac.c ****         CY_DMA_TDMEM_STRUCT_PTR[tdHandle].TD0[0u] = CyDmaTdFreeIndex;
 1072              		.loc 1 724 9 is_stmt 1 view .LVU292
 1073              		.loc 1 724 32 is_stmt 0 view .LVU293
 1074 0010 E300     		lsls	r3, r4, #3
 1075 0012 03F18043 		add	r3, r3, #1073741824
 1076 0016 03F5F043 		add	r3, r3, #30720
 1077              		.loc 1 724 51 view .LVU294
 1078 001a 054A     		ldr	r2, .L111
 1079 001c 1178     		ldrb	r1, [r2]	@ zero_extendqisi2
 1080 001e 1970     		strb	r1, [r3]
 725:Generated_Source\PSoC5/CyDmac.c **** 
 726:Generated_Source\PSoC5/CyDmac.c ****         /* Set new Next Available. */
 727:Generated_Source\PSoC5/CyDmac.c ****         CyDmaTdFreeIndex = tdHandle;
 1081              		.loc 1 727 9 is_stmt 1 view .LVU295
 1082              		.loc 1 727 26 is_stmt 0 view .LVU296
 1083 0020 1470     		strb	r4, [r2]
 728:Generated_Source\PSoC5/CyDmac.c **** 
 729:Generated_Source\PSoC5/CyDmac.c ****         /* Keep track of how many left. */
 730:Generated_Source\PSoC5/CyDmac.c ****         CyDmaTdCurrentNumber++;
 1084              		.loc 1 730 9 is_stmt 1 view .LVU297
 1085              		.loc 1 730 29 is_stmt 0 view .LVU298
 1086 0022 5378     		ldrb	r3, [r2, #1]	@ zero_extendqisi2
 1087 0024 0133     		adds	r3, r3, #1
 1088 0026 5370     		strb	r3, [r2, #1]
 731:Generated_Source\PSoC5/CyDmac.c **** 
 732:Generated_Source\PSoC5/CyDmac.c ****         /* Exit critical section! */
 733:Generated_Source\PSoC5/CyDmac.c ****         CyExitCriticalSection(interruptState);
 1089              		.loc 1 733 9 is_stmt 1 view .LVU299
 1090 0028 FFF7FEFF 		bl	CyExitCriticalSection
 1091              	.LVL100:
 1092              		.loc 1 733 9 is_stmt 0 view .LVU300
 1093              	.LBE2:
 734:Generated_Source\PSoC5/CyDmac.c ****     }
 735:Generated_Source\PSoC5/CyDmac.c **** }
 1094              		.loc 1 735 1 view .LVU301
 1095 002c 10BD     		pop	{r4, pc}
 1096              	.L112:
 1097 002e 00BF     		.align	2
 1098              	.L111:
 1099 0030 00000000 		.word	.LANCHOR0
 1100              		.cfi_endproc
 1101              	.LFE17:
ARM GAS  C:\Users\jens-\AppData\Local\Temp\ccjjYmnj.s 			page 34


 1102              		.size	CyDmaTdFree, .-CyDmaTdFree
 1103              		.section	.text.CyDmaTdFreeCount,"ax",%progbits
 1104              		.align	1
 1105              		.global	CyDmaTdFreeCount
 1106              		.syntax unified
 1107              		.thumb
 1108              		.thumb_func
 1109              		.fpu softvfp
 1110              		.type	CyDmaTdFreeCount, %function
 1111              	CyDmaTdFreeCount:
 1112              	.LFB18:
 736:Generated_Source\PSoC5/CyDmac.c **** 
 737:Generated_Source\PSoC5/CyDmac.c **** 
 738:Generated_Source\PSoC5/CyDmac.c **** /*******************************************************************************
 739:Generated_Source\PSoC5/CyDmac.c **** * Function Name: CyDmaTdFreeCount
 740:Generated_Source\PSoC5/CyDmac.c **** ****************************************************************************//**
 741:Generated_Source\PSoC5/CyDmac.c **** *
 742:Generated_Source\PSoC5/CyDmac.c **** *  Returns the number of free TDs available to be allocated.
 743:Generated_Source\PSoC5/CyDmac.c **** *
 744:Generated_Source\PSoC5/CyDmac.c **** * \return
 745:Generated_Source\PSoC5/CyDmac.c **** *  The number of free TDs.
 746:Generated_Source\PSoC5/CyDmac.c **** *
 747:Generated_Source\PSoC5/CyDmac.c **** *******************************************************************************/
 748:Generated_Source\PSoC5/CyDmac.c **** uint8 CyDmaTdFreeCount(void) 
 749:Generated_Source\PSoC5/CyDmac.c **** {
 1113              		.loc 1 749 1 is_stmt 1 view -0
 1114              		.cfi_startproc
 1115              		@ args = 0, pretend = 0, frame = 0
 1116              		@ frame_needed = 0, uses_anonymous_args = 0
 1117              		@ link register save eliminated.
 750:Generated_Source\PSoC5/CyDmac.c ****     return(CyDmaTdCurrentNumber - CY_DMA_NUMBEROF_CHANNELS);
 1118              		.loc 1 750 5 view .LVU303
 1119              		.loc 1 750 33 is_stmt 0 view .LVU304
 1120 0000 024B     		ldr	r3, .L114
 1121 0002 5878     		ldrb	r0, [r3, #1]	@ zero_extendqisi2
 1122 0004 1838     		subs	r0, r0, #24
 751:Generated_Source\PSoC5/CyDmac.c **** }
 1123              		.loc 1 751 1 view .LVU305
 1124 0006 C0B2     		uxtb	r0, r0
 1125 0008 7047     		bx	lr
 1126              	.L115:
 1127 000a 00BF     		.align	2
 1128              	.L114:
 1129 000c 00000000 		.word	.LANCHOR0
 1130              		.cfi_endproc
 1131              	.LFE18:
 1132              		.size	CyDmaTdFreeCount, .-CyDmaTdFreeCount
 1133              		.section	.text.CyDmaTdSetConfiguration,"ax",%progbits
 1134              		.align	1
 1135              		.global	CyDmaTdSetConfiguration
 1136              		.syntax unified
 1137              		.thumb
 1138              		.thumb_func
 1139              		.fpu softvfp
 1140              		.type	CyDmaTdSetConfiguration, %function
 1141              	CyDmaTdSetConfiguration:
 1142              	.LVL101:
ARM GAS  C:\Users\jens-\AppData\Local\Temp\ccjjYmnj.s 			page 35


 1143              	.LFB19:
 752:Generated_Source\PSoC5/CyDmac.c **** 
 753:Generated_Source\PSoC5/CyDmac.c **** 
 754:Generated_Source\PSoC5/CyDmac.c **** /*******************************************************************************
 755:Generated_Source\PSoC5/CyDmac.c **** * Function Name: CyDmaTdSetConfiguration
 756:Generated_Source\PSoC5/CyDmac.c **** ****************************************************************************//**
 757:Generated_Source\PSoC5/CyDmac.c **** *
 758:Generated_Source\PSoC5/CyDmac.c **** *  Configures the TD.
 759:Generated_Source\PSoC5/CyDmac.c **** *
 760:Generated_Source\PSoC5/CyDmac.c **** *  \param uint8 tdHandle:
 761:Generated_Source\PSoC5/CyDmac.c **** *   A handle previously returned by CyDmaTdAlloc().
 762:Generated_Source\PSoC5/CyDmac.c **** *
 763:Generated_Source\PSoC5/CyDmac.c **** *  \param uint16 transferCount:
 764:Generated_Source\PSoC5/CyDmac.c **** *   The size of the data transfer (in bytes) for this TD. A size of zero will
 765:Generated_Source\PSoC5/CyDmac.c **** *   cause the transfer to continue indefinitely. This parameter is limited to
 766:Generated_Source\PSoC5/CyDmac.c **** *   4095 bytes; the TD is not initialized at all when a higher value is passed.
 767:Generated_Source\PSoC5/CyDmac.c **** *
 768:Generated_Source\PSoC5/CyDmac.c **** *  \param uint8 nextTd:
 769:Generated_Source\PSoC5/CyDmac.c **** *   Zero based index of the next Transfer Descriptor in the TD chain. Zero is a
 770:Generated_Source\PSoC5/CyDmac.c **** *   valid pointer to the next TD; DMA_END_CHAIN_TD is the end of the chain.
 771:Generated_Source\PSoC5/CyDmac.c **** *   DMA_DISABLE_TD indicates an end to the chain and the DMA is disabled. No
 772:Generated_Source\PSoC5/CyDmac.c **** *   further TDs are fetched. DMA_DISABLE_TD is only supported on PSoC3 and
 773:Generated_Source\PSoC5/CyDmac.c **** *   PSoC 5LP silicons.
 774:Generated_Source\PSoC5/CyDmac.c **** *
 775:Generated_Source\PSoC5/CyDmac.c **** *  \param uint8 configuration:
 776:Generated_Source\PSoC5/CyDmac.c **** *   Stores the Bit field of configuration bits.
 777:Generated_Source\PSoC5/CyDmac.c **** *
 778:Generated_Source\PSoC5/CyDmac.c **** *   CY_DMA_TD_SWAP_EN        - Perform endian swap
 779:Generated_Source\PSoC5/CyDmac.c **** *
 780:Generated_Source\PSoC5/CyDmac.c **** *   CY_DMA_TD_SWAP_SIZE4     - Swap size = 4 bytes
 781:Generated_Source\PSoC5/CyDmac.c **** *
 782:Generated_Source\PSoC5/CyDmac.c **** *   CY_DMA_TD_AUTO_EXEC_NEXT - The next TD in the chain will trigger
 783:Generated_Source\PSoC5/CyDmac.c **** *                              automatically when the current TD completes.
 784:Generated_Source\PSoC5/CyDmac.c **** *
 785:Generated_Source\PSoC5/CyDmac.c **** *   CY_DMA_TD_TERMIN_EN      - Terminate this TD if a positive edge on the trq
 786:Generated_Source\PSoC5/CyDmac.c **** *                              input line occurs. The positive edge must occur
 787:Generated_Source\PSoC5/CyDmac.c **** *                              during a burst. That is the only time the DMAC
 788:Generated_Source\PSoC5/CyDmac.c **** *                              will listen for it.
 789:Generated_Source\PSoC5/CyDmac.c **** *
 790:Generated_Source\PSoC5/CyDmac.c **** *   DMA__TD_TERMOUT_EN       - When this TD completes, the TERMOUT signal will
 791:Generated_Source\PSoC5/CyDmac.c **** *                              generate a pulse. Note that this option is
 792:Generated_Source\PSoC5/CyDmac.c **** *                              instance specific with the instance name followed
 793:Generated_Source\PSoC5/CyDmac.c **** *                              by two underscores. In this example, the instance
 794:Generated_Source\PSoC5/CyDmac.c **** *                              name is DMA.
 795:Generated_Source\PSoC5/CyDmac.c **** *
 796:Generated_Source\PSoC5/CyDmac.c **** *   CY_DMA_TD_INC_DST_ADR    - Increment DST_ADR according to the size of each
 797:Generated_Source\PSoC5/CyDmac.c **** *                              data transaction in the burst.
 798:Generated_Source\PSoC5/CyDmac.c **** *
 799:Generated_Source\PSoC5/CyDmac.c **** *   CY_DMA_TD_INC_SRC_ADR    - Increment SRC_ADR according to the size of each
 800:Generated_Source\PSoC5/CyDmac.c **** *                              data transaction in the burst.
 801:Generated_Source\PSoC5/CyDmac.c **** *
 802:Generated_Source\PSoC5/CyDmac.c **** * \return
 803:Generated_Source\PSoC5/CyDmac.c **** *  CYRET_SUCCESS if successful.
 804:Generated_Source\PSoC5/CyDmac.c **** *  CYRET_BAD_PARAM if tdHandle or transferCount is invalid.
 805:Generated_Source\PSoC5/CyDmac.c **** *
 806:Generated_Source\PSoC5/CyDmac.c **** *******************************************************************************/
 807:Generated_Source\PSoC5/CyDmac.c **** cystatus CyDmaTdSetConfiguration(uint8 tdHandle, uint16 transferCount, uint8 nextTd, uint8 configur
ARM GAS  C:\Users\jens-\AppData\Local\Temp\ccjjYmnj.s 			page 36


 808:Generated_Source\PSoC5/CyDmac.c ****     
 809:Generated_Source\PSoC5/CyDmac.c **** {
 1144              		.loc 1 809 1 is_stmt 1 view -0
 1145              		.cfi_startproc
 1146              		@ args = 0, pretend = 0, frame = 0
 1147              		@ frame_needed = 0, uses_anonymous_args = 0
 1148              		@ link register save eliminated.
 810:Generated_Source\PSoC5/CyDmac.c ****     cystatus status = CYRET_BAD_PARAM;
 1149              		.loc 1 810 5 view .LVU307
 811:Generated_Source\PSoC5/CyDmac.c **** 
 812:Generated_Source\PSoC5/CyDmac.c ****     if((tdHandle < CY_DMA_NUMBEROF_TDS) && (0u == (0xF000u & transferCount)))
 1150              		.loc 1 812 5 view .LVU308
 1151              		.loc 1 812 7 is_stmt 0 view .LVU309
 1152 0000 10F0800F 		tst	r0, #128
 1153 0004 0CD1     		bne	.L118
 1154              		.loc 1 812 41 discriminator 1 view .LVU310
 1155 0006 11F4704F 		tst	r1, #61440
 1156 000a 0BD1     		bne	.L119
 1157              	.LBB3:
 813:Generated_Source\PSoC5/CyDmac.c ****     {
 814:Generated_Source\PSoC5/CyDmac.c ****         /* Set 12 bits transfer count. */
 815:Generated_Source\PSoC5/CyDmac.c ****         reg16 *convert = (reg16 *) &CY_DMA_TDMEM_STRUCT_PTR[tdHandle].TD0[0u];
 1158              		.loc 1 815 9 is_stmt 1 view .LVU311
 1159              		.loc 1 815 60 is_stmt 0 view .LVU312
 1160 000c C000     		lsls	r0, r0, #3
 1161              	.LVL102:
 1162              		.loc 1 815 60 view .LVU313
 1163 000e 00F18040 		add	r0, r0, #1073741824
 1164 0012 00F5F040 		add	r0, r0, #30720
 1165              	.LVL103:
 816:Generated_Source\PSoC5/CyDmac.c ****         CY_SET_REG16(convert, transferCount);
 1166              		.loc 1 816 9 is_stmt 1 view .LVU314
 1167 0016 0180     		strh	r1, [r0]	@ movhi
 817:Generated_Source\PSoC5/CyDmac.c **** 
 818:Generated_Source\PSoC5/CyDmac.c ****         /* Set Next TD pointer. */
 819:Generated_Source\PSoC5/CyDmac.c ****         CY_DMA_TDMEM_STRUCT_PTR[tdHandle].TD0[2u] = nextTd;
 1168              		.loc 1 819 9 view .LVU315
 1169              		.loc 1 819 51 is_stmt 0 view .LVU316
 1170 0018 8270     		strb	r2, [r0, #2]
 820:Generated_Source\PSoC5/CyDmac.c **** 
 821:Generated_Source\PSoC5/CyDmac.c ****         /* Configure the TD */
 822:Generated_Source\PSoC5/CyDmac.c ****         CY_DMA_TDMEM_STRUCT_PTR[tdHandle].TD0[3u] = configuration;
 1171              		.loc 1 822 9 is_stmt 1 view .LVU317
 1172              		.loc 1 822 51 is_stmt 0 view .LVU318
 1173 001a C370     		strb	r3, [r0, #3]
 823:Generated_Source\PSoC5/CyDmac.c **** 
 824:Generated_Source\PSoC5/CyDmac.c ****         status = CYRET_SUCCESS;
 1174              		.loc 1 824 9 is_stmt 1 view .LVU319
 1175              	.LVL104:
 1176              		.loc 1 824 16 is_stmt 0 view .LVU320
 1177 001c 0020     		movs	r0, #0
 1178              	.LVL105:
 1179              		.loc 1 824 16 view .LVU321
 1180 001e 7047     		bx	lr
 1181              	.LVL106:
 1182              	.L118:
 1183              		.loc 1 824 16 view .LVU322
ARM GAS  C:\Users\jens-\AppData\Local\Temp\ccjjYmnj.s 			page 37


 1184              	.LBE3:
 810:Generated_Source\PSoC5/CyDmac.c **** 
 1185              		.loc 1 810 14 view .LVU323
 1186 0020 0120     		movs	r0, #1
 1187              	.LVL107:
 810:Generated_Source\PSoC5/CyDmac.c **** 
 1188              		.loc 1 810 14 view .LVU324
 1189 0022 7047     		bx	lr
 1190              	.LVL108:
 1191              	.L119:
 810:Generated_Source\PSoC5/CyDmac.c **** 
 1192              		.loc 1 810 14 view .LVU325
 1193 0024 0120     		movs	r0, #1
 1194              	.LVL109:
 825:Generated_Source\PSoC5/CyDmac.c ****     }
 826:Generated_Source\PSoC5/CyDmac.c **** 
 827:Generated_Source\PSoC5/CyDmac.c ****     return(status);
 1195              		.loc 1 827 5 is_stmt 1 view .LVU326
 828:Generated_Source\PSoC5/CyDmac.c **** }
 1196              		.loc 1 828 1 is_stmt 0 view .LVU327
 1197 0026 7047     		bx	lr
 1198              		.cfi_endproc
 1199              	.LFE19:
 1200              		.size	CyDmaTdSetConfiguration, .-CyDmaTdSetConfiguration
 1201              		.section	.text.CyDmaTdGetConfiguration,"ax",%progbits
 1202              		.align	1
 1203              		.global	CyDmaTdGetConfiguration
 1204              		.syntax unified
 1205              		.thumb
 1206              		.thumb_func
 1207              		.fpu softvfp
 1208              		.type	CyDmaTdGetConfiguration, %function
 1209              	CyDmaTdGetConfiguration:
 1210              	.LVL110:
 1211              	.LFB20:
 829:Generated_Source\PSoC5/CyDmac.c **** 
 830:Generated_Source\PSoC5/CyDmac.c **** 
 831:Generated_Source\PSoC5/CyDmac.c **** /*******************************************************************************
 832:Generated_Source\PSoC5/CyDmac.c **** * Function Name: CyDmaTdGetConfiguration
 833:Generated_Source\PSoC5/CyDmac.c **** ****************************************************************************//**
 834:Generated_Source\PSoC5/CyDmac.c **** *
 835:Generated_Source\PSoC5/CyDmac.c **** *  Retrieves the configuration of the TD. If a NULL pointer is passed as a
 836:Generated_Source\PSoC5/CyDmac.c **** *  parameter, that parameter is skipped. You may request only the values you are
 837:Generated_Source\PSoC5/CyDmac.c **** *  interested in.
 838:Generated_Source\PSoC5/CyDmac.c **** *
 839:Generated_Source\PSoC5/CyDmac.c **** *  \param uint8 tdHandle:
 840:Generated_Source\PSoC5/CyDmac.c **** *   A handle previously returned by CyDmaTdAlloc().
 841:Generated_Source\PSoC5/CyDmac.c **** *
 842:Generated_Source\PSoC5/CyDmac.c **** *  \param uint16 * transferCount:
 843:Generated_Source\PSoC5/CyDmac.c **** *   The address to store the size of the data transfer (in bytes) for this TD.
 844:Generated_Source\PSoC5/CyDmac.c **** *   A size of zero could indicate that the TD has completed its transfer, or
 845:Generated_Source\PSoC5/CyDmac.c **** *   that the TD is doing an indefinite transfer.
 846:Generated_Source\PSoC5/CyDmac.c **** *
 847:Generated_Source\PSoC5/CyDmac.c **** *  \param uint8 * nextTd:
 848:Generated_Source\PSoC5/CyDmac.c **** *   The address to store the index of the next TD in the TD chain.
 849:Generated_Source\PSoC5/CyDmac.c **** *
 850:Generated_Source\PSoC5/CyDmac.c **** *  \param uint8 * configuration:
ARM GAS  C:\Users\jens-\AppData\Local\Temp\ccjjYmnj.s 			page 38


 851:Generated_Source\PSoC5/CyDmac.c **** *   The address to store the Bit field of configuration bits.
 852:Generated_Source\PSoC5/CyDmac.c **** *   See CyDmaTdSetConfiguration() function description.
 853:Generated_Source\PSoC5/CyDmac.c **** *
 854:Generated_Source\PSoC5/CyDmac.c **** * \return
 855:Generated_Source\PSoC5/CyDmac.c **** *  CYRET_SUCCESS if successful.
 856:Generated_Source\PSoC5/CyDmac.c **** *  CYRET_BAD_PARAM if tdHandle is invalid.
 857:Generated_Source\PSoC5/CyDmac.c **** *
 858:Generated_Source\PSoC5/CyDmac.c **** * \sideeffect
 859:Generated_Source\PSoC5/CyDmac.c **** *  If TD has a transfer count of N and is executed, the transfer count becomes
 860:Generated_Source\PSoC5/CyDmac.c **** *  0. If it is reexecuted, the Transfer count of zero will be interpreted as a
 861:Generated_Source\PSoC5/CyDmac.c **** *  request for indefinite transfer. Be careful when requesting TD with a
 862:Generated_Source\PSoC5/CyDmac.c **** *  transfer count of zero.
 863:Generated_Source\PSoC5/CyDmac.c **** *
 864:Generated_Source\PSoC5/CyDmac.c **** *******************************************************************************/
 865:Generated_Source\PSoC5/CyDmac.c **** cystatus CyDmaTdGetConfiguration(uint8 tdHandle, uint16 * transferCount, uint8 * nextTd, uint8 * co
 866:Generated_Source\PSoC5/CyDmac.c ****     
 867:Generated_Source\PSoC5/CyDmac.c **** {
 1212              		.loc 1 867 1 is_stmt 1 view -0
 1213              		.cfi_startproc
 1214              		@ args = 0, pretend = 0, frame = 0
 1215              		@ frame_needed = 0, uses_anonymous_args = 0
 1216              		@ link register save eliminated.
 868:Generated_Source\PSoC5/CyDmac.c ****     cystatus status = CYRET_BAD_PARAM;
 1217              		.loc 1 868 5 view .LVU329
 869:Generated_Source\PSoC5/CyDmac.c **** 
 870:Generated_Source\PSoC5/CyDmac.c ****     if(tdHandle < CY_DMA_NUMBEROF_TDS)
 1218              		.loc 1 870 5 view .LVU330
 1219              		.loc 1 870 7 is_stmt 0 view .LVU331
 1220 0000 10F0800F 		tst	r0, #128
 1221 0004 1DD1     		bne	.L124
 867:Generated_Source\PSoC5/CyDmac.c ****     cystatus status = CYRET_BAD_PARAM;
 1222              		.loc 1 867 1 view .LVU332
 1223 0006 10B4     		push	{r4}
 1224              		.cfi_def_cfa_offset 4
 1225              		.cfi_offset 4, -4
 871:Generated_Source\PSoC5/CyDmac.c ****     {
 872:Generated_Source\PSoC5/CyDmac.c ****         /* If we have pointer */
 873:Generated_Source\PSoC5/CyDmac.c ****         if(NULL != transferCount)
 1226              		.loc 1 873 9 is_stmt 1 view .LVU333
 1227              		.loc 1 873 11 is_stmt 0 view .LVU334
 1228 0008 41B1     		cbz	r1, .L122
 1229              	.LBB4:
 874:Generated_Source\PSoC5/CyDmac.c ****         {
 875:Generated_Source\PSoC5/CyDmac.c ****             /* Get 12 bits of transfer count */
 876:Generated_Source\PSoC5/CyDmac.c ****             reg16 *convert = (reg16 *) &CY_DMA_TDMEM_STRUCT_PTR[tdHandle].TD0[0];
 1230              		.loc 1 876 13 is_stmt 1 view .LVU335
 1231              		.loc 1 876 64 is_stmt 0 view .LVU336
 1232 000a C400     		lsls	r4, r0, #3
 1233 000c 04F18044 		add	r4, r4, #1073741824
 1234 0010 04F5F044 		add	r4, r4, #30720
 1235              	.LVL111:
 877:Generated_Source\PSoC5/CyDmac.c ****             *transferCount = 0x0FFFu & CY_GET_REG16(convert);
 1236              		.loc 1 877 13 is_stmt 1 view .LVU337
 1237              		.loc 1 877 40 is_stmt 0 view .LVU338
 1238 0014 2488     		ldrh	r4, [r4]
 1239              	.LVL112:
 1240              		.loc 1 877 38 view .LVU339
ARM GAS  C:\Users\jens-\AppData\Local\Temp\ccjjYmnj.s 			page 39


 1241 0016 C4F30B04 		ubfx	r4, r4, #0, #12
 1242              		.loc 1 877 28 view .LVU340
 1243 001a 0C80     		strh	r4, [r1]	@ movhi
 1244              	.LVL113:
 1245              	.L122:
 1246              		.loc 1 877 28 view .LVU341
 1247              	.LBE4:
 878:Generated_Source\PSoC5/CyDmac.c ****         }
 879:Generated_Source\PSoC5/CyDmac.c **** 
 880:Generated_Source\PSoC5/CyDmac.c ****         /* If we have pointer */
 881:Generated_Source\PSoC5/CyDmac.c ****         if(NULL != nextTd)
 1248              		.loc 1 881 9 is_stmt 1 view .LVU342
 1249              		.loc 1 881 11 is_stmt 0 view .LVU343
 1250 001c 32B1     		cbz	r2, .L123
 882:Generated_Source\PSoC5/CyDmac.c ****         {
 883:Generated_Source\PSoC5/CyDmac.c ****             /* Get Next TD pointer */
 884:Generated_Source\PSoC5/CyDmac.c ****             *nextTd = CY_DMA_TDMEM_STRUCT_PTR[tdHandle].TD0[2u];
 1251              		.loc 1 884 13 is_stmt 1 view .LVU344
 1252              		.loc 1 884 46 is_stmt 0 view .LVU345
 1253 001e C100     		lsls	r1, r0, #3
 1254              	.LVL114:
 1255              		.loc 1 884 46 view .LVU346
 1256 0020 01F18041 		add	r1, r1, #1073741824
 1257 0024 01F5F041 		add	r1, r1, #30720
 1258              		.loc 1 884 60 view .LVU347
 1259 0028 8978     		ldrb	r1, [r1, #2]	@ zero_extendqisi2
 1260              		.loc 1 884 21 view .LVU348
 1261 002a 1170     		strb	r1, [r2]
 1262              	.L123:
 885:Generated_Source\PSoC5/CyDmac.c ****         }
 886:Generated_Source\PSoC5/CyDmac.c **** 
 887:Generated_Source\PSoC5/CyDmac.c ****         /* If we have pointer */
 888:Generated_Source\PSoC5/CyDmac.c ****         if(NULL != configuration)
 1263              		.loc 1 888 9 is_stmt 1 view .LVU349
 1264              		.loc 1 888 11 is_stmt 0 view .LVU350
 1265 002c 5BB1     		cbz	r3, .L125
 889:Generated_Source\PSoC5/CyDmac.c ****         {
 890:Generated_Source\PSoC5/CyDmac.c ****             /* Get configuration TD */
 891:Generated_Source\PSoC5/CyDmac.c ****             *configuration = CY_DMA_TDMEM_STRUCT_PTR[tdHandle].TD0[3u];
 1266              		.loc 1 891 13 is_stmt 1 view .LVU351
 1267              		.loc 1 891 53 is_stmt 0 view .LVU352
 1268 002e C000     		lsls	r0, r0, #3
 1269              	.LVL115:
 1270              		.loc 1 891 53 view .LVU353
 1271 0030 00F18040 		add	r0, r0, #1073741824
 1272 0034 00F5F040 		add	r0, r0, #30720
 1273              		.loc 1 891 67 view .LVU354
 1274 0038 C278     		ldrb	r2, [r0, #3]	@ zero_extendqisi2
 1275              	.LVL116:
 1276              		.loc 1 891 28 view .LVU355
 1277 003a 1A70     		strb	r2, [r3]
 892:Generated_Source\PSoC5/CyDmac.c ****         }
 893:Generated_Source\PSoC5/CyDmac.c **** 
 894:Generated_Source\PSoC5/CyDmac.c ****         status = CYRET_SUCCESS;
 1278              		.loc 1 894 16 view .LVU356
 1279 003c 0020     		movs	r0, #0
 1280              	.LVL117:
ARM GAS  C:\Users\jens-\AppData\Local\Temp\ccjjYmnj.s 			page 40


 1281              	.L120:
 895:Generated_Source\PSoC5/CyDmac.c ****     }
 896:Generated_Source\PSoC5/CyDmac.c **** 
 897:Generated_Source\PSoC5/CyDmac.c ****     return(status);
 898:Generated_Source\PSoC5/CyDmac.c **** }
 1282              		.loc 1 898 1 view .LVU357
 1283 003e 10BC     		pop	{r4}
 1284              		.cfi_restore 4
 1285              		.cfi_def_cfa_offset 0
 1286 0040 7047     		bx	lr
 1287              	.LVL118:
 1288              	.L124:
 868:Generated_Source\PSoC5/CyDmac.c **** 
 1289              		.loc 1 868 14 view .LVU358
 1290 0042 0120     		movs	r0, #1
 1291              	.LVL119:
 1292              		.loc 1 898 1 view .LVU359
 1293 0044 7047     		bx	lr
 1294              	.LVL120:
 1295              	.L125:
 1296              		.cfi_def_cfa_offset 4
 1297              		.cfi_offset 4, -4
 894:Generated_Source\PSoC5/CyDmac.c ****     }
 1298              		.loc 1 894 16 view .LVU360
 1299 0046 0020     		movs	r0, #0
 1300              	.LVL121:
 897:Generated_Source\PSoC5/CyDmac.c **** }
 1301              		.loc 1 897 5 is_stmt 1 view .LVU361
 897:Generated_Source\PSoC5/CyDmac.c **** }
 1302              		.loc 1 897 11 is_stmt 0 view .LVU362
 1303 0048 F9E7     		b	.L120
 1304              		.cfi_endproc
 1305              	.LFE20:
 1306              		.size	CyDmaTdGetConfiguration, .-CyDmaTdGetConfiguration
 1307              		.section	.text.CyDmaTdSetAddress,"ax",%progbits
 1308              		.align	1
 1309              		.global	CyDmaTdSetAddress
 1310              		.syntax unified
 1311              		.thumb
 1312              		.thumb_func
 1313              		.fpu softvfp
 1314              		.type	CyDmaTdSetAddress, %function
 1315              	CyDmaTdSetAddress:
 1316              	.LVL122:
 1317              	.LFB21:
 899:Generated_Source\PSoC5/CyDmac.c **** 
 900:Generated_Source\PSoC5/CyDmac.c **** 
 901:Generated_Source\PSoC5/CyDmac.c **** /*******************************************************************************
 902:Generated_Source\PSoC5/CyDmac.c **** * Function Name: CyDmaTdSetAddress
 903:Generated_Source\PSoC5/CyDmac.c **** ****************************************************************************//**
 904:Generated_Source\PSoC5/CyDmac.c **** *
 905:Generated_Source\PSoC5/CyDmac.c **** *  Sets the lower 16 bits of the source and destination addresses for this TD
 906:Generated_Source\PSoC5/CyDmac.c **** *  only.
 907:Generated_Source\PSoC5/CyDmac.c **** *
 908:Generated_Source\PSoC5/CyDmac.c **** *  \param uint8 tdHandle:
 909:Generated_Source\PSoC5/CyDmac.c **** *   A handle previously returned by CyDmaTdAlloc().
 910:Generated_Source\PSoC5/CyDmac.c **** *
ARM GAS  C:\Users\jens-\AppData\Local\Temp\ccjjYmnj.s 			page 41


 911:Generated_Source\PSoC5/CyDmac.c **** *  \param uint16 source:
 912:Generated_Source\PSoC5/CyDmac.c **** *   The lower 16 address bits of the source of the data transfer.
 913:Generated_Source\PSoC5/CyDmac.c **** *
 914:Generated_Source\PSoC5/CyDmac.c **** *  \param uint16 destination:
 915:Generated_Source\PSoC5/CyDmac.c **** *   The lower 16 address bits of the destination of the data transfer.
 916:Generated_Source\PSoC5/CyDmac.c **** *
 917:Generated_Source\PSoC5/CyDmac.c **** * \return
 918:Generated_Source\PSoC5/CyDmac.c **** *  CYRET_SUCCESS if successful.
 919:Generated_Source\PSoC5/CyDmac.c **** *  CYRET_BAD_PARAM if tdHandle is invalid.
 920:Generated_Source\PSoC5/CyDmac.c **** *
 921:Generated_Source\PSoC5/CyDmac.c **** *******************************************************************************/
 922:Generated_Source\PSoC5/CyDmac.c **** cystatus CyDmaTdSetAddress(uint8 tdHandle, uint16 source, uint16 destination) 
 923:Generated_Source\PSoC5/CyDmac.c **** {
 1318              		.loc 1 923 1 is_stmt 1 view -0
 1319              		.cfi_startproc
 1320              		@ args = 0, pretend = 0, frame = 0
 1321              		@ frame_needed = 0, uses_anonymous_args = 0
 1322              		@ link register save eliminated.
 924:Generated_Source\PSoC5/CyDmac.c ****     cystatus status = CYRET_BAD_PARAM;
 1323              		.loc 1 924 5 view .LVU364
 925:Generated_Source\PSoC5/CyDmac.c ****     reg16 *convert;
 1324              		.loc 1 925 5 view .LVU365
 926:Generated_Source\PSoC5/CyDmac.c **** 
 927:Generated_Source\PSoC5/CyDmac.c ****     if(tdHandle < CY_DMA_NUMBEROF_TDS)
 1325              		.loc 1 927 5 view .LVU366
 1326              		.loc 1 927 7 is_stmt 0 view .LVU367
 1327 0000 10F0800F 		tst	r0, #128
 1328 0004 08D1     		bne	.L132
 928:Generated_Source\PSoC5/CyDmac.c ****     {
 929:Generated_Source\PSoC5/CyDmac.c ****         /* Set source address */
 930:Generated_Source\PSoC5/CyDmac.c ****         convert = (reg16 *) &CY_DMA_TDMEM_STRUCT_PTR[tdHandle].TD1[0u];
 1329              		.loc 1 930 9 is_stmt 1 view .LVU368
 1330              		.loc 1 930 53 is_stmt 0 view .LVU369
 1331 0006 C000     		lsls	r0, r0, #3
 1332              	.LVL123:
 1333              		.loc 1 930 53 view .LVU370
 1334 0008 00F18040 		add	r0, r0, #1073741824
 1335 000c 00F5F040 		add	r0, r0, #30720
 1336              	.LVL124:
 931:Generated_Source\PSoC5/CyDmac.c ****         CY_SET_REG16(convert, source);
 1337              		.loc 1 931 9 is_stmt 1 view .LVU371
 1338 0010 8180     		strh	r1, [r0, #4]	@ movhi
 932:Generated_Source\PSoC5/CyDmac.c **** 
 933:Generated_Source\PSoC5/CyDmac.c ****         /* Set destination address */
 934:Generated_Source\PSoC5/CyDmac.c ****         convert = (reg16 *) &CY_DMA_TDMEM_STRUCT_PTR[tdHandle].TD1[2u];
 1339              		.loc 1 934 9 view .LVU372
 1340              	.LVL125:
 935:Generated_Source\PSoC5/CyDmac.c ****         CY_SET_REG16(convert, destination);
 1341              		.loc 1 935 9 view .LVU373
 1342 0012 C280     		strh	r2, [r0, #6]	@ movhi
 936:Generated_Source\PSoC5/CyDmac.c **** 
 937:Generated_Source\PSoC5/CyDmac.c ****         status = CYRET_SUCCESS;
 1343              		.loc 1 937 9 view .LVU374
 1344              	.LVL126:
 1345              		.loc 1 937 16 is_stmt 0 view .LVU375
 1346 0014 0020     		movs	r0, #0
 1347              	.LVL127:
ARM GAS  C:\Users\jens-\AppData\Local\Temp\ccjjYmnj.s 			page 42


 1348              		.loc 1 937 16 view .LVU376
 1349 0016 7047     		bx	lr
 1350              	.LVL128:
 1351              	.L132:
 924:Generated_Source\PSoC5/CyDmac.c ****     reg16 *convert;
 1352              		.loc 1 924 14 view .LVU377
 1353 0018 0120     		movs	r0, #1
 1354              	.LVL129:
 938:Generated_Source\PSoC5/CyDmac.c ****     }
 939:Generated_Source\PSoC5/CyDmac.c **** 
 940:Generated_Source\PSoC5/CyDmac.c ****     return(status);
 1355              		.loc 1 940 5 is_stmt 1 view .LVU378
 941:Generated_Source\PSoC5/CyDmac.c **** }
 1356              		.loc 1 941 1 is_stmt 0 view .LVU379
 1357 001a 7047     		bx	lr
 1358              		.cfi_endproc
 1359              	.LFE21:
 1360              		.size	CyDmaTdSetAddress, .-CyDmaTdSetAddress
 1361              		.section	.text.CyDmaTdGetAddress,"ax",%progbits
 1362              		.align	1
 1363              		.global	CyDmaTdGetAddress
 1364              		.syntax unified
 1365              		.thumb
 1366              		.thumb_func
 1367              		.fpu softvfp
 1368              		.type	CyDmaTdGetAddress, %function
 1369              	CyDmaTdGetAddress:
 1370              	.LVL130:
 1371              	.LFB22:
 942:Generated_Source\PSoC5/CyDmac.c **** 
 943:Generated_Source\PSoC5/CyDmac.c **** 
 944:Generated_Source\PSoC5/CyDmac.c **** /*******************************************************************************
 945:Generated_Source\PSoC5/CyDmac.c **** * Function Name: CyDmaTdGetAddress
 946:Generated_Source\PSoC5/CyDmac.c **** ****************************************************************************//**
 947:Generated_Source\PSoC5/CyDmac.c **** *
 948:Generated_Source\PSoC5/CyDmac.c **** *  Retrieves the lower 16 bits of the source and/or destination addresses for
 949:Generated_Source\PSoC5/CyDmac.c **** *  this TD only. If NULL is passed for a pointer parameter, that value is
 950:Generated_Source\PSoC5/CyDmac.c **** *  skipped. You may request only the values of interest.
 951:Generated_Source\PSoC5/CyDmac.c **** *
 952:Generated_Source\PSoC5/CyDmac.c **** *  \param uint8 tdHandle:
 953:Generated_Source\PSoC5/CyDmac.c **** *   A handle previously returned by CyDmaTdAlloc().
 954:Generated_Source\PSoC5/CyDmac.c **** *
 955:Generated_Source\PSoC5/CyDmac.c **** *  \param uint16 * source:
 956:Generated_Source\PSoC5/CyDmac.c **** *   The address to store the lower 16 address bits of the source of the data
 957:Generated_Source\PSoC5/CyDmac.c **** *   transfer.
 958:Generated_Source\PSoC5/CyDmac.c **** *
 959:Generated_Source\PSoC5/CyDmac.c **** *  \param uint16 * destination:
 960:Generated_Source\PSoC5/CyDmac.c **** *   The address to store the lower 16 address bits of the destination of the
 961:Generated_Source\PSoC5/CyDmac.c **** *   data transfer.
 962:Generated_Source\PSoC5/CyDmac.c **** *
 963:Generated_Source\PSoC5/CyDmac.c **** * \return
 964:Generated_Source\PSoC5/CyDmac.c **** *  CYRET_SUCCESS if successful.
 965:Generated_Source\PSoC5/CyDmac.c **** *  CYRET_BAD_PARAM if tdHandle is invalid.
 966:Generated_Source\PSoC5/CyDmac.c **** *
 967:Generated_Source\PSoC5/CyDmac.c **** *******************************************************************************/
 968:Generated_Source\PSoC5/CyDmac.c **** cystatus CyDmaTdGetAddress(uint8 tdHandle, uint16 * source, uint16 * destination) 
 969:Generated_Source\PSoC5/CyDmac.c **** {
ARM GAS  C:\Users\jens-\AppData\Local\Temp\ccjjYmnj.s 			page 43


 1372              		.loc 1 969 1 is_stmt 1 view -0
 1373              		.cfi_startproc
 1374              		@ args = 0, pretend = 0, frame = 0
 1375              		@ frame_needed = 0, uses_anonymous_args = 0
 1376              		@ link register save eliminated.
 970:Generated_Source\PSoC5/CyDmac.c ****     cystatus status = CYRET_BAD_PARAM;
 1377              		.loc 1 970 5 view .LVU381
 971:Generated_Source\PSoC5/CyDmac.c ****     reg16 *convert;
 1378              		.loc 1 971 5 view .LVU382
 972:Generated_Source\PSoC5/CyDmac.c **** 
 973:Generated_Source\PSoC5/CyDmac.c ****     if(tdHandle < CY_DMA_NUMBEROF_TDS)
 1379              		.loc 1 973 5 view .LVU383
 1380              		.loc 1 973 7 is_stmt 0 view .LVU384
 1381 0000 10F0800F 		tst	r0, #128
 1382 0004 11D1     		bne	.L136
 974:Generated_Source\PSoC5/CyDmac.c ****     {
 975:Generated_Source\PSoC5/CyDmac.c ****         /* If we have a pointer. */
 976:Generated_Source\PSoC5/CyDmac.c ****         if(NULL != source)
 1383              		.loc 1 976 9 is_stmt 1 view .LVU385
 1384              		.loc 1 976 11 is_stmt 0 view .LVU386
 1385 0006 31B1     		cbz	r1, .L135
 977:Generated_Source\PSoC5/CyDmac.c ****         {
 978:Generated_Source\PSoC5/CyDmac.c ****             /* Get source address */
 979:Generated_Source\PSoC5/CyDmac.c ****             convert = (reg16 *) &CY_DMA_TDMEM_STRUCT_PTR[tdHandle].TD1[0u];
 1386              		.loc 1 979 13 is_stmt 1 view .LVU387
 1387              		.loc 1 979 57 is_stmt 0 view .LVU388
 1388 0008 C300     		lsls	r3, r0, #3
 1389 000a 03F18043 		add	r3, r3, #1073741824
 1390 000e 03F5F043 		add	r3, r3, #30720
 1391              	.LVL131:
 980:Generated_Source\PSoC5/CyDmac.c ****             *source = CY_GET_REG16(convert);
 1392              		.loc 1 980 13 is_stmt 1 view .LVU389
 1393              		.loc 1 980 23 is_stmt 0 view .LVU390
 1394 0012 9B88     		ldrh	r3, [r3, #4]
 1395              	.LVL132:
 1396              		.loc 1 980 21 view .LVU391
 1397 0014 0B80     		strh	r3, [r1]	@ movhi
 1398              	.LVL133:
 1399              	.L135:
 981:Generated_Source\PSoC5/CyDmac.c ****         }
 982:Generated_Source\PSoC5/CyDmac.c **** 
 983:Generated_Source\PSoC5/CyDmac.c ****         /* If we have a pointer. */
 984:Generated_Source\PSoC5/CyDmac.c ****         if(NULL != destination)
 1400              		.loc 1 984 9 is_stmt 1 view .LVU392
 1401              		.loc 1 984 11 is_stmt 0 view .LVU393
 1402 0016 52B1     		cbz	r2, .L137
 985:Generated_Source\PSoC5/CyDmac.c ****         {
 986:Generated_Source\PSoC5/CyDmac.c ****             /* Get Destination address. */
 987:Generated_Source\PSoC5/CyDmac.c ****             convert = (reg16 *) &CY_DMA_TDMEM_STRUCT_PTR[tdHandle].TD1[2u];
 1403              		.loc 1 987 13 is_stmt 1 view .LVU394
 1404              		.loc 1 987 57 is_stmt 0 view .LVU395
 1405 0018 C000     		lsls	r0, r0, #3
 1406              	.LVL134:
 1407              		.loc 1 987 57 view .LVU396
 1408 001a 00F18040 		add	r0, r0, #1073741824
 1409 001e 00F5F040 		add	r0, r0, #30720
 1410              	.LVL135:
ARM GAS  C:\Users\jens-\AppData\Local\Temp\ccjjYmnj.s 			page 44


 988:Generated_Source\PSoC5/CyDmac.c ****             *destination = CY_GET_REG16(convert);
 1411              		.loc 1 988 13 is_stmt 1 view .LVU397
 1412              		.loc 1 988 28 is_stmt 0 view .LVU398
 1413 0022 C388     		ldrh	r3, [r0, #6]
 1414              		.loc 1 988 26 view .LVU399
 1415 0024 1380     		strh	r3, [r2]	@ movhi
 989:Generated_Source\PSoC5/CyDmac.c ****         }
 990:Generated_Source\PSoC5/CyDmac.c **** 
 991:Generated_Source\PSoC5/CyDmac.c ****         status = CYRET_SUCCESS;
 1416              		.loc 1 991 16 view .LVU400
 1417 0026 0020     		movs	r0, #0
 1418              	.LVL136:
 1419              		.loc 1 991 16 view .LVU401
 1420 0028 7047     		bx	lr
 1421              	.LVL137:
 1422              	.L136:
 970:Generated_Source\PSoC5/CyDmac.c ****     reg16 *convert;
 1423              		.loc 1 970 14 view .LVU402
 1424 002a 0120     		movs	r0, #1
 1425              	.LVL138:
 970:Generated_Source\PSoC5/CyDmac.c ****     reg16 *convert;
 1426              		.loc 1 970 14 view .LVU403
 1427 002c 7047     		bx	lr
 1428              	.LVL139:
 1429              	.L137:
 1430              		.loc 1 991 16 view .LVU404
 1431 002e 0020     		movs	r0, #0
 1432              	.LVL140:
 992:Generated_Source\PSoC5/CyDmac.c ****     }
 993:Generated_Source\PSoC5/CyDmac.c **** 
 994:Generated_Source\PSoC5/CyDmac.c ****     return(status);
 1433              		.loc 1 994 5 is_stmt 1 view .LVU405
 995:Generated_Source\PSoC5/CyDmac.c **** }
 1434              		.loc 1 995 1 is_stmt 0 view .LVU406
 1435 0030 7047     		bx	lr
 1436              		.cfi_endproc
 1437              	.LFE22:
 1438              		.size	CyDmaTdGetAddress, .-CyDmaTdGetAddress
 1439              		.section	.text.CyDmaChRoundRobin,"ax",%progbits
 1440              		.align	1
 1441              		.global	CyDmaChRoundRobin
 1442              		.syntax unified
 1443              		.thumb
 1444              		.thumb_func
 1445              		.fpu softvfp
 1446              		.type	CyDmaChRoundRobin, %function
 1447              	CyDmaChRoundRobin:
 1448              	.LVL141:
 1449              	.LFB23:
 996:Generated_Source\PSoC5/CyDmac.c **** 
 997:Generated_Source\PSoC5/CyDmac.c **** 
 998:Generated_Source\PSoC5/CyDmac.c **** /*******************************************************************************
 999:Generated_Source\PSoC5/CyDmac.c **** * Function Name: CyDmaChRoundRobin
1000:Generated_Source\PSoC5/CyDmac.c **** ****************************************************************************//**
1001:Generated_Source\PSoC5/CyDmac.c **** *
1002:Generated_Source\PSoC5/CyDmac.c **** * Either enables or disables the Round-Robin scheduling enforcement algorithm.
1003:Generated_Source\PSoC5/CyDmac.c **** * Within a priority level a Round-Robin fairness algorithm is enforced.
ARM GAS  C:\Users\jens-\AppData\Local\Temp\ccjjYmnj.s 			page 45


1004:Generated_Source\PSoC5/CyDmac.c **** *
1005:Generated_Source\PSoC5/CyDmac.c **** * \param uint8 chHandle:
1006:Generated_Source\PSoC5/CyDmac.c **** *  A handle previously returned by CyDmaChAlloc() or Dma_DmaInitialize().
1007:Generated_Source\PSoC5/CyDmac.c **** *
1008:Generated_Source\PSoC5/CyDmac.c **** * \param uint8 enableRR:
1009:Generated_Source\PSoC5/CyDmac.c **** *  \param 0: Disable Round-Robin fairness algorithm
1010:Generated_Source\PSoC5/CyDmac.c **** *  \param 1: Enable Round-Robin fairness algorithm
1011:Generated_Source\PSoC5/CyDmac.c **** *
1012:Generated_Source\PSoC5/CyDmac.c **** * \return
1013:Generated_Source\PSoC5/CyDmac.c **** * CYRET_SUCCESS if successful.
1014:Generated_Source\PSoC5/CyDmac.c **** * CYRET_BAD_PARAM if chHandle is invalid.
1015:Generated_Source\PSoC5/CyDmac.c **** *
1016:Generated_Source\PSoC5/CyDmac.c **** *******************************************************************************/
1017:Generated_Source\PSoC5/CyDmac.c **** cystatus CyDmaChRoundRobin(uint8 chHandle, uint8 enableRR) 
1018:Generated_Source\PSoC5/CyDmac.c **** {
 1450              		.loc 1 1018 1 is_stmt 1 view -0
 1451              		.cfi_startproc
 1452              		@ args = 0, pretend = 0, frame = 0
 1453              		@ frame_needed = 0, uses_anonymous_args = 0
 1454              		@ link register save eliminated.
1019:Generated_Source\PSoC5/CyDmac.c ****     cystatus status = CYRET_BAD_PARAM;
 1455              		.loc 1 1019 5 view .LVU408
1020:Generated_Source\PSoC5/CyDmac.c **** 
1021:Generated_Source\PSoC5/CyDmac.c ****     if(chHandle < CY_DMA_NUMBEROF_CHANNELS)
 1456              		.loc 1 1021 5 view .LVU409
 1457              		.loc 1 1021 7 is_stmt 0 view .LVU410
 1458 0000 1728     		cmp	r0, #23
 1459 0002 10D8     		bhi	.L141
1022:Generated_Source\PSoC5/CyDmac.c ****     {
1023:Generated_Source\PSoC5/CyDmac.c ****         if (0u != enableRR)
 1460              		.loc 1 1023 9 is_stmt 1 view .LVU411
 1461              		.loc 1 1023 12 is_stmt 0 view .LVU412
 1462 0004 39B1     		cbz	r1, .L140
1024:Generated_Source\PSoC5/CyDmac.c ****         {
1025:Generated_Source\PSoC5/CyDmac.c ****             CY_DMA_CH_STRUCT_PTR[chHandle].basic_cfg[0u] |= (uint8)CY_DMA_ROUND_ROBIN_ENABLE;
 1463              		.loc 1 1025 13 is_stmt 1 view .LVU413
 1464              		.loc 1 1025 58 is_stmt 0 view .LVU414
 1465 0006 0001     		lsls	r0, r0, #4
 1466              	.LVL142:
 1467              		.loc 1 1025 58 view .LVU415
 1468 0008 084A     		ldr	r2, .L142
 1469 000a 835C     		ldrb	r3, [r0, r2]	@ zero_extendqisi2
 1470 000c 43F01003 		orr	r3, r3, #16
 1471 0010 8354     		strb	r3, [r0, r2]
1026:Generated_Source\PSoC5/CyDmac.c ****         }
1027:Generated_Source\PSoC5/CyDmac.c ****         else
1028:Generated_Source\PSoC5/CyDmac.c ****         {
1029:Generated_Source\PSoC5/CyDmac.c ****             CY_DMA_CH_STRUCT_PTR[chHandle].basic_cfg[0u] &= (uint8)(~CY_DMA_ROUND_ROBIN_ENABLE);
1030:Generated_Source\PSoC5/CyDmac.c ****         }
1031:Generated_Source\PSoC5/CyDmac.c **** 
1032:Generated_Source\PSoC5/CyDmac.c ****         status = CYRET_SUCCESS;
 1472              		.loc 1 1032 16 view .LVU416
 1473 0012 0020     		movs	r0, #0
 1474 0014 7047     		bx	lr
 1475              	.LVL143:
 1476              	.L140:
1029:Generated_Source\PSoC5/CyDmac.c ****         }
ARM GAS  C:\Users\jens-\AppData\Local\Temp\ccjjYmnj.s 			page 46


 1477              		.loc 1 1029 13 is_stmt 1 view .LVU417
1029:Generated_Source\PSoC5/CyDmac.c ****         }
 1478              		.loc 1 1029 58 is_stmt 0 view .LVU418
 1479 0016 0001     		lsls	r0, r0, #4
 1480              	.LVL144:
1029:Generated_Source\PSoC5/CyDmac.c ****         }
 1481              		.loc 1 1029 58 view .LVU419
 1482 0018 044A     		ldr	r2, .L142
 1483 001a 835C     		ldrb	r3, [r0, r2]	@ zero_extendqisi2
 1484 001c 03F0EF03 		and	r3, r3, #239
 1485 0020 8354     		strb	r3, [r0, r2]
 1486              		.loc 1 1032 16 view .LVU420
 1487 0022 0020     		movs	r0, #0
 1488 0024 7047     		bx	lr
 1489              	.LVL145:
 1490              	.L141:
1019:Generated_Source\PSoC5/CyDmac.c **** 
 1491              		.loc 1 1019 14 view .LVU421
 1492 0026 0120     		movs	r0, #1
 1493              	.LVL146:
1033:Generated_Source\PSoC5/CyDmac.c ****     }
1034:Generated_Source\PSoC5/CyDmac.c **** 
1035:Generated_Source\PSoC5/CyDmac.c ****     return(status);
 1494              		.loc 1 1035 5 is_stmt 1 view .LVU422
1036:Generated_Source\PSoC5/CyDmac.c **** }
 1495              		.loc 1 1036 1 is_stmt 0 view .LVU423
 1496 0028 7047     		bx	lr
 1497              	.L143:
 1498 002a 00BF     		.align	2
 1499              	.L142:
 1500 002c 10700040 		.word	1073770512
 1501              		.cfi_endproc
 1502              	.LFE23:
 1503              		.size	CyDmaChRoundRobin, .-CyDmaChRoundRobin
 1504              		.data
 1505              		.set	.LANCHOR0,. + 0
 1506              		.type	CyDmaTdFreeIndex, %object
 1507              		.size	CyDmaTdFreeIndex, 1
 1508              	CyDmaTdFreeIndex:
 1509 0000 7F       		.byte	127
 1510              		.type	CyDmaTdCurrentNumber, %object
 1511              		.size	CyDmaTdCurrentNumber, 1
 1512              	CyDmaTdCurrentNumber:
 1513 0001 80       		.byte	-128
 1514              		.bss
 1515              		.align	2
 1516              		.set	.LANCHOR1,. + 0
 1517              		.type	CyDmaChannels, %object
 1518              		.size	CyDmaChannels, 4
 1519              	CyDmaChannels:
 1520 0000 00000000 		.space	4
 1521              		.text
 1522              	.Letext0:
 1523              		.file 2 "Generated_Source\\PSoC5\\cytypes.h"
 1524              		.file 3 "c:\\program files (x86)\\cypress\\psoc creator\\4.2\\psoc creator\\import\\gnu\\arm\\5.4.
 1525              		.file 4 "c:\\program files (x86)\\cypress\\psoc creator\\4.2\\psoc creator\\import\\gnu\\arm\\5.4.
 1526              		.file 5 "c:\\program files (x86)\\cypress\\psoc creator\\4.2\\psoc creator\\import\\gnu\\arm\\5.4.
ARM GAS  C:\Users\jens-\AppData\Local\Temp\ccjjYmnj.s 			page 47


 1527              		.file 6 "c:\\program files (x86)\\cypress\\psoc creator\\4.2\\psoc creator\\import\\gnu\\arm\\5.4.
 1528              		.file 7 "c:\\program files (x86)\\cypress\\psoc creator\\4.2\\psoc creator\\import\\gnu\\arm\\5.4.
 1529              		.file 8 "Generated_Source\\PSoC5\\CySpc.h"
 1530              		.file 9 "Generated_Source\\PSoC5\\CyFlash.h"
 1531              		.file 10 "Generated_Source\\PSoC5\\CyLib.h"
 1532              		.file 11 "Generated_Source\\PSoC5\\CyDmac.h"