ARM GAS  C:\Users\jens-\AppData\Local\Temp\ccc41pph.s 			page 1


   1              		.cpu cortex-m3
   2              		.eabi_attribute 20, 1
   3              		.eabi_attribute 21, 1
   4              		.eabi_attribute 23, 3
   5              		.eabi_attribute 24, 1
   6              		.eabi_attribute 25, 1
   7              		.eabi_attribute 26, 1
   8              		.eabi_attribute 30, 1
   9              		.eabi_attribute 34, 1
  10              		.eabi_attribute 18, 4
  11              		.file	"cyfitter_cfg.c"
  12              		.text
  13              	.Ltext0:
  14              		.cfi_sections	.debug_frame
  15              		.section	.text.CyClockStartupError,"ax",%progbits
  16              		.align	1
  17              		.arch armv7-m
  18              		.syntax unified
  19              		.thumb
  20              		.thumb_func
  21              		.fpu softvfp
  22              		.type	CyClockStartupError, %function
  23              	CyClockStartupError:
  24              	.LFB3:
  25              		.file 1 "Generated_Source\\PSoC5\\cyfitter_cfg.c"
   1:Generated_Source\PSoC5/cyfitter_cfg.c **** 
   2:Generated_Source\PSoC5/cyfitter_cfg.c **** /*******************************************************************************
   3:Generated_Source\PSoC5/cyfitter_cfg.c **** * File Name: cyfitter_cfg.c
   4:Generated_Source\PSoC5/cyfitter_cfg.c **** * 
   5:Generated_Source\PSoC5/cyfitter_cfg.c **** * PSoC Creator  4.2
   6:Generated_Source\PSoC5/cyfitter_cfg.c **** *
   7:Generated_Source\PSoC5/cyfitter_cfg.c **** * Description:
   8:Generated_Source\PSoC5/cyfitter_cfg.c **** * This file contains device initialization code.
   9:Generated_Source\PSoC5/cyfitter_cfg.c **** * Except for the user defined sections in CyClockStartupError(), this file should not be modified.
  10:Generated_Source\PSoC5/cyfitter_cfg.c **** * This file is automatically generated by PSoC Creator.
  11:Generated_Source\PSoC5/cyfitter_cfg.c **** *
  12:Generated_Source\PSoC5/cyfitter_cfg.c **** ********************************************************************************
  13:Generated_Source\PSoC5/cyfitter_cfg.c **** * Copyright (c) 2007-2018 Cypress Semiconductor.  All rights reserved.
  14:Generated_Source\PSoC5/cyfitter_cfg.c **** * You may use this file only in accordance with the license, terms, conditions, 
  15:Generated_Source\PSoC5/cyfitter_cfg.c **** * disclaimers, and limitations in the end user license agreement accompanying 
  16:Generated_Source\PSoC5/cyfitter_cfg.c **** * the software package with which this file was provided.
  17:Generated_Source\PSoC5/cyfitter_cfg.c **** ********************************************************************************/
  18:Generated_Source\PSoC5/cyfitter_cfg.c **** 
  19:Generated_Source\PSoC5/cyfitter_cfg.c **** #include <string.h>
  20:Generated_Source\PSoC5/cyfitter_cfg.c **** #include "cytypes.h"
  21:Generated_Source\PSoC5/cyfitter_cfg.c **** #include "cydevice_trm.h"
  22:Generated_Source\PSoC5/cyfitter_cfg.c **** #include "cyfitter.h"
  23:Generated_Source\PSoC5/cyfitter_cfg.c **** #include "CyLib.h"
  24:Generated_Source\PSoC5/cyfitter_cfg.c **** #include "cyfitter_cfg.h"
  25:Generated_Source\PSoC5/cyfitter_cfg.c **** #include "cyapicallbacks.h"
  26:Generated_Source\PSoC5/cyfitter_cfg.c **** 
  27:Generated_Source\PSoC5/cyfitter_cfg.c **** #define CY_NEED_CYCLOCKSTARTUPERROR 1
  28:Generated_Source\PSoC5/cyfitter_cfg.c **** 
  29:Generated_Source\PSoC5/cyfitter_cfg.c **** 
  30:Generated_Source\PSoC5/cyfitter_cfg.c **** #if defined(__GNUC__) || defined(__ARMCC_VERSION)
  31:Generated_Source\PSoC5/cyfitter_cfg.c ****     #define CYPACKED 
  32:Generated_Source\PSoC5/cyfitter_cfg.c ****     #define CYPACKED_ATTR __attribute__ ((packed))
ARM GAS  C:\Users\jens-\AppData\Local\Temp\ccc41pph.s 			page 2


  33:Generated_Source\PSoC5/cyfitter_cfg.c ****     #define CYALIGNED __attribute__ ((aligned))
  34:Generated_Source\PSoC5/cyfitter_cfg.c ****     #define CY_CFG_UNUSED __attribute__ ((unused))
  35:Generated_Source\PSoC5/cyfitter_cfg.c ****     #ifndef CY_CFG_SECTION
  36:Generated_Source\PSoC5/cyfitter_cfg.c ****         #define CY_CFG_SECTION __attribute__ ((section(".psocinit")))
  37:Generated_Source\PSoC5/cyfitter_cfg.c ****     #endif
  38:Generated_Source\PSoC5/cyfitter_cfg.c ****     
  39:Generated_Source\PSoC5/cyfitter_cfg.c ****     #if defined(__ARMCC_VERSION)
  40:Generated_Source\PSoC5/cyfitter_cfg.c ****         #define CY_CFG_MEMORY_BARRIER() __memory_changed()
  41:Generated_Source\PSoC5/cyfitter_cfg.c ****     #else
  42:Generated_Source\PSoC5/cyfitter_cfg.c ****         #define CY_CFG_MEMORY_BARRIER() __sync_synchronize()
  43:Generated_Source\PSoC5/cyfitter_cfg.c ****     #endif
  44:Generated_Source\PSoC5/cyfitter_cfg.c ****     
  45:Generated_Source\PSoC5/cyfitter_cfg.c **** #elif defined(__ICCARM__)
  46:Generated_Source\PSoC5/cyfitter_cfg.c ****     #include <intrinsics.h>
  47:Generated_Source\PSoC5/cyfitter_cfg.c **** 
  48:Generated_Source\PSoC5/cyfitter_cfg.c ****     #define CYPACKED __packed
  49:Generated_Source\PSoC5/cyfitter_cfg.c ****     #define CYPACKED_ATTR 
  50:Generated_Source\PSoC5/cyfitter_cfg.c ****     #define CYALIGNED _Pragma("data_alignment=4")
  51:Generated_Source\PSoC5/cyfitter_cfg.c ****     #define CY_CFG_UNUSED _Pragma("diag_suppress=Pe177")
  52:Generated_Source\PSoC5/cyfitter_cfg.c ****     #define CY_CFG_SECTION _Pragma("location=\".psocinit\"")
  53:Generated_Source\PSoC5/cyfitter_cfg.c ****     
  54:Generated_Source\PSoC5/cyfitter_cfg.c ****     #define CY_CFG_MEMORY_BARRIER() __DMB()
  55:Generated_Source\PSoC5/cyfitter_cfg.c ****     
  56:Generated_Source\PSoC5/cyfitter_cfg.c **** #else
  57:Generated_Source\PSoC5/cyfitter_cfg.c ****     #error Unsupported toolchain
  58:Generated_Source\PSoC5/cyfitter_cfg.c **** #endif
  59:Generated_Source\PSoC5/cyfitter_cfg.c **** 
  60:Generated_Source\PSoC5/cyfitter_cfg.c **** #ifndef CYCODE
  61:Generated_Source\PSoC5/cyfitter_cfg.c ****     #define CYCODE
  62:Generated_Source\PSoC5/cyfitter_cfg.c **** #endif
  63:Generated_Source\PSoC5/cyfitter_cfg.c **** #ifndef CYDATA
  64:Generated_Source\PSoC5/cyfitter_cfg.c ****     #define CYDATA
  65:Generated_Source\PSoC5/cyfitter_cfg.c **** #endif
  66:Generated_Source\PSoC5/cyfitter_cfg.c **** #ifndef CYFAR
  67:Generated_Source\PSoC5/cyfitter_cfg.c ****     #define CYFAR
  68:Generated_Source\PSoC5/cyfitter_cfg.c **** #endif
  69:Generated_Source\PSoC5/cyfitter_cfg.c **** #ifndef CYXDATA
  70:Generated_Source\PSoC5/cyfitter_cfg.c ****     #define CYXDATA
  71:Generated_Source\PSoC5/cyfitter_cfg.c **** #endif
  72:Generated_Source\PSoC5/cyfitter_cfg.c **** 
  73:Generated_Source\PSoC5/cyfitter_cfg.c **** 
  74:Generated_Source\PSoC5/cyfitter_cfg.c **** CY_CFG_UNUSED
  75:Generated_Source\PSoC5/cyfitter_cfg.c **** static void CYMEMZERO(void *s, size_t n);
  76:Generated_Source\PSoC5/cyfitter_cfg.c **** CY_CFG_UNUSED
  77:Generated_Source\PSoC5/cyfitter_cfg.c **** static void CYMEMZERO(void *s, size_t n)
  78:Generated_Source\PSoC5/cyfitter_cfg.c **** {
  79:Generated_Source\PSoC5/cyfitter_cfg.c **** 	(void)memset(s, 0, n);
  80:Generated_Source\PSoC5/cyfitter_cfg.c **** }
  81:Generated_Source\PSoC5/cyfitter_cfg.c **** CY_CFG_UNUSED
  82:Generated_Source\PSoC5/cyfitter_cfg.c **** static void CYCONFIGCPY(void *dest, const void *src, size_t n);
  83:Generated_Source\PSoC5/cyfitter_cfg.c **** CY_CFG_UNUSED
  84:Generated_Source\PSoC5/cyfitter_cfg.c **** static void CYCONFIGCPY(void *dest, const void *src, size_t n)
  85:Generated_Source\PSoC5/cyfitter_cfg.c **** {
  86:Generated_Source\PSoC5/cyfitter_cfg.c **** 	(void)memcpy(dest, src, n);
  87:Generated_Source\PSoC5/cyfitter_cfg.c **** }
  88:Generated_Source\PSoC5/cyfitter_cfg.c **** CY_CFG_UNUSED
  89:Generated_Source\PSoC5/cyfitter_cfg.c **** static void CYCONFIGCPYCODE(void *dest, const void *src, size_t n);
ARM GAS  C:\Users\jens-\AppData\Local\Temp\ccc41pph.s 			page 3


  90:Generated_Source\PSoC5/cyfitter_cfg.c **** CY_CFG_UNUSED
  91:Generated_Source\PSoC5/cyfitter_cfg.c **** static void CYCONFIGCPYCODE(void *dest, const void *src, size_t n)
  92:Generated_Source\PSoC5/cyfitter_cfg.c **** {
  93:Generated_Source\PSoC5/cyfitter_cfg.c **** 	(void)memcpy(dest, src, n);
  94:Generated_Source\PSoC5/cyfitter_cfg.c **** }
  95:Generated_Source\PSoC5/cyfitter_cfg.c **** 
  96:Generated_Source\PSoC5/cyfitter_cfg.c **** 
  97:Generated_Source\PSoC5/cyfitter_cfg.c **** 
  98:Generated_Source\PSoC5/cyfitter_cfg.c **** 
  99:Generated_Source\PSoC5/cyfitter_cfg.c **** /* Clock startup error codes                                                   */
 100:Generated_Source\PSoC5/cyfitter_cfg.c **** #define CYCLOCKSTART_NO_ERROR    0u
 101:Generated_Source\PSoC5/cyfitter_cfg.c **** #define CYCLOCKSTART_XTAL_ERROR  1u
 102:Generated_Source\PSoC5/cyfitter_cfg.c **** #define CYCLOCKSTART_32KHZ_ERROR 2u
 103:Generated_Source\PSoC5/cyfitter_cfg.c **** #define CYCLOCKSTART_PLL_ERROR   3u
 104:Generated_Source\PSoC5/cyfitter_cfg.c **** #define CYCLOCKSTART_FLL_ERROR   4u
 105:Generated_Source\PSoC5/cyfitter_cfg.c **** #define CYCLOCKSTART_WCO_ERROR   5u
 106:Generated_Source\PSoC5/cyfitter_cfg.c **** 
 107:Generated_Source\PSoC5/cyfitter_cfg.c **** 
 108:Generated_Source\PSoC5/cyfitter_cfg.c **** #ifdef CY_NEED_CYCLOCKSTARTUPERROR
 109:Generated_Source\PSoC5/cyfitter_cfg.c **** /*******************************************************************************
 110:Generated_Source\PSoC5/cyfitter_cfg.c **** * Function Name: CyClockStartupError
 111:Generated_Source\PSoC5/cyfitter_cfg.c **** ********************************************************************************
 112:Generated_Source\PSoC5/cyfitter_cfg.c **** * Summary:
 113:Generated_Source\PSoC5/cyfitter_cfg.c **** *  If an error is encountered during clock configuration (crystal startup error,
 114:Generated_Source\PSoC5/cyfitter_cfg.c **** *  PLL lock error, etc.), the system will end up here.  Unless reimplemented by
 115:Generated_Source\PSoC5/cyfitter_cfg.c **** *  the customer, this function will stop in an infinite loop.
 116:Generated_Source\PSoC5/cyfitter_cfg.c **** *
 117:Generated_Source\PSoC5/cyfitter_cfg.c **** * Parameters:
 118:Generated_Source\PSoC5/cyfitter_cfg.c **** *   void
 119:Generated_Source\PSoC5/cyfitter_cfg.c **** *
 120:Generated_Source\PSoC5/cyfitter_cfg.c **** * Return:
 121:Generated_Source\PSoC5/cyfitter_cfg.c **** *   void
 122:Generated_Source\PSoC5/cyfitter_cfg.c **** *
 123:Generated_Source\PSoC5/cyfitter_cfg.c **** *******************************************************************************/
 124:Generated_Source\PSoC5/cyfitter_cfg.c **** CY_CFG_UNUSED
 125:Generated_Source\PSoC5/cyfitter_cfg.c **** static void CyClockStartupError(uint8 errorCode);
 126:Generated_Source\PSoC5/cyfitter_cfg.c **** CY_CFG_UNUSED
 127:Generated_Source\PSoC5/cyfitter_cfg.c **** static void CyClockStartupError(uint8 errorCode)
 128:Generated_Source\PSoC5/cyfitter_cfg.c **** {
  26              		.loc 1 128 1 view -0
  27              		.cfi_startproc
  28              		@ Volatile: function does not return.
  29              		@ args = 0, pretend = 0, frame = 0
  30              		@ frame_needed = 0, uses_anonymous_args = 0
  31              		@ link register save eliminated.
  32              	.LVL0:
  33              	.L2:
 129:Generated_Source\PSoC5/cyfitter_cfg.c ****     /* To remove the compiler warning if errorCode not used.                */
 130:Generated_Source\PSoC5/cyfitter_cfg.c ****     errorCode = errorCode;
 131:Generated_Source\PSoC5/cyfitter_cfg.c **** 
 132:Generated_Source\PSoC5/cyfitter_cfg.c ****     /* If we have a clock startup error (bad MHz crystal, PLL lock, etc.),  */
 133:Generated_Source\PSoC5/cyfitter_cfg.c ****     /* we will end up here to allow the customer to implement something to  */
 134:Generated_Source\PSoC5/cyfitter_cfg.c ****     /* deal with the clock condition.                                       */
 135:Generated_Source\PSoC5/cyfitter_cfg.c **** 
 136:Generated_Source\PSoC5/cyfitter_cfg.c **** #ifdef CY_CFG_CLOCK_STARTUP_ERROR_CALLBACK
 137:Generated_Source\PSoC5/cyfitter_cfg.c ****     CY_CFG_Clock_Startup_ErrorCallback();
 138:Generated_Source\PSoC5/cyfitter_cfg.c **** #else
ARM GAS  C:\Users\jens-\AppData\Local\Temp\ccc41pph.s 			page 4


 139:Generated_Source\PSoC5/cyfitter_cfg.c ****     /*  If not using CY_CFG_CLOCK_STARTUP_ERROR_CALLBACK, place your clock startup code here. */
 140:Generated_Source\PSoC5/cyfitter_cfg.c ****     /* `#START CyClockStartupError` */
 141:Generated_Source\PSoC5/cyfitter_cfg.c **** 
 142:Generated_Source\PSoC5/cyfitter_cfg.c **** 
 143:Generated_Source\PSoC5/cyfitter_cfg.c **** 
 144:Generated_Source\PSoC5/cyfitter_cfg.c ****     /* `#END` */
 145:Generated_Source\PSoC5/cyfitter_cfg.c **** 
 146:Generated_Source\PSoC5/cyfitter_cfg.c ****     while(1) {}
  34              		.loc 1 146 5 discriminator 1 view .LVU1
  35              		.loc 1 146 15 discriminator 1 view .LVU2
  36              		.loc 1 146 10 discriminator 1 view .LVU3
  37 0000 FEE7     		b	.L2
  38              		.cfi_endproc
  39              	.LFE3:
  40              		.size	CyClockStartupError, .-CyClockStartupError
  41              		.section	.text.cfg_write_bytes32,"ax",%progbits
  42              		.align	1
  43              		.syntax unified
  44              		.thumb
  45              		.thumb_func
  46              		.fpu softvfp
  47              		.type	cfg_write_bytes32, %function
  48              	cfg_write_bytes32:
  49              	.LVL1:
  50              	.LFB4:
 147:Generated_Source\PSoC5/cyfitter_cfg.c **** #endif /* CY_CFG_CLOCK_STARTUP_ERROR_CALLBACK */
 148:Generated_Source\PSoC5/cyfitter_cfg.c **** }
 149:Generated_Source\PSoC5/cyfitter_cfg.c **** #endif
 150:Generated_Source\PSoC5/cyfitter_cfg.c **** 
 151:Generated_Source\PSoC5/cyfitter_cfg.c **** #define CY_CFG_BASE_ADDR_COUNT 20u
 152:Generated_Source\PSoC5/cyfitter_cfg.c **** CYPACKED typedef struct
 153:Generated_Source\PSoC5/cyfitter_cfg.c **** {
 154:Generated_Source\PSoC5/cyfitter_cfg.c **** 	uint8 offset;
 155:Generated_Source\PSoC5/cyfitter_cfg.c **** 	uint8 value;
 156:Generated_Source\PSoC5/cyfitter_cfg.c **** } CYPACKED_ATTR cy_cfg_addrvalue_t;
 157:Generated_Source\PSoC5/cyfitter_cfg.c **** 
 158:Generated_Source\PSoC5/cyfitter_cfg.c **** #define cy_cfg_addr_table ((const uint32 CYFAR *)0x48000000u)
 159:Generated_Source\PSoC5/cyfitter_cfg.c **** #define cy_cfg_data_table ((const cy_cfg_addrvalue_t CYFAR *)0x48000050u)
 160:Generated_Source\PSoC5/cyfitter_cfg.c **** 
 161:Generated_Source\PSoC5/cyfitter_cfg.c **** /* IOPINS0_0 Address: CYREG_PRT0_DM0 Size (bytes): 8 */
 162:Generated_Source\PSoC5/cyfitter_cfg.c **** #define BS_IOPINS0_0_VAL ((const uint8 CYFAR *)0x480000C0u)
 163:Generated_Source\PSoC5/cyfitter_cfg.c **** 
 164:Generated_Source\PSoC5/cyfitter_cfg.c **** /* IOPINS0_1 Address: CYREG_PRT1_DM0 Size (bytes): 8 */
 165:Generated_Source\PSoC5/cyfitter_cfg.c **** #define BS_IOPINS0_1_VAL ((const uint8 CYFAR *)0x480000C8u)
 166:Generated_Source\PSoC5/cyfitter_cfg.c **** 
 167:Generated_Source\PSoC5/cyfitter_cfg.c **** 
 168:Generated_Source\PSoC5/cyfitter_cfg.c **** /*******************************************************************************
 169:Generated_Source\PSoC5/cyfitter_cfg.c **** * Function Name: cfg_write_bytes32
 170:Generated_Source\PSoC5/cyfitter_cfg.c **** ********************************************************************************
 171:Generated_Source\PSoC5/cyfitter_cfg.c **** * Summary:
 172:Generated_Source\PSoC5/cyfitter_cfg.c **** *  This function is used for setting up the chip configuration areas that
 173:Generated_Source\PSoC5/cyfitter_cfg.c **** *  contain relatively sparse data.
 174:Generated_Source\PSoC5/cyfitter_cfg.c **** *
 175:Generated_Source\PSoC5/cyfitter_cfg.c **** * Parameters:
 176:Generated_Source\PSoC5/cyfitter_cfg.c **** *   void
 177:Generated_Source\PSoC5/cyfitter_cfg.c **** *
 178:Generated_Source\PSoC5/cyfitter_cfg.c **** * Return:
ARM GAS  C:\Users\jens-\AppData\Local\Temp\ccc41pph.s 			page 5


 179:Generated_Source\PSoC5/cyfitter_cfg.c **** *   void
 180:Generated_Source\PSoC5/cyfitter_cfg.c **** *
 181:Generated_Source\PSoC5/cyfitter_cfg.c **** *******************************************************************************/
 182:Generated_Source\PSoC5/cyfitter_cfg.c **** static void cfg_write_bytes32(const uint32 addr_table[], const cy_cfg_addrvalue_t data_table[]);
 183:Generated_Source\PSoC5/cyfitter_cfg.c **** static void cfg_write_bytes32(const uint32 addr_table[], const cy_cfg_addrvalue_t data_table[])
 184:Generated_Source\PSoC5/cyfitter_cfg.c **** {
  51              		.loc 1 184 1 view -0
  52              		.cfi_startproc
  53              		@ args = 0, pretend = 0, frame = 0
  54              		@ frame_needed = 0, uses_anonymous_args = 0
  55              		@ link register save eliminated.
  56              		.loc 1 184 1 is_stmt 0 view .LVU5
  57 0000 F0B4     		push	{r4, r5, r6, r7}
  58              		.cfi_def_cfa_offset 16
  59              		.cfi_offset 4, -16
  60              		.cfi_offset 5, -12
  61              		.cfi_offset 6, -8
  62              		.cfi_offset 7, -4
 185:Generated_Source\PSoC5/cyfitter_cfg.c **** 	/* For 32-bit little-endian architectures */
 186:Generated_Source\PSoC5/cyfitter_cfg.c **** 	uint32 i, j = 0u;
  63              		.loc 1 186 2 is_stmt 1 view .LVU6
  64              	.LVL2:
 187:Generated_Source\PSoC5/cyfitter_cfg.c **** 	for (i = 0u; i < CY_CFG_BASE_ADDR_COUNT; i++)
  65              		.loc 1 187 2 view .LVU7
 186:Generated_Source\PSoC5/cyfitter_cfg.c **** 	for (i = 0u; i < CY_CFG_BASE_ADDR_COUNT; i++)
  66              		.loc 1 186 12 is_stmt 0 view .LVU8
  67 0002 0022     		movs	r2, #0
  68              		.loc 1 187 9 view .LVU9
  69 0004 1746     		mov	r7, r2
  70              		.loc 1 187 2 view .LVU10
  71 0006 0BE0     		b	.L4
  72              	.LVL3:
  73              	.L6:
  74              	.LBB2:
 188:Generated_Source\PSoC5/cyfitter_cfg.c **** 	{
 189:Generated_Source\PSoC5/cyfitter_cfg.c **** 		uint32 baseAddr = addr_table[i];
 190:Generated_Source\PSoC5/cyfitter_cfg.c **** 		uint8 count = (uint8)baseAddr;
 191:Generated_Source\PSoC5/cyfitter_cfg.c **** 		baseAddr &= 0xFFFFFF00u;
 192:Generated_Source\PSoC5/cyfitter_cfg.c **** 		while (count != 0u)
 193:Generated_Source\PSoC5/cyfitter_cfg.c **** 		{
 194:Generated_Source\PSoC5/cyfitter_cfg.c **** 			CY_SET_REG8((void *)(baseAddr + data_table[j].offset), data_table[j].value);
  75              		.loc 1 194 4 is_stmt 1 view .LVU11
  76 0008 01EB4205 		add	r5, r1, r2, lsl #1
  77 000c 11F81240 		ldrb	r4, [r1, r2, lsl #1]	@ zero_extendqisi2
  78 0010 6D78     		ldrb	r5, [r5, #1]	@ zero_extendqisi2
  79 0012 A555     		strb	r5, [r4, r6]
 195:Generated_Source\PSoC5/cyfitter_cfg.c **** 			j++;
  80              		.loc 1 195 4 view .LVU12
  81              		.loc 1 195 5 is_stmt 0 view .LVU13
  82 0014 0132     		adds	r2, r2, #1
  83              	.LVL4:
 196:Generated_Source\PSoC5/cyfitter_cfg.c **** 			count--;
  84              		.loc 1 196 4 is_stmt 1 view .LVU14
  85              		.loc 1 196 9 is_stmt 0 view .LVU15
  86 0016 013B     		subs	r3, r3, #1
  87              	.LVL5:
  88              		.loc 1 196 9 view .LVU16
ARM GAS  C:\Users\jens-\AppData\Local\Temp\ccc41pph.s 			page 6


  89 0018 DBB2     		uxtb	r3, r3
  90              	.LVL6:
  91              	.L5:
 192:Generated_Source\PSoC5/cyfitter_cfg.c **** 		{
  92              		.loc 1 192 9 is_stmt 1 view .LVU17
  93 001a 002B     		cmp	r3, #0
  94 001c F4D1     		bne	.L6
 192:Generated_Source\PSoC5/cyfitter_cfg.c **** 		{
  95              		.loc 1 192 9 is_stmt 0 view .LVU18
  96              	.LBE2:
 187:Generated_Source\PSoC5/cyfitter_cfg.c **** 	{
  97              		.loc 1 187 43 is_stmt 1 discriminator 2 view .LVU19
 187:Generated_Source\PSoC5/cyfitter_cfg.c **** 	{
  98              		.loc 1 187 44 is_stmt 0 discriminator 2 view .LVU20
  99 001e 0137     		adds	r7, r7, #1
 100              	.LVL7:
 101              	.L4:
 187:Generated_Source\PSoC5/cyfitter_cfg.c **** 	{
 102              		.loc 1 187 15 is_stmt 1 discriminator 1 view .LVU21
 187:Generated_Source\PSoC5/cyfitter_cfg.c **** 	{
 103              		.loc 1 187 2 is_stmt 0 discriminator 1 view .LVU22
 104 0020 132F     		cmp	r7, #19
 105 0022 05D8     		bhi	.L9
 106              	.LBB3:
 189:Generated_Source\PSoC5/cyfitter_cfg.c **** 		uint8 count = (uint8)baseAddr;
 107              		.loc 1 189 3 is_stmt 1 view .LVU23
 189:Generated_Source\PSoC5/cyfitter_cfg.c **** 		uint8 count = (uint8)baseAddr;
 108              		.loc 1 189 10 is_stmt 0 view .LVU24
 109 0024 50F82760 		ldr	r6, [r0, r7, lsl #2]
 110              	.LVL8:
 190:Generated_Source\PSoC5/cyfitter_cfg.c **** 		baseAddr &= 0xFFFFFF00u;
 111              		.loc 1 190 3 is_stmt 1 view .LVU25
 190:Generated_Source\PSoC5/cyfitter_cfg.c **** 		baseAddr &= 0xFFFFFF00u;
 112              		.loc 1 190 9 is_stmt 0 view .LVU26
 113 0028 F3B2     		uxtb	r3, r6
 114              	.LVL9:
 191:Generated_Source\PSoC5/cyfitter_cfg.c **** 		while (count != 0u)
 115              		.loc 1 191 3 is_stmt 1 view .LVU27
 191:Generated_Source\PSoC5/cyfitter_cfg.c **** 		while (count != 0u)
 116              		.loc 1 191 12 is_stmt 0 view .LVU28
 117 002a 26F0FF06 		bic	r6, r6, #255
 118              	.LVL10:
 192:Generated_Source\PSoC5/cyfitter_cfg.c **** 		{
 119              		.loc 1 192 3 is_stmt 1 view .LVU29
 192:Generated_Source\PSoC5/cyfitter_cfg.c **** 		{
 120              		.loc 1 192 9 is_stmt 0 view .LVU30
 121 002e F4E7     		b	.L5
 122              	.LVL11:
 123              	.L9:
 192:Generated_Source\PSoC5/cyfitter_cfg.c **** 		{
 124              		.loc 1 192 9 view .LVU31
 125              	.LBE3:
 197:Generated_Source\PSoC5/cyfitter_cfg.c **** 		}
 198:Generated_Source\PSoC5/cyfitter_cfg.c **** 	}
 199:Generated_Source\PSoC5/cyfitter_cfg.c **** }
 126              		.loc 1 199 1 view .LVU32
 127 0030 F0BC     		pop	{r4, r5, r6, r7}
ARM GAS  C:\Users\jens-\AppData\Local\Temp\ccc41pph.s 			page 7


 128              		.cfi_restore 7
 129              		.cfi_restore 6
 130              		.cfi_restore 5
 131              		.cfi_restore 4
 132              		.cfi_def_cfa_offset 0
 133              	.LVL12:
 134              		.loc 1 199 1 view .LVU33
 135 0032 7047     		bx	lr
 136              		.cfi_endproc
 137              	.LFE4:
 138              		.size	cfg_write_bytes32, .-cfg_write_bytes32
 139              		.section	.text.AnalogSetDefault,"ax",%progbits
 140              		.align	1
 141              		.syntax unified
 142              		.thumb
 143              		.thumb_func
 144              		.fpu softvfp
 145              		.type	AnalogSetDefault, %function
 146              	AnalogSetDefault:
 147              	.LFB6:
 200:Generated_Source\PSoC5/cyfitter_cfg.c **** 
 201:Generated_Source\PSoC5/cyfitter_cfg.c **** /*******************************************************************************
 202:Generated_Source\PSoC5/cyfitter_cfg.c **** * Function Name: ClockSetup
 203:Generated_Source\PSoC5/cyfitter_cfg.c **** ********************************************************************************
 204:Generated_Source\PSoC5/cyfitter_cfg.c **** *
 205:Generated_Source\PSoC5/cyfitter_cfg.c **** * Summary:
 206:Generated_Source\PSoC5/cyfitter_cfg.c **** *  Performs the initialization of all of the clocks in the device based on the
 207:Generated_Source\PSoC5/cyfitter_cfg.c **** *  settings in the Clock tab of the DWR.  This includes enabling the requested
 208:Generated_Source\PSoC5/cyfitter_cfg.c **** *  clocks and setting the necessary dividers to produce the desired frequency. 
 209:Generated_Source\PSoC5/cyfitter_cfg.c **** *
 210:Generated_Source\PSoC5/cyfitter_cfg.c **** * Parameters:
 211:Generated_Source\PSoC5/cyfitter_cfg.c **** *  void
 212:Generated_Source\PSoC5/cyfitter_cfg.c **** *
 213:Generated_Source\PSoC5/cyfitter_cfg.c **** * Return:
 214:Generated_Source\PSoC5/cyfitter_cfg.c **** *  void
 215:Generated_Source\PSoC5/cyfitter_cfg.c **** *
 216:Generated_Source\PSoC5/cyfitter_cfg.c **** *******************************************************************************/
 217:Generated_Source\PSoC5/cyfitter_cfg.c **** static void ClockSetup(void);
 218:Generated_Source\PSoC5/cyfitter_cfg.c **** static void ClockSetup(void)
 219:Generated_Source\PSoC5/cyfitter_cfg.c **** {
 220:Generated_Source\PSoC5/cyfitter_cfg.c **** 	uint32 timeout;
 221:Generated_Source\PSoC5/cyfitter_cfg.c **** 	uint8 pllLock;
 222:Generated_Source\PSoC5/cyfitter_cfg.c **** 
 223:Generated_Source\PSoC5/cyfitter_cfg.c **** 
 224:Generated_Source\PSoC5/cyfitter_cfg.c **** 	/* Configure ILO based on settings from Clock DWR */
 225:Generated_Source\PSoC5/cyfitter_cfg.c **** 	CY_SET_XTND_REG8((void CYFAR *)(CYREG_SLOWCLK_ILO_CR0), 0x02u);
 226:Generated_Source\PSoC5/cyfitter_cfg.c **** 	CY_SET_XTND_REG8((void CYFAR *)(CYREG_CLKDIST_CR), 0x08u);
 227:Generated_Source\PSoC5/cyfitter_cfg.c **** 
 228:Generated_Source\PSoC5/cyfitter_cfg.c **** 	/* Configure IMO based on settings from Clock DWR */
 229:Generated_Source\PSoC5/cyfitter_cfg.c **** 	CY_SET_XTND_REG8((void CYFAR *)(CYREG_FASTCLK_IMO_CR), 0x03u);
 230:Generated_Source\PSoC5/cyfitter_cfg.c **** 	CY_SET_XTND_REG8((void CYFAR *)(CYREG_IMO_TR1), (CY_GET_XTND_REG8((void CYFAR *)CYREG_FLSHID_CUST_
 231:Generated_Source\PSoC5/cyfitter_cfg.c **** 
 232:Generated_Source\PSoC5/cyfitter_cfg.c **** 	/* Configure PLL based on settings from Clock DWR */
 233:Generated_Source\PSoC5/cyfitter_cfg.c **** 	CY_SET_XTND_REG16((void CYFAR *)(CYREG_FASTCLK_PLL_P), 0x0008u);
 234:Generated_Source\PSoC5/cyfitter_cfg.c **** 	CY_SET_XTND_REG16((void CYFAR *)(CYREG_FASTCLK_PLL_CFG0), 0x1251u);
 235:Generated_Source\PSoC5/cyfitter_cfg.c **** 	/* Wait up to 250us for the PLL to lock */
 236:Generated_Source\PSoC5/cyfitter_cfg.c **** 	pllLock = 0u;
ARM GAS  C:\Users\jens-\AppData\Local\Temp\ccc41pph.s 			page 8


 237:Generated_Source\PSoC5/cyfitter_cfg.c **** 	for (timeout = 250u / 10u; (timeout > 0u) && (pllLock != 0x03u); timeout--)
 238:Generated_Source\PSoC5/cyfitter_cfg.c **** 	{ 
 239:Generated_Source\PSoC5/cyfitter_cfg.c **** 		pllLock = 0x03u & ((uint8)((uint8)pllLock << 1) | ((CY_GET_XTND_REG8((void CYFAR *)CYREG_FASTCLK_
 240:Generated_Source\PSoC5/cyfitter_cfg.c **** 		CyDelayCycles(10u * 48u); /* Delay 10us based on 48MHz clock */
 241:Generated_Source\PSoC5/cyfitter_cfg.c **** 	}
 242:Generated_Source\PSoC5/cyfitter_cfg.c **** 	/* If we ran out of time the PLL didn't lock so go to the error function */
 243:Generated_Source\PSoC5/cyfitter_cfg.c **** 	if (timeout == 0u)
 244:Generated_Source\PSoC5/cyfitter_cfg.c **** 	{
 245:Generated_Source\PSoC5/cyfitter_cfg.c **** 		CyClockStartupError(CYCLOCKSTART_PLL_ERROR);
 246:Generated_Source\PSoC5/cyfitter_cfg.c **** 	}
 247:Generated_Source\PSoC5/cyfitter_cfg.c **** 
 248:Generated_Source\PSoC5/cyfitter_cfg.c **** 	/* Configure Bus/Master Clock based on settings from Clock DWR */
 249:Generated_Source\PSoC5/cyfitter_cfg.c **** 	CY_SET_XTND_REG16((void CYFAR *)(CYREG_CLKDIST_MSTR0), 0x0100u);
 250:Generated_Source\PSoC5/cyfitter_cfg.c **** 	CY_SET_XTND_REG8((void CYFAR *)(CYREG_CLKDIST_MSTR0), 0x07u);
 251:Generated_Source\PSoC5/cyfitter_cfg.c **** 	CY_SET_XTND_REG8((void CYFAR *)(CYREG_CLKDIST_BCFG0), 0x00u);
 252:Generated_Source\PSoC5/cyfitter_cfg.c **** 	CY_SET_XTND_REG8((void CYFAR *)(CYREG_CLKDIST_BCFG2), 0x48u);
 253:Generated_Source\PSoC5/cyfitter_cfg.c **** 	CY_SET_XTND_REG8((void CYFAR *)(CYREG_CLKDIST_MSTR0), 0x00u);
 254:Generated_Source\PSoC5/cyfitter_cfg.c **** 	CY_SET_XTND_REG8((void CYFAR *)(CYREG_CLKDIST_LD), 0x02u);
 255:Generated_Source\PSoC5/cyfitter_cfg.c **** }
 256:Generated_Source\PSoC5/cyfitter_cfg.c **** 
 257:Generated_Source\PSoC5/cyfitter_cfg.c **** 
 258:Generated_Source\PSoC5/cyfitter_cfg.c **** /* Analog API Functions */
 259:Generated_Source\PSoC5/cyfitter_cfg.c **** 
 260:Generated_Source\PSoC5/cyfitter_cfg.c **** 
 261:Generated_Source\PSoC5/cyfitter_cfg.c **** /*******************************************************************************
 262:Generated_Source\PSoC5/cyfitter_cfg.c **** * Function Name: AnalogSetDefault
 263:Generated_Source\PSoC5/cyfitter_cfg.c **** ********************************************************************************
 264:Generated_Source\PSoC5/cyfitter_cfg.c **** *
 265:Generated_Source\PSoC5/cyfitter_cfg.c **** * Summary:
 266:Generated_Source\PSoC5/cyfitter_cfg.c **** *  Sets up the analog portions of the chip to default values based on chip
 267:Generated_Source\PSoC5/cyfitter_cfg.c **** *  configuration options from the project.
 268:Generated_Source\PSoC5/cyfitter_cfg.c **** *
 269:Generated_Source\PSoC5/cyfitter_cfg.c **** * Parameters:
 270:Generated_Source\PSoC5/cyfitter_cfg.c **** *  void
 271:Generated_Source\PSoC5/cyfitter_cfg.c **** *
 272:Generated_Source\PSoC5/cyfitter_cfg.c **** * Return:
 273:Generated_Source\PSoC5/cyfitter_cfg.c **** *  void
 274:Generated_Source\PSoC5/cyfitter_cfg.c **** *
 275:Generated_Source\PSoC5/cyfitter_cfg.c **** *******************************************************************************/
 276:Generated_Source\PSoC5/cyfitter_cfg.c **** static void AnalogSetDefault(void);
 277:Generated_Source\PSoC5/cyfitter_cfg.c **** static void AnalogSetDefault(void)
 278:Generated_Source\PSoC5/cyfitter_cfg.c **** {
 148              		.loc 1 278 1 is_stmt 1 view -0
 149              		.cfi_startproc
 150              		@ args = 0, pretend = 0, frame = 0
 151              		@ frame_needed = 0, uses_anonymous_args = 0
 152              		@ link register save eliminated.
 279:Generated_Source\PSoC5/cyfitter_cfg.c **** 	uint8 bg_xover_inl_trim = CY_GET_XTND_REG8((void CYFAR *)(CYREG_FLSHID_MFG_CFG_BG_XOVER_INL_TRIM +
 153              		.loc 1 279 2 view .LVU35
 154              		.loc 1 279 8 is_stmt 0 view .LVU36
 155 0000 064B     		ldr	r3, .L11
 156 0002 1B78     		ldrb	r3, [r3]	@ zero_extendqisi2
 157              	.LVL13:
 280:Generated_Source\PSoC5/cyfitter_cfg.c **** 	CY_SET_XTND_REG8((void CYFAR *)(CYREG_BG_DFT0), (bg_xover_inl_trim & 0x07u));
 158              		.loc 1 280 2 is_stmt 1 view .LVU37
 159 0004 03F00701 		and	r1, r3, #7
 160 0008 054A     		ldr	r2, .L11+4
ARM GAS  C:\Users\jens-\AppData\Local\Temp\ccc41pph.s 			page 9


 161 000a 1170     		strb	r1, [r2]
 281:Generated_Source\PSoC5/cyfitter_cfg.c **** 	CY_SET_XTND_REG8((void CYFAR *)(CYREG_BG_DFT1), ((bg_xover_inl_trim >> 4) & 0x0Fu));
 162              		.loc 1 281 2 view .LVU38
 163 000c 1B09     		lsrs	r3, r3, #4
 164              	.LVL14:
 165              		.loc 1 281 2 is_stmt 0 view .LVU39
 166 000e 0132     		adds	r2, r2, #1
 167 0010 1370     		strb	r3, [r2]
 282:Generated_Source\PSoC5/cyfitter_cfg.c **** 	CY_SET_XTND_REG8((void CYFAR *)CYREG_PUMP_CR0, 0x44u);
 168              		.loc 1 282 2 is_stmt 1 view .LVU40
 169 0012 044B     		ldr	r3, .L11+8
 170 0014 4422     		movs	r2, #68
 171 0016 1A70     		strb	r2, [r3]
 283:Generated_Source\PSoC5/cyfitter_cfg.c **** }
 172              		.loc 1 283 1 is_stmt 0 view .LVU41
 173 0018 7047     		bx	lr
 174              	.L12:
 175 001a 00BF     		.align	2
 176              	.L11:
 177 001c CF010049 		.word	1224737231
 178 0020 6E580040 		.word	1073764462
 179 0024 76580040 		.word	1073764470
 180              		.cfi_endproc
 181              	.LFE6:
 182              		.size	AnalogSetDefault, .-AnalogSetDefault
 183              		.section	.text.CYMEMZERO,"ax",%progbits
 184              		.align	1
 185              		.syntax unified
 186              		.thumb
 187              		.thumb_func
 188              		.fpu softvfp
 189              		.type	CYMEMZERO, %function
 190              	CYMEMZERO:
 191              	.LVL15:
 192              	.LFB0:
  78:Generated_Source\PSoC5/cyfitter_cfg.c **** 	(void)memset(s, 0, n);
 193              		.loc 1 78 1 is_stmt 1 view -0
 194              		.cfi_startproc
 195              		@ args = 0, pretend = 0, frame = 0
 196              		@ frame_needed = 0, uses_anonymous_args = 0
  78:Generated_Source\PSoC5/cyfitter_cfg.c **** 	(void)memset(s, 0, n);
 197              		.loc 1 78 1 is_stmt 0 view .LVU43
 198 0000 08B5     		push	{r3, lr}
 199              		.cfi_def_cfa_offset 8
 200              		.cfi_offset 3, -8
 201              		.cfi_offset 14, -4
 202 0002 0A46     		mov	r2, r1
  79:Generated_Source\PSoC5/cyfitter_cfg.c **** }
 203              		.loc 1 79 2 is_stmt 1 view .LVU44
  79:Generated_Source\PSoC5/cyfitter_cfg.c **** }
 204              		.loc 1 79 8 is_stmt 0 view .LVU45
 205 0004 0021     		movs	r1, #0
 206              	.LVL16:
  79:Generated_Source\PSoC5/cyfitter_cfg.c **** }
 207              		.loc 1 79 8 view .LVU46
 208 0006 FFF7FEFF 		bl	memset
 209              	.LVL17:
ARM GAS  C:\Users\jens-\AppData\Local\Temp\ccc41pph.s 			page 10


  80:Generated_Source\PSoC5/cyfitter_cfg.c **** CY_CFG_UNUSED
 210              		.loc 1 80 1 view .LVU47
 211 000a 08BD     		pop	{r3, pc}
 212              		.cfi_endproc
 213              	.LFE0:
 214              		.size	CYMEMZERO, .-CYMEMZERO
 215              		.section	.text.ClockSetup,"ax",%progbits
 216              		.align	1
 217              		.syntax unified
 218              		.thumb
 219              		.thumb_func
 220              		.fpu softvfp
 221              		.type	ClockSetup, %function
 222              	ClockSetup:
 223              	.LFB5:
 219:Generated_Source\PSoC5/cyfitter_cfg.c **** 	uint32 timeout;
 224              		.loc 1 219 1 is_stmt 1 view -0
 225              		.cfi_startproc
 226              		@ args = 0, pretend = 0, frame = 0
 227              		@ frame_needed = 0, uses_anonymous_args = 0
 228 0000 38B5     		push	{r3, r4, r5, lr}
 229              		.cfi_def_cfa_offset 16
 230              		.cfi_offset 3, -16
 231              		.cfi_offset 4, -12
 232              		.cfi_offset 5, -8
 233              		.cfi_offset 14, -4
 220:Generated_Source\PSoC5/cyfitter_cfg.c **** 	uint8 pllLock;
 234              		.loc 1 220 2 view .LVU49
 221:Generated_Source\PSoC5/cyfitter_cfg.c **** 
 235              		.loc 1 221 2 view .LVU50
 225:Generated_Source\PSoC5/cyfitter_cfg.c **** 	CY_SET_XTND_REG8((void CYFAR *)(CYREG_CLKDIST_CR), 0x08u);
 236              		.loc 1 225 2 view .LVU51
 237 0002 1F4B     		ldr	r3, .L22
 238 0004 0222     		movs	r2, #2
 239 0006 1A70     		strb	r2, [r3]
 226:Generated_Source\PSoC5/cyfitter_cfg.c **** 
 240              		.loc 1 226 2 view .LVU52
 241 0008 0822     		movs	r2, #8
 242 000a 4FF04023 		mov	r3, #1073758208
 243 000e 1A70     		strb	r2, [r3]
 229:Generated_Source\PSoC5/cyfitter_cfg.c **** 	CY_SET_XTND_REG8((void CYFAR *)(CYREG_IMO_TR1), (CY_GET_XTND_REG8((void CYFAR *)CYREG_FLSHID_CUST_
 244              		.loc 1 229 2 view .LVU53
 245 0010 03F50073 		add	r3, r3, #512
 246 0014 0321     		movs	r1, #3
 247 0016 1970     		strb	r1, [r3]
 230:Generated_Source\PSoC5/cyfitter_cfg.c **** 
 248              		.loc 1 230 2 view .LVU54
 249 0018 1A4B     		ldr	r3, .L22+4
 250 001a 1B78     		ldrb	r3, [r3]	@ zero_extendqisi2
 251 001c DBB2     		uxtb	r3, r3
 252 001e 1A49     		ldr	r1, .L22+8
 253 0020 0B70     		strb	r3, [r1]
 233:Generated_Source\PSoC5/cyfitter_cfg.c **** 	CY_SET_XTND_REG16((void CYFAR *)(CYREG_FASTCLK_PLL_CFG0), 0x1251u);
 254              		.loc 1 233 2 view .LVU55
 255 0022 1A4B     		ldr	r3, .L22+12
 256 0024 1A80     		strh	r2, [r3]	@ movhi
 234:Generated_Source\PSoC5/cyfitter_cfg.c **** 	/* Wait up to 250us for the PLL to lock */
ARM GAS  C:\Users\jens-\AppData\Local\Temp\ccc41pph.s 			page 11


 257              		.loc 1 234 2 view .LVU56
 258 0026 023B     		subs	r3, r3, #2
 259 0028 41F25122 		movw	r2, #4689
 260 002c 1A80     		strh	r2, [r3]	@ movhi
 236:Generated_Source\PSoC5/cyfitter_cfg.c **** 	for (timeout = 250u / 10u; (timeout > 0u) && (pllLock != 0x03u); timeout--)
 261              		.loc 1 236 2 view .LVU57
 262              	.LVL18:
 237:Generated_Source\PSoC5/cyfitter_cfg.c **** 	{ 
 263              		.loc 1 237 2 view .LVU58
 236:Generated_Source\PSoC5/cyfitter_cfg.c **** 	for (timeout = 250u / 10u; (timeout > 0u) && (pllLock != 0x03u); timeout--)
 264              		.loc 1 236 10 is_stmt 0 view .LVU59
 265 002e 0024     		movs	r4, #0
 237:Generated_Source\PSoC5/cyfitter_cfg.c **** 	{ 
 266              		.loc 1 237 15 view .LVU60
 267 0030 1925     		movs	r5, #25
 237:Generated_Source\PSoC5/cyfitter_cfg.c **** 	{ 
 268              		.loc 1 237 2 view .LVU61
 269 0032 0CE0     		b	.L16
 270              	.LVL19:
 271              	.L18:
 239:Generated_Source\PSoC5/cyfitter_cfg.c **** 		CyDelayCycles(10u * 48u); /* Delay 10us based on 48MHz clock */
 272              		.loc 1 239 3 is_stmt 1 discriminator 4 view .LVU62
 239:Generated_Source\PSoC5/cyfitter_cfg.c **** 		CyDelayCycles(10u * 48u); /* Delay 10us based on 48MHz clock */
 273              		.loc 1 239 55 is_stmt 0 discriminator 4 view .LVU63
 274 0034 164B     		ldr	r3, .L22+16
 275 0036 1B78     		ldrb	r3, [r3]	@ zero_extendqisi2
 239:Generated_Source\PSoC5/cyfitter_cfg.c **** 		CyDelayCycles(10u * 48u); /* Delay 10us based on 48MHz clock */
 276              		.loc 1 239 117 discriminator 4 view .LVU64
 277 0038 03F00103 		and	r3, r3, #1
 239:Generated_Source\PSoC5/cyfitter_cfg.c **** 		CyDelayCycles(10u * 48u); /* Delay 10us based on 48MHz clock */
 278              		.loc 1 239 51 discriminator 4 view .LVU65
 279 003c 43EA4404 		orr	r4, r3, r4, lsl #1
 280              	.LVL20:
 239:Generated_Source\PSoC5/cyfitter_cfg.c **** 		CyDelayCycles(10u * 48u); /* Delay 10us based on 48MHz clock */
 281              		.loc 1 239 11 discriminator 4 view .LVU66
 282 0040 04F00304 		and	r4, r4, #3
 283              	.LVL21:
 240:Generated_Source\PSoC5/cyfitter_cfg.c **** 	}
 284              		.loc 1 240 3 is_stmt 1 discriminator 4 view .LVU67
 285 0044 4FF4F070 		mov	r0, #480
 286 0048 FFF7FEFF 		bl	CyDelayCycles
 287              	.LVL22:
 237:Generated_Source\PSoC5/cyfitter_cfg.c **** 	{ 
 288              		.loc 1 237 67 discriminator 4 view .LVU68
 237:Generated_Source\PSoC5/cyfitter_cfg.c **** 	{ 
 289              		.loc 1 237 74 is_stmt 0 discriminator 4 view .LVU69
 290 004c 013D     		subs	r5, r5, #1
 291              	.LVL23:
 292              	.L16:
 237:Generated_Source\PSoC5/cyfitter_cfg.c **** 	{ 
 293              		.loc 1 237 29 is_stmt 1 discriminator 1 view .LVU70
 237:Generated_Source\PSoC5/cyfitter_cfg.c **** 	{ 
 294              		.loc 1 237 2 is_stmt 0 discriminator 1 view .LVU71
 295 004e 0DB1     		cbz	r5, .L17
 237:Generated_Source\PSoC5/cyfitter_cfg.c **** 	{ 
 296              		.loc 1 237 44 discriminator 3 view .LVU72
 297 0050 032C     		cmp	r4, #3
ARM GAS  C:\Users\jens-\AppData\Local\Temp\ccc41pph.s 			page 12


 298 0052 EFD1     		bne	.L18
 299              	.L17:
 243:Generated_Source\PSoC5/cyfitter_cfg.c **** 	{
 300              		.loc 1 243 2 is_stmt 1 view .LVU73
 243:Generated_Source\PSoC5/cyfitter_cfg.c **** 	{
 301              		.loc 1 243 5 is_stmt 0 view .LVU74
 302 0054 85B1     		cbz	r5, .L21
 249:Generated_Source\PSoC5/cyfitter_cfg.c **** 	CY_SET_XTND_REG8((void CYFAR *)(CYREG_CLKDIST_MSTR0), 0x07u);
 303              		.loc 1 249 2 is_stmt 1 view .LVU75
 304 0056 0F4B     		ldr	r3, .L22+20
 305 0058 4FF48072 		mov	r2, #256
 306 005c 1A80     		strh	r2, [r3]	@ movhi
 250:Generated_Source\PSoC5/cyfitter_cfg.c **** 	CY_SET_XTND_REG8((void CYFAR *)(CYREG_CLKDIST_BCFG0), 0x00u);
 307              		.loc 1 250 2 view .LVU76
 308 005e 0722     		movs	r2, #7
 309 0060 1A70     		strb	r2, [r3]
 251:Generated_Source\PSoC5/cyfitter_cfg.c **** 	CY_SET_XTND_REG8((void CYFAR *)(CYREG_CLKDIST_BCFG2), 0x48u);
 310              		.loc 1 251 2 view .LVU77
 311 0062 0022     		movs	r2, #0
 312 0064 0C49     		ldr	r1, .L22+24
 313 0066 0A70     		strb	r2, [r1]
 252:Generated_Source\PSoC5/cyfitter_cfg.c **** 	CY_SET_XTND_REG8((void CYFAR *)(CYREG_CLKDIST_MSTR0), 0x00u);
 314              		.loc 1 252 2 view .LVU78
 315 0068 0231     		adds	r1, r1, #2
 316 006a 4820     		movs	r0, #72
 317 006c 0870     		strb	r0, [r1]
 253:Generated_Source\PSoC5/cyfitter_cfg.c **** 	CY_SET_XTND_REG8((void CYFAR *)(CYREG_CLKDIST_LD), 0x02u);
 318              		.loc 1 253 2 view .LVU79
 319 006e 1A70     		strb	r2, [r3]
 254:Generated_Source\PSoC5/cyfitter_cfg.c **** }
 320              		.loc 1 254 2 view .LVU80
 321 0070 033B     		subs	r3, r3, #3
 322 0072 0222     		movs	r2, #2
 323 0074 1A70     		strb	r2, [r3]
 255:Generated_Source\PSoC5/cyfitter_cfg.c **** 
 324              		.loc 1 255 1 is_stmt 0 view .LVU81
 325 0076 38BD     		pop	{r3, r4, r5, pc}
 326              	.LVL24:
 327              	.L21:
 245:Generated_Source\PSoC5/cyfitter_cfg.c **** 	}
 328              		.loc 1 245 3 is_stmt 1 view .LVU82
 329 0078 0320     		movs	r0, #3
 330 007a FFF7FEFF 		bl	CyClockStartupError
 331              	.LVL25:
 332              	.L23:
 333 007e 00BF     		.align	2
 334              	.L22:
 335 0080 00430040 		.word	1073758976
 336 0084 08010049 		.word	1224737032
 337 0088 A1460040 		.word	1073759905
 338 008c 22420040 		.word	1073758754
 339 0090 25420040 		.word	1073758757
 340 0094 04400040 		.word	1073758212
 341 0098 06400040 		.word	1073758214
 342              		.cfi_endproc
 343              	.LFE5:
 344              		.size	ClockSetup, .-ClockSetup
ARM GAS  C:\Users\jens-\AppData\Local\Temp\ccc41pph.s 			page 13


 345              		.section	.text.CYCONFIGCPY,"ax",%progbits
 346              		.align	1
 347              		.syntax unified
 348              		.thumb
 349              		.thumb_func
 350              		.fpu softvfp
 351              		.type	CYCONFIGCPY, %function
 352              	CYCONFIGCPY:
 353              	.LVL26:
 354              	.LFB1:
  85:Generated_Source\PSoC5/cyfitter_cfg.c **** 	(void)memcpy(dest, src, n);
 355              		.loc 1 85 1 view -0
 356              		.cfi_startproc
 357              		@ args = 0, pretend = 0, frame = 0
 358              		@ frame_needed = 0, uses_anonymous_args = 0
  85:Generated_Source\PSoC5/cyfitter_cfg.c **** 	(void)memcpy(dest, src, n);
 359              		.loc 1 85 1 is_stmt 0 view .LVU84
 360 0000 08B5     		push	{r3, lr}
 361              		.cfi_def_cfa_offset 8
 362              		.cfi_offset 3, -8
 363              		.cfi_offset 14, -4
  86:Generated_Source\PSoC5/cyfitter_cfg.c **** }
 364              		.loc 1 86 2 is_stmt 1 view .LVU85
  86:Generated_Source\PSoC5/cyfitter_cfg.c **** }
 365              		.loc 1 86 8 is_stmt 0 view .LVU86
 366 0002 FFF7FEFF 		bl	memcpy
 367              	.LVL27:
  87:Generated_Source\PSoC5/cyfitter_cfg.c **** CY_CFG_UNUSED
 368              		.loc 1 87 1 view .LVU87
 369 0006 08BD     		pop	{r3, pc}
 370              		.cfi_endproc
 371              	.LFE1:
 372              		.size	CYCONFIGCPY, .-CYCONFIGCPY
 373              		.section	.text.SetAnalogRoutingPumps,"ax",%progbits
 374              		.align	1
 375              		.global	SetAnalogRoutingPumps
 376              		.syntax unified
 377              		.thumb
 378              		.thumb_func
 379              		.fpu softvfp
 380              		.type	SetAnalogRoutingPumps, %function
 381              	SetAnalogRoutingPumps:
 382              	.LVL28:
 383              	.LFB7:
 284:Generated_Source\PSoC5/cyfitter_cfg.c **** 
 285:Generated_Source\PSoC5/cyfitter_cfg.c **** 
 286:Generated_Source\PSoC5/cyfitter_cfg.c **** /*******************************************************************************
 287:Generated_Source\PSoC5/cyfitter_cfg.c **** * Function Name: SetAnalogRoutingPumps
 288:Generated_Source\PSoC5/cyfitter_cfg.c **** ********************************************************************************
 289:Generated_Source\PSoC5/cyfitter_cfg.c **** *
 290:Generated_Source\PSoC5/cyfitter_cfg.c **** * Summary:
 291:Generated_Source\PSoC5/cyfitter_cfg.c **** * Enables or disables the analog pumps feeding analog routing switches.
 292:Generated_Source\PSoC5/cyfitter_cfg.c **** * Intended to be called at startup, based on the Vdda system configuration;
 293:Generated_Source\PSoC5/cyfitter_cfg.c **** * may be called during operation when the user informs us that the Vdda voltage
 294:Generated_Source\PSoC5/cyfitter_cfg.c **** * crossed the pump threshold.
 295:Generated_Source\PSoC5/cyfitter_cfg.c **** *
 296:Generated_Source\PSoC5/cyfitter_cfg.c **** * Parameters:
ARM GAS  C:\Users\jens-\AppData\Local\Temp\ccc41pph.s 			page 14


 297:Generated_Source\PSoC5/cyfitter_cfg.c **** *  enabled - 1 to enable the pumps, 0 to disable the pumps
 298:Generated_Source\PSoC5/cyfitter_cfg.c **** *
 299:Generated_Source\PSoC5/cyfitter_cfg.c **** * Return:
 300:Generated_Source\PSoC5/cyfitter_cfg.c **** *  void
 301:Generated_Source\PSoC5/cyfitter_cfg.c **** *
 302:Generated_Source\PSoC5/cyfitter_cfg.c **** *******************************************************************************/
 303:Generated_Source\PSoC5/cyfitter_cfg.c **** void SetAnalogRoutingPumps(uint8 enabled)
 304:Generated_Source\PSoC5/cyfitter_cfg.c **** {
 384              		.loc 1 304 1 is_stmt 1 view -0
 385              		.cfi_startproc
 386              		@ args = 0, pretend = 0, frame = 0
 387              		@ frame_needed = 0, uses_anonymous_args = 0
 388              		@ link register save eliminated.
 305:Generated_Source\PSoC5/cyfitter_cfg.c **** 	uint8 regValue = CY_GET_XTND_REG8((void CYFAR *)CYREG_PUMP_CR0);
 389              		.loc 1 305 2 view .LVU89
 390              		.loc 1 305 8 is_stmt 0 view .LVU90
 391 0000 024A     		ldr	r2, .L27
 392 0002 1378     		ldrb	r3, [r2]	@ zero_extendqisi2
 393 0004 DBB2     		uxtb	r3, r3
 394              	.LVL29:
 306:Generated_Source\PSoC5/cyfitter_cfg.c **** 	if (enabled != 0u)
 395              		.loc 1 306 2 is_stmt 1 view .LVU91
 307:Generated_Source\PSoC5/cyfitter_cfg.c **** 	{
 308:Generated_Source\PSoC5/cyfitter_cfg.c **** 		regValue |= 0x00u;
 309:Generated_Source\PSoC5/cyfitter_cfg.c **** 	}
 310:Generated_Source\PSoC5/cyfitter_cfg.c **** 	else
 311:Generated_Source\PSoC5/cyfitter_cfg.c **** 	{
 312:Generated_Source\PSoC5/cyfitter_cfg.c **** 		regValue &= (uint8)~0x00u;
 313:Generated_Source\PSoC5/cyfitter_cfg.c **** 	}
 314:Generated_Source\PSoC5/cyfitter_cfg.c **** 	CY_SET_XTND_REG8((void CYFAR *)CYREG_PUMP_CR0, regValue);
 396              		.loc 1 314 2 view .LVU92
 397 0006 1370     		strb	r3, [r2]
 315:Generated_Source\PSoC5/cyfitter_cfg.c **** }
 398              		.loc 1 315 1 is_stmt 0 view .LVU93
 399 0008 7047     		bx	lr
 400              	.L28:
 401 000a 00BF     		.align	2
 402              	.L27:
 403 000c 76580040 		.word	1073764470
 404              		.cfi_endproc
 405              	.LFE7:
 406              		.size	SetAnalogRoutingPumps, .-SetAnalogRoutingPumps
 407              		.section	.text.cyfitter_cfg,"ax",%progbits
 408              		.align	1
 409              		.global	cyfitter_cfg
 410              		.syntax unified
 411              		.thumb
 412              		.thumb_func
 413              		.fpu softvfp
 414              		.type	cyfitter_cfg, %function
 415              	cyfitter_cfg:
 416              	.LFB8:
 316:Generated_Source\PSoC5/cyfitter_cfg.c **** 
 317:Generated_Source\PSoC5/cyfitter_cfg.c **** 
 318:Generated_Source\PSoC5/cyfitter_cfg.c **** 
 319:Generated_Source\PSoC5/cyfitter_cfg.c **** 
 320:Generated_Source\PSoC5/cyfitter_cfg.c **** /*******************************************************************************
ARM GAS  C:\Users\jens-\AppData\Local\Temp\ccc41pph.s 			page 15


 321:Generated_Source\PSoC5/cyfitter_cfg.c **** * Function Name: cyfitter_cfg
 322:Generated_Source\PSoC5/cyfitter_cfg.c **** ********************************************************************************
 323:Generated_Source\PSoC5/cyfitter_cfg.c **** * Summary:
 324:Generated_Source\PSoC5/cyfitter_cfg.c **** *  This function is called by the start-up code for the selected device. It
 325:Generated_Source\PSoC5/cyfitter_cfg.c **** *  performs all of the necessary device configuration based on the design
 326:Generated_Source\PSoC5/cyfitter_cfg.c **** *  settings.  This includes settings from the Design Wide Resources (DWR) such
 327:Generated_Source\PSoC5/cyfitter_cfg.c **** *  as Clocks and Pins as well as any component configuration that is necessary.
 328:Generated_Source\PSoC5/cyfitter_cfg.c **** *
 329:Generated_Source\PSoC5/cyfitter_cfg.c **** * Parameters:
 330:Generated_Source\PSoC5/cyfitter_cfg.c **** *   void
 331:Generated_Source\PSoC5/cyfitter_cfg.c **** *
 332:Generated_Source\PSoC5/cyfitter_cfg.c **** * Return:
 333:Generated_Source\PSoC5/cyfitter_cfg.c **** *   void
 334:Generated_Source\PSoC5/cyfitter_cfg.c **** *
 335:Generated_Source\PSoC5/cyfitter_cfg.c **** *******************************************************************************/
 336:Generated_Source\PSoC5/cyfitter_cfg.c **** 
 337:Generated_Source\PSoC5/cyfitter_cfg.c **** void cyfitter_cfg(void)
 338:Generated_Source\PSoC5/cyfitter_cfg.c **** {
 417              		.loc 1 338 1 is_stmt 1 view -0
 418              		.cfi_startproc
 419              		@ args = 0, pretend = 0, frame = 0
 420              		@ frame_needed = 0, uses_anonymous_args = 0
 421 0000 10B5     		push	{r4, lr}
 422              		.cfi_def_cfa_offset 8
 423              		.cfi_offset 4, -8
 424              		.cfi_offset 14, -4
 339:Generated_Source\PSoC5/cyfitter_cfg.c **** #ifdef CYGlobalIntDisable
 340:Generated_Source\PSoC5/cyfitter_cfg.c **** 	/* Disable interrupts by default. Let user enable if/when they want. */
 341:Generated_Source\PSoC5/cyfitter_cfg.c **** 	CYGlobalIntDisable
 425              		.loc 1 341 2 view .LVU95
 426              		.syntax unified
 427              	@ 341 "Generated_Source\PSoC5\cyfitter_cfg.c" 1
 428 0002 72B6     		CPSID   i
 429              	@ 0 "" 2
 342:Generated_Source\PSoC5/cyfitter_cfg.c **** #endif
 343:Generated_Source\PSoC5/cyfitter_cfg.c **** 
 344:Generated_Source\PSoC5/cyfitter_cfg.c **** 	/* Enable/Disable Debug functionality based on settings from System DWR */
 345:Generated_Source\PSoC5/cyfitter_cfg.c **** 	CY_SET_XTND_REG8((void CYFAR *)CYREG_MLOGIC_DEBUG, (CY_GET_XTND_REG8((void CYFAR *)CYREG_MLOGIC_DE
 430              		.loc 1 345 2 view .LVU96
 431              		.thumb
 432              		.syntax unified
 433 0004 224A     		ldr	r2, .L33
 434 0006 1378     		ldrb	r3, [r2]	@ zero_extendqisi2
 435 0008 43F00403 		orr	r3, r3, #4
 436 000c 1370     		strb	r3, [r2]
 437              	.LBB4:
 346:Generated_Source\PSoC5/cyfitter_cfg.c **** 
 347:Generated_Source\PSoC5/cyfitter_cfg.c **** 	{
 348:Generated_Source\PSoC5/cyfitter_cfg.c **** 
 349:Generated_Source\PSoC5/cyfitter_cfg.c **** 		CYPACKED typedef struct {
 438              		.loc 1 349 12 view .LVU97
 350:Generated_Source\PSoC5/cyfitter_cfg.c **** 			void CYFAR *address;
 351:Generated_Source\PSoC5/cyfitter_cfg.c **** 			uint16 size;
 352:Generated_Source\PSoC5/cyfitter_cfg.c **** 		} CYPACKED_ATTR cfg_memset_t;
 353:Generated_Source\PSoC5/cyfitter_cfg.c **** 
 354:Generated_Source\PSoC5/cyfitter_cfg.c **** 		static const cfg_memset_t CYCODE cfg_memset_list[] = {
 439              		.loc 1 354 3 view .LVU98
ARM GAS  C:\Users\jens-\AppData\Local\Temp\ccc41pph.s 			page 16


 355:Generated_Source\PSoC5/cyfitter_cfg.c **** 			/* address, size */
 356:Generated_Source\PSoC5/cyfitter_cfg.c **** 			{(void CYFAR *)(CYREG_I2C_XCFG), 25u},
 357:Generated_Source\PSoC5/cyfitter_cfg.c **** 			{(void CYFAR *)(CYREG_PRT2_DR), 80u},
 358:Generated_Source\PSoC5/cyfitter_cfg.c **** 			{(void CYFAR *)(CYREG_PRT12_DR), 16u},
 359:Generated_Source\PSoC5/cyfitter_cfg.c **** 			{(void CYFAR *)(CYREG_PRT15_DR), 16u},
 360:Generated_Source\PSoC5/cyfitter_cfg.c **** 			{(void CYFAR *)(CYDEV_UCFG_B0_P0_U0_BASE), 4096u},
 361:Generated_Source\PSoC5/cyfitter_cfg.c **** 			{(void CYFAR *)(CYDEV_UCFG_B1_P2_U0_BASE), 2048u},
 362:Generated_Source\PSoC5/cyfitter_cfg.c **** 			{(void CYFAR *)(CYDEV_UCFG_DSI0_BASE), 2560u},
 363:Generated_Source\PSoC5/cyfitter_cfg.c **** 			{(void CYFAR *)(CYDEV_UCFG_DSI12_BASE), 512u},
 364:Generated_Source\PSoC5/cyfitter_cfg.c **** 			{(void CYFAR *)(CYREG_BCTL0_MDCLK_EN), 32u},
 365:Generated_Source\PSoC5/cyfitter_cfg.c **** 		};
 366:Generated_Source\PSoC5/cyfitter_cfg.c **** 
 367:Generated_Source\PSoC5/cyfitter_cfg.c **** 		uint8 CYDATA i;
 440              		.loc 1 367 3 view .LVU99
 368:Generated_Source\PSoC5/cyfitter_cfg.c **** 
 369:Generated_Source\PSoC5/cyfitter_cfg.c **** 		/* Zero out critical memory blocks before beginning configuration */
 370:Generated_Source\PSoC5/cyfitter_cfg.c **** 		for (i = 0u; i < (sizeof(cfg_memset_list)/sizeof(cfg_memset_list[0])); i++)
 441              		.loc 1 370 3 view .LVU100
 442              	.LVL30:
 443              		.loc 1 370 10 is_stmt 0 view .LVU101
 444 000e 0024     		movs	r4, #0
 445              		.loc 1 370 3 view .LVU102
 446 0010 0BE0     		b	.L30
 447              	.LVL31:
 448              	.L31:
 449              	.LBB5:
 371:Generated_Source\PSoC5/cyfitter_cfg.c **** 		{
 372:Generated_Source\PSoC5/cyfitter_cfg.c **** 			const cfg_memset_t CYCODE * CYDATA ms = &cfg_memset_list[i];
 450              		.loc 1 372 4 is_stmt 1 discriminator 3 view .LVU103
 373:Generated_Source\PSoC5/cyfitter_cfg.c **** 			CYMEMZERO(ms->address, (size_t)(uint32)(ms->size));
 451              		.loc 1 373 4 discriminator 3 view .LVU104
 452              		.loc 1 373 46 is_stmt 0 discriminator 3 view .LVU105
 453 0012 2048     		ldr	r0, .L33+4
 454 0014 04EB4402 		add	r2, r4, r4, lsl #1
 455 0018 5300     		lsls	r3, r2, #1
 456 001a 1A46     		mov	r2, r3
 457 001c 0344     		add	r3, r3, r0
 458              		.loc 1 373 4 discriminator 3 view .LVU106
 459 001e 9988     		ldrh	r1, [r3, #4]
 460 0020 8058     		ldr	r0, [r0, r2]	@ unaligned
 461 0022 FFF7FEFF 		bl	CYMEMZERO
 462              	.LVL32:
 463              	.LBE5:
 370:Generated_Source\PSoC5/cyfitter_cfg.c **** 		{
 464              		.loc 1 370 74 is_stmt 1 discriminator 3 view .LVU107
 370:Generated_Source\PSoC5/cyfitter_cfg.c **** 		{
 465              		.loc 1 370 75 is_stmt 0 discriminator 3 view .LVU108
 466 0026 0134     		adds	r4, r4, #1
 467              	.LVL33:
 370:Generated_Source\PSoC5/cyfitter_cfg.c **** 		{
 468              		.loc 1 370 75 discriminator 3 view .LVU109
 469 0028 E4B2     		uxtb	r4, r4
 470              	.LVL34:
 471              	.L30:
 370:Generated_Source\PSoC5/cyfitter_cfg.c **** 		{
 472              		.loc 1 370 16 is_stmt 1 discriminator 1 view .LVU110
 370:Generated_Source\PSoC5/cyfitter_cfg.c **** 		{
ARM GAS  C:\Users\jens-\AppData\Local\Temp\ccc41pph.s 			page 17


 473              		.loc 1 370 3 is_stmt 0 discriminator 1 view .LVU111
 474 002a 082C     		cmp	r4, #8
 475 002c F1D9     		bls	.L31
 374:Generated_Source\PSoC5/cyfitter_cfg.c **** 		}
 375:Generated_Source\PSoC5/cyfitter_cfg.c **** 
 376:Generated_Source\PSoC5/cyfitter_cfg.c **** 		cfg_write_bytes32(cy_cfg_addr_table, cy_cfg_data_table);
 476              		.loc 1 376 3 is_stmt 1 view .LVU112
 477 002e 1A49     		ldr	r1, .L33+8
 478 0030 4FF09040 		mov	r0, #1207959552
 479 0034 FFF7FEFF 		bl	cfg_write_bytes32
 480              	.LVL35:
 377:Generated_Source\PSoC5/cyfitter_cfg.c **** 
 378:Generated_Source\PSoC5/cyfitter_cfg.c **** 		/* Enable digital routing */
 379:Generated_Source\PSoC5/cyfitter_cfg.c **** 		CY_SET_XTND_REG8((void CYFAR *)CYREG_BCTL0_BANK_CTL, CY_GET_XTND_REG8((void CYFAR *)CYREG_BCTL0_B
 481              		.loc 1 379 3 view .LVU113
 482 0038 184A     		ldr	r2, .L33+12
 483 003a 1378     		ldrb	r3, [r2]	@ zero_extendqisi2
 484 003c 43F00203 		orr	r3, r3, #2
 485 0040 1370     		strb	r3, [r2]
 380:Generated_Source\PSoC5/cyfitter_cfg.c **** 		CY_SET_XTND_REG8((void CYFAR *)CYREG_BCTL1_BANK_CTL, CY_GET_XTND_REG8((void CYFAR *)CYREG_BCTL1_B
 486              		.loc 1 380 3 view .LVU114
 487 0042 1032     		adds	r2, r2, #16
 488 0044 1378     		ldrb	r3, [r2]	@ zero_extendqisi2
 489 0046 43F00203 		orr	r3, r3, #2
 490 004a 1370     		strb	r3, [r2]
 491              	.LBE4:
 381:Generated_Source\PSoC5/cyfitter_cfg.c **** 	}
 382:Generated_Source\PSoC5/cyfitter_cfg.c **** 
 383:Generated_Source\PSoC5/cyfitter_cfg.c **** 
 384:Generated_Source\PSoC5/cyfitter_cfg.c **** 	/* Perform second pass device configuration. These items must be configured in specific order afte
 385:Generated_Source\PSoC5/cyfitter_cfg.c **** 	CYCONFIGCPY((void CYFAR *)(CYREG_PRT0_DM0), (const void CYFAR *)(BS_IOPINS0_0_VAL), 8u);
 492              		.loc 1 385 2 view .LVU115
 493 004c 0822     		movs	r2, #8
 494 004e 1449     		ldr	r1, .L33+16
 495 0050 1448     		ldr	r0, .L33+20
 496 0052 FFF7FEFF 		bl	CYCONFIGCPY
 497              	.LVL36:
 386:Generated_Source\PSoC5/cyfitter_cfg.c **** 	CYCONFIGCPY((void CYFAR *)(CYREG_PRT1_DM0), (const void CYFAR *)(BS_IOPINS0_1_VAL), 8u);
 498              		.loc 1 386 2 view .LVU116
 499 0056 0822     		movs	r2, #8
 500 0058 1349     		ldr	r1, .L33+24
 501 005a 1448     		ldr	r0, .L33+28
 502 005c FFF7FEFF 		bl	CYCONFIGCPY
 503              	.LVL37:
 387:Generated_Source\PSoC5/cyfitter_cfg.c **** 	/* Switch Boost to the precision bandgap reference from its internal reference */
 388:Generated_Source\PSoC5/cyfitter_cfg.c **** 	CY_SET_REG8((void CYXDATA *)CYREG_BOOST_CR2, (CY_GET_REG8((void CYXDATA *)CYREG_BOOST_CR2) | 0x08u
 504              		.loc 1 388 2 view .LVU117
 505 0060 134A     		ldr	r2, .L33+32
 506 0062 1378     		ldrb	r3, [r2]	@ zero_extendqisi2
 507 0064 43F00803 		orr	r3, r3, #8
 508 0068 1370     		strb	r3, [r2]
 389:Generated_Source\PSoC5/cyfitter_cfg.c **** 
 390:Generated_Source\PSoC5/cyfitter_cfg.c **** 	/* Set Flash Cycles based on max possible frequency in case a glitch occurs during ClockSetup(). *
 391:Generated_Source\PSoC5/cyfitter_cfg.c **** 	CY_SET_XTND_REG8((void CYFAR *)(CYREG_CACHE_CC_CTL), (((CYDEV_INSTRUCT_CACHE_ENABLED) != 0) ? 0x61
 509              		.loc 1 391 2 view .LVU118
 510 006a 124C     		ldr	r4, .L33+36
 511              	.LVL38:
ARM GAS  C:\Users\jens-\AppData\Local\Temp\ccc41pph.s 			page 18


 512              		.loc 1 391 2 is_stmt 0 view .LVU119
 513 006c 6123     		movs	r3, #97
 514 006e 2370     		strb	r3, [r4]
 392:Generated_Source\PSoC5/cyfitter_cfg.c **** 	/* Setup clocks based on selections from Clock DWR */
 393:Generated_Source\PSoC5/cyfitter_cfg.c **** 	ClockSetup();
 515              		.loc 1 393 2 is_stmt 1 view .LVU120
 516 0070 FFF7FEFF 		bl	ClockSetup
 517              	.LVL39:
 394:Generated_Source\PSoC5/cyfitter_cfg.c **** 	/* Set Flash Cycles based on newly configured 24.00MHz Bus Clock. */
 395:Generated_Source\PSoC5/cyfitter_cfg.c **** 	CY_SET_XTND_REG8((void CYFAR *)(CYREG_CACHE_CC_CTL), (((CYDEV_INSTRUCT_CACHE_ENABLED) != 0) ? 0x81
 518              		.loc 1 395 2 view .LVU121
 519 0074 8123     		movs	r3, #129
 520 0076 2370     		strb	r3, [r4]
 396:Generated_Source\PSoC5/cyfitter_cfg.c **** 	CY_SET_XTND_REG8((void CYFAR *)(CYREG_PANTHER_WAITPIPE), 0x01u);
 521              		.loc 1 396 2 view .LVU122
 522 0078 0F4B     		ldr	r3, .L33+40
 523 007a 0122     		movs	r2, #1
 524 007c 1A70     		strb	r2, [r3]
 397:Generated_Source\PSoC5/cyfitter_cfg.c **** 
 398:Generated_Source\PSoC5/cyfitter_cfg.c **** 	/* Perform basic analog initialization to defaults */
 399:Generated_Source\PSoC5/cyfitter_cfg.c **** 	AnalogSetDefault();
 525              		.loc 1 399 2 view .LVU123
 526 007e FFF7FEFF 		bl	AnalogSetDefault
 527              	.LVL40:
 400:Generated_Source\PSoC5/cyfitter_cfg.c **** 
 401:Generated_Source\PSoC5/cyfitter_cfg.c **** 	/* Configure alternate active mode */
 402:Generated_Source\PSoC5/cyfitter_cfg.c **** 	CYCONFIGCPY((void CYFAR *)CYDEV_PM_STBY_BASE, (const void CYFAR *)CYDEV_PM_ACT_BASE, 14u);
 528              		.loc 1 402 2 view .LVU124
 529 0082 0E22     		movs	r2, #14
 530 0084 0D49     		ldr	r1, .L33+44
 531 0086 0E48     		ldr	r0, .L33+48
 532 0088 FFF7FEFF 		bl	CYCONFIGCPY
 533              	.LVL41:
 403:Generated_Source\PSoC5/cyfitter_cfg.c **** }
 534              		.loc 1 403 1 is_stmt 0 view .LVU125
 535 008c 10BD     		pop	{r4, pc}
 536              	.L34:
 537 008e 00BF     		.align	2
 538              	.L33:
 539 0090 E8460040 		.word	1073759976
 540 0094 00000000 		.word	.LANCHOR0
 541 0098 50000048 		.word	1207959632
 542 009c 03500140 		.word	1073827843
 543 00a0 C0000048 		.word	1207959744
 544 00a4 02510040 		.word	1073762562
 545 00a8 C8000048 		.word	1207959752
 546 00ac 12510040 		.word	1073762578
 547 00b0 22430040 		.word	1073759010
 548 00b4 00480040 		.word	1073760256
 549 00b8 04000840 		.word	1074266116
 550 00bc A0430040 		.word	1073759136
 551 00c0 B0430040 		.word	1073759152
 552              		.cfi_endproc
 553              	.LFE8:
 554              		.size	cyfitter_cfg, .-cyfitter_cfg
 555              		.section	.rodata
 556              		.align	2
ARM GAS  C:\Users\jens-\AppData\Local\Temp\ccc41pph.s 			page 19


 557              		.set	.LANCHOR0,. + 0
 558              		.type	cfg_memset_list.5098, %object
 559              		.size	cfg_memset_list.5098, 54
 560              	cfg_memset_list.5098:
 561 0000 C8490040 		.word	1073760712
 562 0004 1900     		.short	25
 563 0006 20510040 		.4byte	1073762592
 564 000a 5000     		.short	80
 565 000c C0510040 		.word	1073762752
 566 0010 1000     		.short	16
 567 0012 F0510040 		.4byte	1073762800
 568 0016 1000     		.short	16
 569 0018 00000140 		.word	1073807360
 570 001c 0010     		.short	4096
 571 001e 00140140 		.4byte	1073812480
 572 0022 0008     		.short	2048
 573 0024 00400140 		.word	1073823744
 574 0028 000A     		.short	2560
 575 002a 004C0140 		.4byte	1073826816
 576 002e 0002     		.short	512
 577 0030 00500140 		.word	1073827840
 578 0034 2000     		.short	32
 579              		.text
 580              	.Letext0:
 581              		.file 2 "c:\\program files (x86)\\cypress\\psoc creator\\4.2\\psoc creator\\import\\gnu\\arm\\5.4.
 582              		.file 3 "c:\\program files (x86)\\cypress\\psoc creator\\4.2\\psoc creator\\import\\gnu\\arm\\5.4.
 583              		.file 4 "c:\\program files (x86)\\cypress\\psoc creator\\4.2\\psoc creator\\import\\gnu\\arm\\5.4.
 584              		.file 5 "c:\\program files (x86)\\cypress\\psoc creator\\4.2\\psoc creator\\import\\gnu\\arm\\5.4.
 585              		.file 6 "Generated_Source\\PSoC5\\cytypes.h"
 586              		.file 7 "c:\\program files (x86)\\cypress\\psoc creator\\4.2\\psoc creator\\import\\gnu\\arm\\5.4.
 587              		.file 8 "Generated_Source\\PSoC5\\CySpc.h"
 588              		.file 9 "Generated_Source\\PSoC5\\CyFlash.h"
 589              		.file 10 "Generated_Source\\PSoC5\\CyLib.h"
 590              		.file 11 "<built-in>"