ARM GAS  C:\Users\jens-\AppData\Local\Temp\ccdWTNhT.s 			page 1


   1              		.cpu cortex-m3
   2              		.eabi_attribute 20, 1
   3              		.eabi_attribute 21, 1
   4              		.eabi_attribute 23, 3
   5              		.eabi_attribute 24, 1
   6              		.eabi_attribute 25, 1
   7              		.eabi_attribute 26, 1
   8              		.eabi_attribute 30, 1
   9              		.eabi_attribute 34, 1
  10              		.eabi_attribute 18, 4
  11              		.file	"CyLib.c"
  12              		.text
  13              	.Ltext0:
  14              		.cfi_sections	.debug_frame
  15              		.section	.text.CyUSB_PowerOnCheck,"ax",%progbits
  16              		.align	1
  17              		.arch armv7-m
  18              		.syntax unified
  19              		.thumb
  20              		.thumb_func
  21              		.fpu softvfp
  22              		.type	CyUSB_PowerOnCheck, %function
  23              	CyUSB_PowerOnCheck:
  24              	.LFB6:
  25              		.file 1 "Generated_Source\\PSoC5\\CyLib.c"
   1:Generated_Source\PSoC5/CyLib.c **** /***************************************************************************//**
   2:Generated_Source\PSoC5/CyLib.c **** * \file CyLib.c
   3:Generated_Source\PSoC5/CyLib.c **** * \version 5.70
   4:Generated_Source\PSoC5/CyLib.c **** *
   5:Generated_Source\PSoC5/CyLib.c **** * \brief Provides a system API for the clocking, interrupts and watchdog timer.
   6:Generated_Source\PSoC5/CyLib.c **** *
   7:Generated_Source\PSoC5/CyLib.c **** * \note Documentation of the API's in this file is located in the System
   8:Generated_Source\PSoC5/CyLib.c **** * Reference Guide provided with PSoC Creator.
   9:Generated_Source\PSoC5/CyLib.c **** *
  10:Generated_Source\PSoC5/CyLib.c **** ********************************************************************************
  11:Generated_Source\PSoC5/CyLib.c **** * \copyright
  12:Generated_Source\PSoC5/CyLib.c **** * Copyright 2008-2018, Cypress Semiconductor Corporation.  All rights reserved.
  13:Generated_Source\PSoC5/CyLib.c **** * You may use this file only in accordance with the license, terms, conditions,
  14:Generated_Source\PSoC5/CyLib.c **** * disclaimers, and limitations in the end user license agreement accompanying
  15:Generated_Source\PSoC5/CyLib.c **** * the software package with which this file was provided.
  16:Generated_Source\PSoC5/CyLib.c **** *******************************************************************************/
  17:Generated_Source\PSoC5/CyLib.c **** 
  18:Generated_Source\PSoC5/CyLib.c **** #include "CyLib.h"
  19:Generated_Source\PSoC5/CyLib.c **** 
  20:Generated_Source\PSoC5/CyLib.c **** 
  21:Generated_Source\PSoC5/CyLib.c **** /*******************************************************************************
  22:Generated_Source\PSoC5/CyLib.c **** * The CyResetStatus variable is used to obtain value of RESET_SR0 register after
  23:Generated_Source\PSoC5/CyLib.c **** * a device reset. It is set from initialize_psoc() at the early initialization
  24:Generated_Source\PSoC5/CyLib.c **** * stage. In case of IAR EW IDE, initialize_psoc() is executed before the data
  25:Generated_Source\PSoC5/CyLib.c **** * sections are initialized. To avoid zeroing, CyResetStatus should be placed
  26:Generated_Source\PSoC5/CyLib.c **** * to the .noinit section.
  27:Generated_Source\PSoC5/CyLib.c **** *******************************************************************************/
  28:Generated_Source\PSoC5/CyLib.c **** CY_NOINIT uint8 CYXDATA CyResetStatus;
  29:Generated_Source\PSoC5/CyLib.c **** 
  30:Generated_Source\PSoC5/CyLib.c **** 
  31:Generated_Source\PSoC5/CyLib.c **** /* Variable Vdda */
  32:Generated_Source\PSoC5/CyLib.c **** #if(CYDEV_VARIABLE_VDDA == 1)
ARM GAS  C:\Users\jens-\AppData\Local\Temp\ccdWTNhT.s 			page 2


  33:Generated_Source\PSoC5/CyLib.c **** 
  34:Generated_Source\PSoC5/CyLib.c ****     uint8 CyScPumpEnabled = (uint8)(CYDEV_VDDA_MV < 2700);
  35:Generated_Source\PSoC5/CyLib.c **** 
  36:Generated_Source\PSoC5/CyLib.c **** #endif  /* (CYDEV_VARIABLE_VDDA == 1) */
  37:Generated_Source\PSoC5/CyLib.c **** 
  38:Generated_Source\PSoC5/CyLib.c **** 
  39:Generated_Source\PSoC5/CyLib.c **** /* Do not use these definitions directly in your application */
  40:Generated_Source\PSoC5/CyLib.c **** uint32 cydelay_freq_hz  = BCLK__BUS_CLK__HZ;
  41:Generated_Source\PSoC5/CyLib.c **** uint32 cydelay_freq_khz = (BCLK__BUS_CLK__HZ + 999u) / 1000u;
  42:Generated_Source\PSoC5/CyLib.c **** uint8  cydelay_freq_mhz = (uint8)((BCLK__BUS_CLK__HZ + 999999u) / 1000000u);
  43:Generated_Source\PSoC5/CyLib.c **** uint32 cydelay_32k_ms   = 32768u * ((BCLK__BUS_CLK__HZ + 999u) / 1000u);
  44:Generated_Source\PSoC5/CyLib.c **** 
  45:Generated_Source\PSoC5/CyLib.c **** 
  46:Generated_Source\PSoC5/CyLib.c **** /* Function Prototypes */
  47:Generated_Source\PSoC5/CyLib.c **** static uint8 CyUSB_PowerOnCheck(void)  ;
  48:Generated_Source\PSoC5/CyLib.c **** static void CyIMO_SetTrimValue(uint8 freq) ;
  49:Generated_Source\PSoC5/CyLib.c **** static void CyBusClk_Internal_SetDivider(uint16 divider);
  50:Generated_Source\PSoC5/CyLib.c **** 
  51:Generated_Source\PSoC5/CyLib.c **** #if(CY_PSOC5)
  52:Generated_Source\PSoC5/CyLib.c ****     static cySysTickCallback CySysTickCallbacks[CY_SYS_SYST_NUM_OF_CALLBACKS];
  53:Generated_Source\PSoC5/CyLib.c ****     static void CySysTickServiceCallbacks(void);
  54:Generated_Source\PSoC5/CyLib.c ****     uint32 CySysTickInitVar = 0u;
  55:Generated_Source\PSoC5/CyLib.c **** #endif  /* (CY_PSOC5) */
  56:Generated_Source\PSoC5/CyLib.c **** 
  57:Generated_Source\PSoC5/CyLib.c **** 
  58:Generated_Source\PSoC5/CyLib.c **** #if(CY_PSOC3)
  59:Generated_Source\PSoC5/CyLib.c ****     CY_ISR_PROTO(IntDefaultHandler);
  60:Generated_Source\PSoC5/CyLib.c **** #endif /* (CY_PSOC3) */
  61:Generated_Source\PSoC5/CyLib.c **** 
  62:Generated_Source\PSoC5/CyLib.c **** 
  63:Generated_Source\PSoC5/CyLib.c **** /*******************************************************************************
  64:Generated_Source\PSoC5/CyLib.c **** * Function Name: CyPLL_OUT_Start
  65:Generated_Source\PSoC5/CyLib.c **** ****************************************************************************//**
  66:Generated_Source\PSoC5/CyLib.c **** *
  67:Generated_Source\PSoC5/CyLib.c **** *   Enables the PLL.  Optionally waits for it to become stable.
  68:Generated_Source\PSoC5/CyLib.c **** *   Waits at least 250 us or until it is detected that the PLL is stable.
  69:Generated_Source\PSoC5/CyLib.c **** *
  70:Generated_Source\PSoC5/CyLib.c **** *   \param wait:
  71:Generated_Source\PSoC5/CyLib.c **** *    \param 0: Return immediately after configuration
  72:Generated_Source\PSoC5/CyLib.c **** *    \param 1: Wait for PLL lock or timeout.
  73:Generated_Source\PSoC5/CyLib.c **** *
  74:Generated_Source\PSoC5/CyLib.c **** * \return
  75:Generated_Source\PSoC5/CyLib.c **** *   Status
  76:Generated_Source\PSoC5/CyLib.c **** *    CYRET_SUCCESS - Completed successfully
  77:Generated_Source\PSoC5/CyLib.c **** *    CYRET_TIMEOUT - Timeout occurred without detecting a stable clock.
  78:Generated_Source\PSoC5/CyLib.c **** *     If the input source of the clock is jittery, then the lock indication
  79:Generated_Source\PSoC5/CyLib.c **** *     may not occur.  However, after the timeout has expired the generated PLL
  80:Generated_Source\PSoC5/CyLib.c **** *     clock can still be used.
  81:Generated_Source\PSoC5/CyLib.c **** *
  82:Generated_Source\PSoC5/CyLib.c **** * \sideeffect
  83:Generated_Source\PSoC5/CyLib.c **** *  If wait is enabled: This function uses the Fast Time Wheel to time the wait.
  84:Generated_Source\PSoC5/CyLib.c **** *  Any other use of the Fast Time Wheel will be stopped during the period of
  85:Generated_Source\PSoC5/CyLib.c **** *  this function and then restored. This function also uses the 100 KHz ILO.
  86:Generated_Source\PSoC5/CyLib.c **** *  If not enabled, this function will enable the 100 KHz ILO for the period of
  87:Generated_Source\PSoC5/CyLib.c **** *  this function.
  88:Generated_Source\PSoC5/CyLib.c **** *
  89:Generated_Source\PSoC5/CyLib.c **** *  No changes to the setup of the ILO, Fast Time Wheel, Central Time Wheel or
ARM GAS  C:\Users\jens-\AppData\Local\Temp\ccdWTNhT.s 			page 3


  90:Generated_Source\PSoC5/CyLib.c **** *  Once Per Second interrupt may be made by interrupt routines during the period
  91:Generated_Source\PSoC5/CyLib.c **** *  of this function execution. The current operation of the ILO, Central Time
  92:Generated_Source\PSoC5/CyLib.c **** *  Wheel and Once Per Second interrupt are maintained during the operation of
  93:Generated_Source\PSoC5/CyLib.c **** *  this function provided the reading of the Power Manager Interrupt Status
  94:Generated_Source\PSoC5/CyLib.c **** *  Register is only done using the CyPmReadStatus() function.
  95:Generated_Source\PSoC5/CyLib.c **** *
  96:Generated_Source\PSoC5/CyLib.c **** *******************************************************************************/
  97:Generated_Source\PSoC5/CyLib.c **** cystatus CyPLL_OUT_Start(uint8 wait) 
  98:Generated_Source\PSoC5/CyLib.c **** {
  99:Generated_Source\PSoC5/CyLib.c ****     cystatus status = CYRET_SUCCESS;
 100:Generated_Source\PSoC5/CyLib.c **** 
 101:Generated_Source\PSoC5/CyLib.c ****     uint8 iloEnableState;
 102:Generated_Source\PSoC5/CyLib.c ****     uint8 pmTwCfg0State;
 103:Generated_Source\PSoC5/CyLib.c ****     uint8 pmTwCfg2State;
 104:Generated_Source\PSoC5/CyLib.c **** 
 105:Generated_Source\PSoC5/CyLib.c **** 
 106:Generated_Source\PSoC5/CyLib.c ****     /* Enables PLL circuit  */
 107:Generated_Source\PSoC5/CyLib.c ****     CY_CLK_PLL_CFG0_REG |= CY_CLK_PLL_ENABLE;
 108:Generated_Source\PSoC5/CyLib.c **** 
 109:Generated_Source\PSoC5/CyLib.c ****     if(wait != 0u)
 110:Generated_Source\PSoC5/CyLib.c ****     {
 111:Generated_Source\PSoC5/CyLib.c ****         /* Save 100 KHz ILO, FTW interval, enable and interrupt enable */
 112:Generated_Source\PSoC5/CyLib.c ****         iloEnableState = CY_LIB_SLOWCLK_ILO_CR0_REG & CY_LIB_SLOWCLK_ILO_CR0_EN_100KHZ;
 113:Generated_Source\PSoC5/CyLib.c ****         pmTwCfg0State = CY_LIB_PM_TW_CFG0_REG;
 114:Generated_Source\PSoC5/CyLib.c ****         pmTwCfg2State = CY_LIB_PM_TW_CFG2_REG;
 115:Generated_Source\PSoC5/CyLib.c **** 
 116:Generated_Source\PSoC5/CyLib.c ****         CyPmFtwSetInterval(CY_CLK_PLL_FTW_INTERVAL);
 117:Generated_Source\PSoC5/CyLib.c **** 
 118:Generated_Source\PSoC5/CyLib.c ****         status = CYRET_TIMEOUT;
 119:Generated_Source\PSoC5/CyLib.c **** 
 120:Generated_Source\PSoC5/CyLib.c ****         while(0u == (CY_PM_FTW_INT & CyPmReadStatus(CY_PM_FTW_INT)))
 121:Generated_Source\PSoC5/CyLib.c ****         {
 122:Generated_Source\PSoC5/CyLib.c ****             /* Wait for interrupt status */
 123:Generated_Source\PSoC5/CyLib.c ****             if(0u != (CY_CLK_PLL_SR_REG & CY_CLK_PLL_LOCK_STATUS))
 124:Generated_Source\PSoC5/CyLib.c ****             {
 125:Generated_Source\PSoC5/CyLib.c ****                 if(0u != (CY_CLK_PLL_SR_REG & CY_CLK_PLL_LOCK_STATUS))
 126:Generated_Source\PSoC5/CyLib.c ****                 {
 127:Generated_Source\PSoC5/CyLib.c ****                     status = CYRET_SUCCESS;
 128:Generated_Source\PSoC5/CyLib.c ****                     break;
 129:Generated_Source\PSoC5/CyLib.c ****                 }
 130:Generated_Source\PSoC5/CyLib.c ****             }
 131:Generated_Source\PSoC5/CyLib.c ****         }
 132:Generated_Source\PSoC5/CyLib.c **** 
 133:Generated_Source\PSoC5/CyLib.c ****         /* Restore 100 KHz ILO, FTW interval, enable and interrupt enable */
 134:Generated_Source\PSoC5/CyLib.c ****         if(0u == iloEnableState)
 135:Generated_Source\PSoC5/CyLib.c ****         {
 136:Generated_Source\PSoC5/CyLib.c ****             CyILO_Stop100K();
 137:Generated_Source\PSoC5/CyLib.c ****         }
 138:Generated_Source\PSoC5/CyLib.c **** 
 139:Generated_Source\PSoC5/CyLib.c ****         CY_LIB_PM_TW_CFG0_REG = pmTwCfg0State;
 140:Generated_Source\PSoC5/CyLib.c ****         CY_LIB_PM_TW_CFG2_REG = pmTwCfg2State;
 141:Generated_Source\PSoC5/CyLib.c ****     }
 142:Generated_Source\PSoC5/CyLib.c **** 
 143:Generated_Source\PSoC5/CyLib.c ****     return(status);
 144:Generated_Source\PSoC5/CyLib.c **** }
 145:Generated_Source\PSoC5/CyLib.c **** 
 146:Generated_Source\PSoC5/CyLib.c **** 
ARM GAS  C:\Users\jens-\AppData\Local\Temp\ccdWTNhT.s 			page 4


 147:Generated_Source\PSoC5/CyLib.c **** /*******************************************************************************
 148:Generated_Source\PSoC5/CyLib.c **** * Function Name: CyPLL_OUT_Stop
 149:Generated_Source\PSoC5/CyLib.c **** ****************************************************************************//**
 150:Generated_Source\PSoC5/CyLib.c **** *
 151:Generated_Source\PSoC5/CyLib.c **** *  Disables the PLL.
 152:Generated_Source\PSoC5/CyLib.c **** *
 153:Generated_Source\PSoC5/CyLib.c **** *******************************************************************************/
 154:Generated_Source\PSoC5/CyLib.c **** void CyPLL_OUT_Stop(void) 
 155:Generated_Source\PSoC5/CyLib.c **** {
 156:Generated_Source\PSoC5/CyLib.c ****     CY_CLK_PLL_CFG0_REG &= ((uint8)(~CY_CLK_PLL_ENABLE));
 157:Generated_Source\PSoC5/CyLib.c **** }
 158:Generated_Source\PSoC5/CyLib.c **** 
 159:Generated_Source\PSoC5/CyLib.c **** 
 160:Generated_Source\PSoC5/CyLib.c **** /*******************************************************************************
 161:Generated_Source\PSoC5/CyLib.c **** * Function Name: CyPLL_OUT_SetPQ
 162:Generated_Source\PSoC5/CyLib.c **** ****************************************************************************//**
 163:Generated_Source\PSoC5/CyLib.c **** *
 164:Generated_Source\PSoC5/CyLib.c **** *  Sets the P and Q dividers and the charge pump current.
 165:Generated_Source\PSoC5/CyLib.c **** *  The Frequency Out will be P/Q * Frequency In.
 166:Generated_Source\PSoC5/CyLib.c **** *  The PLL must be disabled before calling this function.
 167:Generated_Source\PSoC5/CyLib.c **** *
 168:Generated_Source\PSoC5/CyLib.c **** *  \param uint8 pDiv:
 169:Generated_Source\PSoC5/CyLib.c **** *   Valid range [8 - 255].
 170:Generated_Source\PSoC5/CyLib.c **** *
 171:Generated_Source\PSoC5/CyLib.c **** *  \param uint8 qDiv:
 172:Generated_Source\PSoC5/CyLib.c **** *   Valid range [1 - 16]. Input Frequency / Q must be in range of 1 to 3 MHz.
 173:Generated_Source\PSoC5/CyLib.c **** 
 174:Generated_Source\PSoC5/CyLib.c **** *  \param uint8 current:
 175:Generated_Source\PSoC5/CyLib.c **** *   Valid range [1 - 7]. Charge pump current in uA. Refer to the device TRM and
 176:Generated_Source\PSoC5/CyLib.c **** *   datasheet for more information.
 177:Generated_Source\PSoC5/CyLib.c **** *
 178:Generated_Source\PSoC5/CyLib.c **** * \sideeffect
 179:Generated_Source\PSoC5/CyLib.c **** *  If this function execution results in the CPU clock frequency increasing,
 180:Generated_Source\PSoC5/CyLib.c **** *  then the number of clock cycles the cache will wait before it samples data
 181:Generated_Source\PSoC5/CyLib.c **** *  coming back from the Flash must be adjusted by calling
 182:Generated_Source\PSoC5/CyLib.c **** *  CyFlash_SetWaitCycles() with an appropriate parameter. It can be optionally
 183:Generated_Source\PSoC5/CyLib.c **** *  called if the CPU clock frequency is lowered in order to improve the CPU
 184:Generated_Source\PSoC5/CyLib.c **** *  performance. See CyFlash_SetWaitCycles() description for more information.
 185:Generated_Source\PSoC5/CyLib.c **** *
 186:Generated_Source\PSoC5/CyLib.c **** *******************************************************************************/
 187:Generated_Source\PSoC5/CyLib.c **** void CyPLL_OUT_SetPQ(uint8 pDiv, uint8 qDiv, uint8 current) 
 188:Generated_Source\PSoC5/CyLib.c **** {
 189:Generated_Source\PSoC5/CyLib.c ****     /* Halt CPU in debug mode if PLL is enabled */
 190:Generated_Source\PSoC5/CyLib.c ****     CYASSERT(0u == (CY_CLK_PLL_CFG0_REG & CY_CLK_PLL_ENABLE));
 191:Generated_Source\PSoC5/CyLib.c **** 
 192:Generated_Source\PSoC5/CyLib.c ****     if((pDiv    >= CY_CLK_PLL_MIN_P_VALUE  ) &&
 193:Generated_Source\PSoC5/CyLib.c ****        (qDiv    <= CY_CLK_PLL_MAX_Q_VALUE  ) && (qDiv    >= CY_CLK_PLL_MIN_Q_VALUE  ) &&
 194:Generated_Source\PSoC5/CyLib.c ****        (current >= CY_CLK_PLL_MIN_CUR_VALUE) && (current <= CY_CLK_PLL_MAX_CUR_VALUE))
 195:Generated_Source\PSoC5/CyLib.c ****     {
 196:Generated_Source\PSoC5/CyLib.c ****         /* Set new values */
 197:Generated_Source\PSoC5/CyLib.c ****         CY_CLK_PLL_P_REG = pDiv;
 198:Generated_Source\PSoC5/CyLib.c ****         CY_CLK_PLL_Q_REG = ((uint8)(qDiv - 1u));
 199:Generated_Source\PSoC5/CyLib.c ****         CY_CLK_PLL_CFG1_REG = (CY_CLK_PLL_CFG1_REG & CY_CLK_PLL_CURRENT_MASK) |
 200:Generated_Source\PSoC5/CyLib.c ****                                 ((uint8)(((uint8)(current - 1u)) << CY_CLK_PLL_CURRENT_POSITION));
 201:Generated_Source\PSoC5/CyLib.c ****     }
 202:Generated_Source\PSoC5/CyLib.c ****     else
 203:Generated_Source\PSoC5/CyLib.c ****     {
ARM GAS  C:\Users\jens-\AppData\Local\Temp\ccdWTNhT.s 			page 5


 204:Generated_Source\PSoC5/CyLib.c ****         /***********************************************************************
 205:Generated_Source\PSoC5/CyLib.c ****         * Halt CPU in debug mode if:
 206:Generated_Source\PSoC5/CyLib.c ****         * - P divider is less than required
 207:Generated_Source\PSoC5/CyLib.c ****         * - Q divider is out of range
 208:Generated_Source\PSoC5/CyLib.c ****         * - pump current is out of range
 209:Generated_Source\PSoC5/CyLib.c ****         ***********************************************************************/
 210:Generated_Source\PSoC5/CyLib.c ****         CYASSERT(0u != 0u);
 211:Generated_Source\PSoC5/CyLib.c ****     }
 212:Generated_Source\PSoC5/CyLib.c **** 
 213:Generated_Source\PSoC5/CyLib.c **** }
 214:Generated_Source\PSoC5/CyLib.c **** 
 215:Generated_Source\PSoC5/CyLib.c **** 
 216:Generated_Source\PSoC5/CyLib.c **** /*******************************************************************************
 217:Generated_Source\PSoC5/CyLib.c **** * Function Name: CyPLL_OUT_SetSource
 218:Generated_Source\PSoC5/CyLib.c **** ****************************************************************************//**
 219:Generated_Source\PSoC5/CyLib.c **** *
 220:Generated_Source\PSoC5/CyLib.c **** *  Sets the input clock source to the PLL. The PLL must be disabled before
 221:Generated_Source\PSoC5/CyLib.c **** *  calling this function.
 222:Generated_Source\PSoC5/CyLib.c **** *
 223:Generated_Source\PSoC5/CyLib.c **** *   \param source: One of the three available PLL clock sources
 224:Generated_Source\PSoC5/CyLib.c **** *    \param CY_PLL_SOURCE_IMO  :   IMO
 225:Generated_Source\PSoC5/CyLib.c **** *    \param CY_PLL_SOURCE_XTAL :   MHz Crystal
 226:Generated_Source\PSoC5/CyLib.c **** *    \param CY_PLL_SOURCE_DSI  :   DSI
 227:Generated_Source\PSoC5/CyLib.c **** *
 228:Generated_Source\PSoC5/CyLib.c **** * \sideeffect
 229:Generated_Source\PSoC5/CyLib.c **** *  If this function execution results in the CPU clock frequency increasing,
 230:Generated_Source\PSoC5/CyLib.c **** *  then the number of clock cycles the cache will wait before it samples data
 231:Generated_Source\PSoC5/CyLib.c **** *  coming back from the3 Flash must be adjusted by calling
 232:Generated_Source\PSoC5/CyLib.c **** *  CyFlash_SetWaitCycles() with an appropriate parameter. It can be optionally
 233:Generated_Source\PSoC5/CyLib.c **** *  called if the CPU clock frequency is lowered in order to improve the CPU
 234:Generated_Source\PSoC5/CyLib.c **** *  performance. See CyFlash_SetWaitCycles() description for more information.
 235:Generated_Source\PSoC5/CyLib.c **** *
 236:Generated_Source\PSoC5/CyLib.c **** *******************************************************************************/
 237:Generated_Source\PSoC5/CyLib.c **** void CyPLL_OUT_SetSource(uint8 source) 
 238:Generated_Source\PSoC5/CyLib.c **** {
 239:Generated_Source\PSoC5/CyLib.c ****     /* Halt CPU in debug mode if PLL is enabled */
 240:Generated_Source\PSoC5/CyLib.c ****     CYASSERT(0u == (CY_CLK_PLL_CFG0_REG & CY_CLK_PLL_ENABLE));
 241:Generated_Source\PSoC5/CyLib.c **** 
 242:Generated_Source\PSoC5/CyLib.c ****     switch(source)
 243:Generated_Source\PSoC5/CyLib.c ****     {
 244:Generated_Source\PSoC5/CyLib.c ****         case CY_PLL_SOURCE_IMO:
 245:Generated_Source\PSoC5/CyLib.c ****         case CY_PLL_SOURCE_XTAL:
 246:Generated_Source\PSoC5/CyLib.c ****         case CY_PLL_SOURCE_DSI:
 247:Generated_Source\PSoC5/CyLib.c ****             CY_LIB_CLKDIST_CR_REG = ((CY_LIB_CLKDIST_CR_REG & CY_LIB_CLKDIST_CR_PLL_SCR_MASK) | sou
 248:Generated_Source\PSoC5/CyLib.c ****         break;
 249:Generated_Source\PSoC5/CyLib.c **** 
 250:Generated_Source\PSoC5/CyLib.c ****         default:
 251:Generated_Source\PSoC5/CyLib.c ****             CYASSERT(0u != 0u);
 252:Generated_Source\PSoC5/CyLib.c ****         break;
 253:Generated_Source\PSoC5/CyLib.c ****     }
 254:Generated_Source\PSoC5/CyLib.c **** }
 255:Generated_Source\PSoC5/CyLib.c **** 
 256:Generated_Source\PSoC5/CyLib.c **** 
 257:Generated_Source\PSoC5/CyLib.c **** /*******************************************************************************
 258:Generated_Source\PSoC5/CyLib.c **** * Function Name: CyIMO_Start
 259:Generated_Source\PSoC5/CyLib.c **** ****************************************************************************//**
 260:Generated_Source\PSoC5/CyLib.c **** *
ARM GAS  C:\Users\jens-\AppData\Local\Temp\ccdWTNhT.s 			page 6


 261:Generated_Source\PSoC5/CyLib.c **** *  Enables the IMO. Optionally waits at least 6 us for it to settle.
 262:Generated_Source\PSoC5/CyLib.c **** *
 263:Generated_Source\PSoC5/CyLib.c **** *  \param uint8 wait:
 264:Generated_Source\PSoC5/CyLib.c **** *   \param 0: Return immediately after configuration
 265:Generated_Source\PSoC5/CyLib.c **** *   \param 1: Wait for at least 6 us for the IMO to settle.
 266:Generated_Source\PSoC5/CyLib.c **** *
 267:Generated_Source\PSoC5/CyLib.c **** * \sideeffect
 268:Generated_Source\PSoC5/CyLib.c **** *  If wait is enabled: This function uses the Fast Time Wheel to time the wait.
 269:Generated_Source\PSoC5/CyLib.c **** *  Any other use of the Fast Time Wheel will be stopped during the period of
 270:Generated_Source\PSoC5/CyLib.c **** *  this function and then restored. This function also uses the 100 KHz ILO.
 271:Generated_Source\PSoC5/CyLib.c **** *  If not enabled, this function will enable the 100 KHz ILO for the period of
 272:Generated_Source\PSoC5/CyLib.c **** *  this function.
 273:Generated_Source\PSoC5/CyLib.c **** *
 274:Generated_Source\PSoC5/CyLib.c **** *  No changes to the setup of the ILO, Fast Time Wheel, Central Time Wheel or
 275:Generated_Source\PSoC5/CyLib.c **** *  Once Per Second interrupt may be made by interrupt routines during the period
 276:Generated_Source\PSoC5/CyLib.c **** *  of this function execution. The current operation of the ILO, Central Time
 277:Generated_Source\PSoC5/CyLib.c **** *  Wheel and Once Per Second interrupt are maintained during the operation of
 278:Generated_Source\PSoC5/CyLib.c **** *  this function provided the reading of the Power Manager Interrupt Status
 279:Generated_Source\PSoC5/CyLib.c **** *  Register is only done using the CyPmReadStatus() function.
 280:Generated_Source\PSoC5/CyLib.c **** *
 281:Generated_Source\PSoC5/CyLib.c **** *******************************************************************************/
 282:Generated_Source\PSoC5/CyLib.c **** void CyIMO_Start(uint8 wait) 
 283:Generated_Source\PSoC5/CyLib.c **** {
 284:Generated_Source\PSoC5/CyLib.c ****     uint8 pmFtwCfg2Reg;
 285:Generated_Source\PSoC5/CyLib.c ****     uint8 pmFtwCfg0Reg;
 286:Generated_Source\PSoC5/CyLib.c ****     uint8 ilo100KhzEnable;
 287:Generated_Source\PSoC5/CyLib.c **** 
 288:Generated_Source\PSoC5/CyLib.c **** 
 289:Generated_Source\PSoC5/CyLib.c ****     CY_LIB_PM_ACT_CFG0_REG  |= CY_LIB_PM_ACT_CFG0_IMO_EN;
 290:Generated_Source\PSoC5/CyLib.c ****     CY_LIB_PM_STBY_CFG0_REG |= CY_LIB_PM_STBY_CFG0_IMO_EN;
 291:Generated_Source\PSoC5/CyLib.c **** 
 292:Generated_Source\PSoC5/CyLib.c ****     if(0u != wait)
 293:Generated_Source\PSoC5/CyLib.c ****     {
 294:Generated_Source\PSoC5/CyLib.c ****         /* Need to turn on 100KHz ILO if it happens to not already be running.*/
 295:Generated_Source\PSoC5/CyLib.c ****         ilo100KhzEnable = CY_LIB_SLOWCLK_ILO_CR0_REG & CY_LIB_SLOWCLK_ILO_CR0_EN_100KHZ;
 296:Generated_Source\PSoC5/CyLib.c ****         pmFtwCfg0Reg = CY_LIB_PM_TW_CFG0_REG;
 297:Generated_Source\PSoC5/CyLib.c ****         pmFtwCfg2Reg = CY_LIB_PM_TW_CFG2_REG;
 298:Generated_Source\PSoC5/CyLib.c **** 
 299:Generated_Source\PSoC5/CyLib.c ****         CyPmFtwSetInterval(CY_LIB_CLK_IMO_FTW_TIMEOUT);
 300:Generated_Source\PSoC5/CyLib.c **** 
 301:Generated_Source\PSoC5/CyLib.c ****         while (0u == (CY_PM_FTW_INT & CyPmReadStatus(CY_PM_FTW_INT)))
 302:Generated_Source\PSoC5/CyLib.c ****         {
 303:Generated_Source\PSoC5/CyLib.c ****             /* Wait for interrupt status */
 304:Generated_Source\PSoC5/CyLib.c ****         }
 305:Generated_Source\PSoC5/CyLib.c **** 
 306:Generated_Source\PSoC5/CyLib.c ****         if(0u == ilo100KhzEnable)
 307:Generated_Source\PSoC5/CyLib.c ****         {
 308:Generated_Source\PSoC5/CyLib.c ****             CyILO_Stop100K();
 309:Generated_Source\PSoC5/CyLib.c ****         }
 310:Generated_Source\PSoC5/CyLib.c **** 
 311:Generated_Source\PSoC5/CyLib.c ****         CY_LIB_PM_TW_CFG0_REG = pmFtwCfg0Reg;
 312:Generated_Source\PSoC5/CyLib.c ****         CY_LIB_PM_TW_CFG2_REG = pmFtwCfg2Reg;
 313:Generated_Source\PSoC5/CyLib.c ****     }
 314:Generated_Source\PSoC5/CyLib.c **** }
 315:Generated_Source\PSoC5/CyLib.c **** 
 316:Generated_Source\PSoC5/CyLib.c **** 
 317:Generated_Source\PSoC5/CyLib.c **** /*******************************************************************************
ARM GAS  C:\Users\jens-\AppData\Local\Temp\ccdWTNhT.s 			page 7


 318:Generated_Source\PSoC5/CyLib.c **** * Function Name: CyIMO_Stop
 319:Generated_Source\PSoC5/CyLib.c **** ****************************************************************************//**
 320:Generated_Source\PSoC5/CyLib.c **** *
 321:Generated_Source\PSoC5/CyLib.c **** *   Disables the IMO.
 322:Generated_Source\PSoC5/CyLib.c **** *
 323:Generated_Source\PSoC5/CyLib.c **** *******************************************************************************/
 324:Generated_Source\PSoC5/CyLib.c **** void CyIMO_Stop(void) 
 325:Generated_Source\PSoC5/CyLib.c **** {
 326:Generated_Source\PSoC5/CyLib.c ****     CY_LIB_PM_ACT_CFG0_REG  &= ((uint8) (~CY_LIB_PM_ACT_CFG0_IMO_EN));
 327:Generated_Source\PSoC5/CyLib.c ****     CY_LIB_PM_STBY_CFG0_REG &= ((uint8) (~CY_LIB_PM_STBY_CFG0_IMO_EN));
 328:Generated_Source\PSoC5/CyLib.c **** }
 329:Generated_Source\PSoC5/CyLib.c **** 
 330:Generated_Source\PSoC5/CyLib.c **** 
 331:Generated_Source\PSoC5/CyLib.c **** /*******************************************************************************
 332:Generated_Source\PSoC5/CyLib.c **** * Function Name: CyUSB_PowerOnCheck
 333:Generated_Source\PSoC5/CyLib.c **** ****************************************************************************//**
 334:Generated_Source\PSoC5/CyLib.c **** *
 335:Generated_Source\PSoC5/CyLib.c **** *  Returns the USB power status value. A private function to cy_boot.
 336:Generated_Source\PSoC5/CyLib.c **** *
 337:Generated_Source\PSoC5/CyLib.c **** * \return
 338:Generated_Source\PSoC5/CyLib.c **** *   uint8: one if the USB is enabled, 0 if not enabled.
 339:Generated_Source\PSoC5/CyLib.c **** *
 340:Generated_Source\PSoC5/CyLib.c **** *******************************************************************************/
 341:Generated_Source\PSoC5/CyLib.c **** static uint8 CyUSB_PowerOnCheck(void)  
 342:Generated_Source\PSoC5/CyLib.c **** {
  26              		.loc 1 342 1 view -0
  27              		.cfi_startproc
  28              		@ args = 0, pretend = 0, frame = 0
  29              		@ frame_needed = 0, uses_anonymous_args = 0
  30              		@ link register save eliminated.
 343:Generated_Source\PSoC5/CyLib.c ****     uint8 poweredOn = 0u;
  31              		.loc 1 343 5 view .LVU1
  32              	.LVL0:
 344:Generated_Source\PSoC5/CyLib.c **** 
 345:Generated_Source\PSoC5/CyLib.c ****     /* Check whether device is in Active or AltActive and if USB is powered on */
 346:Generated_Source\PSoC5/CyLib.c ****     if((((CY_PM_MODE_CSR_REG & CY_PM_MODE_CSR_MASK) == CY_PM_MODE_CSR_ACTIVE ) &&
  33              		.loc 1 346 5 view .LVU2
  34              		.loc 1 346 11 is_stmt 0 view .LVU3
  35 0000 0D4B     		ldr	r3, .L8
  36 0002 1B78     		ldrb	r3, [r3]	@ zero_extendqisi2
  37              		.loc 1 346 7 view .LVU4
  38 0004 13F0070F 		tst	r3, #7
  39 0008 04D1     		bne	.L2
 347:Generated_Source\PSoC5/CyLib.c ****        (0u != (CY_LIB_PM_ACT_CFG5_REG & CY_ACT_USB_ENABLED     )))  ||
  40              		.loc 1 347 16 discriminator 1 view .LVU5
  41 000a 0C4B     		ldr	r3, .L8+4
  42 000c 1B78     		ldrb	r3, [r3]	@ zero_extendqisi2
 346:Generated_Source\PSoC5/CyLib.c ****        (0u != (CY_LIB_PM_ACT_CFG5_REG & CY_ACT_USB_ENABLED     )))  ||
  43              		.loc 1 346 80 discriminator 1 view .LVU6
  44 000e 13F0010F 		tst	r3, #1
  45 0012 0DD1     		bne	.L4
  46              	.L2:
 348:Generated_Source\PSoC5/CyLib.c ****        (((CY_PM_MODE_CSR_REG & CY_PM_MODE_CSR_MASK) == CY_PM_MODE_CSR_ALT_ACT) &&
  47              		.loc 1 348 11 view .LVU7
  48 0014 084B     		ldr	r3, .L8
  49 0016 1B78     		ldrb	r3, [r3]	@ zero_extendqisi2
 347:Generated_Source\PSoC5/CyLib.c ****        (0u != (CY_LIB_PM_ACT_CFG5_REG & CY_ACT_USB_ENABLED     )))  ||
ARM GAS  C:\Users\jens-\AppData\Local\Temp\ccdWTNhT.s 			page 8


  50              		.loc 1 347 69 view .LVU8
  51 0018 03F00703 		and	r3, r3, #7
  52 001c 012B     		cmp	r3, #1
  53 001e 01D0     		beq	.L7
 343:Generated_Source\PSoC5/CyLib.c **** 
  54              		.loc 1 343 11 view .LVU9
  55 0020 0020     		movs	r0, #0
  56 0022 7047     		bx	lr
  57              	.L7:
 349:Generated_Source\PSoC5/CyLib.c ****        (0u != (CY_LIB_PM_STBY_CFG5_REG & CY_ALT_ACT_USB_ENABLED))))
  58              		.loc 1 349 16 view .LVU10
  59 0024 064B     		ldr	r3, .L8+8
  60 0026 1878     		ldrb	r0, [r3]	@ zero_extendqisi2
 348:Generated_Source\PSoC5/CyLib.c ****        (((CY_PM_MODE_CSR_REG & CY_PM_MODE_CSR_MASK) == CY_PM_MODE_CSR_ALT_ACT) &&
  61              		.loc 1 348 80 view .LVU11
  62 0028 10F00100 		ands	r0, r0, #1
  63 002c 02D1     		bne	.L6
  64 002e 7047     		bx	lr
  65              	.L4:
 350:Generated_Source\PSoC5/CyLib.c ****     {
 351:Generated_Source\PSoC5/CyLib.c ****         poweredOn = 1u;
  66              		.loc 1 351 19 view .LVU12
  67 0030 0120     		movs	r0, #1
  68 0032 7047     		bx	lr
  69              	.L6:
  70 0034 0120     		movs	r0, #1
  71              	.LVL1:
 352:Generated_Source\PSoC5/CyLib.c ****     }
 353:Generated_Source\PSoC5/CyLib.c **** 
 354:Generated_Source\PSoC5/CyLib.c ****     return (poweredOn);
  72              		.loc 1 354 5 is_stmt 1 view .LVU13
 355:Generated_Source\PSoC5/CyLib.c **** }
  73              		.loc 1 355 1 is_stmt 0 view .LVU14
  74 0036 7047     		bx	lr
  75              	.L9:
  76              		.align	2
  77              	.L8:
  78 0038 93430040 		.word	1073759123
  79 003c A5430040 		.word	1073759141
  80 0040 B5430040 		.word	1073759157
  81              		.cfi_endproc
  82              	.LFE6:
  83              		.size	CyUSB_PowerOnCheck, .-CyUSB_PowerOnCheck
  84              		.section	.text.CyBusClk_Internal_SetDivider,"ax",%progbits
  85              		.align	1
  86              		.syntax unified
  87              		.thumb
  88              		.thumb_func
  89              		.fpu softvfp
  90              		.type	CyBusClk_Internal_SetDivider, %function
  91              	CyBusClk_Internal_SetDivider:
  92              	.LVL2:
  93              	.LFB14:
 356:Generated_Source\PSoC5/CyLib.c **** 
 357:Generated_Source\PSoC5/CyLib.c **** 
 358:Generated_Source\PSoC5/CyLib.c **** /*******************************************************************************
 359:Generated_Source\PSoC5/CyLib.c **** * Function Name: CyIMO_SetTrimValue
ARM GAS  C:\Users\jens-\AppData\Local\Temp\ccdWTNhT.s 			page 9


 360:Generated_Source\PSoC5/CyLib.c **** ****************************************************************************//**
 361:Generated_Source\PSoC5/CyLib.c **** *
 362:Generated_Source\PSoC5/CyLib.c **** *  Sets the IMO factory trim values.
 363:Generated_Source\PSoC5/CyLib.c **** *
 364:Generated_Source\PSoC5/CyLib.c **** *  uint8 freq - frequency for which trims must be set
 365:Generated_Source\PSoC5/CyLib.c **** *
 366:Generated_Source\PSoC5/CyLib.c **** *******************************************************************************/
 367:Generated_Source\PSoC5/CyLib.c **** static void CyIMO_SetTrimValue(uint8 freq) 
 368:Generated_Source\PSoC5/CyLib.c **** {
 369:Generated_Source\PSoC5/CyLib.c ****     uint8 usbPowerOn = CyUSB_PowerOnCheck();
 370:Generated_Source\PSoC5/CyLib.c **** 
 371:Generated_Source\PSoC5/CyLib.c ****     /* If USB is powered */
 372:Generated_Source\PSoC5/CyLib.c ****     if(usbPowerOn == 1u)
 373:Generated_Source\PSoC5/CyLib.c ****     {
 374:Generated_Source\PSoC5/CyLib.c ****         /* Unlock USB write */
 375:Generated_Source\PSoC5/CyLib.c ****         CY_LIB_USB_CR1_REG &= ((uint8)(~CY_LIB_USB_CLK_EN));
 376:Generated_Source\PSoC5/CyLib.c ****     }
 377:Generated_Source\PSoC5/CyLib.c ****     switch(freq)
 378:Generated_Source\PSoC5/CyLib.c ****     {
 379:Generated_Source\PSoC5/CyLib.c ****     case CY_IMO_FREQ_3MHZ:
 380:Generated_Source\PSoC5/CyLib.c ****         CY_LIB_IMO_TR1_REG = CY_GET_XTND_REG8(CY_LIB_TRIM_IMO_3MHZ_PTR);
 381:Generated_Source\PSoC5/CyLib.c ****         break;
 382:Generated_Source\PSoC5/CyLib.c **** 
 383:Generated_Source\PSoC5/CyLib.c ****     case CY_IMO_FREQ_6MHZ:
 384:Generated_Source\PSoC5/CyLib.c ****         CY_LIB_IMO_TR1_REG = CY_GET_XTND_REG8(CY_LIB_TRIM_IMO_6MHZ_PTR);
 385:Generated_Source\PSoC5/CyLib.c ****         break;
 386:Generated_Source\PSoC5/CyLib.c **** 
 387:Generated_Source\PSoC5/CyLib.c ****     case CY_IMO_FREQ_12MHZ:
 388:Generated_Source\PSoC5/CyLib.c ****         CY_LIB_IMO_TR1_REG = CY_GET_XTND_REG8(CY_LIB_TRIM_IMO_12MHZ_PTR);
 389:Generated_Source\PSoC5/CyLib.c ****         break;
 390:Generated_Source\PSoC5/CyLib.c **** 
 391:Generated_Source\PSoC5/CyLib.c ****     case CY_IMO_FREQ_24MHZ:
 392:Generated_Source\PSoC5/CyLib.c ****         CY_LIB_IMO_TR1_REG = CY_GET_XTND_REG8(CY_LIB_TRIM_IMO_24MHZ_PTR);
 393:Generated_Source\PSoC5/CyLib.c ****         break;
 394:Generated_Source\PSoC5/CyLib.c **** 
 395:Generated_Source\PSoC5/CyLib.c ****     case CY_IMO_FREQ_48MHZ:
 396:Generated_Source\PSoC5/CyLib.c ****         CY_LIB_IMO_TR1_REG = CY_GET_XTND_REG8(CY_LIB_TRIM_IMO_TR1_PTR);
 397:Generated_Source\PSoC5/CyLib.c ****         break;
 398:Generated_Source\PSoC5/CyLib.c **** 
 399:Generated_Source\PSoC5/CyLib.c ****     case CY_IMO_FREQ_62MHZ:
 400:Generated_Source\PSoC5/CyLib.c ****         CY_LIB_IMO_TR1_REG = CY_GET_XTND_REG8(CY_LIB_TRIM_IMO_67MHZ_PTR);
 401:Generated_Source\PSoC5/CyLib.c ****         break;
 402:Generated_Source\PSoC5/CyLib.c **** 
 403:Generated_Source\PSoC5/CyLib.c **** #if(CY_PSOC5)
 404:Generated_Source\PSoC5/CyLib.c ****     case CY_IMO_FREQ_74MHZ:
 405:Generated_Source\PSoC5/CyLib.c ****         CY_LIB_IMO_TR1_REG = CY_GET_XTND_REG8(CY_LIB_TRIM_IMO_80MHZ_PTR);
 406:Generated_Source\PSoC5/CyLib.c ****         break;
 407:Generated_Source\PSoC5/CyLib.c **** #endif  /* (CY_PSOC5) */
 408:Generated_Source\PSoC5/CyLib.c **** 
 409:Generated_Source\PSoC5/CyLib.c ****     case CY_IMO_FREQ_USB:
 410:Generated_Source\PSoC5/CyLib.c ****         CY_LIB_IMO_TR1_REG = CY_GET_XTND_REG8(CY_LIB_TRIM_IMO_USB_PTR);
 411:Generated_Source\PSoC5/CyLib.c **** 
 412:Generated_Source\PSoC5/CyLib.c ****         /* If USB is powered */
 413:Generated_Source\PSoC5/CyLib.c ****         if(usbPowerOn == 1u)
 414:Generated_Source\PSoC5/CyLib.c ****         {
 415:Generated_Source\PSoC5/CyLib.c ****             /* Lock USB Oscillator */
 416:Generated_Source\PSoC5/CyLib.c ****             CY_LIB_USB_CR1_REG |= CY_LIB_USB_CLK_EN;
ARM GAS  C:\Users\jens-\AppData\Local\Temp\ccdWTNhT.s 			page 10


 417:Generated_Source\PSoC5/CyLib.c ****         }
 418:Generated_Source\PSoC5/CyLib.c ****         break;
 419:Generated_Source\PSoC5/CyLib.c **** 
 420:Generated_Source\PSoC5/CyLib.c ****     default:
 421:Generated_Source\PSoC5/CyLib.c ****             CYASSERT(0u != 0u);
 422:Generated_Source\PSoC5/CyLib.c ****         break;
 423:Generated_Source\PSoC5/CyLib.c ****     }
 424:Generated_Source\PSoC5/CyLib.c **** 
 425:Generated_Source\PSoC5/CyLib.c **** }
 426:Generated_Source\PSoC5/CyLib.c **** 
 427:Generated_Source\PSoC5/CyLib.c **** 
 428:Generated_Source\PSoC5/CyLib.c **** /*******************************************************************************
 429:Generated_Source\PSoC5/CyLib.c **** * Function Name: CyIMO_SetFreq
 430:Generated_Source\PSoC5/CyLib.c **** ****************************************************************************//**
 431:Generated_Source\PSoC5/CyLib.c **** *
 432:Generated_Source\PSoC5/CyLib.c **** *  Sets the frequency of the IMO. Changes may be made while the IMO is running.
 433:Generated_Source\PSoC5/CyLib.c **** *
 434:Generated_Source\PSoC5/CyLib.c **** *  \param freq: Frequency of IMO operation
 435:Generated_Source\PSoC5/CyLib.c **** *       CY_IMO_FREQ_3MHZ  to set  3   MHz
 436:Generated_Source\PSoC5/CyLib.c **** *       CY_IMO_FREQ_6MHZ  to set  6   MHz
 437:Generated_Source\PSoC5/CyLib.c **** *       CY_IMO_FREQ_12MHZ to set 12   MHz
 438:Generated_Source\PSoC5/CyLib.c **** *       CY_IMO_FREQ_24MHZ to set 24   MHz
 439:Generated_Source\PSoC5/CyLib.c **** *       CY_IMO_FREQ_48MHZ to set 48   MHz
 440:Generated_Source\PSoC5/CyLib.c **** *       CY_IMO_FREQ_62MHZ to set 62.6 MHz
 441:Generated_Source\PSoC5/CyLib.c **** *       CY_IMO_FREQ_74MHZ to set 74.7 MHz (not applicable for PSoC 3)
 442:Generated_Source\PSoC5/CyLib.c **** *       CY_IMO_FREQ_USB   to set 24   MHz (Trimmed for USB operation)
 443:Generated_Source\PSoC5/CyLib.c **** *
 444:Generated_Source\PSoC5/CyLib.c **** * \sideeffect
 445:Generated_Source\PSoC5/CyLib.c **** *  If this function execution results in the CPU clock frequency increasing,
 446:Generated_Source\PSoC5/CyLib.c **** *  then the number of clock cycles the cache will wait before it samples data
 447:Generated_Source\PSoC5/CyLib.c **** *  coming back from the Flash must be adjusted by calling
 448:Generated_Source\PSoC5/CyLib.c **** *  CyFlash_SetWaitCycles() with an appropriate parameter. It can be optionally
 449:Generated_Source\PSoC5/CyLib.c **** *  called if the CPU clock frequency is lowered in order to improve the CPU
 450:Generated_Source\PSoC5/CyLib.c **** *  performance. See CyFlash_SetWaitCycles() description for more information.
 451:Generated_Source\PSoC5/CyLib.c **** *
 452:Generated_Source\PSoC5/CyLib.c **** *  When the USB setting is chosen, the USB clock locking circuit is enabled.
 453:Generated_Source\PSoC5/CyLib.c **** *  Otherwise this circuit is disabled. The USB block must be powered before
 454:Generated_Source\PSoC5/CyLib.c **** *  selecting the USB setting.
 455:Generated_Source\PSoC5/CyLib.c **** *
 456:Generated_Source\PSoC5/CyLib.c **** *******************************************************************************/
 457:Generated_Source\PSoC5/CyLib.c **** void CyIMO_SetFreq(uint8 freq) 
 458:Generated_Source\PSoC5/CyLib.c **** {
 459:Generated_Source\PSoC5/CyLib.c ****     uint8 currentFreq;
 460:Generated_Source\PSoC5/CyLib.c ****     uint8 nextFreq;
 461:Generated_Source\PSoC5/CyLib.c **** 
 462:Generated_Source\PSoC5/CyLib.c ****     /***************************************************************************
 463:Generated_Source\PSoC5/CyLib.c ****     * If the IMO frequency is changed,the Trim values must also be set
 464:Generated_Source\PSoC5/CyLib.c ****     * accordingly.This requires reading the current frequency. If the new
 465:Generated_Source\PSoC5/CyLib.c ****     * frequency is faster, then set a new trim and then change the frequency,
 466:Generated_Source\PSoC5/CyLib.c ****     * otherwise change the frequency and then set new trim values.
 467:Generated_Source\PSoC5/CyLib.c ****     ***************************************************************************/
 468:Generated_Source\PSoC5/CyLib.c **** 
 469:Generated_Source\PSoC5/CyLib.c ****     currentFreq = CY_LIB_FASTCLK_IMO_CR_REG & ((uint8)(~CY_LIB_FASTCLK_IMO_CR_RANGE_MASK));
 470:Generated_Source\PSoC5/CyLib.c **** 
 471:Generated_Source\PSoC5/CyLib.c ****     /* Check if requested frequency is USB. */
 472:Generated_Source\PSoC5/CyLib.c ****     nextFreq = (freq == CY_IMO_FREQ_USB) ? CY_IMO_FREQ_24MHZ : freq;
 473:Generated_Source\PSoC5/CyLib.c **** 
ARM GAS  C:\Users\jens-\AppData\Local\Temp\ccdWTNhT.s 			page 11


 474:Generated_Source\PSoC5/CyLib.c ****     switch (currentFreq)
 475:Generated_Source\PSoC5/CyLib.c ****     {
 476:Generated_Source\PSoC5/CyLib.c ****     case 0u:
 477:Generated_Source\PSoC5/CyLib.c ****         currentFreq = CY_IMO_FREQ_12MHZ;
 478:Generated_Source\PSoC5/CyLib.c ****         break;
 479:Generated_Source\PSoC5/CyLib.c **** 
 480:Generated_Source\PSoC5/CyLib.c ****     case 1u:
 481:Generated_Source\PSoC5/CyLib.c ****         currentFreq = CY_IMO_FREQ_6MHZ;
 482:Generated_Source\PSoC5/CyLib.c ****         break;
 483:Generated_Source\PSoC5/CyLib.c **** 
 484:Generated_Source\PSoC5/CyLib.c ****     case 2u:
 485:Generated_Source\PSoC5/CyLib.c ****         currentFreq = CY_IMO_FREQ_24MHZ;
 486:Generated_Source\PSoC5/CyLib.c ****         break;
 487:Generated_Source\PSoC5/CyLib.c **** 
 488:Generated_Source\PSoC5/CyLib.c ****     case 3u:
 489:Generated_Source\PSoC5/CyLib.c ****         currentFreq = CY_IMO_FREQ_3MHZ;
 490:Generated_Source\PSoC5/CyLib.c ****         break;
 491:Generated_Source\PSoC5/CyLib.c **** 
 492:Generated_Source\PSoC5/CyLib.c ****     case 4u:
 493:Generated_Source\PSoC5/CyLib.c ****         currentFreq = CY_IMO_FREQ_48MHZ;
 494:Generated_Source\PSoC5/CyLib.c ****         break;
 495:Generated_Source\PSoC5/CyLib.c **** 
 496:Generated_Source\PSoC5/CyLib.c ****     case 5u:
 497:Generated_Source\PSoC5/CyLib.c ****         currentFreq = CY_IMO_FREQ_62MHZ;
 498:Generated_Source\PSoC5/CyLib.c ****         break;
 499:Generated_Source\PSoC5/CyLib.c **** 
 500:Generated_Source\PSoC5/CyLib.c **** #if(CY_PSOC5)
 501:Generated_Source\PSoC5/CyLib.c ****     case 6u:
 502:Generated_Source\PSoC5/CyLib.c ****         currentFreq = CY_IMO_FREQ_74MHZ;
 503:Generated_Source\PSoC5/CyLib.c ****         break;
 504:Generated_Source\PSoC5/CyLib.c **** #endif  /* (CY_PSOC5) */
 505:Generated_Source\PSoC5/CyLib.c **** 
 506:Generated_Source\PSoC5/CyLib.c ****     default:
 507:Generated_Source\PSoC5/CyLib.c ****         CYASSERT(0u != 0u);
 508:Generated_Source\PSoC5/CyLib.c ****         break;
 509:Generated_Source\PSoC5/CyLib.c ****     }
 510:Generated_Source\PSoC5/CyLib.c **** 
 511:Generated_Source\PSoC5/CyLib.c ****     if (nextFreq >= currentFreq)
 512:Generated_Source\PSoC5/CyLib.c ****     {
 513:Generated_Source\PSoC5/CyLib.c ****         /* Set new trim first */
 514:Generated_Source\PSoC5/CyLib.c ****         CyIMO_SetTrimValue(freq);
 515:Generated_Source\PSoC5/CyLib.c ****     }
 516:Generated_Source\PSoC5/CyLib.c **** 
 517:Generated_Source\PSoC5/CyLib.c ****     /* Set usbclk_on bit when using CY_IMO_FREQ_USB, if not clear it */
 518:Generated_Source\PSoC5/CyLib.c ****     switch(freq)
 519:Generated_Source\PSoC5/CyLib.c ****     {
 520:Generated_Source\PSoC5/CyLib.c ****     case CY_IMO_FREQ_3MHZ:
 521:Generated_Source\PSoC5/CyLib.c ****         CY_LIB_FASTCLK_IMO_CR_REG = ((CY_LIB_FASTCLK_IMO_CR_REG & CY_LIB_FASTCLK_IMO_CR_RANGE_MASK)
 522:Generated_Source\PSoC5/CyLib.c ****             CY_LIB_IMO_3MHZ_VALUE) & ((uint8)(~CY_LIB_IMO_USBCLK_ON_SET));
 523:Generated_Source\PSoC5/CyLib.c ****         break;
 524:Generated_Source\PSoC5/CyLib.c **** 
 525:Generated_Source\PSoC5/CyLib.c ****     case CY_IMO_FREQ_6MHZ:
 526:Generated_Source\PSoC5/CyLib.c ****         CY_LIB_FASTCLK_IMO_CR_REG = ((CY_LIB_FASTCLK_IMO_CR_REG & CY_LIB_FASTCLK_IMO_CR_RANGE_MASK)
 527:Generated_Source\PSoC5/CyLib.c ****             CY_LIB_IMO_6MHZ_VALUE) & ((uint8)(~CY_LIB_IMO_USBCLK_ON_SET));
 528:Generated_Source\PSoC5/CyLib.c ****         break;
 529:Generated_Source\PSoC5/CyLib.c **** 
 530:Generated_Source\PSoC5/CyLib.c ****     case CY_IMO_FREQ_12MHZ:
ARM GAS  C:\Users\jens-\AppData\Local\Temp\ccdWTNhT.s 			page 12


 531:Generated_Source\PSoC5/CyLib.c ****         CY_LIB_FASTCLK_IMO_CR_REG = ((CY_LIB_FASTCLK_IMO_CR_REG & CY_LIB_FASTCLK_IMO_CR_RANGE_MASK)
 532:Generated_Source\PSoC5/CyLib.c ****             CY_LIB_IMO_12MHZ_VALUE) & ((uint8)(~CY_LIB_IMO_USBCLK_ON_SET));
 533:Generated_Source\PSoC5/CyLib.c ****         break;
 534:Generated_Source\PSoC5/CyLib.c **** 
 535:Generated_Source\PSoC5/CyLib.c ****     case CY_IMO_FREQ_24MHZ:
 536:Generated_Source\PSoC5/CyLib.c ****         CY_LIB_FASTCLK_IMO_CR_REG = ((CY_LIB_FASTCLK_IMO_CR_REG & CY_LIB_FASTCLK_IMO_CR_RANGE_MASK)
 537:Generated_Source\PSoC5/CyLib.c ****             CY_LIB_IMO_24MHZ_VALUE) & ((uint8)(~CY_LIB_IMO_USBCLK_ON_SET));
 538:Generated_Source\PSoC5/CyLib.c ****         break;
 539:Generated_Source\PSoC5/CyLib.c **** 
 540:Generated_Source\PSoC5/CyLib.c ****     case CY_IMO_FREQ_48MHZ:
 541:Generated_Source\PSoC5/CyLib.c ****         CY_LIB_FASTCLK_IMO_CR_REG = ((CY_LIB_FASTCLK_IMO_CR_REG & CY_LIB_FASTCLK_IMO_CR_RANGE_MASK)
 542:Generated_Source\PSoC5/CyLib.c ****             CY_LIB_IMO_48MHZ_VALUE) & ((uint8)(~CY_LIB_IMO_USBCLK_ON_SET));
 543:Generated_Source\PSoC5/CyLib.c ****         break;
 544:Generated_Source\PSoC5/CyLib.c **** 
 545:Generated_Source\PSoC5/CyLib.c ****     case CY_IMO_FREQ_62MHZ:
 546:Generated_Source\PSoC5/CyLib.c ****         CY_LIB_FASTCLK_IMO_CR_REG = ((CY_LIB_FASTCLK_IMO_CR_REG & CY_LIB_FASTCLK_IMO_CR_RANGE_MASK)
 547:Generated_Source\PSoC5/CyLib.c ****             CY_LIB_IMO_62MHZ_VALUE) & ((uint8)(~CY_LIB_IMO_USBCLK_ON_SET));
 548:Generated_Source\PSoC5/CyLib.c ****         break;
 549:Generated_Source\PSoC5/CyLib.c **** 
 550:Generated_Source\PSoC5/CyLib.c **** #if(CY_PSOC5)
 551:Generated_Source\PSoC5/CyLib.c ****     case CY_IMO_FREQ_74MHZ:
 552:Generated_Source\PSoC5/CyLib.c ****         CY_LIB_FASTCLK_IMO_CR_REG = ((CY_LIB_FASTCLK_IMO_CR_REG & CY_LIB_FASTCLK_IMO_CR_RANGE_MASK)
 553:Generated_Source\PSoC5/CyLib.c ****             CY_LIB_IMO_74MHZ_VALUE) & ((uint8)(~CY_LIB_IMO_USBCLK_ON_SET));
 554:Generated_Source\PSoC5/CyLib.c ****         break;
 555:Generated_Source\PSoC5/CyLib.c **** #endif  /* (CY_PSOC5) */
 556:Generated_Source\PSoC5/CyLib.c **** 
 557:Generated_Source\PSoC5/CyLib.c ****     case CY_IMO_FREQ_USB:
 558:Generated_Source\PSoC5/CyLib.c ****         CY_LIB_FASTCLK_IMO_CR_REG = ((CY_LIB_FASTCLK_IMO_CR_REG & CY_LIB_FASTCLK_IMO_CR_RANGE_MASK)
 559:Generated_Source\PSoC5/CyLib.c ****             CY_LIB_IMO_24MHZ_VALUE) | CY_LIB_IMO_USBCLK_ON_SET;
 560:Generated_Source\PSoC5/CyLib.c ****         break;
 561:Generated_Source\PSoC5/CyLib.c **** 
 562:Generated_Source\PSoC5/CyLib.c ****     default:
 563:Generated_Source\PSoC5/CyLib.c ****         CYASSERT(0u != 0u);
 564:Generated_Source\PSoC5/CyLib.c ****         break;
 565:Generated_Source\PSoC5/CyLib.c ****     }
 566:Generated_Source\PSoC5/CyLib.c **** 
 567:Generated_Source\PSoC5/CyLib.c ****     /* Tu rn onIMO Doubler, if switching to CY_IMO_FREQ_USB */
 568:Generated_Source\PSoC5/CyLib.c ****     if (freq == CY_IMO_FREQ_USB)
 569:Generated_Source\PSoC5/CyLib.c ****     {
 570:Generated_Source\PSoC5/CyLib.c ****         CyIMO_EnableDoubler();
 571:Generated_Source\PSoC5/CyLib.c ****     }
 572:Generated_Source\PSoC5/CyLib.c ****     else
 573:Generated_Source\PSoC5/CyLib.c ****     {
 574:Generated_Source\PSoC5/CyLib.c ****         CyIMO_DisableDoubler();
 575:Generated_Source\PSoC5/CyLib.c ****     }
 576:Generated_Source\PSoC5/CyLib.c **** 
 577:Generated_Source\PSoC5/CyLib.c ****     if (nextFreq < currentFreq)
 578:Generated_Source\PSoC5/CyLib.c ****     {
 579:Generated_Source\PSoC5/CyLib.c ****         /* Set the trim after setting frequency */
 580:Generated_Source\PSoC5/CyLib.c ****         CyIMO_SetTrimValue(freq);
 581:Generated_Source\PSoC5/CyLib.c ****     }
 582:Generated_Source\PSoC5/CyLib.c **** }
 583:Generated_Source\PSoC5/CyLib.c **** 
 584:Generated_Source\PSoC5/CyLib.c **** 
 585:Generated_Source\PSoC5/CyLib.c **** /*******************************************************************************
 586:Generated_Source\PSoC5/CyLib.c **** * Function Name: CyIMO_SetSource
 587:Generated_Source\PSoC5/CyLib.c **** ****************************************************************************//**
ARM GAS  C:\Users\jens-\AppData\Local\Temp\ccdWTNhT.s 			page 13


 588:Generated_Source\PSoC5/CyLib.c **** *
 589:Generated_Source\PSoC5/CyLib.c **** *  Sets the source of the clock output from the IMO block.
 590:Generated_Source\PSoC5/CyLib.c **** *
 591:Generated_Source\PSoC5/CyLib.c **** *  The output from the IMO is by default the IMO itself. Optionally the MHz
 592:Generated_Source\PSoC5/CyLib.c **** *  Crystal or DSI input can be the source of the IMO output instead.
 593:Generated_Source\PSoC5/CyLib.c **** *
 594:Generated_Source\PSoC5/CyLib.c **** *   \param source: CY_IMO_SOURCE_DSI to set the DSI as source.
 595:Generated_Source\PSoC5/CyLib.c **** *           CY_IMO_SOURCE_XTAL to set the MHz as source.
 596:Generated_Source\PSoC5/CyLib.c **** *           CY_IMO_SOURCE_IMO to set the IMO itself.
 597:Generated_Source\PSoC5/CyLib.c **** *
 598:Generated_Source\PSoC5/CyLib.c **** * \sideeffect
 599:Generated_Source\PSoC5/CyLib.c **** *  If this function execution resulted in the CPU clock frequency increasing,
 600:Generated_Source\PSoC5/CyLib.c **** *  then the number of clock cycles the cache will wait before it samples data
 601:Generated_Source\PSoC5/CyLib.c **** *  coming back from the Flash must be adjusted by calling
 602:Generated_Source\PSoC5/CyLib.c **** *  CyFlash_SetWaitCycles() with an appropriate parameter. It can be optionally
 603:Generated_Source\PSoC5/CyLib.c **** *  called if the CPU clock frequency is lowered in order to improve the CPU
 604:Generated_Source\PSoC5/CyLib.c **** *  performance. See CyFlash_SetWaitCycles() description for more information.
 605:Generated_Source\PSoC5/CyLib.c **** *
 606:Generated_Source\PSoC5/CyLib.c **** *******************************************************************************/
 607:Generated_Source\PSoC5/CyLib.c **** void CyIMO_SetSource(uint8 source) 
 608:Generated_Source\PSoC5/CyLib.c **** {
 609:Generated_Source\PSoC5/CyLib.c ****     switch(source)
 610:Generated_Source\PSoC5/CyLib.c ****     {
 611:Generated_Source\PSoC5/CyLib.c ****     case CY_IMO_SOURCE_DSI:
 612:Generated_Source\PSoC5/CyLib.c ****         CY_LIB_CLKDIST_CR_REG     &= ((uint8)(~CY_LIB_CLKDIST_CR_IMO2X));
 613:Generated_Source\PSoC5/CyLib.c ****         CY_LIB_FASTCLK_IMO_CR_REG |= CY_LIB_FASTCLK_IMO_IMO;
 614:Generated_Source\PSoC5/CyLib.c ****         break;
 615:Generated_Source\PSoC5/CyLib.c **** 
 616:Generated_Source\PSoC5/CyLib.c ****     case CY_IMO_SOURCE_XTAL:
 617:Generated_Source\PSoC5/CyLib.c ****         CY_LIB_CLKDIST_CR_REG     |= CY_LIB_CLKDIST_CR_IMO2X;
 618:Generated_Source\PSoC5/CyLib.c ****         CY_LIB_FASTCLK_IMO_CR_REG |= CY_LIB_FASTCLK_IMO_IMO;
 619:Generated_Source\PSoC5/CyLib.c ****         break;
 620:Generated_Source\PSoC5/CyLib.c **** 
 621:Generated_Source\PSoC5/CyLib.c ****     case CY_IMO_SOURCE_IMO:
 622:Generated_Source\PSoC5/CyLib.c ****         CY_LIB_FASTCLK_IMO_CR_REG &= ((uint8)(~CY_LIB_FASTCLK_IMO_IMO));
 623:Generated_Source\PSoC5/CyLib.c ****         break;
 624:Generated_Source\PSoC5/CyLib.c **** 
 625:Generated_Source\PSoC5/CyLib.c ****     default:
 626:Generated_Source\PSoC5/CyLib.c ****         /* Incorrect source value */
 627:Generated_Source\PSoC5/CyLib.c ****         CYASSERT(0u != 0u);
 628:Generated_Source\PSoC5/CyLib.c ****         break;
 629:Generated_Source\PSoC5/CyLib.c ****     }
 630:Generated_Source\PSoC5/CyLib.c **** }
 631:Generated_Source\PSoC5/CyLib.c **** 
 632:Generated_Source\PSoC5/CyLib.c **** 
 633:Generated_Source\PSoC5/CyLib.c **** /*******************************************************************************
 634:Generated_Source\PSoC5/CyLib.c **** * Function Name: CyIMO_EnableDoubler
 635:Generated_Source\PSoC5/CyLib.c **** ****************************************************************************//**
 636:Generated_Source\PSoC5/CyLib.c **** *
 637:Generated_Source\PSoC5/CyLib.c **** *  Enables the IMO doubler.  The 2x frequency clock is used to convert a 24 MHz
 638:Generated_Source\PSoC5/CyLib.c **** *  input to a 48 MHz output for use by the USB block.
 639:Generated_Source\PSoC5/CyLib.c **** *
 640:Generated_Source\PSoC5/CyLib.c **** *******************************************************************************/
 641:Generated_Source\PSoC5/CyLib.c **** void CyIMO_EnableDoubler(void) 
 642:Generated_Source\PSoC5/CyLib.c **** {
 643:Generated_Source\PSoC5/CyLib.c ****     /* Set FASTCLK_IMO_CR_PTR regigster's 4th bit */
 644:Generated_Source\PSoC5/CyLib.c ****     CY_LIB_FASTCLK_IMO_CR_REG |= CY_LIB_FASTCLK_IMO_DOUBLER;
ARM GAS  C:\Users\jens-\AppData\Local\Temp\ccdWTNhT.s 			page 14


 645:Generated_Source\PSoC5/CyLib.c **** }
 646:Generated_Source\PSoC5/CyLib.c **** 
 647:Generated_Source\PSoC5/CyLib.c **** 
 648:Generated_Source\PSoC5/CyLib.c **** /*******************************************************************************
 649:Generated_Source\PSoC5/CyLib.c **** * Function Name: CyIMO_DisableDoubler
 650:Generated_Source\PSoC5/CyLib.c **** ****************************************************************************//**
 651:Generated_Source\PSoC5/CyLib.c **** *
 652:Generated_Source\PSoC5/CyLib.c **** *   Disables the IMO doubler.
 653:Generated_Source\PSoC5/CyLib.c **** *
 654:Generated_Source\PSoC5/CyLib.c **** *******************************************************************************/
 655:Generated_Source\PSoC5/CyLib.c **** void CyIMO_DisableDoubler(void) 
 656:Generated_Source\PSoC5/CyLib.c **** {
 657:Generated_Source\PSoC5/CyLib.c ****     CY_LIB_FASTCLK_IMO_CR_REG &= ((uint8)(~CY_LIB_FASTCLK_IMO_DOUBLER));
 658:Generated_Source\PSoC5/CyLib.c **** }
 659:Generated_Source\PSoC5/CyLib.c **** 
 660:Generated_Source\PSoC5/CyLib.c **** 
 661:Generated_Source\PSoC5/CyLib.c **** /*******************************************************************************
 662:Generated_Source\PSoC5/CyLib.c **** * Function Name: CyMasterClk_SetSource
 663:Generated_Source\PSoC5/CyLib.c **** ****************************************************************************//**
 664:Generated_Source\PSoC5/CyLib.c **** *
 665:Generated_Source\PSoC5/CyLib.c **** *  Sets the source of the master clock.
 666:Generated_Source\PSoC5/CyLib.c **** *
 667:Generated_Source\PSoC5/CyLib.c **** *   \param source: One of the four available Master clock sources.
 668:Generated_Source\PSoC5/CyLib.c **** *     CY_MASTER_SOURCE_IMO
 669:Generated_Source\PSoC5/CyLib.c **** *     CY_MASTER_SOURCE_PLL
 670:Generated_Source\PSoC5/CyLib.c **** *     CY_MASTER_SOURCE_XTAL
 671:Generated_Source\PSoC5/CyLib.c **** *     CY_MASTER_SOURCE_DSI
 672:Generated_Source\PSoC5/CyLib.c **** *
 673:Generated_Source\PSoC5/CyLib.c **** * \sideeffect
 674:Generated_Source\PSoC5/CyLib.c **** *  The current source and the new source must both be running and stable before
 675:Generated_Source\PSoC5/CyLib.c **** *  calling this function.
 676:Generated_Source\PSoC5/CyLib.c **** *
 677:Generated_Source\PSoC5/CyLib.c **** *  If this function execution resulted in the CPU clock frequency increasing,
 678:Generated_Source\PSoC5/CyLib.c **** *  then the number of clock cycles the cache will wait before it samples data
 679:Generated_Source\PSoC5/CyLib.c **** *  coming back from the Flash must be adjusted by calling
 680:Generated_Source\PSoC5/CyLib.c **** *  CyFlash_SetWaitCycles() with an appropriate parameter. It can be optionally
 681:Generated_Source\PSoC5/CyLib.c **** *  called if the CPU clock frequency is lowered in order to improve the CPU
 682:Generated_Source\PSoC5/CyLib.c **** *  performance. See CyFlash_SetWaitCycles() description for more information.
 683:Generated_Source\PSoC5/CyLib.c **** *
 684:Generated_Source\PSoC5/CyLib.c **** *******************************************************************************/
 685:Generated_Source\PSoC5/CyLib.c **** void CyMasterClk_SetSource(uint8 source) 
 686:Generated_Source\PSoC5/CyLib.c **** {
 687:Generated_Source\PSoC5/CyLib.c ****     CY_LIB_CLKDIST_MSTR1_REG = (CY_LIB_CLKDIST_MSTR1_REG & MASTER_CLK_SRC_CLEAR) |
 688:Generated_Source\PSoC5/CyLib.c ****                                 (source & ((uint8)(~MASTER_CLK_SRC_CLEAR)));
 689:Generated_Source\PSoC5/CyLib.c **** }
 690:Generated_Source\PSoC5/CyLib.c **** 
 691:Generated_Source\PSoC5/CyLib.c **** 
 692:Generated_Source\PSoC5/CyLib.c **** /*******************************************************************************
 693:Generated_Source\PSoC5/CyLib.c **** * Function Name: CyMasterClk_SetDivider
 694:Generated_Source\PSoC5/CyLib.c **** ****************************************************************************//**
 695:Generated_Source\PSoC5/CyLib.c **** *
 696:Generated_Source\PSoC5/CyLib.c **** *  Sets the divider value used to generate Master Clock.
 697:Generated_Source\PSoC5/CyLib.c **** *
 698:Generated_Source\PSoC5/CyLib.c **** *  \param uint8 divider:
 699:Generated_Source\PSoC5/CyLib.c **** *   The valid range is [0-255]. The clock will be divided by this value + 1.
 700:Generated_Source\PSoC5/CyLib.c **** *   For example to divide this parameter by two should be set to 1.
 701:Generated_Source\PSoC5/CyLib.c **** *
ARM GAS  C:\Users\jens-\AppData\Local\Temp\ccdWTNhT.s 			page 15


 702:Generated_Source\PSoC5/CyLib.c **** * \sideeffect
 703:Generated_Source\PSoC5/CyLib.c **** *  If this function execution resulted in the CPU clock frequency increasing,
 704:Generated_Source\PSoC5/CyLib.c **** *  then the number of clock cycles the cache will wait before it samples data
 705:Generated_Source\PSoC5/CyLib.c **** *  coming back from the Flash must be adjusted by calling
 706:Generated_Source\PSoC5/CyLib.c **** *  CyFlash_SetWaitCycles() with an appropriate parameter. It can be optionally
 707:Generated_Source\PSoC5/CyLib.c **** *  called if the CPU clock frequency is lowered in order to improve the CPU
 708:Generated_Source\PSoC5/CyLib.c **** *  performance. See CyFlash_SetWaitCycles() description for more information.
 709:Generated_Source\PSoC5/CyLib.c **** *
 710:Generated_Source\PSoC5/CyLib.c **** *  When changing the Master or Bus clock divider value from div-by-n to div-by-1
 711:Generated_Source\PSoC5/CyLib.c **** *  the first clock cycle output after the div-by-1 can be up to 4 ns shorter
 712:Generated_Source\PSoC5/CyLib.c **** *  than the final/expected div-by-1 period.
 713:Generated_Source\PSoC5/CyLib.c **** *
 714:Generated_Source\PSoC5/CyLib.c **** *******************************************************************************/
 715:Generated_Source\PSoC5/CyLib.c **** void CyMasterClk_SetDivider(uint8 divider) 
 716:Generated_Source\PSoC5/CyLib.c **** {
 717:Generated_Source\PSoC5/CyLib.c ****     CY_LIB_CLKDIST_MSTR0_REG = divider;
 718:Generated_Source\PSoC5/CyLib.c **** }
 719:Generated_Source\PSoC5/CyLib.c **** 
 720:Generated_Source\PSoC5/CyLib.c **** 
 721:Generated_Source\PSoC5/CyLib.c **** /*******************************************************************************
 722:Generated_Source\PSoC5/CyLib.c **** * Function Name: CyBusClk_Internal_SetDivider
 723:Generated_Source\PSoC5/CyLib.c **** ****************************************************************************//**
 724:Generated_Source\PSoC5/CyLib.c **** *
 725:Generated_Source\PSoC5/CyLib.c **** *  The function used by CyBusClk_SetDivider(). For internal use only.
 726:Generated_Source\PSoC5/CyLib.c **** *
 727:Generated_Source\PSoC5/CyLib.c **** *   \param divider: Valid range [0-65535].
 728:Generated_Source\PSoC5/CyLib.c **** *   The clock will be divided by this value + 1.
 729:Generated_Source\PSoC5/CyLib.c **** *   For example, to divide this parameter by two should be set to 1.
 730:Generated_Source\PSoC5/CyLib.c **** *
 731:Generated_Source\PSoC5/CyLib.c **** *******************************************************************************/
 732:Generated_Source\PSoC5/CyLib.c **** static void CyBusClk_Internal_SetDivider(uint16 divider)
 733:Generated_Source\PSoC5/CyLib.c **** {
  94              		.loc 1 733 1 is_stmt 1 view -0
  95              		.cfi_startproc
  96              		@ args = 0, pretend = 0, frame = 0
  97              		@ frame_needed = 0, uses_anonymous_args = 0
  98              		@ link register save eliminated.
 734:Generated_Source\PSoC5/CyLib.c ****     /* Mask bits to enable shadow loads  */
 735:Generated_Source\PSoC5/CyLib.c ****     CY_LIB_CLKDIST_AMASK_REG &= CY_LIB_CLKDIST_AMASK_MASK;
  99              		.loc 1 735 5 view .LVU16
 100              		.loc 1 735 30 is_stmt 0 view .LVU17
 101 0000 0C4A     		ldr	r2, .L11
 102 0002 1378     		ldrb	r3, [r2]	@ zero_extendqisi2
 103 0004 03F0F003 		and	r3, r3, #240
 104 0008 1370     		strb	r3, [r2]
 736:Generated_Source\PSoC5/CyLib.c ****     CY_LIB_CLKDIST_DMASK_REG  = CY_LIB_CLKDIST_DMASK_MASK;
 105              		.loc 1 736 5 is_stmt 1 view .LVU18
 106              		.loc 1 736 31 is_stmt 0 view .LVU19
 107 000a 0B4B     		ldr	r3, .L11+4
 108 000c 0022     		movs	r2, #0
 109 000e 1A70     		strb	r2, [r3]
 737:Generated_Source\PSoC5/CyLib.c **** 
 738:Generated_Source\PSoC5/CyLib.c ****     /* Enable mask bits to enable shadow loads */
 739:Generated_Source\PSoC5/CyLib.c ****     CY_LIB_CLKDIST_BCFG2_REG |= CY_LIB_CLKDIST_BCFG2_MASK;
 110              		.loc 1 739 5 is_stmt 1 view .LVU20
 111              		.loc 1 739 30 is_stmt 0 view .LVU21
 112 0010 0A4A     		ldr	r2, .L11+8
ARM GAS  C:\Users\jens-\AppData\Local\Temp\ccdWTNhT.s 			page 16


 113 0012 1378     		ldrb	r3, [r2]	@ zero_extendqisi2
 114 0014 43F08003 		orr	r3, r3, #128
 115 0018 1370     		strb	r3, [r2]
 740:Generated_Source\PSoC5/CyLib.c **** 
 741:Generated_Source\PSoC5/CyLib.c ****     /* Update Shadow Divider Value Register with new divider */
 742:Generated_Source\PSoC5/CyLib.c ****     CY_LIB_CLKDIST_WRK_LSB_REG = LO8(divider);
 116              		.loc 1 742 5 is_stmt 1 view .LVU22
 117              		.loc 1 742 34 is_stmt 0 view .LVU23
 118 001a C2B2     		uxtb	r2, r0
 119              		.loc 1 742 32 view .LVU24
 120 001c 084B     		ldr	r3, .L11+12
 121 001e 1A70     		strb	r2, [r3]
 743:Generated_Source\PSoC5/CyLib.c ****     CY_LIB_CLKDIST_WRK_MSB_REG = HI8(divider);
 122              		.loc 1 743 5 is_stmt 1 view .LVU25
 123              		.loc 1 743 34 is_stmt 0 view .LVU26
 124 0020 000A     		lsrs	r0, r0, #8
 125              	.LVL3:
 126              		.loc 1 743 32 view .LVU27
 127 0022 0133     		adds	r3, r3, #1
 128 0024 1870     		strb	r0, [r3]
 744:Generated_Source\PSoC5/CyLib.c **** 
 745:Generated_Source\PSoC5/CyLib.c **** 
 746:Generated_Source\PSoC5/CyLib.c ****     /***************************************************************************
 747:Generated_Source\PSoC5/CyLib.c ****     * Copy shadow value defined in Shadow Divider Value Register
 748:Generated_Source\PSoC5/CyLib.c ****     * (CY_LIB_CLKDIST_WRK_LSB_REG and CY_LIB_CLKDIST_WRK_MSB_REG) to all
 749:Generated_Source\PSoC5/CyLib.c ****     * dividers selected in Analog and Digital Clock Mask Registers
 750:Generated_Source\PSoC5/CyLib.c ****     * (CY_LIB_CLKDIST_AMASK_REG and CY_LIB_CLKDIST_DMASK_REG).
 751:Generated_Source\PSoC5/CyLib.c ****     ***************************************************************************/
 752:Generated_Source\PSoC5/CyLib.c ****     CY_LIB_CLKDIST_LD_REG |= CY_LIB_CLKDIST_LD_LOAD;
 129              		.loc 1 752 5 is_stmt 1 view .LVU28
 130              		.loc 1 752 27 is_stmt 0 view .LVU29
 131 0026 074A     		ldr	r2, .L11+16
 132 0028 1378     		ldrb	r3, [r2]	@ zero_extendqisi2
 133 002a 43F00103 		orr	r3, r3, #1
 134 002e 1370     		strb	r3, [r2]
 753:Generated_Source\PSoC5/CyLib.c **** }
 135              		.loc 1 753 1 view .LVU30
 136 0030 7047     		bx	lr
 137              	.L12:
 138 0032 00BF     		.align	2
 139              	.L11:
 140 0034 14400040 		.word	1073758228
 141 0038 10400040 		.word	1073758224
 142 003c 08400040 		.word	1073758216
 143 0040 02400040 		.word	1073758210
 144 0044 01400040 		.word	1073758209
 145              		.cfi_endproc
 146              	.LFE14:
 147              		.size	CyBusClk_Internal_SetDivider, .-CyBusClk_Internal_SetDivider
 148              		.section	.text.CyPLL_OUT_Stop,"ax",%progbits
 149              		.align	1
 150              		.global	CyPLL_OUT_Stop
 151              		.syntax unified
 152              		.thumb
 153              		.thumb_func
 154              		.fpu softvfp
 155              		.type	CyPLL_OUT_Stop, %function
ARM GAS  C:\Users\jens-\AppData\Local\Temp\ccdWTNhT.s 			page 17


 156              	CyPLL_OUT_Stop:
 157              	.LFB1:
 155:Generated_Source\PSoC5/CyLib.c ****     CY_CLK_PLL_CFG0_REG &= ((uint8)(~CY_CLK_PLL_ENABLE));
 158              		.loc 1 155 1 is_stmt 1 view -0
 159              		.cfi_startproc
 160              		@ args = 0, pretend = 0, frame = 0
 161              		@ frame_needed = 0, uses_anonymous_args = 0
 162              		@ link register save eliminated.
 156:Generated_Source\PSoC5/CyLib.c **** }
 163              		.loc 1 156 5 view .LVU32
 156:Generated_Source\PSoC5/CyLib.c **** }
 164              		.loc 1 156 25 is_stmt 0 view .LVU33
 165 0000 024A     		ldr	r2, .L14
 166 0002 1378     		ldrb	r3, [r2]	@ zero_extendqisi2
 167 0004 03F0FE03 		and	r3, r3, #254
 168 0008 1370     		strb	r3, [r2]
 157:Generated_Source\PSoC5/CyLib.c **** 
 169              		.loc 1 157 1 view .LVU34
 170 000a 7047     		bx	lr
 171              	.L15:
 172              		.align	2
 173              	.L14:
 174 000c 20420040 		.word	1073758752
 175              		.cfi_endproc
 176              	.LFE1:
 177              		.size	CyPLL_OUT_Stop, .-CyPLL_OUT_Stop
 178              		.section	.text.CyIMO_Stop,"ax",%progbits
 179              		.align	1
 180              		.global	CyIMO_Stop
 181              		.syntax unified
 182              		.thumb
 183              		.thumb_func
 184              		.fpu softvfp
 185              		.type	CyIMO_Stop, %function
 186              	CyIMO_Stop:
 187              	.LFB5:
 325:Generated_Source\PSoC5/CyLib.c ****     CY_LIB_PM_ACT_CFG0_REG  &= ((uint8) (~CY_LIB_PM_ACT_CFG0_IMO_EN));
 188              		.loc 1 325 1 is_stmt 1 view -0
 189              		.cfi_startproc
 190              		@ args = 0, pretend = 0, frame = 0
 191              		@ frame_needed = 0, uses_anonymous_args = 0
 192              		@ link register save eliminated.
 326:Generated_Source\PSoC5/CyLib.c ****     CY_LIB_PM_STBY_CFG0_REG &= ((uint8) (~CY_LIB_PM_STBY_CFG0_IMO_EN));
 193              		.loc 1 326 5 view .LVU36
 326:Generated_Source\PSoC5/CyLib.c ****     CY_LIB_PM_STBY_CFG0_REG &= ((uint8) (~CY_LIB_PM_STBY_CFG0_IMO_EN));
 194              		.loc 1 326 29 is_stmt 0 view .LVU37
 195 0000 054A     		ldr	r2, .L17
 196 0002 1378     		ldrb	r3, [r2]	@ zero_extendqisi2
 197 0004 03F0EF03 		and	r3, r3, #239
 198 0008 1370     		strb	r3, [r2]
 327:Generated_Source\PSoC5/CyLib.c **** }
 199              		.loc 1 327 5 is_stmt 1 view .LVU38
 327:Generated_Source\PSoC5/CyLib.c **** }
 200              		.loc 1 327 29 is_stmt 0 view .LVU39
 201 000a 1032     		adds	r2, r2, #16
 202 000c 1378     		ldrb	r3, [r2]	@ zero_extendqisi2
 203 000e 03F0EF03 		and	r3, r3, #239
ARM GAS  C:\Users\jens-\AppData\Local\Temp\ccdWTNhT.s 			page 18


 204 0012 1370     		strb	r3, [r2]
 328:Generated_Source\PSoC5/CyLib.c **** 
 205              		.loc 1 328 1 view .LVU40
 206 0014 7047     		bx	lr
 207              	.L18:
 208 0016 00BF     		.align	2
 209              	.L17:
 210 0018 A0430040 		.word	1073759136
 211              		.cfi_endproc
 212              	.LFE5:
 213              		.size	CyIMO_Stop, .-CyIMO_Stop
 214              		.section	.text.CyIMO_EnableDoubler,"ax",%progbits
 215              		.align	1
 216              		.global	CyIMO_EnableDoubler
 217              		.syntax unified
 218              		.thumb
 219              		.thumb_func
 220              		.fpu softvfp
 221              		.type	CyIMO_EnableDoubler, %function
 222              	CyIMO_EnableDoubler:
 223              	.LFB10:
 642:Generated_Source\PSoC5/CyLib.c ****     /* Set FASTCLK_IMO_CR_PTR regigster's 4th bit */
 224              		.loc 1 642 1 is_stmt 1 view -0
 225              		.cfi_startproc
 226              		@ args = 0, pretend = 0, frame = 0
 227              		@ frame_needed = 0, uses_anonymous_args = 0
 228              		@ link register save eliminated.
 644:Generated_Source\PSoC5/CyLib.c **** }
 229              		.loc 1 644 5 view .LVU42
 644:Generated_Source\PSoC5/CyLib.c **** }
 230              		.loc 1 644 31 is_stmt 0 view .LVU43
 231 0000 024A     		ldr	r2, .L20
 232 0002 1378     		ldrb	r3, [r2]	@ zero_extendqisi2
 233 0004 43F01003 		orr	r3, r3, #16
 234 0008 1370     		strb	r3, [r2]
 645:Generated_Source\PSoC5/CyLib.c **** 
 235              		.loc 1 645 1 view .LVU44
 236 000a 7047     		bx	lr
 237              	.L21:
 238              		.align	2
 239              	.L20:
 240 000c 00420040 		.word	1073758720
 241              		.cfi_endproc
 242              	.LFE10:
 243              		.size	CyIMO_EnableDoubler, .-CyIMO_EnableDoubler
 244              		.section	.text.CyIMO_DisableDoubler,"ax",%progbits
 245              		.align	1
 246              		.global	CyIMO_DisableDoubler
 247              		.syntax unified
 248              		.thumb
 249              		.thumb_func
 250              		.fpu softvfp
 251              		.type	CyIMO_DisableDoubler, %function
 252              	CyIMO_DisableDoubler:
 253              	.LFB11:
 656:Generated_Source\PSoC5/CyLib.c ****     CY_LIB_FASTCLK_IMO_CR_REG &= ((uint8)(~CY_LIB_FASTCLK_IMO_DOUBLER));
 254              		.loc 1 656 1 is_stmt 1 view -0
ARM GAS  C:\Users\jens-\AppData\Local\Temp\ccdWTNhT.s 			page 19


 255              		.cfi_startproc
 256              		@ args = 0, pretend = 0, frame = 0
 257              		@ frame_needed = 0, uses_anonymous_args = 0
 258              		@ link register save eliminated.
 657:Generated_Source\PSoC5/CyLib.c **** }
 259              		.loc 1 657 5 view .LVU46
 657:Generated_Source\PSoC5/CyLib.c **** }
 260              		.loc 1 657 31 is_stmt 0 view .LVU47
 261 0000 024A     		ldr	r2, .L23
 262 0002 1378     		ldrb	r3, [r2]	@ zero_extendqisi2
 263 0004 03F0EF03 		and	r3, r3, #239
 264 0008 1370     		strb	r3, [r2]
 658:Generated_Source\PSoC5/CyLib.c **** 
 265              		.loc 1 658 1 view .LVU48
 266 000a 7047     		bx	lr
 267              	.L24:
 268              		.align	2
 269              	.L23:
 270 000c 00420040 		.word	1073758720
 271              		.cfi_endproc
 272              	.LFE11:
 273              		.size	CyIMO_DisableDoubler, .-CyIMO_DisableDoubler
 274              		.section	.text.CyMasterClk_SetSource,"ax",%progbits
 275              		.align	1
 276              		.global	CyMasterClk_SetSource
 277              		.syntax unified
 278              		.thumb
 279              		.thumb_func
 280              		.fpu softvfp
 281              		.type	CyMasterClk_SetSource, %function
 282              	CyMasterClk_SetSource:
 283              	.LVL4:
 284              	.LFB12:
 686:Generated_Source\PSoC5/CyLib.c ****     CY_LIB_CLKDIST_MSTR1_REG = (CY_LIB_CLKDIST_MSTR1_REG & MASTER_CLK_SRC_CLEAR) |
 285              		.loc 1 686 1 is_stmt 1 view -0
 286              		.cfi_startproc
 287              		@ args = 0, pretend = 0, frame = 0
 288              		@ frame_needed = 0, uses_anonymous_args = 0
 289              		@ link register save eliminated.
 687:Generated_Source\PSoC5/CyLib.c ****                                 (source & ((uint8)(~MASTER_CLK_SRC_CLEAR)));
 290              		.loc 1 687 5 view .LVU50
 687:Generated_Source\PSoC5/CyLib.c ****                                 (source & ((uint8)(~MASTER_CLK_SRC_CLEAR)));
 291              		.loc 1 687 33 is_stmt 0 view .LVU51
 292 0000 044A     		ldr	r2, .L26
 293 0002 1378     		ldrb	r3, [r2]	@ zero_extendqisi2
 687:Generated_Source\PSoC5/CyLib.c ****                                 (source & ((uint8)(~MASTER_CLK_SRC_CLEAR)));
 294              		.loc 1 687 58 view .LVU52
 295 0004 03F0FC03 		and	r3, r3, #252
 688:Generated_Source\PSoC5/CyLib.c **** }
 296              		.loc 1 688 41 view .LVU53
 297 0008 00F00300 		and	r0, r0, #3
 298              	.LVL5:
 687:Generated_Source\PSoC5/CyLib.c ****                                 (source & ((uint8)(~MASTER_CLK_SRC_CLEAR)));
 299              		.loc 1 687 82 view .LVU54
 300 000c 0343     		orrs	r3, r3, r0
 687:Generated_Source\PSoC5/CyLib.c ****                                 (source & ((uint8)(~MASTER_CLK_SRC_CLEAR)));
 301              		.loc 1 687 30 view .LVU55
ARM GAS  C:\Users\jens-\AppData\Local\Temp\ccdWTNhT.s 			page 20


 302 000e 1370     		strb	r3, [r2]
 689:Generated_Source\PSoC5/CyLib.c **** 
 303              		.loc 1 689 1 view .LVU56
 304 0010 7047     		bx	lr
 305              	.L27:
 306 0012 00BF     		.align	2
 307              	.L26:
 308 0014 05400040 		.word	1073758213
 309              		.cfi_endproc
 310              	.LFE12:
 311              		.size	CyMasterClk_SetSource, .-CyMasterClk_SetSource
 312              		.section	.text.CyMasterClk_SetDivider,"ax",%progbits
 313              		.align	1
 314              		.global	CyMasterClk_SetDivider
 315              		.syntax unified
 316              		.thumb
 317              		.thumb_func
 318              		.fpu softvfp
 319              		.type	CyMasterClk_SetDivider, %function
 320              	CyMasterClk_SetDivider:
 321              	.LVL6:
 322              	.LFB13:
 716:Generated_Source\PSoC5/CyLib.c ****     CY_LIB_CLKDIST_MSTR0_REG = divider;
 323              		.loc 1 716 1 is_stmt 1 view -0
 324              		.cfi_startproc
 325              		@ args = 0, pretend = 0, frame = 0
 326              		@ frame_needed = 0, uses_anonymous_args = 0
 327              		@ link register save eliminated.
 717:Generated_Source\PSoC5/CyLib.c **** }
 328              		.loc 1 717 5 view .LVU58
 717:Generated_Source\PSoC5/CyLib.c **** }
 329              		.loc 1 717 30 is_stmt 0 view .LVU59
 330 0000 014B     		ldr	r3, .L29
 331 0002 1870     		strb	r0, [r3]
 718:Generated_Source\PSoC5/CyLib.c **** 
 332              		.loc 1 718 1 view .LVU60
 333 0004 7047     		bx	lr
 334              	.L30:
 335 0006 00BF     		.align	2
 336              	.L29:
 337 0008 04400040 		.word	1073758212
 338              		.cfi_endproc
 339              	.LFE13:
 340              		.size	CyMasterClk_SetDivider, .-CyMasterClk_SetDivider
 341              		.section	.text.CyBusClk_SetDivider,"ax",%progbits
 342              		.align	1
 343              		.global	CyBusClk_SetDivider
 344              		.syntax unified
 345              		.thumb
 346              		.thumb_func
 347              		.fpu softvfp
 348              		.type	CyBusClk_SetDivider, %function
 349              	CyBusClk_SetDivider:
 350              	.LVL7:
 351              	.LFB15:
 754:Generated_Source\PSoC5/CyLib.c **** 
 755:Generated_Source\PSoC5/CyLib.c **** 
ARM GAS  C:\Users\jens-\AppData\Local\Temp\ccdWTNhT.s 			page 21


 756:Generated_Source\PSoC5/CyLib.c **** /*******************************************************************************
 757:Generated_Source\PSoC5/CyLib.c **** * Function Name: CyBusClk_SetDivider
 758:Generated_Source\PSoC5/CyLib.c **** ****************************************************************************//**
 759:Generated_Source\PSoC5/CyLib.c **** *
 760:Generated_Source\PSoC5/CyLib.c **** *  Sets the divider value used to generate the Bus Clock.
 761:Generated_Source\PSoC5/CyLib.c **** *
 762:Generated_Source\PSoC5/CyLib.c **** *  \param divider: Valid range [0-65535]. The clock will be divided by this value + 1.
 763:Generated_Source\PSoC5/CyLib.c **** *  For example, to divide this parameter by two should be set to 1.
 764:Generated_Source\PSoC5/CyLib.c **** *
 765:Generated_Source\PSoC5/CyLib.c **** * \sideeffect
 766:Generated_Source\PSoC5/CyLib.c **** *  If this function execution resulted in the CPU clock frequency increasing,
 767:Generated_Source\PSoC5/CyLib.c **** *  then the number of clock cycles the cache will wait before it samples data
 768:Generated_Source\PSoC5/CyLib.c **** *  coming back from the Flash must be adjusted by calling
 769:Generated_Source\PSoC5/CyLib.c **** *  CyFlash_SetWaitCycles() with an appropriate parameter. It can be optionally
 770:Generated_Source\PSoC5/CyLib.c **** *  called if the CPU clock frequency is lowered in order to improve the CPU
 771:Generated_Source\PSoC5/CyLib.c **** *  performance. See CyFlash_SetWaitCycles() description for more information.
 772:Generated_Source\PSoC5/CyLib.c **** *
 773:Generated_Source\PSoC5/CyLib.c **** *******************************************************************************/
 774:Generated_Source\PSoC5/CyLib.c **** void CyBusClk_SetDivider(uint16 divider) 
 775:Generated_Source\PSoC5/CyLib.c **** {
 352              		.loc 1 775 1 is_stmt 1 view -0
 353              		.cfi_startproc
 354              		@ args = 0, pretend = 0, frame = 0
 355              		@ frame_needed = 0, uses_anonymous_args = 0
 356              		.loc 1 775 1 is_stmt 0 view .LVU62
 357 0000 70B5     		push	{r4, r5, r6, lr}
 358              		.cfi_def_cfa_offset 16
 359              		.cfi_offset 4, -16
 360              		.cfi_offset 5, -12
 361              		.cfi_offset 6, -8
 362              		.cfi_offset 14, -4
 363 0002 0446     		mov	r4, r0
 776:Generated_Source\PSoC5/CyLib.c ****     uint8  masterClkDiv;
 364              		.loc 1 776 5 is_stmt 1 view .LVU63
 777:Generated_Source\PSoC5/CyLib.c ****     uint16 busClkDiv;
 365              		.loc 1 777 5 view .LVU64
 778:Generated_Source\PSoC5/CyLib.c ****     uint8 interruptState;
 366              		.loc 1 778 5 view .LVU65
 779:Generated_Source\PSoC5/CyLib.c **** 
 780:Generated_Source\PSoC5/CyLib.c ****     interruptState = CyEnterCriticalSection();
 367              		.loc 1 780 5 view .LVU66
 368              		.loc 1 780 22 is_stmt 0 view .LVU67
 369 0004 FFF7FEFF 		bl	CyEnterCriticalSection
 370              	.LVL8:
 371              		.loc 1 780 22 view .LVU68
 372 0008 0646     		mov	r6, r0
 373              	.LVL9:
 781:Generated_Source\PSoC5/CyLib.c **** 
 782:Generated_Source\PSoC5/CyLib.c ****     /* Work around to set bus clock divider value */
 783:Generated_Source\PSoC5/CyLib.c ****     busClkDiv = (uint16)((uint16)CY_LIB_CLKDIST_BCFG_MSB_REG << 8u);
 374              		.loc 1 783 5 is_stmt 1 view .LVU69
 375              		.loc 1 783 34 is_stmt 0 view .LVU70
 376 000a 174B     		ldr	r3, .L40
 377 000c 1A78     		ldrb	r2, [r3]	@ zero_extendqisi2
 378              	.LVL10:
 784:Generated_Source\PSoC5/CyLib.c ****     busClkDiv |= CY_LIB_CLKDIST_BCFG_LSB_REG;
 379              		.loc 1 784 5 is_stmt 1 view .LVU71
ARM GAS  C:\Users\jens-\AppData\Local\Temp\ccdWTNhT.s 			page 22


 380              		.loc 1 784 18 is_stmt 0 view .LVU72
 381 000e 013B     		subs	r3, r3, #1
 382 0010 1B78     		ldrb	r3, [r3]	@ zero_extendqisi2
 383              		.loc 1 784 15 view .LVU73
 384 0012 43EA0223 		orr	r3, r3, r2, lsl #8
 385              	.LVL11:
 785:Generated_Source\PSoC5/CyLib.c **** 
 786:Generated_Source\PSoC5/CyLib.c ****     if ((divider == 0u) || (busClkDiv == 0u))
 386              		.loc 1 786 5 is_stmt 1 view .LVU74
 387              		.loc 1 786 8 is_stmt 0 view .LVU75
 388 0016 04B1     		cbz	r4, .L32
 389              		.loc 1 786 25 discriminator 1 view .LVU76
 390 0018 0BBB     		cbnz	r3, .L33
 391              	.L32:
 787:Generated_Source\PSoC5/CyLib.c ****     {
 788:Generated_Source\PSoC5/CyLib.c ****         /* Save away master clock divider value */
 789:Generated_Source\PSoC5/CyLib.c ****         masterClkDiv = CY_LIB_CLKDIST_MSTR0_REG;
 392              		.loc 1 789 9 is_stmt 1 view .LVU77
 393              		.loc 1 789 22 is_stmt 0 view .LVU78
 394 001a 144B     		ldr	r3, .L40+4
 395              	.LVL12:
 396              		.loc 1 789 22 view .LVU79
 397 001c 1D78     		ldrb	r5, [r3]	@ zero_extendqisi2
 398 001e EDB2     		uxtb	r5, r5
 399              	.LVL13:
 790:Generated_Source\PSoC5/CyLib.c **** 
 791:Generated_Source\PSoC5/CyLib.c ****         if (masterClkDiv < CY_LIB_CLKDIST_MASTERCLK_DIV)
 400              		.loc 1 791 9 is_stmt 1 view .LVU80
 401              		.loc 1 791 12 is_stmt 0 view .LVU81
 402 0020 062D     		cmp	r5, #6
 403 0022 0FD9     		bls	.L39
 404              	.L34:
 792:Generated_Source\PSoC5/CyLib.c ****         {
 793:Generated_Source\PSoC5/CyLib.c ****             /* Set master clock divider to 7 */
 794:Generated_Source\PSoC5/CyLib.c ****             CyMasterClk_SetDivider(CY_LIB_CLKDIST_MASTERCLK_DIV);
 795:Generated_Source\PSoC5/CyLib.c ****         }
 796:Generated_Source\PSoC5/CyLib.c **** 
 797:Generated_Source\PSoC5/CyLib.c ****         if (divider == 0u)
 405              		.loc 1 797 9 is_stmt 1 view .LVU82
 406              		.loc 1 797 12 is_stmt 0 view .LVU83
 407 0024 94B9     		cbnz	r4, .L35
 798:Generated_Source\PSoC5/CyLib.c ****         {
 799:Generated_Source\PSoC5/CyLib.c ****             /* Set SSS bit and divider register desired value */
 800:Generated_Source\PSoC5/CyLib.c ****             CY_LIB_CLKDIST_BCFG2_REG |= CY_LIB_CLKDIST_BCFG2_SSS;
 408              		.loc 1 800 13 is_stmt 1 view .LVU84
 409              		.loc 1 800 38 is_stmt 0 view .LVU85
 410 0026 124A     		ldr	r2, .L40+8
 411 0028 1378     		ldrb	r3, [r2]	@ zero_extendqisi2
 412 002a 43F04003 		orr	r3, r3, #64
 413 002e 1370     		strb	r3, [r2]
 801:Generated_Source\PSoC5/CyLib.c ****             CyBusClk_Internal_SetDivider(divider);
 414              		.loc 1 801 13 is_stmt 1 view .LVU86
 415 0030 2046     		mov	r0, r4
 416 0032 FFF7FEFF 		bl	CyBusClk_Internal_SetDivider
 417              	.LVL14:
 418              	.L36:
 802:Generated_Source\PSoC5/CyLib.c ****         }
ARM GAS  C:\Users\jens-\AppData\Local\Temp\ccdWTNhT.s 			page 23


 803:Generated_Source\PSoC5/CyLib.c ****         else
 804:Generated_Source\PSoC5/CyLib.c ****         {
 805:Generated_Source\PSoC5/CyLib.c ****             CyBusClk_Internal_SetDivider(divider);
 806:Generated_Source\PSoC5/CyLib.c ****             CY_LIB_CLKDIST_BCFG2_REG &= ((uint8)(~CY_LIB_CLKDIST_BCFG2_SSS));
 807:Generated_Source\PSoC5/CyLib.c ****         }
 808:Generated_Source\PSoC5/CyLib.c **** 
 809:Generated_Source\PSoC5/CyLib.c ****         /* Restore master clock */
 810:Generated_Source\PSoC5/CyLib.c ****         CyMasterClk_SetDivider(masterClkDiv);
 419              		.loc 1 810 9 view .LVU87
 420 0036 2846     		mov	r0, r5
 421 0038 FFF7FEFF 		bl	CyMasterClk_SetDivider
 422              	.LVL15:
 423              	.L37:
 811:Generated_Source\PSoC5/CyLib.c ****     }
 812:Generated_Source\PSoC5/CyLib.c ****     else
 813:Generated_Source\PSoC5/CyLib.c ****     {
 814:Generated_Source\PSoC5/CyLib.c ****         CyBusClk_Internal_SetDivider(divider);
 815:Generated_Source\PSoC5/CyLib.c ****     }
 816:Generated_Source\PSoC5/CyLib.c **** 
 817:Generated_Source\PSoC5/CyLib.c ****     CyExitCriticalSection(interruptState);
 424              		.loc 1 817 5 view .LVU88
 425 003c 3046     		mov	r0, r6
 426 003e FFF7FEFF 		bl	CyExitCriticalSection
 427              	.LVL16:
 818:Generated_Source\PSoC5/CyLib.c **** }
 428              		.loc 1 818 1 is_stmt 0 view .LVU89
 429 0042 70BD     		pop	{r4, r5, r6, pc}
 430              	.LVL17:
 431              	.L39:
 794:Generated_Source\PSoC5/CyLib.c ****         }
 432              		.loc 1 794 13 is_stmt 1 view .LVU90
 433 0044 0720     		movs	r0, #7
 434 0046 FFF7FEFF 		bl	CyMasterClk_SetDivider
 435              	.LVL18:
 794:Generated_Source\PSoC5/CyLib.c ****         }
 436              		.loc 1 794 13 is_stmt 0 view .LVU91
 437 004a EBE7     		b	.L34
 438              	.L35:
 805:Generated_Source\PSoC5/CyLib.c ****             CY_LIB_CLKDIST_BCFG2_REG &= ((uint8)(~CY_LIB_CLKDIST_BCFG2_SSS));
 439              		.loc 1 805 13 is_stmt 1 view .LVU92
 440 004c 2046     		mov	r0, r4
 441 004e FFF7FEFF 		bl	CyBusClk_Internal_SetDivider
 442              	.LVL19:
 806:Generated_Source\PSoC5/CyLib.c ****         }
 443              		.loc 1 806 13 view .LVU93
 806:Generated_Source\PSoC5/CyLib.c ****         }
 444              		.loc 1 806 38 is_stmt 0 view .LVU94
 445 0052 074A     		ldr	r2, .L40+8
 446 0054 1378     		ldrb	r3, [r2]	@ zero_extendqisi2
 447 0056 03F0BF03 		and	r3, r3, #191
 448 005a 1370     		strb	r3, [r2]
 449 005c EBE7     		b	.L36
 450              	.LVL20:
 451              	.L33:
 814:Generated_Source\PSoC5/CyLib.c ****     }
 452              		.loc 1 814 9 is_stmt 1 view .LVU95
 453 005e 2046     		mov	r0, r4
ARM GAS  C:\Users\jens-\AppData\Local\Temp\ccdWTNhT.s 			page 24


 454 0060 FFF7FEFF 		bl	CyBusClk_Internal_SetDivider
 455              	.LVL21:
 814:Generated_Source\PSoC5/CyLib.c ****     }
 456              		.loc 1 814 9 is_stmt 0 view .LVU96
 457 0064 EAE7     		b	.L37
 458              	.L41:
 459 0066 00BF     		.align	2
 460              	.L40:
 461 0068 07400040 		.word	1073758215
 462 006c 04400040 		.word	1073758212
 463 0070 08400040 		.word	1073758216
 464              		.cfi_endproc
 465              	.LFE15:
 466              		.size	CyBusClk_SetDivider, .-CyBusClk_SetDivider
 467              		.section	.text.CyUsbClk_SetSource,"ax",%progbits
 468              		.align	1
 469              		.global	CyUsbClk_SetSource
 470              		.syntax unified
 471              		.thumb
 472              		.thumb_func
 473              		.fpu softvfp
 474              		.type	CyUsbClk_SetSource, %function
 475              	CyUsbClk_SetSource:
 476              	.LVL22:
 477              	.LFB16:
 819:Generated_Source\PSoC5/CyLib.c **** 
 820:Generated_Source\PSoC5/CyLib.c **** 
 821:Generated_Source\PSoC5/CyLib.c **** #if(CY_PSOC3)
 822:Generated_Source\PSoC5/CyLib.c **** 
 823:Generated_Source\PSoC5/CyLib.c ****     /*******************************************************************************
 824:Generated_Source\PSoC5/CyLib.c ****     * Function Name: CyCpuClk_SetDivider
 825:Generated_Source\PSoC5/CyLib.c ****     ****************************************************************************//**
 826:Generated_Source\PSoC5/CyLib.c ****     *
 827:Generated_Source\PSoC5/CyLib.c ****     *  Sets the divider value used to generate the CPU Clock. Only applicable for
 828:Generated_Source\PSoC5/CyLib.c ****     *  PSoC 3 parts.
 829:Generated_Source\PSoC5/CyLib.c ****     *
 830:Generated_Source\PSoC5/CyLib.c ****     *  \param divider: Valid range [0-15]. The clock will be divided by this value + 1.
 831:Generated_Source\PSoC5/CyLib.c ****     *  For example, to divide this parameter by two should be set to 1.
 832:Generated_Source\PSoC5/CyLib.c ****     *
 833:Generated_Source\PSoC5/CyLib.c ****     * \sideeffect
 834:Generated_Source\PSoC5/CyLib.c ****     *  If this function execution resulted in the CPU clock frequency increasing,
 835:Generated_Source\PSoC5/CyLib.c ****     *  then the number of clock cycles the cache will wait before it samples data
 836:Generated_Source\PSoC5/CyLib.c ****     *  coming back from the Flash must be adjusted by calling
 837:Generated_Source\PSoC5/CyLib.c ****     *  CyFlash_SetWaitCycles() with an appropriate parameter. It can be optionally
 838:Generated_Source\PSoC5/CyLib.c ****     *  called if the CPU clock frequency is lowered in order to improve the CPU
 839:Generated_Source\PSoC5/CyLib.c ****     *  performance. See CyFlash_SetWaitCycles() description for more information.
 840:Generated_Source\PSoC5/CyLib.c ****     *
 841:Generated_Source\PSoC5/CyLib.c ****     *******************************************************************************/
 842:Generated_Source\PSoC5/CyLib.c ****     void CyCpuClk_SetDivider(uint8 divider) 
 843:Generated_Source\PSoC5/CyLib.c ****     {
 844:Generated_Source\PSoC5/CyLib.c ****             CY_LIB_CLKDIST_MSTR1_REG = (CY_LIB_CLKDIST_MSTR1_REG & CY_LIB_CLKDIST_MSTR1_DIV_MASK) |
 845:Generated_Source\PSoC5/CyLib.c ****                                 ((uint8)(divider << CY_LIB_CLKDIST_DIV_POSITION));
 846:Generated_Source\PSoC5/CyLib.c ****     }
 847:Generated_Source\PSoC5/CyLib.c **** 
 848:Generated_Source\PSoC5/CyLib.c **** #endif /* (CY_PSOC3) */
 849:Generated_Source\PSoC5/CyLib.c **** 
 850:Generated_Source\PSoC5/CyLib.c **** 
ARM GAS  C:\Users\jens-\AppData\Local\Temp\ccdWTNhT.s 			page 25


 851:Generated_Source\PSoC5/CyLib.c **** /*******************************************************************************
 852:Generated_Source\PSoC5/CyLib.c **** * Function Name: CyUsbClk_SetSource
 853:Generated_Source\PSoC5/CyLib.c **** ****************************************************************************//**
 854:Generated_Source\PSoC5/CyLib.c **** *
 855:Generated_Source\PSoC5/CyLib.c **** *  Sets the source of the USB clock.
 856:Generated_Source\PSoC5/CyLib.c **** *
 857:Generated_Source\PSoC5/CyLib.c **** *  \param source: One of the four available USB clock sources
 858:Generated_Source\PSoC5/CyLib.c **** *    CY_LIB_USB_CLK_IMO2X     - IMO 2x
 859:Generated_Source\PSoC5/CyLib.c **** *    CY_LIB_USB_CLK_IMO       - IMO
 860:Generated_Source\PSoC5/CyLib.c **** *    CY_LIB_USB_CLK_PLL       - PLL
 861:Generated_Source\PSoC5/CyLib.c **** *    CY_LIB_USB_CLK_DSI       - DSI
 862:Generated_Source\PSoC5/CyLib.c **** *
 863:Generated_Source\PSoC5/CyLib.c **** *******************************************************************************/
 864:Generated_Source\PSoC5/CyLib.c **** void CyUsbClk_SetSource(uint8 source) 
 865:Generated_Source\PSoC5/CyLib.c **** {
 478              		.loc 1 865 1 is_stmt 1 view -0
 479              		.cfi_startproc
 480              		@ args = 0, pretend = 0, frame = 0
 481              		@ frame_needed = 0, uses_anonymous_args = 0
 482              		@ link register save eliminated.
 866:Generated_Source\PSoC5/CyLib.c ****     CY_LIB_CLKDIST_UCFG_REG = (CY_LIB_CLKDIST_UCFG_REG & ((uint8)(~CY_LIB_CLKDIST_UCFG_SRC_SEL_MASK
 483              		.loc 1 866 5 view .LVU98
 484              		.loc 1 866 32 is_stmt 0 view .LVU99
 485 0000 044A     		ldr	r2, .L43
 486 0002 1378     		ldrb	r3, [r2]	@ zero_extendqisi2
 487              		.loc 1 866 56 view .LVU100
 488 0004 03F0FC03 		and	r3, r3, #252
 867:Generated_Source\PSoC5/CyLib.c ****                         (CY_LIB_CLKDIST_UCFG_SRC_SEL_MASK & source);
 489              		.loc 1 867 59 view .LVU101
 490 0008 00F00300 		and	r0, r0, #3
 491              	.LVL23:
 866:Generated_Source\PSoC5/CyLib.c ****     CY_LIB_CLKDIST_UCFG_REG = (CY_LIB_CLKDIST_UCFG_REG & ((uint8)(~CY_LIB_CLKDIST_UCFG_SRC_SEL_MASK
 492              		.loc 1 866 104 view .LVU102
 493 000c 0343     		orrs	r3, r3, r0
 866:Generated_Source\PSoC5/CyLib.c ****     CY_LIB_CLKDIST_UCFG_REG = (CY_LIB_CLKDIST_UCFG_REG & ((uint8)(~CY_LIB_CLKDIST_UCFG_SRC_SEL_MASK
 494              		.loc 1 866 29 view .LVU103
 495 000e 1370     		strb	r3, [r2]
 868:Generated_Source\PSoC5/CyLib.c **** }
 496              		.loc 1 868 1 view .LVU104
 497 0010 7047     		bx	lr
 498              	.L44:
 499 0012 00BF     		.align	2
 500              	.L43:
 501 0014 09400040 		.word	1073758217
 502              		.cfi_endproc
 503              	.LFE16:
 504              		.size	CyUsbClk_SetSource, .-CyUsbClk_SetSource
 505              		.section	.text.CyILO_Start1K,"ax",%progbits
 506              		.align	1
 507              		.global	CyILO_Start1K
 508              		.syntax unified
 509              		.thumb
 510              		.thumb_func
 511              		.fpu softvfp
 512              		.type	CyILO_Start1K, %function
 513              	CyILO_Start1K:
 514              	.LFB17:
ARM GAS  C:\Users\jens-\AppData\Local\Temp\ccdWTNhT.s 			page 26


 869:Generated_Source\PSoC5/CyLib.c **** 
 870:Generated_Source\PSoC5/CyLib.c **** 
 871:Generated_Source\PSoC5/CyLib.c **** /*******************************************************************************
 872:Generated_Source\PSoC5/CyLib.c **** * Function Name: CyILO_Start1K
 873:Generated_Source\PSoC5/CyLib.c **** ****************************************************************************//**
 874:Generated_Source\PSoC5/CyLib.c **** *
 875:Generated_Source\PSoC5/CyLib.c **** *  Enables the ILO 1 KHz oscillator.
 876:Generated_Source\PSoC5/CyLib.c **** *
 877:Generated_Source\PSoC5/CyLib.c **** *  Note The ILO 1 KHz oscillator is always enabled by default, regardless of the
 878:Generated_Source\PSoC5/CyLib.c **** *  selection in the Clock Editor. Therefore, this API is only needed if the
 879:Generated_Source\PSoC5/CyLib.c **** *  oscillator was turned off manually.
 880:Generated_Source\PSoC5/CyLib.c **** *
 881:Generated_Source\PSoC5/CyLib.c **** *******************************************************************************/
 882:Generated_Source\PSoC5/CyLib.c **** void CyILO_Start1K(void) 
 883:Generated_Source\PSoC5/CyLib.c **** {
 515              		.loc 1 883 1 is_stmt 1 view -0
 516              		.cfi_startproc
 517              		@ args = 0, pretend = 0, frame = 0
 518              		@ frame_needed = 0, uses_anonymous_args = 0
 519              		@ link register save eliminated.
 884:Generated_Source\PSoC5/CyLib.c ****     /* Set bit 1 of ILO RS */
 885:Generated_Source\PSoC5/CyLib.c ****     CY_LIB_SLOWCLK_ILO_CR0_REG |= CY_LIB_SLOWCLK_ILO_CR0_EN_1KHZ;
 520              		.loc 1 885 5 view .LVU106
 521              		.loc 1 885 32 is_stmt 0 view .LVU107
 522 0000 024A     		ldr	r2, .L46
 523 0002 1378     		ldrb	r3, [r2]	@ zero_extendqisi2
 524 0004 43F00203 		orr	r3, r3, #2
 525 0008 1370     		strb	r3, [r2]
 886:Generated_Source\PSoC5/CyLib.c **** }
 526              		.loc 1 886 1 view .LVU108
 527 000a 7047     		bx	lr
 528              	.L47:
 529              		.align	2
 530              	.L46:
 531 000c 00430040 		.word	1073758976
 532              		.cfi_endproc
 533              	.LFE17:
 534              		.size	CyILO_Start1K, .-CyILO_Start1K
 535              		.section	.text.CyILO_Stop1K,"ax",%progbits
 536              		.align	1
 537              		.global	CyILO_Stop1K
 538              		.syntax unified
 539              		.thumb
 540              		.thumb_func
 541              		.fpu softvfp
 542              		.type	CyILO_Stop1K, %function
 543              	CyILO_Stop1K:
 544              	.LFB18:
 887:Generated_Source\PSoC5/CyLib.c **** 
 888:Generated_Source\PSoC5/CyLib.c **** 
 889:Generated_Source\PSoC5/CyLib.c **** /*******************************************************************************
 890:Generated_Source\PSoC5/CyLib.c **** * Function Name: CyILO_Stop1K
 891:Generated_Source\PSoC5/CyLib.c **** ****************************************************************************//**
 892:Generated_Source\PSoC5/CyLib.c **** *
 893:Generated_Source\PSoC5/CyLib.c **** *  Disables the ILO 1 KHz oscillator.
 894:Generated_Source\PSoC5/CyLib.c **** *
 895:Generated_Source\PSoC5/CyLib.c **** *  Note The ILO 1 KHz oscillator must be enabled if the Sleep or Hibernate low
ARM GAS  C:\Users\jens-\AppData\Local\Temp\ccdWTNhT.s 			page 27


 896:Generated_Source\PSoC5/CyLib.c **** *  power mode APIs are expected to be used. For more information, refer to the
 897:Generated_Source\PSoC5/CyLib.c **** *  Power Management section of this document.
 898:Generated_Source\PSoC5/CyLib.c **** *
 899:Generated_Source\PSoC5/CyLib.c **** * \sideeffect
 900:Generated_Source\PSoC5/CyLib.c **** *  PSoC5: Stopping the ILO 1 kHz could break the active WDT functionality.
 901:Generated_Source\PSoC5/CyLib.c **** *
 902:Generated_Source\PSoC5/CyLib.c **** *******************************************************************************/
 903:Generated_Source\PSoC5/CyLib.c **** void CyILO_Stop1K(void) 
 904:Generated_Source\PSoC5/CyLib.c **** {
 545              		.loc 1 904 1 is_stmt 1 view -0
 546              		.cfi_startproc
 547              		@ args = 0, pretend = 0, frame = 0
 548              		@ frame_needed = 0, uses_anonymous_args = 0
 549              		@ link register save eliminated.
 905:Generated_Source\PSoC5/CyLib.c ****     /* Clear bit 1 of ILO RS */
 906:Generated_Source\PSoC5/CyLib.c ****     CY_LIB_SLOWCLK_ILO_CR0_REG &= ((uint8)(~CY_LIB_SLOWCLK_ILO_CR0_EN_1KHZ));
 550              		.loc 1 906 5 view .LVU110
 551              		.loc 1 906 32 is_stmt 0 view .LVU111
 552 0000 024A     		ldr	r2, .L49
 553 0002 1378     		ldrb	r3, [r2]	@ zero_extendqisi2
 554 0004 03F0FD03 		and	r3, r3, #253
 555 0008 1370     		strb	r3, [r2]
 907:Generated_Source\PSoC5/CyLib.c **** }
 556              		.loc 1 907 1 view .LVU112
 557 000a 7047     		bx	lr
 558              	.L50:
 559              		.align	2
 560              	.L49:
 561 000c 00430040 		.word	1073758976
 562              		.cfi_endproc
 563              	.LFE18:
 564              		.size	CyILO_Stop1K, .-CyILO_Stop1K
 565              		.section	.text.CyILO_Start100K,"ax",%progbits
 566              		.align	1
 567              		.global	CyILO_Start100K
 568              		.syntax unified
 569              		.thumb
 570              		.thumb_func
 571              		.fpu softvfp
 572              		.type	CyILO_Start100K, %function
 573              	CyILO_Start100K:
 574              	.LFB19:
 908:Generated_Source\PSoC5/CyLib.c **** 
 909:Generated_Source\PSoC5/CyLib.c **** 
 910:Generated_Source\PSoC5/CyLib.c **** /*******************************************************************************
 911:Generated_Source\PSoC5/CyLib.c **** * Function Name: CyILO_Start100K
 912:Generated_Source\PSoC5/CyLib.c **** ****************************************************************************//**
 913:Generated_Source\PSoC5/CyLib.c **** *
 914:Generated_Source\PSoC5/CyLib.c **** *  Enables the ILO 100 KHz oscillator.
 915:Generated_Source\PSoC5/CyLib.c **** *
 916:Generated_Source\PSoC5/CyLib.c **** *******************************************************************************/
 917:Generated_Source\PSoC5/CyLib.c **** void CyILO_Start100K(void) 
 918:Generated_Source\PSoC5/CyLib.c **** {
 575              		.loc 1 918 1 is_stmt 1 view -0
 576              		.cfi_startproc
 577              		@ args = 0, pretend = 0, frame = 0
 578              		@ frame_needed = 0, uses_anonymous_args = 0
ARM GAS  C:\Users\jens-\AppData\Local\Temp\ccdWTNhT.s 			page 28


 579              		@ link register save eliminated.
 919:Generated_Source\PSoC5/CyLib.c ****     CY_LIB_SLOWCLK_ILO_CR0_REG |= CY_LIB_SLOWCLK_ILO_CR0_EN_100KHZ;
 580              		.loc 1 919 5 view .LVU114
 581              		.loc 1 919 32 is_stmt 0 view .LVU115
 582 0000 024A     		ldr	r2, .L52
 583 0002 1378     		ldrb	r3, [r2]	@ zero_extendqisi2
 584 0004 43F00403 		orr	r3, r3, #4
 585 0008 1370     		strb	r3, [r2]
 920:Generated_Source\PSoC5/CyLib.c **** }
 586              		.loc 1 920 1 view .LVU116
 587 000a 7047     		bx	lr
 588              	.L53:
 589              		.align	2
 590              	.L52:
 591 000c 00430040 		.word	1073758976
 592              		.cfi_endproc
 593              	.LFE19:
 594              		.size	CyILO_Start100K, .-CyILO_Start100K
 595              		.section	.text.CyILO_Stop100K,"ax",%progbits
 596              		.align	1
 597              		.global	CyILO_Stop100K
 598              		.syntax unified
 599              		.thumb
 600              		.thumb_func
 601              		.fpu softvfp
 602              		.type	CyILO_Stop100K, %function
 603              	CyILO_Stop100K:
 604              	.LFB20:
 921:Generated_Source\PSoC5/CyLib.c **** 
 922:Generated_Source\PSoC5/CyLib.c **** 
 923:Generated_Source\PSoC5/CyLib.c **** /*******************************************************************************
 924:Generated_Source\PSoC5/CyLib.c **** * Function Name: CyILO_Stop100K
 925:Generated_Source\PSoC5/CyLib.c **** ****************************************************************************//**
 926:Generated_Source\PSoC5/CyLib.c **** *
 927:Generated_Source\PSoC5/CyLib.c **** *  Disables the ILO 100 KHz oscillator.
 928:Generated_Source\PSoC5/CyLib.c **** *
 929:Generated_Source\PSoC5/CyLib.c **** *******************************************************************************/
 930:Generated_Source\PSoC5/CyLib.c **** void CyILO_Stop100K(void) 
 931:Generated_Source\PSoC5/CyLib.c **** {
 605              		.loc 1 931 1 is_stmt 1 view -0
 606              		.cfi_startproc
 607              		@ args = 0, pretend = 0, frame = 0
 608              		@ frame_needed = 0, uses_anonymous_args = 0
 609              		@ link register save eliminated.
 932:Generated_Source\PSoC5/CyLib.c ****     CY_LIB_SLOWCLK_ILO_CR0_REG &= ((uint8)(~CY_LIB_SLOWCLK_ILO_CR0_EN_100KHZ));
 610              		.loc 1 932 5 view .LVU118
 611              		.loc 1 932 32 is_stmt 0 view .LVU119
 612 0000 024A     		ldr	r2, .L55
 613 0002 1378     		ldrb	r3, [r2]	@ zero_extendqisi2
 614 0004 03F0FB03 		and	r3, r3, #251
 615 0008 1370     		strb	r3, [r2]
 933:Generated_Source\PSoC5/CyLib.c **** }
 616              		.loc 1 933 1 view .LVU120
 617 000a 7047     		bx	lr
 618              	.L56:
 619              		.align	2
 620              	.L55:
ARM GAS  C:\Users\jens-\AppData\Local\Temp\ccdWTNhT.s 			page 29


 621 000c 00430040 		.word	1073758976
 622              		.cfi_endproc
 623              	.LFE20:
 624              		.size	CyILO_Stop100K, .-CyILO_Stop100K
 625              		.section	.text.CyPLL_OUT_Start,"ax",%progbits
 626              		.align	1
 627              		.global	CyPLL_OUT_Start
 628              		.syntax unified
 629              		.thumb
 630              		.thumb_func
 631              		.fpu softvfp
 632              		.type	CyPLL_OUT_Start, %function
 633              	CyPLL_OUT_Start:
 634              	.LVL24:
 635              	.LFB0:
  98:Generated_Source\PSoC5/CyLib.c ****     cystatus status = CYRET_SUCCESS;
 636              		.loc 1 98 1 is_stmt 1 view -0
 637              		.cfi_startproc
 638              		@ args = 0, pretend = 0, frame = 0
 639              		@ frame_needed = 0, uses_anonymous_args = 0
  98:Generated_Source\PSoC5/CyLib.c ****     cystatus status = CYRET_SUCCESS;
 640              		.loc 1 98 1 is_stmt 0 view .LVU122
 641 0000 F8B5     		push	{r3, r4, r5, r6, r7, lr}
 642              		.cfi_def_cfa_offset 24
 643              		.cfi_offset 3, -24
 644              		.cfi_offset 4, -20
 645              		.cfi_offset 5, -16
 646              		.cfi_offset 6, -12
 647              		.cfi_offset 7, -8
 648              		.cfi_offset 14, -4
  99:Generated_Source\PSoC5/CyLib.c **** 
 649              		.loc 1 99 5 is_stmt 1 view .LVU123
 650              	.LVL25:
 101:Generated_Source\PSoC5/CyLib.c ****     uint8 pmTwCfg0State;
 651              		.loc 1 101 5 view .LVU124
 102:Generated_Source\PSoC5/CyLib.c ****     uint8 pmTwCfg2State;
 652              		.loc 1 102 5 view .LVU125
 103:Generated_Source\PSoC5/CyLib.c **** 
 653              		.loc 1 103 5 view .LVU126
 107:Generated_Source\PSoC5/CyLib.c **** 
 654              		.loc 1 107 5 view .LVU127
 107:Generated_Source\PSoC5/CyLib.c **** 
 655              		.loc 1 107 25 is_stmt 0 view .LVU128
 656 0002 194A     		ldr	r2, .L69
 657 0004 1378     		ldrb	r3, [r2]	@ zero_extendqisi2
 658 0006 43F00103 		orr	r3, r3, #1
 659 000a 1370     		strb	r3, [r2]
 109:Generated_Source\PSoC5/CyLib.c ****     {
 660              		.loc 1 109 5 is_stmt 1 view .LVU129
 109:Generated_Source\PSoC5/CyLib.c ****     {
 661              		.loc 1 109 7 is_stmt 0 view .LVU130
 662 000c 10B9     		cbnz	r0, .L66
  99:Generated_Source\PSoC5/CyLib.c **** 
 663              		.loc 1 99 14 view .LVU131
 664 000e 0027     		movs	r7, #0
 143:Generated_Source\PSoC5/CyLib.c **** }
 665              		.loc 1 143 5 is_stmt 1 view .LVU132
ARM GAS  C:\Users\jens-\AppData\Local\Temp\ccdWTNhT.s 			page 30


 666              	.LVL26:
 667              	.L57:
 144:Generated_Source\PSoC5/CyLib.c **** 
 668              		.loc 1 144 1 is_stmt 0 view .LVU133
 669 0010 3846     		mov	r0, r7
 670 0012 F8BD     		pop	{r3, r4, r5, r6, r7, pc}
 671              	.LVL27:
 672              	.L66:
 112:Generated_Source\PSoC5/CyLib.c ****         pmTwCfg0State = CY_LIB_PM_TW_CFG0_REG;
 673              		.loc 1 112 9 is_stmt 1 view .LVU134
 112:Generated_Source\PSoC5/CyLib.c ****         pmTwCfg0State = CY_LIB_PM_TW_CFG0_REG;
 674              		.loc 1 112 26 is_stmt 0 view .LVU135
 675 0014 154B     		ldr	r3, .L69+4
 676 0016 1E78     		ldrb	r6, [r3]	@ zero_extendqisi2
 112:Generated_Source\PSoC5/CyLib.c ****         pmTwCfg0State = CY_LIB_PM_TW_CFG0_REG;
 677              		.loc 1 112 24 view .LVU136
 678 0018 06F00406 		and	r6, r6, #4
 679              	.LVL28:
 113:Generated_Source\PSoC5/CyLib.c ****         pmTwCfg2State = CY_LIB_PM_TW_CFG2_REG;
 680              		.loc 1 113 9 is_stmt 1 view .LVU137
 113:Generated_Source\PSoC5/CyLib.c ****         pmTwCfg2State = CY_LIB_PM_TW_CFG2_REG;
 681              		.loc 1 113 23 is_stmt 0 view .LVU138
 682 001c 8033     		adds	r3, r3, #128
 683 001e 1D78     		ldrb	r5, [r3]	@ zero_extendqisi2
 684 0020 EDB2     		uxtb	r5, r5
 685              	.LVL29:
 114:Generated_Source\PSoC5/CyLib.c **** 
 686              		.loc 1 114 9 is_stmt 1 view .LVU139
 114:Generated_Source\PSoC5/CyLib.c **** 
 687              		.loc 1 114 23 is_stmt 0 view .LVU140
 688 0022 0233     		adds	r3, r3, #2
 689 0024 1C78     		ldrb	r4, [r3]	@ zero_extendqisi2
 690 0026 E4B2     		uxtb	r4, r4
 691              	.LVL30:
 116:Generated_Source\PSoC5/CyLib.c **** 
 692              		.loc 1 116 9 is_stmt 1 view .LVU141
 693 0028 1820     		movs	r0, #24
 694              	.LVL31:
 116:Generated_Source\PSoC5/CyLib.c **** 
 695              		.loc 1 116 9 is_stmt 0 view .LVU142
 696 002a FFF7FEFF 		bl	CyPmFtwSetInterval
 697              	.LVL32:
 118:Generated_Source\PSoC5/CyLib.c **** 
 698              		.loc 1 118 9 is_stmt 1 view .LVU143
 120:Generated_Source\PSoC5/CyLib.c ****         {
 699              		.loc 1 120 9 view .LVU144
 700              	.L59:
 120:Generated_Source\PSoC5/CyLib.c ****         {
 701              		.loc 1 120 14 view .LVU145
 120:Generated_Source\PSoC5/CyLib.c ****         {
 702              		.loc 1 120 38 is_stmt 0 view .LVU146
 703 002e 0120     		movs	r0, #1
 704 0030 FFF7FEFF 		bl	CyPmReadStatus
 705              	.LVL33:
 120:Generated_Source\PSoC5/CyLib.c ****         {
 706              		.loc 1 120 14 view .LVU147
 707 0034 10F0010F 		tst	r0, #1
ARM GAS  C:\Users\jens-\AppData\Local\Temp\ccdWTNhT.s 			page 31


 708 0038 0BD1     		bne	.L67
 123:Generated_Source\PSoC5/CyLib.c ****             {
 709              		.loc 1 123 13 is_stmt 1 view .LVU148
 123:Generated_Source\PSoC5/CyLib.c ****             {
 710              		.loc 1 123 23 is_stmt 0 view .LVU149
 711 003a 0D4B     		ldr	r3, .L69+8
 712 003c 1B78     		ldrb	r3, [r3]	@ zero_extendqisi2
 123:Generated_Source\PSoC5/CyLib.c ****             {
 713              		.loc 1 123 15 view .LVU150
 714 003e 13F0010F 		tst	r3, #1
 715 0042 F4D0     		beq	.L59
 125:Generated_Source\PSoC5/CyLib.c ****                 {
 716              		.loc 1 125 17 is_stmt 1 view .LVU151
 125:Generated_Source\PSoC5/CyLib.c ****                 {
 717              		.loc 1 125 27 is_stmt 0 view .LVU152
 718 0044 0A4B     		ldr	r3, .L69+8
 719 0046 1B78     		ldrb	r3, [r3]	@ zero_extendqisi2
 125:Generated_Source\PSoC5/CyLib.c ****                 {
 720              		.loc 1 125 19 view .LVU153
 721 0048 13F0010F 		tst	r3, #1
 722 004c EFD0     		beq	.L59
 127:Generated_Source\PSoC5/CyLib.c ****                     break;
 723              		.loc 1 127 28 view .LVU154
 724 004e 0027     		movs	r7, #0
 725 0050 00E0     		b	.L60
 726              	.L67:
 118:Generated_Source\PSoC5/CyLib.c **** 
 727              		.loc 1 118 16 view .LVU155
 728 0052 1027     		movs	r7, #16
 729              	.L60:
 730              	.LVL34:
 134:Generated_Source\PSoC5/CyLib.c ****         {
 731              		.loc 1 134 9 is_stmt 1 view .LVU156
 134:Generated_Source\PSoC5/CyLib.c ****         {
 732              		.loc 1 134 11 is_stmt 0 view .LVU157
 733 0054 26B1     		cbz	r6, .L68
 734              	.L62:
 139:Generated_Source\PSoC5/CyLib.c ****         CY_LIB_PM_TW_CFG2_REG = pmTwCfg2State;
 735              		.loc 1 139 9 is_stmt 1 view .LVU158
 139:Generated_Source\PSoC5/CyLib.c ****         CY_LIB_PM_TW_CFG2_REG = pmTwCfg2State;
 736              		.loc 1 139 31 is_stmt 0 view .LVU159
 737 0056 074B     		ldr	r3, .L69+12
 738 0058 1D70     		strb	r5, [r3]
 140:Generated_Source\PSoC5/CyLib.c ****     }
 739              		.loc 1 140 9 is_stmt 1 view .LVU160
 140:Generated_Source\PSoC5/CyLib.c ****     }
 740              		.loc 1 140 31 is_stmt 0 view .LVU161
 741 005a 0233     		adds	r3, r3, #2
 742 005c 1C70     		strb	r4, [r3]
 743 005e D7E7     		b	.L57
 744              	.L68:
 136:Generated_Source\PSoC5/CyLib.c ****         }
 745              		.loc 1 136 13 is_stmt 1 view .LVU162
 746 0060 FFF7FEFF 		bl	CyILO_Stop100K
 747              	.LVL35:
 748 0064 F7E7     		b	.L62
 749              	.L70:
ARM GAS  C:\Users\jens-\AppData\Local\Temp\ccdWTNhT.s 			page 32


 750 0066 00BF     		.align	2
 751              	.L69:
 752 0068 20420040 		.word	1073758752
 753 006c 00430040 		.word	1073758976
 754 0070 25420040 		.word	1073758757
 755 0074 80430040 		.word	1073759104
 756              		.cfi_endproc
 757              	.LFE0:
 758              		.size	CyPLL_OUT_Start, .-CyPLL_OUT_Start
 759              		.section	.text.CyIMO_Start,"ax",%progbits
 760              		.align	1
 761              		.global	CyIMO_Start
 762              		.syntax unified
 763              		.thumb
 764              		.thumb_func
 765              		.fpu softvfp
 766              		.type	CyIMO_Start, %function
 767              	CyIMO_Start:
 768              	.LVL36:
 769              	.LFB4:
 283:Generated_Source\PSoC5/CyLib.c ****     uint8 pmFtwCfg2Reg;
 770              		.loc 1 283 1 view -0
 771              		.cfi_startproc
 772              		@ args = 0, pretend = 0, frame = 0
 773              		@ frame_needed = 0, uses_anonymous_args = 0
 284:Generated_Source\PSoC5/CyLib.c ****     uint8 pmFtwCfg0Reg;
 774              		.loc 1 284 5 view .LVU164
 285:Generated_Source\PSoC5/CyLib.c ****     uint8 ilo100KhzEnable;
 775              		.loc 1 285 5 view .LVU165
 286:Generated_Source\PSoC5/CyLib.c **** 
 776              		.loc 1 286 5 view .LVU166
 289:Generated_Source\PSoC5/CyLib.c ****     CY_LIB_PM_STBY_CFG0_REG |= CY_LIB_PM_STBY_CFG0_IMO_EN;
 777              		.loc 1 289 5 view .LVU167
 289:Generated_Source\PSoC5/CyLib.c ****     CY_LIB_PM_STBY_CFG0_REG |= CY_LIB_PM_STBY_CFG0_IMO_EN;
 778              		.loc 1 289 29 is_stmt 0 view .LVU168
 779 0000 144A     		ldr	r2, .L81
 780 0002 1378     		ldrb	r3, [r2]	@ zero_extendqisi2
 781 0004 43F01003 		orr	r3, r3, #16
 782 0008 1370     		strb	r3, [r2]
 290:Generated_Source\PSoC5/CyLib.c **** 
 783              		.loc 1 290 5 is_stmt 1 view .LVU169
 290:Generated_Source\PSoC5/CyLib.c **** 
 784              		.loc 1 290 29 is_stmt 0 view .LVU170
 785 000a 1032     		adds	r2, r2, #16
 786 000c 1378     		ldrb	r3, [r2]	@ zero_extendqisi2
 787 000e 43F01003 		orr	r3, r3, #16
 788 0012 1370     		strb	r3, [r2]
 292:Generated_Source\PSoC5/CyLib.c ****     {
 789              		.loc 1 292 5 is_stmt 1 view .LVU171
 292:Generated_Source\PSoC5/CyLib.c ****     {
 790              		.loc 1 292 7 is_stmt 0 view .LVU172
 791 0014 00B9     		cbnz	r0, .L79
 792 0016 7047     		bx	lr
 793              	.L79:
 283:Generated_Source\PSoC5/CyLib.c ****     uint8 pmFtwCfg2Reg;
 794              		.loc 1 283 1 view .LVU173
 795 0018 70B5     		push	{r4, r5, r6, lr}
ARM GAS  C:\Users\jens-\AppData\Local\Temp\ccdWTNhT.s 			page 33


 796              		.cfi_def_cfa_offset 16
 797              		.cfi_offset 4, -16
 798              		.cfi_offset 5, -12
 799              		.cfi_offset 6, -8
 800              		.cfi_offset 14, -4
 295:Generated_Source\PSoC5/CyLib.c ****         pmFtwCfg0Reg = CY_LIB_PM_TW_CFG0_REG;
 801              		.loc 1 295 9 is_stmt 1 view .LVU174
 295:Generated_Source\PSoC5/CyLib.c ****         pmFtwCfg0Reg = CY_LIB_PM_TW_CFG0_REG;
 802              		.loc 1 295 27 is_stmt 0 view .LVU175
 803 001a 0F4B     		ldr	r3, .L81+4
 804 001c 1E78     		ldrb	r6, [r3]	@ zero_extendqisi2
 295:Generated_Source\PSoC5/CyLib.c ****         pmFtwCfg0Reg = CY_LIB_PM_TW_CFG0_REG;
 805              		.loc 1 295 25 view .LVU176
 806 001e 06F00406 		and	r6, r6, #4
 807              	.LVL37:
 296:Generated_Source\PSoC5/CyLib.c ****         pmFtwCfg2Reg = CY_LIB_PM_TW_CFG2_REG;
 808              		.loc 1 296 9 is_stmt 1 view .LVU177
 296:Generated_Source\PSoC5/CyLib.c ****         pmFtwCfg2Reg = CY_LIB_PM_TW_CFG2_REG;
 809              		.loc 1 296 22 is_stmt 0 view .LVU178
 810 0022 8033     		adds	r3, r3, #128
 811 0024 1D78     		ldrb	r5, [r3]	@ zero_extendqisi2
 812 0026 EDB2     		uxtb	r5, r5
 813              	.LVL38:
 297:Generated_Source\PSoC5/CyLib.c **** 
 814              		.loc 1 297 9 is_stmt 1 view .LVU179
 297:Generated_Source\PSoC5/CyLib.c **** 
 815              		.loc 1 297 22 is_stmt 0 view .LVU180
 816 0028 0233     		adds	r3, r3, #2
 817 002a 1C78     		ldrb	r4, [r3]	@ zero_extendqisi2
 818 002c E4B2     		uxtb	r4, r4
 819              	.LVL39:
 299:Generated_Source\PSoC5/CyLib.c **** 
 820              		.loc 1 299 9 is_stmt 1 view .LVU181
 821 002e 0020     		movs	r0, #0
 822              	.LVL40:
 299:Generated_Source\PSoC5/CyLib.c **** 
 823              		.loc 1 299 9 is_stmt 0 view .LVU182
 824 0030 FFF7FEFF 		bl	CyPmFtwSetInterval
 825              	.LVL41:
 301:Generated_Source\PSoC5/CyLib.c ****         {
 826              		.loc 1 301 9 is_stmt 1 view .LVU183
 827              	.L73:
 304:Generated_Source\PSoC5/CyLib.c **** 
 828              		.loc 1 304 9 discriminator 1 view .LVU184
 301:Generated_Source\PSoC5/CyLib.c ****         {
 829              		.loc 1 301 15 discriminator 1 view .LVU185
 301:Generated_Source\PSoC5/CyLib.c ****         {
 830              		.loc 1 301 39 is_stmt 0 discriminator 1 view .LVU186
 831 0034 0120     		movs	r0, #1
 832 0036 FFF7FEFF 		bl	CyPmReadStatus
 833              	.LVL42:
 301:Generated_Source\PSoC5/CyLib.c ****         {
 834              		.loc 1 301 15 discriminator 1 view .LVU187
 835 003a 10F0010F 		tst	r0, #1
 836 003e F9D0     		beq	.L73
 306:Generated_Source\PSoC5/CyLib.c ****         {
 837              		.loc 1 306 9 is_stmt 1 view .LVU188
ARM GAS  C:\Users\jens-\AppData\Local\Temp\ccdWTNhT.s 			page 34


 306:Generated_Source\PSoC5/CyLib.c ****         {
 838              		.loc 1 306 11 is_stmt 0 view .LVU189
 839 0040 26B1     		cbz	r6, .L80
 840              	.L74:
 311:Generated_Source\PSoC5/CyLib.c ****         CY_LIB_PM_TW_CFG2_REG = pmFtwCfg2Reg;
 841              		.loc 1 311 9 is_stmt 1 view .LVU190
 311:Generated_Source\PSoC5/CyLib.c ****         CY_LIB_PM_TW_CFG2_REG = pmFtwCfg2Reg;
 842              		.loc 1 311 31 is_stmt 0 view .LVU191
 843 0042 064B     		ldr	r3, .L81+8
 844 0044 1D70     		strb	r5, [r3]
 312:Generated_Source\PSoC5/CyLib.c ****     }
 845              		.loc 1 312 9 is_stmt 1 view .LVU192
 312:Generated_Source\PSoC5/CyLib.c ****     }
 846              		.loc 1 312 31 is_stmt 0 view .LVU193
 847 0046 0233     		adds	r3, r3, #2
 848 0048 1C70     		strb	r4, [r3]
 314:Generated_Source\PSoC5/CyLib.c **** 
 849              		.loc 1 314 1 view .LVU194
 850 004a 70BD     		pop	{r4, r5, r6, pc}
 851              	.LVL43:
 852              	.L80:
 308:Generated_Source\PSoC5/CyLib.c ****         }
 853              		.loc 1 308 13 is_stmt 1 view .LVU195
 854 004c FFF7FEFF 		bl	CyILO_Stop100K
 855              	.LVL44:
 856 0050 F7E7     		b	.L74
 857              	.L82:
 858 0052 00BF     		.align	2
 859              	.L81:
 860 0054 A0430040 		.word	1073759136
 861 0058 00430040 		.word	1073758976
 862 005c 80430040 		.word	1073759104
 863              		.cfi_endproc
 864              	.LFE4:
 865              		.size	CyIMO_Start, .-CyIMO_Start
 866              		.section	.text.CyILO_Enable33K,"ax",%progbits
 867              		.align	1
 868              		.global	CyILO_Enable33K
 869              		.syntax unified
 870              		.thumb
 871              		.thumb_func
 872              		.fpu softvfp
 873              		.type	CyILO_Enable33K, %function
 874              	CyILO_Enable33K:
 875              	.LFB21:
 934:Generated_Source\PSoC5/CyLib.c **** 
 935:Generated_Source\PSoC5/CyLib.c **** 
 936:Generated_Source\PSoC5/CyLib.c **** /*******************************************************************************
 937:Generated_Source\PSoC5/CyLib.c **** * Function Name: CyILO_Enable33K
 938:Generated_Source\PSoC5/CyLib.c **** ****************************************************************************//**
 939:Generated_Source\PSoC5/CyLib.c **** *
 940:Generated_Source\PSoC5/CyLib.c **** *  Enables the ILO 33 KHz divider.
 941:Generated_Source\PSoC5/CyLib.c **** *
 942:Generated_Source\PSoC5/CyLib.c **** *  Note that the 33 KHz clock is generated from the 100 KHz oscillator,
 943:Generated_Source\PSoC5/CyLib.c **** *  so it must also be running in order to generate the 33 KHz output.
 944:Generated_Source\PSoC5/CyLib.c **** *
 945:Generated_Source\PSoC5/CyLib.c **** *******************************************************************************/
ARM GAS  C:\Users\jens-\AppData\Local\Temp\ccdWTNhT.s 			page 35


 946:Generated_Source\PSoC5/CyLib.c **** void CyILO_Enable33K(void) 
 947:Generated_Source\PSoC5/CyLib.c **** {
 876              		.loc 1 947 1 view -0
 877              		.cfi_startproc
 878              		@ args = 0, pretend = 0, frame = 0
 879              		@ frame_needed = 0, uses_anonymous_args = 0
 880              		@ link register save eliminated.
 948:Generated_Source\PSoC5/CyLib.c ****     /* Set bit 5 of ILO RS */
 949:Generated_Source\PSoC5/CyLib.c ****     CY_LIB_SLOWCLK_ILO_CR0_REG |= CY_LIB_SLOWCLK_ILO_CR0_EN_33KHZ;
 881              		.loc 1 949 5 view .LVU197
 882              		.loc 1 949 32 is_stmt 0 view .LVU198
 883 0000 024A     		ldr	r2, .L84
 884 0002 1378     		ldrb	r3, [r2]	@ zero_extendqisi2
 885 0004 43F02003 		orr	r3, r3, #32
 886 0008 1370     		strb	r3, [r2]
 950:Generated_Source\PSoC5/CyLib.c **** }
 887              		.loc 1 950 1 view .LVU199
 888 000a 7047     		bx	lr
 889              	.L85:
 890              		.align	2
 891              	.L84:
 892 000c 00430040 		.word	1073758976
 893              		.cfi_endproc
 894              	.LFE21:
 895              		.size	CyILO_Enable33K, .-CyILO_Enable33K
 896              		.section	.text.CyILO_Disable33K,"ax",%progbits
 897              		.align	1
 898              		.global	CyILO_Disable33K
 899              		.syntax unified
 900              		.thumb
 901              		.thumb_func
 902              		.fpu softvfp
 903              		.type	CyILO_Disable33K, %function
 904              	CyILO_Disable33K:
 905              	.LFB22:
 951:Generated_Source\PSoC5/CyLib.c **** 
 952:Generated_Source\PSoC5/CyLib.c **** 
 953:Generated_Source\PSoC5/CyLib.c **** /*******************************************************************************
 954:Generated_Source\PSoC5/CyLib.c **** * Function Name: CyILO_Disable33K
 955:Generated_Source\PSoC5/CyLib.c **** ****************************************************************************//**
 956:Generated_Source\PSoC5/CyLib.c **** *
 957:Generated_Source\PSoC5/CyLib.c **** *  Disables the ILO 33 KHz divider.
 958:Generated_Source\PSoC5/CyLib.c **** *
 959:Generated_Source\PSoC5/CyLib.c **** *  Note that the 33 KHz clock is generated from the 100 KHz oscillator, but this
 960:Generated_Source\PSoC5/CyLib.c **** *  API does not disable the 100 KHz clock.
 961:Generated_Source\PSoC5/CyLib.c **** *
 962:Generated_Source\PSoC5/CyLib.c **** *******************************************************************************/
 963:Generated_Source\PSoC5/CyLib.c **** void CyILO_Disable33K(void) 
 964:Generated_Source\PSoC5/CyLib.c **** {
 906              		.loc 1 964 1 is_stmt 1 view -0
 907              		.cfi_startproc
 908              		@ args = 0, pretend = 0, frame = 0
 909              		@ frame_needed = 0, uses_anonymous_args = 0
 910              		@ link register save eliminated.
 965:Generated_Source\PSoC5/CyLib.c ****     CY_LIB_SLOWCLK_ILO_CR0_REG &= ((uint8)(~CY_LIB_SLOWCLK_ILO_CR0_EN_33KHZ));
 911              		.loc 1 965 5 view .LVU201
 912              		.loc 1 965 32 is_stmt 0 view .LVU202
ARM GAS  C:\Users\jens-\AppData\Local\Temp\ccdWTNhT.s 			page 36


 913 0000 024A     		ldr	r2, .L87
 914 0002 1378     		ldrb	r3, [r2]	@ zero_extendqisi2
 915 0004 03F0DF03 		and	r3, r3, #223
 916 0008 1370     		strb	r3, [r2]
 966:Generated_Source\PSoC5/CyLib.c **** }
 917              		.loc 1 966 1 view .LVU203
 918 000a 7047     		bx	lr
 919              	.L88:
 920              		.align	2
 921              	.L87:
 922 000c 00430040 		.word	1073758976
 923              		.cfi_endproc
 924              	.LFE22:
 925              		.size	CyILO_Disable33K, .-CyILO_Disable33K
 926              		.section	.text.CyILO_SetSource,"ax",%progbits
 927              		.align	1
 928              		.global	CyILO_SetSource
 929              		.syntax unified
 930              		.thumb
 931              		.thumb_func
 932              		.fpu softvfp
 933              		.type	CyILO_SetSource, %function
 934              	CyILO_SetSource:
 935              	.LVL45:
 936              	.LFB23:
 967:Generated_Source\PSoC5/CyLib.c **** 
 968:Generated_Source\PSoC5/CyLib.c **** 
 969:Generated_Source\PSoC5/CyLib.c **** /*******************************************************************************
 970:Generated_Source\PSoC5/CyLib.c **** * Function Name: CyILO_SetSource
 971:Generated_Source\PSoC5/CyLib.c **** ****************************************************************************//**
 972:Generated_Source\PSoC5/CyLib.c **** *
 973:Generated_Source\PSoC5/CyLib.c **** *  Sets the source of the clock output from the ILO block.
 974:Generated_Source\PSoC5/CyLib.c **** *
 975:Generated_Source\PSoC5/CyLib.c **** *  \param source: One of the three available ILO output sources
 976:Generated_Source\PSoC5/CyLib.c **** *       Value        Define                Source
 977:Generated_Source\PSoC5/CyLib.c **** *       0            CY_ILO_SOURCE_100K    ILO 100 KHz
 978:Generated_Source\PSoC5/CyLib.c **** *       1            CY_ILO_SOURCE_33K     ILO 33 KHz
 979:Generated_Source\PSoC5/CyLib.c **** *       2            CY_ILO_SOURCE_1K      ILO 1 KHz
 980:Generated_Source\PSoC5/CyLib.c **** *
 981:Generated_Source\PSoC5/CyLib.c **** *******************************************************************************/
 982:Generated_Source\PSoC5/CyLib.c **** void CyILO_SetSource(uint8 source) 
 983:Generated_Source\PSoC5/CyLib.c **** {
 937              		.loc 1 983 1 is_stmt 1 view -0
 938              		.cfi_startproc
 939              		@ args = 0, pretend = 0, frame = 0
 940              		@ frame_needed = 0, uses_anonymous_args = 0
 941              		@ link register save eliminated.
 984:Generated_Source\PSoC5/CyLib.c ****     CY_LIB_CLKDIST_CR_REG = (CY_LIB_CLKDIST_CR_REG & CY_ILO_SOURCE_BITS_CLEAR) |
 942              		.loc 1 984 5 view .LVU205
 943              		.loc 1 984 30 is_stmt 0 view .LVU206
 944 0000 4FF04022 		mov	r2, #1073758208
 945 0004 1378     		ldrb	r3, [r2]	@ zero_extendqisi2
 946              		.loc 1 984 52 view .LVU207
 947 0006 03F0F303 		and	r3, r3, #243
 985:Generated_Source\PSoC5/CyLib.c ****                     (((uint8) (source << 2u)) & ((uint8)(~CY_ILO_SOURCE_BITS_CLEAR)));
 948              		.loc 1 985 23 view .LVU208
 949 000a 8000     		lsls	r0, r0, #2
ARM GAS  C:\Users\jens-\AppData\Local\Temp\ccdWTNhT.s 			page 37


 950              	.LVL46:
 951              		.loc 1 985 47 view .LVU209
 952 000c 00F00C00 		and	r0, r0, #12
 984:Generated_Source\PSoC5/CyLib.c ****     CY_LIB_CLKDIST_CR_REG = (CY_LIB_CLKDIST_CR_REG & CY_ILO_SOURCE_BITS_CLEAR) |
 953              		.loc 1 984 80 view .LVU210
 954 0010 0343     		orrs	r3, r3, r0
 984:Generated_Source\PSoC5/CyLib.c ****     CY_LIB_CLKDIST_CR_REG = (CY_LIB_CLKDIST_CR_REG & CY_ILO_SOURCE_BITS_CLEAR) |
 955              		.loc 1 984 27 view .LVU211
 956 0012 1370     		strb	r3, [r2]
 986:Generated_Source\PSoC5/CyLib.c **** }
 957              		.loc 1 986 1 view .LVU212
 958 0014 7047     		bx	lr
 959              		.cfi_endproc
 960              	.LFE23:
 961              		.size	CyILO_SetSource, .-CyILO_SetSource
 962              		.section	.text.CyILO_SetPowerMode,"ax",%progbits
 963              		.align	1
 964              		.global	CyILO_SetPowerMode
 965              		.syntax unified
 966              		.thumb
 967              		.thumb_func
 968              		.fpu softvfp
 969              		.type	CyILO_SetPowerMode, %function
 970              	CyILO_SetPowerMode:
 971              	.LVL47:
 972              	.LFB24:
 987:Generated_Source\PSoC5/CyLib.c **** 
 988:Generated_Source\PSoC5/CyLib.c **** 
 989:Generated_Source\PSoC5/CyLib.c **** /*******************************************************************************
 990:Generated_Source\PSoC5/CyLib.c **** * Function Name: CyILO_SetPowerMode
 991:Generated_Source\PSoC5/CyLib.c **** ****************************************************************************//**
 992:Generated_Source\PSoC5/CyLib.c **** *
 993:Generated_Source\PSoC5/CyLib.c **** * Sets the power mode used by the ILO during power down. Allows for lower power
 994:Generated_Source\PSoC5/CyLib.c **** * down power usage resulting in a slower startup time.
 995:Generated_Source\PSoC5/CyLib.c **** *
 996:Generated_Source\PSoC5/CyLib.c **** * \param mode
 997:Generated_Source\PSoC5/CyLib.c **** * CY_ILO_FAST_START - Faster start-up, internal bias left on when powered down
 998:Generated_Source\PSoC5/CyLib.c **** * CY_ILO_SLOW_START - Slower start-up, internal bias off when powered down
 999:Generated_Source\PSoC5/CyLib.c **** *
1000:Generated_Source\PSoC5/CyLib.c **** * \return Prevous power mode state.
1001:Generated_Source\PSoC5/CyLib.c **** *
1002:Generated_Source\PSoC5/CyLib.c **** *******************************************************************************/
1003:Generated_Source\PSoC5/CyLib.c **** uint8 CyILO_SetPowerMode(uint8 mode) 
1004:Generated_Source\PSoC5/CyLib.c **** {
 973              		.loc 1 1004 1 is_stmt 1 view -0
 974              		.cfi_startproc
 975              		@ args = 0, pretend = 0, frame = 0
 976              		@ frame_needed = 0, uses_anonymous_args = 0
 977              		@ link register save eliminated.
1005:Generated_Source\PSoC5/CyLib.c ****     uint8 state;
 978              		.loc 1 1005 5 view .LVU214
1006:Generated_Source\PSoC5/CyLib.c **** 
1007:Generated_Source\PSoC5/CyLib.c ****     /* Get current state. */
1008:Generated_Source\PSoC5/CyLib.c ****     state = CY_LIB_SLOWCLK_ILO_CR0_REG;
 979              		.loc 1 1008 5 view .LVU215
 980              		.loc 1 1008 11 is_stmt 0 view .LVU216
 981 0000 074B     		ldr	r3, .L93
ARM GAS  C:\Users\jens-\AppData\Local\Temp\ccdWTNhT.s 			page 38


 982 0002 1B78     		ldrb	r3, [r3]	@ zero_extendqisi2
 983 0004 DBB2     		uxtb	r3, r3
 984              	.LVL48:
1009:Generated_Source\PSoC5/CyLib.c **** 
1010:Generated_Source\PSoC5/CyLib.c ****     /* Set the oscillator power mode. */
1011:Generated_Source\PSoC5/CyLib.c ****     if(mode != CY_ILO_FAST_START)
 985              		.loc 1 1011 5 is_stmt 1 view .LVU217
 986              		.loc 1 1011 7 is_stmt 0 view .LVU218
 987 0006 30B1     		cbz	r0, .L91
1012:Generated_Source\PSoC5/CyLib.c ****     {
1013:Generated_Source\PSoC5/CyLib.c ****         CY_LIB_SLOWCLK_ILO_CR0_REG = (state | CY_ILO_CONTROL_PD_MODE);
 988              		.loc 1 1013 9 is_stmt 1 view .LVU219
 989              		.loc 1 1013 36 is_stmt 0 view .LVU220
 990 0008 43F01002 		orr	r2, r3, #16
 991 000c 0449     		ldr	r1, .L93
 992 000e 0A70     		strb	r2, [r1]
 993              	.L92:
1014:Generated_Source\PSoC5/CyLib.c ****     }
1015:Generated_Source\PSoC5/CyLib.c ****     else
1016:Generated_Source\PSoC5/CyLib.c ****     {
1017:Generated_Source\PSoC5/CyLib.c ****         CY_LIB_SLOWCLK_ILO_CR0_REG = (state & ((uint8)(~CY_ILO_CONTROL_PD_MODE)));
1018:Generated_Source\PSoC5/CyLib.c ****     }
1019:Generated_Source\PSoC5/CyLib.c **** 
1020:Generated_Source\PSoC5/CyLib.c ****     /* Return old mode. */
1021:Generated_Source\PSoC5/CyLib.c ****     return ((state & CY_ILO_CONTROL_PD_MODE) >> CY_ILO_CONTROL_PD_POSITION);
 994              		.loc 1 1021 5 is_stmt 1 view .LVU221
1022:Generated_Source\PSoC5/CyLib.c **** }
 995              		.loc 1 1022 1 is_stmt 0 view .LVU222
 996 0010 C3F30010 		ubfx	r0, r3, #4, #1
 997              	.LVL49:
 998              		.loc 1 1022 1 view .LVU223
 999 0014 7047     		bx	lr
 1000              	.LVL50:
 1001              	.L91:
1017:Generated_Source\PSoC5/CyLib.c ****     }
 1002              		.loc 1 1017 9 is_stmt 1 view .LVU224
1017:Generated_Source\PSoC5/CyLib.c ****     }
 1003              		.loc 1 1017 45 is_stmt 0 view .LVU225
 1004 0016 03F0EF02 		and	r2, r3, #239
1017:Generated_Source\PSoC5/CyLib.c ****     }
 1005              		.loc 1 1017 36 view .LVU226
 1006 001a 0149     		ldr	r1, .L93
 1007 001c 0A70     		strb	r2, [r1]
 1008 001e F7E7     		b	.L92
 1009              	.L94:
 1010              		.align	2
 1011              	.L93:
 1012 0020 00430040 		.word	1073758976
 1013              		.cfi_endproc
 1014              	.LFE24:
 1015              		.size	CyILO_SetPowerMode, .-CyILO_SetPowerMode
 1016              		.section	.text.CyXTAL_32KHZ_Stop,"ax",%progbits
 1017              		.align	1
 1018              		.global	CyXTAL_32KHZ_Stop
 1019              		.syntax unified
 1020              		.thumb
 1021              		.thumb_func
ARM GAS  C:\Users\jens-\AppData\Local\Temp\ccdWTNhT.s 			page 39


 1022              		.fpu softvfp
 1023              		.type	CyXTAL_32KHZ_Stop, %function
 1024              	CyXTAL_32KHZ_Stop:
 1025              	.LFB26:
1023:Generated_Source\PSoC5/CyLib.c **** 
1024:Generated_Source\PSoC5/CyLib.c **** 
1025:Generated_Source\PSoC5/CyLib.c **** /*******************************************************************************
1026:Generated_Source\PSoC5/CyLib.c **** * Function Name: CyXTAL_32KHZ_Start
1027:Generated_Source\PSoC5/CyLib.c **** ****************************************************************************//**
1028:Generated_Source\PSoC5/CyLib.c **** *
1029:Generated_Source\PSoC5/CyLib.c **** *  Enables the 32 KHz Crystal Oscillator.
1030:Generated_Source\PSoC5/CyLib.c **** *
1031:Generated_Source\PSoC5/CyLib.c **** *******************************************************************************/
1032:Generated_Source\PSoC5/CyLib.c **** void CyXTAL_32KHZ_Start(void) 
1033:Generated_Source\PSoC5/CyLib.c **** {
1034:Generated_Source\PSoC5/CyLib.c ****     volatile uint16 i;
1035:Generated_Source\PSoC5/CyLib.c **** 
1036:Generated_Source\PSoC5/CyLib.c ****     CY_CLK_XTAL32_TST_REG = CY_CLK_XTAL32_TST_DEFAULT;
1037:Generated_Source\PSoC5/CyLib.c ****     CY_CLK_XTAL32_TR_REG  = CY_CLK_XTAL32_TR_STARTUP;
1038:Generated_Source\PSoC5/CyLib.c ****     CY_CLK_XTAL32_CFG_REG = (CY_CLK_XTAL32_CFG_REG & ((uint8)(~CY_CLK_XTAL32_CFG_LP_MASK))) |
1039:Generated_Source\PSoC5/CyLib.c ****                                 CY_CLK_XTAL32_CFG_LP_DEFAULT;
1040:Generated_Source\PSoC5/CyLib.c **** 
1041:Generated_Source\PSoC5/CyLib.c ****     #if(CY_PSOC3)
1042:Generated_Source\PSoC5/CyLib.c ****         CY_CLK_XTAL32_CR_REG |= CY_CLK_XTAL32_CR_PDBEN;
1043:Generated_Source\PSoC5/CyLib.c ****     #endif  /* (CY_PSOC3) */
1044:Generated_Source\PSoC5/CyLib.c **** 
1045:Generated_Source\PSoC5/CyLib.c ****     /* Enable operation of 32K Crystal Oscillator */
1046:Generated_Source\PSoC5/CyLib.c ****     CY_CLK_XTAL32_CR_REG |= CY_CLK_XTAL32_CR_EN;
1047:Generated_Source\PSoC5/CyLib.c **** 
1048:Generated_Source\PSoC5/CyLib.c ****     for (i = 1000u; i > 0u; i--)
1049:Generated_Source\PSoC5/CyLib.c ****     {
1050:Generated_Source\PSoC5/CyLib.c ****         if(0u != (CyXTAL_32KHZ_ReadStatus() & CY_XTAL32K_ANA_STAT))
1051:Generated_Source\PSoC5/CyLib.c ****         {
1052:Generated_Source\PSoC5/CyLib.c ****             /* Ready - switch to high power mode */
1053:Generated_Source\PSoC5/CyLib.c ****             (void) CyXTAL_32KHZ_SetPowerMode(0u);
1054:Generated_Source\PSoC5/CyLib.c **** 
1055:Generated_Source\PSoC5/CyLib.c ****             break;
1056:Generated_Source\PSoC5/CyLib.c ****         }
1057:Generated_Source\PSoC5/CyLib.c ****         CyDelayUs(1u);
1058:Generated_Source\PSoC5/CyLib.c ****     }
1059:Generated_Source\PSoC5/CyLib.c **** }
1060:Generated_Source\PSoC5/CyLib.c **** 
1061:Generated_Source\PSoC5/CyLib.c **** 
1062:Generated_Source\PSoC5/CyLib.c **** /*******************************************************************************
1063:Generated_Source\PSoC5/CyLib.c **** * Function Name: CyXTAL_32KHZ_Stop
1064:Generated_Source\PSoC5/CyLib.c **** ****************************************************************************//**
1065:Generated_Source\PSoC5/CyLib.c **** *
1066:Generated_Source\PSoC5/CyLib.c **** *  Disables the 32KHz Crystal Oscillator.
1067:Generated_Source\PSoC5/CyLib.c **** *
1068:Generated_Source\PSoC5/CyLib.c **** *******************************************************************************/
1069:Generated_Source\PSoC5/CyLib.c **** void CyXTAL_32KHZ_Stop(void) 
1070:Generated_Source\PSoC5/CyLib.c **** {
 1026              		.loc 1 1070 1 is_stmt 1 view -0
 1027              		.cfi_startproc
 1028              		@ args = 0, pretend = 0, frame = 0
 1029              		@ frame_needed = 0, uses_anonymous_args = 0
 1030              		@ link register save eliminated.
ARM GAS  C:\Users\jens-\AppData\Local\Temp\ccdWTNhT.s 			page 40


1071:Generated_Source\PSoC5/CyLib.c ****     CY_CLK_XTAL32_TST_REG  = CY_CLK_XTAL32_TST_DEFAULT;
 1031              		.loc 1 1071 5 view .LVU228
 1032              		.loc 1 1071 28 is_stmt 0 view .LVU229
 1033 0000 094B     		ldr	r3, .L96
 1034 0002 F322     		movs	r2, #243
 1035 0004 1A70     		strb	r2, [r3]
1072:Generated_Source\PSoC5/CyLib.c ****     CY_CLK_XTAL32_TR_REG   = CY_CLK_XTAL32_TR_POWERDOWN;
 1036              		.loc 1 1072 5 is_stmt 1 view .LVU230
 1037              		.loc 1 1072 28 is_stmt 0 view .LVU231
 1038 0006 03F28E33 		addw	r3, r3, #910
 1039 000a 0022     		movs	r2, #0
 1040 000c 1A70     		strb	r2, [r3]
1073:Generated_Source\PSoC5/CyLib.c ****     CY_CLK_XTAL32_CFG_REG = (CY_CLK_XTAL32_CFG_REG & ((uint8)(~CY_CLK_XTAL32_CFG_LP_MASK))) |
 1041              		.loc 1 1073 5 is_stmt 1 view .LVU232
 1042              		.loc 1 1073 30 is_stmt 0 view .LVU233
 1043 000e 074A     		ldr	r2, .L96+4
 1044 0010 1378     		ldrb	r3, [r2]	@ zero_extendqisi2
 1045              		.loc 1 1073 52 view .LVU234
 1046 0012 03F0F303 		and	r3, r3, #243
 1047              		.loc 1 1073 93 view .LVU235
 1048 0016 43F00403 		orr	r3, r3, #4
 1049              		.loc 1 1073 27 view .LVU236
 1050 001a 1370     		strb	r3, [r2]
1074:Generated_Source\PSoC5/CyLib.c ****                              CY_CLK_XTAL32_CFG_LP_DEFAULT;
1075:Generated_Source\PSoC5/CyLib.c ****     CY_CLK_XTAL32_CR_REG &= ((uint8)(~(CY_CLK_XTAL32_CR_EN | CY_CLK_XTAL32_CR_LPM)));
 1051              		.loc 1 1075 5 is_stmt 1 view .LVU237
 1052              		.loc 1 1075 26 is_stmt 0 view .LVU238
 1053 001c 013A     		subs	r2, r2, #1
 1054 001e 1378     		ldrb	r3, [r2]	@ zero_extendqisi2
 1055 0020 03F0FC03 		and	r3, r3, #252
 1056 0024 1370     		strb	r3, [r2]
1076:Generated_Source\PSoC5/CyLib.c **** 
1077:Generated_Source\PSoC5/CyLib.c ****     #if(CY_PSOC3)
1078:Generated_Source\PSoC5/CyLib.c ****         CY_CLK_XTAL32_CR_REG &= ((uint8)(~CY_CLK_XTAL32_CR_PDBEN));
1079:Generated_Source\PSoC5/CyLib.c ****     #endif  /* (CY_PSOC3) */
1080:Generated_Source\PSoC5/CyLib.c **** }
 1057              		.loc 1 1080 1 view .LVU239
 1058 0026 7047     		bx	lr
 1059              	.L97:
 1060              		.align	2
 1061              	.L96:
 1062 0028 0A430040 		.word	1073758986
 1063 002c 09430040 		.word	1073758985
 1064              		.cfi_endproc
 1065              	.LFE26:
 1066              		.size	CyXTAL_32KHZ_Stop, .-CyXTAL_32KHZ_Stop
 1067              		.section	.text.CyXTAL_32KHZ_ReadStatus,"ax",%progbits
 1068              		.align	1
 1069              		.global	CyXTAL_32KHZ_ReadStatus
 1070              		.syntax unified
 1071              		.thumb
 1072              		.thumb_func
 1073              		.fpu softvfp
 1074              		.type	CyXTAL_32KHZ_ReadStatus, %function
 1075              	CyXTAL_32KHZ_ReadStatus:
 1076              	.LFB27:
1081:Generated_Source\PSoC5/CyLib.c **** 
ARM GAS  C:\Users\jens-\AppData\Local\Temp\ccdWTNhT.s 			page 41


1082:Generated_Source\PSoC5/CyLib.c **** 
1083:Generated_Source\PSoC5/CyLib.c **** /*******************************************************************************
1084:Generated_Source\PSoC5/CyLib.c **** * Function Name: CyXTAL_32KHZ_ReadStatus
1085:Generated_Source\PSoC5/CyLib.c **** ****************************************************************************//**
1086:Generated_Source\PSoC5/CyLib.c **** *
1087:Generated_Source\PSoC5/CyLib.c **** *  Returns status of the 32 KHz oscillator.
1088:Generated_Source\PSoC5/CyLib.c **** *
1089:Generated_Source\PSoC5/CyLib.c **** * \return
1090:Generated_Source\PSoC5/CyLib.c **** *  Value     Define                    Source
1091:Generated_Source\PSoC5/CyLib.c **** *  20        CY_XTAL32K_ANA_STAT       Analog measurement
1092:Generated_Source\PSoC5/CyLib.c **** *                                       1: Stable
1093:Generated_Source\PSoC5/CyLib.c **** *                                       0: Not stable
1094:Generated_Source\PSoC5/CyLib.c **** *
1095:Generated_Source\PSoC5/CyLib.c **** *******************************************************************************/
1096:Generated_Source\PSoC5/CyLib.c **** uint8 CyXTAL_32KHZ_ReadStatus(void) 
1097:Generated_Source\PSoC5/CyLib.c **** {
 1077              		.loc 1 1097 1 is_stmt 1 view -0
 1078              		.cfi_startproc
 1079              		@ args = 0, pretend = 0, frame = 0
 1080              		@ frame_needed = 0, uses_anonymous_args = 0
 1081              		@ link register save eliminated.
1098:Generated_Source\PSoC5/CyLib.c ****     return(CY_CLK_XTAL32_CR_REG & CY_XTAL32K_ANA_STAT);
 1082              		.loc 1 1098 5 view .LVU241
 1083              		.loc 1 1098 12 is_stmt 0 view .LVU242
 1084 0000 024B     		ldr	r3, .L99
 1085 0002 1878     		ldrb	r0, [r3]	@ zero_extendqisi2
1099:Generated_Source\PSoC5/CyLib.c **** }
 1086              		.loc 1 1099 1 view .LVU243
 1087 0004 00F02000 		and	r0, r0, #32
 1088 0008 7047     		bx	lr
 1089              	.L100:
 1090 000a 00BF     		.align	2
 1091              	.L99:
 1092 000c 08430040 		.word	1073758984
 1093              		.cfi_endproc
 1094              	.LFE27:
 1095              		.size	CyXTAL_32KHZ_ReadStatus, .-CyXTAL_32KHZ_ReadStatus
 1096              		.section	.text.CyXTAL_Start,"ax",%progbits
 1097              		.align	1
 1098              		.global	CyXTAL_Start
 1099              		.syntax unified
 1100              		.thumb
 1101              		.thumb_func
 1102              		.fpu softvfp
 1103              		.type	CyXTAL_Start, %function
 1104              	CyXTAL_Start:
 1105              	.LVL51:
 1106              	.LFB29:
1100:Generated_Source\PSoC5/CyLib.c **** 
1101:Generated_Source\PSoC5/CyLib.c **** 
1102:Generated_Source\PSoC5/CyLib.c **** /*******************************************************************************
1103:Generated_Source\PSoC5/CyLib.c **** * Function Name: CyXTAL_32KHZ_SetPowerMode
1104:Generated_Source\PSoC5/CyLib.c **** ****************************************************************************//**
1105:Generated_Source\PSoC5/CyLib.c **** *
1106:Generated_Source\PSoC5/CyLib.c **** *  Sets the power mode for the 32 KHz oscillator used during the sleep mode.
1107:Generated_Source\PSoC5/CyLib.c **** *  Allows for lower power during sleep when there are fewer sources of noise.
1108:Generated_Source\PSoC5/CyLib.c **** *  During the active mode the oscillator is always run in the high power mode.
ARM GAS  C:\Users\jens-\AppData\Local\Temp\ccdWTNhT.s 			page 42


1109:Generated_Source\PSoC5/CyLib.c **** *
1110:Generated_Source\PSoC5/CyLib.c **** *  uint8 mode
1111:Generated_Source\PSoC5/CyLib.c **** *       \param 0: High power mode
1112:Generated_Source\PSoC5/CyLib.c **** *       \param 1: Low power mode during sleep
1113:Generated_Source\PSoC5/CyLib.c **** *
1114:Generated_Source\PSoC5/CyLib.c **** * \return
1115:Generated_Source\PSoC5/CyLib.c **** *  Previous power mode.
1116:Generated_Source\PSoC5/CyLib.c **** *
1117:Generated_Source\PSoC5/CyLib.c **** *******************************************************************************/
1118:Generated_Source\PSoC5/CyLib.c **** uint8 CyXTAL_32KHZ_SetPowerMode(uint8 mode) 
1119:Generated_Source\PSoC5/CyLib.c **** {
1120:Generated_Source\PSoC5/CyLib.c ****     uint8 state = (0u != (CY_CLK_XTAL32_CR_REG & CY_CLK_XTAL32_CR_LPM)) ? 1u : 0u;
1121:Generated_Source\PSoC5/CyLib.c **** 
1122:Generated_Source\PSoC5/CyLib.c ****     CY_CLK_XTAL32_TST_REG = CY_CLK_XTAL32_TST_DEFAULT;
1123:Generated_Source\PSoC5/CyLib.c **** 
1124:Generated_Source\PSoC5/CyLib.c ****     if(1u == mode)
1125:Generated_Source\PSoC5/CyLib.c ****     {
1126:Generated_Source\PSoC5/CyLib.c ****         /* Low power mode during Sleep */
1127:Generated_Source\PSoC5/CyLib.c ****         CY_CLK_XTAL32_TR_REG  = CY_CLK_XTAL32_TR_LOW_POWER;
1128:Generated_Source\PSoC5/CyLib.c ****         CyDelayUs(10u);
1129:Generated_Source\PSoC5/CyLib.c ****         CY_CLK_XTAL32_CFG_REG = (CY_CLK_XTAL32_CFG_REG & ((uint8)(~CY_CLK_XTAL32_CFG_LP_MASK))) |
1130:Generated_Source\PSoC5/CyLib.c ****                                 CY_CLK_XTAL32_CFG_LP_LOWPOWER;
1131:Generated_Source\PSoC5/CyLib.c ****         CyDelayUs(20u);
1132:Generated_Source\PSoC5/CyLib.c ****         CY_CLK_XTAL32_CR_REG |= CY_CLK_XTAL32_CR_LPM;
1133:Generated_Source\PSoC5/CyLib.c ****     }
1134:Generated_Source\PSoC5/CyLib.c ****     else
1135:Generated_Source\PSoC5/CyLib.c ****     {
1136:Generated_Source\PSoC5/CyLib.c ****         /* High power mode */
1137:Generated_Source\PSoC5/CyLib.c ****         CY_CLK_XTAL32_TR_REG  = CY_CLK_XTAL32_TR_HIGH_POWER;
1138:Generated_Source\PSoC5/CyLib.c ****         CyDelayUs(10u);
1139:Generated_Source\PSoC5/CyLib.c ****         CY_CLK_XTAL32_CFG_REG = (CY_CLK_XTAL32_CFG_REG & ((uint8)(~CY_CLK_XTAL32_CFG_LP_MASK))) |
1140:Generated_Source\PSoC5/CyLib.c ****                                 CY_CLK_XTAL32_CFG_LP_DEFAULT;
1141:Generated_Source\PSoC5/CyLib.c ****         CY_CLK_XTAL32_CR_REG &= ((uint8)(~CY_CLK_XTAL32_CR_LPM));
1142:Generated_Source\PSoC5/CyLib.c ****     }
1143:Generated_Source\PSoC5/CyLib.c **** 
1144:Generated_Source\PSoC5/CyLib.c ****     return(state);
1145:Generated_Source\PSoC5/CyLib.c **** }
1146:Generated_Source\PSoC5/CyLib.c **** 
1147:Generated_Source\PSoC5/CyLib.c **** 
1148:Generated_Source\PSoC5/CyLib.c **** /*******************************************************************************
1149:Generated_Source\PSoC5/CyLib.c **** * Function Name: CyXTAL_Start
1150:Generated_Source\PSoC5/CyLib.c **** ****************************************************************************//**
1151:Generated_Source\PSoC5/CyLib.c **** *
1152:Generated_Source\PSoC5/CyLib.c **** *  Enables the megahertz crystal.
1153:Generated_Source\PSoC5/CyLib.c **** *
1154:Generated_Source\PSoC5/CyLib.c **** *  PSoC 3:
1155:Generated_Source\PSoC5/CyLib.c **** *  Waits until the XERR bit is low (no error) for a millisecond or until the
1156:Generated_Source\PSoC5/CyLib.c **** *  number of milliseconds specified by the wait parameter has expired.
1157:Generated_Source\PSoC5/CyLib.c **** *
1158:Generated_Source\PSoC5/CyLib.c **** *   \param wait: Valid range [0-255].
1159:Generated_Source\PSoC5/CyLib.c **** *   This is the timeout value in milliseconds.
1160:Generated_Source\PSoC5/CyLib.c **** *   The appropriate value is crystal specific.
1161:Generated_Source\PSoC5/CyLib.c **** *
1162:Generated_Source\PSoC5/CyLib.c **** * \return
1163:Generated_Source\PSoC5/CyLib.c **** *   CYRET_SUCCESS - Completed successfully
1164:Generated_Source\PSoC5/CyLib.c **** *   CYRET_TIMEOUT - Timeout occurred without detecting a low value on XERR.
1165:Generated_Source\PSoC5/CyLib.c **** *
ARM GAS  C:\Users\jens-\AppData\Local\Temp\ccdWTNhT.s 			page 43


1166:Generated_Source\PSoC5/CyLib.c **** * Side Effects and Restrictions:
1167:Generated_Source\PSoC5/CyLib.c **** *  If wait is enabled (non-zero wait). Uses the Fast Timewheel to time the wait.
1168:Generated_Source\PSoC5/CyLib.c **** *  Any other use of the Fast Timewheel (FTW) will be stopped during the period
1169:Generated_Source\PSoC5/CyLib.c **** *  of this function and then restored.
1170:Generated_Source\PSoC5/CyLib.c **** *
1171:Generated_Source\PSoC5/CyLib.c **** *  Uses the 100KHz ILO.  If not enabled, this function will enable the 100KHz
1172:Generated_Source\PSoC5/CyLib.c **** *  ILO for the period of this function. No changes to the setup of the ILO,
1173:Generated_Source\PSoC5/CyLib.c **** *  Fast Timewheel, Central Timewheel or Once Per Second interrupt may be made
1174:Generated_Source\PSoC5/CyLib.c **** *  by interrupt routines during the period of this function.
1175:Generated_Source\PSoC5/CyLib.c **** *
1176:Generated_Source\PSoC5/CyLib.c **** *  The current operation of the ILO, Central Timewheel and Once Per Second
1177:Generated_Source\PSoC5/CyLib.c **** *  interrupt are maintained during the operation of this function provided the
1178:Generated_Source\PSoC5/CyLib.c **** *  reading of the Power Manager Interrupt Status Register is only done using the
1179:Generated_Source\PSoC5/CyLib.c **** *  CyPmReadStatus() function.
1180:Generated_Source\PSoC5/CyLib.c **** *
1181:Generated_Source\PSoC5/CyLib.c **** *******************************************************************************/
1182:Generated_Source\PSoC5/CyLib.c **** cystatus CyXTAL_Start(uint8 wait) 
1183:Generated_Source\PSoC5/CyLib.c **** {
 1107              		.loc 1 1183 1 is_stmt 1 view -0
 1108              		.cfi_startproc
 1109              		@ args = 0, pretend = 0, frame = 8
 1110              		@ frame_needed = 0, uses_anonymous_args = 0
 1111              		.loc 1 1183 1 is_stmt 0 view .LVU245
 1112 0000 F0B5     		push	{r4, r5, r6, r7, lr}
 1113              		.cfi_def_cfa_offset 20
 1114              		.cfi_offset 4, -20
 1115              		.cfi_offset 5, -16
 1116              		.cfi_offset 6, -12
 1117              		.cfi_offset 7, -8
 1118              		.cfi_offset 14, -4
 1119 0002 83B0     		sub	sp, sp, #12
 1120              		.cfi_def_cfa_offset 32
1184:Generated_Source\PSoC5/CyLib.c ****     cystatus status = CYRET_SUCCESS;
 1121              		.loc 1 1184 5 is_stmt 1 view .LVU246
 1122              	.LVL52:
1185:Generated_Source\PSoC5/CyLib.c ****     volatile uint8  timeout = wait;
 1123              		.loc 1 1185 5 view .LVU247
 1124              		.loc 1 1185 21 is_stmt 0 view .LVU248
 1125 0004 8DF80700 		strb	r0, [sp, #7]
1186:Generated_Source\PSoC5/CyLib.c ****     volatile uint8 count;
 1126              		.loc 1 1186 5 is_stmt 1 view .LVU249
1187:Generated_Source\PSoC5/CyLib.c ****     uint8 iloEnableState;
 1127              		.loc 1 1187 5 view .LVU250
1188:Generated_Source\PSoC5/CyLib.c ****     uint8 pmTwCfg0Tmp;
 1128              		.loc 1 1188 5 view .LVU251
1189:Generated_Source\PSoC5/CyLib.c ****     uint8 pmTwCfg2Tmp;
 1129              		.loc 1 1189 5 view .LVU252
1190:Generated_Source\PSoC5/CyLib.c **** 
1191:Generated_Source\PSoC5/CyLib.c **** 
1192:Generated_Source\PSoC5/CyLib.c ****     /* Enables MHz crystal oscillator circuit  */
1193:Generated_Source\PSoC5/CyLib.c ****     CY_CLK_XMHZ_CSR_REG |= CY_CLK_XMHZ_CSR_ENABLE;
 1130              		.loc 1 1193 5 view .LVU253
 1131              		.loc 1 1193 25 is_stmt 0 view .LVU254
 1132 0008 244A     		ldr	r2, .L115
 1133 000a 1378     		ldrb	r3, [r2]	@ zero_extendqisi2
 1134 000c 43F00103 		orr	r3, r3, #1
 1135 0010 1370     		strb	r3, [r2]
ARM GAS  C:\Users\jens-\AppData\Local\Temp\ccdWTNhT.s 			page 44


1194:Generated_Source\PSoC5/CyLib.c **** 
1195:Generated_Source\PSoC5/CyLib.c **** 
1196:Generated_Source\PSoC5/CyLib.c ****     if(wait > 0u)
 1136              		.loc 1 1196 5 is_stmt 1 view .LVU255
 1137              		.loc 1 1196 7 is_stmt 0 view .LVU256
 1138 0012 18B9     		cbnz	r0, .L112
1184:Generated_Source\PSoC5/CyLib.c ****     volatile uint8  timeout = wait;
 1139              		.loc 1 1184 14 view .LVU257
 1140 0014 0027     		movs	r7, #0
1197:Generated_Source\PSoC5/CyLib.c ****     {
1198:Generated_Source\PSoC5/CyLib.c ****         /* Save 100 KHz ILO, FTW interval, enable and interrupt enable */
1199:Generated_Source\PSoC5/CyLib.c ****         iloEnableState = CY_LIB_SLOWCLK_ILO_CR0_REG;
1200:Generated_Source\PSoC5/CyLib.c ****         pmTwCfg0Tmp = CY_LIB_PM_TW_CFG0_REG;
1201:Generated_Source\PSoC5/CyLib.c ****         pmTwCfg2Tmp = CY_LIB_PM_TW_CFG2_REG;
1202:Generated_Source\PSoC5/CyLib.c **** 
1203:Generated_Source\PSoC5/CyLib.c ****         /* Set 250 us interval */
1204:Generated_Source\PSoC5/CyLib.c ****         CyPmFtwSetInterval(CY_CLK_XMHZ_FTW_INTERVAL);
1205:Generated_Source\PSoC5/CyLib.c ****         status = CYRET_TIMEOUT;
1206:Generated_Source\PSoC5/CyLib.c **** 
1207:Generated_Source\PSoC5/CyLib.c **** 
1208:Generated_Source\PSoC5/CyLib.c ****         for( ; timeout > 0u; timeout--)
1209:Generated_Source\PSoC5/CyLib.c ****         {
1210:Generated_Source\PSoC5/CyLib.c ****             /* Read XERR bit to clear it */
1211:Generated_Source\PSoC5/CyLib.c ****             (void) CY_CLK_XMHZ_CSR_REG;
1212:Generated_Source\PSoC5/CyLib.c **** 
1213:Generated_Source\PSoC5/CyLib.c ****             /* Wait for 1 millisecond - 4 x 250 us */
1214:Generated_Source\PSoC5/CyLib.c ****             for(count = 4u; count > 0u; count--)
1215:Generated_Source\PSoC5/CyLib.c ****             {
1216:Generated_Source\PSoC5/CyLib.c ****                 while(0u == (CY_PM_FTW_INT & CyPmReadStatus(CY_PM_FTW_INT)))
1217:Generated_Source\PSoC5/CyLib.c ****                 {
1218:Generated_Source\PSoC5/CyLib.c ****                     /* Wait for FTW interrupt event */
1219:Generated_Source\PSoC5/CyLib.c ****                 }
1220:Generated_Source\PSoC5/CyLib.c ****             }
1221:Generated_Source\PSoC5/CyLib.c **** 
1222:Generated_Source\PSoC5/CyLib.c **** 
1223:Generated_Source\PSoC5/CyLib.c ****             /*******************************************************************
1224:Generated_Source\PSoC5/CyLib.c ****             * High output indicates an oscillator failure.
1225:Generated_Source\PSoC5/CyLib.c ****             * Only can be used after a start-up interval (1 ms) is completed.
1226:Generated_Source\PSoC5/CyLib.c ****             *******************************************************************/
1227:Generated_Source\PSoC5/CyLib.c ****             if(0u == (CY_CLK_XMHZ_CSR_REG & CY_CLK_XMHZ_CSR_XERR))
1228:Generated_Source\PSoC5/CyLib.c ****             {
1229:Generated_Source\PSoC5/CyLib.c ****                 status = CYRET_SUCCESS;
1230:Generated_Source\PSoC5/CyLib.c ****                 break;
1231:Generated_Source\PSoC5/CyLib.c ****             }
1232:Generated_Source\PSoC5/CyLib.c ****         }
1233:Generated_Source\PSoC5/CyLib.c **** 
1234:Generated_Source\PSoC5/CyLib.c **** 
1235:Generated_Source\PSoC5/CyLib.c ****         /* Restore 100 KHz ILO, FTW interval, enable and interrupt enable */
1236:Generated_Source\PSoC5/CyLib.c ****         if(0u == (iloEnableState & CY_LIB_SLOWCLK_ILO_CR0_EN_100KHZ))
1237:Generated_Source\PSoC5/CyLib.c ****         {
1238:Generated_Source\PSoC5/CyLib.c ****             CyILO_Stop100K();
1239:Generated_Source\PSoC5/CyLib.c ****         }
1240:Generated_Source\PSoC5/CyLib.c ****         CY_LIB_PM_TW_CFG0_REG = pmTwCfg0Tmp;
1241:Generated_Source\PSoC5/CyLib.c ****         CY_LIB_PM_TW_CFG2_REG = pmTwCfg2Tmp;
1242:Generated_Source\PSoC5/CyLib.c ****     }
1243:Generated_Source\PSoC5/CyLib.c **** 
1244:Generated_Source\PSoC5/CyLib.c ****     return(status);
ARM GAS  C:\Users\jens-\AppData\Local\Temp\ccdWTNhT.s 			page 45


 1141              		.loc 1 1244 5 is_stmt 1 view .LVU258
 1142              	.LVL53:
 1143              	.L101:
1245:Generated_Source\PSoC5/CyLib.c **** }
 1144              		.loc 1 1245 1 is_stmt 0 view .LVU259
 1145 0016 3846     		mov	r0, r7
 1146 0018 03B0     		add	sp, sp, #12
 1147              		.cfi_remember_state
 1148              		.cfi_def_cfa_offset 20
 1149              		@ sp needed
 1150 001a F0BD     		pop	{r4, r5, r6, r7, pc}
 1151              	.LVL54:
 1152              	.L112:
 1153              		.cfi_restore_state
1199:Generated_Source\PSoC5/CyLib.c ****         pmTwCfg0Tmp = CY_LIB_PM_TW_CFG0_REG;
 1154              		.loc 1 1199 9 is_stmt 1 view .LVU260
1199:Generated_Source\PSoC5/CyLib.c ****         pmTwCfg0Tmp = CY_LIB_PM_TW_CFG0_REG;
 1155              		.loc 1 1199 24 is_stmt 0 view .LVU261
 1156 001c 204B     		ldr	r3, .L115+4
 1157 001e 1E78     		ldrb	r6, [r3]	@ zero_extendqisi2
 1158 0020 F6B2     		uxtb	r6, r6
 1159              	.LVL55:
1200:Generated_Source\PSoC5/CyLib.c ****         pmTwCfg2Tmp = CY_LIB_PM_TW_CFG2_REG;
 1160              		.loc 1 1200 9 is_stmt 1 view .LVU262
1200:Generated_Source\PSoC5/CyLib.c ****         pmTwCfg2Tmp = CY_LIB_PM_TW_CFG2_REG;
 1161              		.loc 1 1200 21 is_stmt 0 view .LVU263
 1162 0022 8033     		adds	r3, r3, #128
 1163 0024 1D78     		ldrb	r5, [r3]	@ zero_extendqisi2
 1164 0026 EDB2     		uxtb	r5, r5
 1165              	.LVL56:
1201:Generated_Source\PSoC5/CyLib.c **** 
 1166              		.loc 1 1201 9 is_stmt 1 view .LVU264
1201:Generated_Source\PSoC5/CyLib.c **** 
 1167              		.loc 1 1201 21 is_stmt 0 view .LVU265
 1168 0028 0233     		adds	r3, r3, #2
 1169 002a 1C78     		ldrb	r4, [r3]	@ zero_extendqisi2
 1170 002c E4B2     		uxtb	r4, r4
 1171              	.LVL57:
1204:Generated_Source\PSoC5/CyLib.c ****         status = CYRET_TIMEOUT;
 1172              		.loc 1 1204 9 is_stmt 1 view .LVU266
 1173 002e 1820     		movs	r0, #24
 1174              	.LVL58:
1204:Generated_Source\PSoC5/CyLib.c ****         status = CYRET_TIMEOUT;
 1175              		.loc 1 1204 9 is_stmt 0 view .LVU267
 1176 0030 FFF7FEFF 		bl	CyPmFtwSetInterval
 1177              	.LVL59:
1205:Generated_Source\PSoC5/CyLib.c **** 
 1178              		.loc 1 1205 9 is_stmt 1 view .LVU268
1208:Generated_Source\PSoC5/CyLib.c ****         {
 1179              		.loc 1 1208 9 view .LVU269
 1180 0034 1AE0     		b	.L103
 1181              	.L105:
1219:Generated_Source\PSoC5/CyLib.c ****             }
 1182              		.loc 1 1219 17 discriminator 1 view .LVU270
1216:Generated_Source\PSoC5/CyLib.c ****                 {
 1183              		.loc 1 1216 22 discriminator 1 view .LVU271
1216:Generated_Source\PSoC5/CyLib.c ****                 {
ARM GAS  C:\Users\jens-\AppData\Local\Temp\ccdWTNhT.s 			page 46


 1184              		.loc 1 1216 46 is_stmt 0 discriminator 1 view .LVU272
 1185 0036 0120     		movs	r0, #1
 1186 0038 FFF7FEFF 		bl	CyPmReadStatus
 1187              	.LVL60:
1216:Generated_Source\PSoC5/CyLib.c ****                 {
 1188              		.loc 1 1216 22 discriminator 1 view .LVU273
 1189 003c 10F0010F 		tst	r0, #1
 1190 0040 F9D0     		beq	.L105
1214:Generated_Source\PSoC5/CyLib.c ****             {
 1191              		.loc 1 1214 41 is_stmt 1 discriminator 2 view .LVU274
1214:Generated_Source\PSoC5/CyLib.c ****             {
 1192              		.loc 1 1214 46 is_stmt 0 discriminator 2 view .LVU275
 1193 0042 9DF80630 		ldrb	r3, [sp, #6]	@ zero_extendqisi2
 1194 0046 013B     		subs	r3, r3, #1
 1195 0048 DBB2     		uxtb	r3, r3
 1196 004a 8DF80630 		strb	r3, [sp, #6]
 1197              	.L104:
1214:Generated_Source\PSoC5/CyLib.c ****             {
 1198              		.loc 1 1214 29 is_stmt 1 discriminator 1 view .LVU276
1214:Generated_Source\PSoC5/CyLib.c ****             {
 1199              		.loc 1 1214 35 is_stmt 0 discriminator 1 view .LVU277
 1200 004e 9DF80630 		ldrb	r3, [sp, #6]	@ zero_extendqisi2
1214:Generated_Source\PSoC5/CyLib.c ****             {
 1201              		.loc 1 1214 13 discriminator 1 view .LVU278
 1202 0052 002B     		cmp	r3, #0
 1203 0054 EFD1     		bne	.L105
1227:Generated_Source\PSoC5/CyLib.c ****             {
 1204              		.loc 1 1227 13 is_stmt 1 view .LVU279
1227:Generated_Source\PSoC5/CyLib.c ****             {
 1205              		.loc 1 1227 23 is_stmt 0 view .LVU280
 1206 0056 114B     		ldr	r3, .L115
 1207 0058 1B78     		ldrb	r3, [r3]	@ zero_extendqisi2
1227:Generated_Source\PSoC5/CyLib.c ****             {
 1208              		.loc 1 1227 15 view .LVU281
 1209 005a 13F0800F 		tst	r3, #128
 1210 005e 17D0     		beq	.L110
1208:Generated_Source\PSoC5/CyLib.c ****         {
 1211              		.loc 1 1208 30 is_stmt 1 view .LVU282
1208:Generated_Source\PSoC5/CyLib.c ****         {
 1212              		.loc 1 1208 37 is_stmt 0 view .LVU283
 1213 0060 9DF80730 		ldrb	r3, [sp, #7]	@ zero_extendqisi2
 1214 0064 013B     		subs	r3, r3, #1
 1215 0066 DBB2     		uxtb	r3, r3
 1216 0068 8DF80730 		strb	r3, [sp, #7]
 1217              	.L103:
1208:Generated_Source\PSoC5/CyLib.c ****         {
 1218              		.loc 1 1208 16 is_stmt 1 discriminator 1 view .LVU284
1208:Generated_Source\PSoC5/CyLib.c ****         {
 1219              		.loc 1 1208 24 is_stmt 0 discriminator 1 view .LVU285
 1220 006c 9DF80730 		ldrb	r3, [sp, #7]	@ zero_extendqisi2
1208:Generated_Source\PSoC5/CyLib.c ****         {
 1221              		.loc 1 1208 9 discriminator 1 view .LVU286
 1222 0070 2BB1     		cbz	r3, .L113
1211:Generated_Source\PSoC5/CyLib.c **** 
 1223              		.loc 1 1211 13 is_stmt 1 view .LVU287
 1224 0072 0A4B     		ldr	r3, .L115
 1225 0074 1B78     		ldrb	r3, [r3]	@ zero_extendqisi2
ARM GAS  C:\Users\jens-\AppData\Local\Temp\ccdWTNhT.s 			page 47


1214:Generated_Source\PSoC5/CyLib.c ****             {
 1226              		.loc 1 1214 13 view .LVU288
1214:Generated_Source\PSoC5/CyLib.c ****             {
 1227              		.loc 1 1214 23 is_stmt 0 view .LVU289
 1228 0076 0423     		movs	r3, #4
 1229 0078 8DF80630 		strb	r3, [sp, #6]
1214:Generated_Source\PSoC5/CyLib.c ****             {
 1230              		.loc 1 1214 13 view .LVU290
 1231 007c E7E7     		b	.L104
 1232              	.L113:
1205:Generated_Source\PSoC5/CyLib.c **** 
 1233              		.loc 1 1205 16 view .LVU291
 1234 007e 1027     		movs	r7, #16
 1235              	.L106:
 1236              	.LVL61:
1236:Generated_Source\PSoC5/CyLib.c ****         {
 1237              		.loc 1 1236 9 is_stmt 1 view .LVU292
1236:Generated_Source\PSoC5/CyLib.c ****         {
 1238              		.loc 1 1236 11 is_stmt 0 view .LVU293
 1239 0080 16F0040F 		tst	r6, #4
 1240 0084 06D0     		beq	.L114
 1241              	.L108:
1240:Generated_Source\PSoC5/CyLib.c ****         CY_LIB_PM_TW_CFG2_REG = pmTwCfg2Tmp;
 1242              		.loc 1 1240 9 is_stmt 1 view .LVU294
1240:Generated_Source\PSoC5/CyLib.c ****         CY_LIB_PM_TW_CFG2_REG = pmTwCfg2Tmp;
 1243              		.loc 1 1240 31 is_stmt 0 view .LVU295
 1244 0086 074B     		ldr	r3, .L115+8
 1245 0088 1D70     		strb	r5, [r3]
1241:Generated_Source\PSoC5/CyLib.c ****     }
 1246              		.loc 1 1241 9 is_stmt 1 view .LVU296
1241:Generated_Source\PSoC5/CyLib.c ****     }
 1247              		.loc 1 1241 31 is_stmt 0 view .LVU297
 1248 008a 0233     		adds	r3, r3, #2
 1249 008c 1C70     		strb	r4, [r3]
 1250 008e C2E7     		b	.L101
 1251              	.LVL62:
 1252              	.L110:
1229:Generated_Source\PSoC5/CyLib.c ****                 break;
 1253              		.loc 1 1229 24 view .LVU298
 1254 0090 0027     		movs	r7, #0
 1255 0092 F5E7     		b	.L106
 1256              	.LVL63:
 1257              	.L114:
1238:Generated_Source\PSoC5/CyLib.c ****         }
 1258              		.loc 1 1238 13 is_stmt 1 view .LVU299
 1259 0094 FFF7FEFF 		bl	CyILO_Stop100K
 1260              	.LVL64:
 1261 0098 F5E7     		b	.L108
 1262              	.L116:
 1263 009a 00BF     		.align	2
 1264              	.L115:
 1265 009c 10420040 		.word	1073758736
 1266 00a0 00430040 		.word	1073758976
 1267 00a4 80430040 		.word	1073759104
 1268              		.cfi_endproc
 1269              	.LFE29:
 1270              		.size	CyXTAL_Start, .-CyXTAL_Start
ARM GAS  C:\Users\jens-\AppData\Local\Temp\ccdWTNhT.s 			page 48


 1271              		.section	.text.CyXTAL_Stop,"ax",%progbits
 1272              		.align	1
 1273              		.global	CyXTAL_Stop
 1274              		.syntax unified
 1275              		.thumb
 1276              		.thumb_func
 1277              		.fpu softvfp
 1278              		.type	CyXTAL_Stop, %function
 1279              	CyXTAL_Stop:
 1280              	.LFB30:
1246:Generated_Source\PSoC5/CyLib.c **** 
1247:Generated_Source\PSoC5/CyLib.c **** 
1248:Generated_Source\PSoC5/CyLib.c **** /*******************************************************************************
1249:Generated_Source\PSoC5/CyLib.c **** * Function Name: CyXTAL_Stop
1250:Generated_Source\PSoC5/CyLib.c **** ****************************************************************************//**
1251:Generated_Source\PSoC5/CyLib.c **** *
1252:Generated_Source\PSoC5/CyLib.c **** *  Disables the megahertz crystal oscillator.
1253:Generated_Source\PSoC5/CyLib.c **** *
1254:Generated_Source\PSoC5/CyLib.c **** *******************************************************************************/
1255:Generated_Source\PSoC5/CyLib.c **** void CyXTAL_Stop(void) 
1256:Generated_Source\PSoC5/CyLib.c **** {
 1281              		.loc 1 1256 1 view -0
 1282              		.cfi_startproc
 1283              		@ args = 0, pretend = 0, frame = 0
 1284              		@ frame_needed = 0, uses_anonymous_args = 0
 1285              		@ link register save eliminated.
1257:Generated_Source\PSoC5/CyLib.c ****     /* Disable oscillator. */
1258:Generated_Source\PSoC5/CyLib.c ****     FASTCLK_XMHZ_CSR &= ((uint8)(~XMHZ_CONTROL_ENABLE));
 1286              		.loc 1 1258 5 view .LVU301
 1287              		.loc 1 1258 22 is_stmt 0 view .LVU302
 1288 0000 024A     		ldr	r2, .L118
 1289 0002 1378     		ldrb	r3, [r2]	@ zero_extendqisi2
 1290 0004 03F0FE03 		and	r3, r3, #254
 1291 0008 1370     		strb	r3, [r2]
1259:Generated_Source\PSoC5/CyLib.c **** }
 1292              		.loc 1 1259 1 view .LVU303
 1293 000a 7047     		bx	lr
 1294              	.L119:
 1295              		.align	2
 1296              	.L118:
 1297 000c 10420040 		.word	1073758736
 1298              		.cfi_endproc
 1299              	.LFE30:
 1300              		.size	CyXTAL_Stop, .-CyXTAL_Stop
 1301              		.section	.text.CyXTAL_EnableErrStatus,"ax",%progbits
 1302              		.align	1
 1303              		.global	CyXTAL_EnableErrStatus
 1304              		.syntax unified
 1305              		.thumb
 1306              		.thumb_func
 1307              		.fpu softvfp
 1308              		.type	CyXTAL_EnableErrStatus, %function
 1309              	CyXTAL_EnableErrStatus:
 1310              	.LFB31:
1260:Generated_Source\PSoC5/CyLib.c **** 
1261:Generated_Source\PSoC5/CyLib.c **** 
1262:Generated_Source\PSoC5/CyLib.c **** /*******************************************************************************
ARM GAS  C:\Users\jens-\AppData\Local\Temp\ccdWTNhT.s 			page 49


1263:Generated_Source\PSoC5/CyLib.c **** * Function Name: CyXTAL_EnableErrStatus
1264:Generated_Source\PSoC5/CyLib.c **** ****************************************************************************//**
1265:Generated_Source\PSoC5/CyLib.c **** *
1266:Generated_Source\PSoC5/CyLib.c **** *  Enables the generation of the XERR status bit for the megahertz crystal.
1267:Generated_Source\PSoC5/CyLib.c **** *  This function is not available for PSoC5.
1268:Generated_Source\PSoC5/CyLib.c **** *
1269:Generated_Source\PSoC5/CyLib.c **** *******************************************************************************/
1270:Generated_Source\PSoC5/CyLib.c **** void CyXTAL_EnableErrStatus(void) 
1271:Generated_Source\PSoC5/CyLib.c **** {
 1311              		.loc 1 1271 1 is_stmt 1 view -0
 1312              		.cfi_startproc
 1313              		@ args = 0, pretend = 0, frame = 0
 1314              		@ frame_needed = 0, uses_anonymous_args = 0
 1315              		@ link register save eliminated.
1272:Generated_Source\PSoC5/CyLib.c ****     /* If oscillator has insufficient amplitude, XERR bit will be high. */
1273:Generated_Source\PSoC5/CyLib.c ****     CY_CLK_XMHZ_CSR_REG &= ((uint8)(~CY_CLK_XMHZ_CSR_XFB));
 1316              		.loc 1 1273 5 view .LVU305
 1317              		.loc 1 1273 25 is_stmt 0 view .LVU306
 1318 0000 024A     		ldr	r2, .L121
 1319 0002 1378     		ldrb	r3, [r2]	@ zero_extendqisi2
 1320 0004 03F0FB03 		and	r3, r3, #251
 1321 0008 1370     		strb	r3, [r2]
1274:Generated_Source\PSoC5/CyLib.c **** }
 1322              		.loc 1 1274 1 view .LVU307
 1323 000a 7047     		bx	lr
 1324              	.L122:
 1325              		.align	2
 1326              	.L121:
 1327 000c 10420040 		.word	1073758736
 1328              		.cfi_endproc
 1329              	.LFE31:
 1330              		.size	CyXTAL_EnableErrStatus, .-CyXTAL_EnableErrStatus
 1331              		.section	.text.CyXTAL_DisableErrStatus,"ax",%progbits
 1332              		.align	1
 1333              		.global	CyXTAL_DisableErrStatus
 1334              		.syntax unified
 1335              		.thumb
 1336              		.thumb_func
 1337              		.fpu softvfp
 1338              		.type	CyXTAL_DisableErrStatus, %function
 1339              	CyXTAL_DisableErrStatus:
 1340              	.LFB32:
1275:Generated_Source\PSoC5/CyLib.c **** 
1276:Generated_Source\PSoC5/CyLib.c **** 
1277:Generated_Source\PSoC5/CyLib.c **** /*******************************************************************************
1278:Generated_Source\PSoC5/CyLib.c **** * Function Name: CyXTAL_DisableErrStatus
1279:Generated_Source\PSoC5/CyLib.c **** ****************************************************************************//**
1280:Generated_Source\PSoC5/CyLib.c **** *
1281:Generated_Source\PSoC5/CyLib.c **** *  Disables the generation of the XERR status bit for the megahertz crystal.
1282:Generated_Source\PSoC5/CyLib.c **** *  This function is not available for PSoC5.
1283:Generated_Source\PSoC5/CyLib.c **** *
1284:Generated_Source\PSoC5/CyLib.c **** *******************************************************************************/
1285:Generated_Source\PSoC5/CyLib.c **** void CyXTAL_DisableErrStatus(void) 
1286:Generated_Source\PSoC5/CyLib.c **** {
 1341              		.loc 1 1286 1 is_stmt 1 view -0
 1342              		.cfi_startproc
 1343              		@ args = 0, pretend = 0, frame = 0
ARM GAS  C:\Users\jens-\AppData\Local\Temp\ccdWTNhT.s 			page 50


 1344              		@ frame_needed = 0, uses_anonymous_args = 0
 1345              		@ link register save eliminated.
1287:Generated_Source\PSoC5/CyLib.c ****     /* If oscillator has insufficient amplitude, XERR bit will be high. */
1288:Generated_Source\PSoC5/CyLib.c ****     CY_CLK_XMHZ_CSR_REG |= CY_CLK_XMHZ_CSR_XFB;
 1346              		.loc 1 1288 5 view .LVU309
 1347              		.loc 1 1288 25 is_stmt 0 view .LVU310
 1348 0000 024A     		ldr	r2, .L124
 1349 0002 1378     		ldrb	r3, [r2]	@ zero_extendqisi2
 1350 0004 43F00403 		orr	r3, r3, #4
 1351 0008 1370     		strb	r3, [r2]
1289:Generated_Source\PSoC5/CyLib.c **** }
 1352              		.loc 1 1289 1 view .LVU311
 1353 000a 7047     		bx	lr
 1354              	.L125:
 1355              		.align	2
 1356              	.L124:
 1357 000c 10420040 		.word	1073758736
 1358              		.cfi_endproc
 1359              	.LFE32:
 1360              		.size	CyXTAL_DisableErrStatus, .-CyXTAL_DisableErrStatus
 1361              		.section	.text.CyXTAL_ReadStatus,"ax",%progbits
 1362              		.align	1
 1363              		.global	CyXTAL_ReadStatus
 1364              		.syntax unified
 1365              		.thumb
 1366              		.thumb_func
 1367              		.fpu softvfp
 1368              		.type	CyXTAL_ReadStatus, %function
 1369              	CyXTAL_ReadStatus:
 1370              	.LFB33:
1290:Generated_Source\PSoC5/CyLib.c **** 
1291:Generated_Source\PSoC5/CyLib.c **** 
1292:Generated_Source\PSoC5/CyLib.c **** /*******************************************************************************
1293:Generated_Source\PSoC5/CyLib.c **** * Function Name: CyXTAL_ReadStatus
1294:Generated_Source\PSoC5/CyLib.c **** ****************************************************************************//**
1295:Generated_Source\PSoC5/CyLib.c **** *
1296:Generated_Source\PSoC5/CyLib.c **** *  Reads the XERR status bit for the megahertz crystal. This status bit is a
1297:Generated_Source\PSoC5/CyLib.c **** *  sticky, clear on read. This function is not available for PSoC5.
1298:Generated_Source\PSoC5/CyLib.c **** *
1299:Generated_Source\PSoC5/CyLib.c **** * \return
1300:Generated_Source\PSoC5/CyLib.c **** *   Status
1301:Generated_Source\PSoC5/CyLib.c **** *    0: No error
1302:Generated_Source\PSoC5/CyLib.c **** *    1: Error
1303:Generated_Source\PSoC5/CyLib.c **** *
1304:Generated_Source\PSoC5/CyLib.c **** *******************************************************************************/
1305:Generated_Source\PSoC5/CyLib.c **** uint8 CyXTAL_ReadStatus(void) 
1306:Generated_Source\PSoC5/CyLib.c **** {
 1371              		.loc 1 1306 1 is_stmt 1 view -0
 1372              		.cfi_startproc
 1373              		@ args = 0, pretend = 0, frame = 0
 1374              		@ frame_needed = 0, uses_anonymous_args = 0
 1375              		@ link register save eliminated.
1307:Generated_Source\PSoC5/CyLib.c ****     /***************************************************************************
1308:Generated_Source\PSoC5/CyLib.c ****     * High output indicates an oscillator failure. Only use this after a start-up
1309:Generated_Source\PSoC5/CyLib.c ****     * interval is completed. This can be used for the status and failure recovery.
1310:Generated_Source\PSoC5/CyLib.c ****     ***************************************************************************/
1311:Generated_Source\PSoC5/CyLib.c ****     return((0u != (CY_CLK_XMHZ_CSR_REG & CY_CLK_XMHZ_CSR_XERR)) ? 1u : 0u);
ARM GAS  C:\Users\jens-\AppData\Local\Temp\ccdWTNhT.s 			page 51


 1376              		.loc 1 1311 5 view .LVU313
 1377              		.loc 1 1311 20 is_stmt 0 view .LVU314
 1378 0000 044B     		ldr	r3, .L130
 1379 0002 1B78     		ldrb	r3, [r3]	@ zero_extendqisi2
 1380              		.loc 1 1311 70 view .LVU315
 1381 0004 13F0800F 		tst	r3, #128
 1382 0008 01D1     		bne	.L129
 1383 000a 0020     		movs	r0, #0
1312:Generated_Source\PSoC5/CyLib.c **** }
 1384              		.loc 1 1312 1 view .LVU316
 1385 000c 7047     		bx	lr
 1386              	.L129:
1311:Generated_Source\PSoC5/CyLib.c **** }
 1387              		.loc 1 1311 70 view .LVU317
 1388 000e 0120     		movs	r0, #1
 1389 0010 7047     		bx	lr
 1390              	.L131:
 1391 0012 00BF     		.align	2
 1392              	.L130:
 1393 0014 10420040 		.word	1073758736
 1394              		.cfi_endproc
 1395              	.LFE33:
 1396              		.size	CyXTAL_ReadStatus, .-CyXTAL_ReadStatus
 1397              		.section	.text.CyXTAL_EnableFaultRecovery,"ax",%progbits
 1398              		.align	1
 1399              		.global	CyXTAL_EnableFaultRecovery
 1400              		.syntax unified
 1401              		.thumb
 1402              		.thumb_func
 1403              		.fpu softvfp
 1404              		.type	CyXTAL_EnableFaultRecovery, %function
 1405              	CyXTAL_EnableFaultRecovery:
 1406              	.LFB34:
1313:Generated_Source\PSoC5/CyLib.c **** 
1314:Generated_Source\PSoC5/CyLib.c **** 
1315:Generated_Source\PSoC5/CyLib.c **** /*******************************************************************************
1316:Generated_Source\PSoC5/CyLib.c **** * Function Name: CyXTAL_EnableFaultRecovery
1317:Generated_Source\PSoC5/CyLib.c **** ****************************************************************************//**
1318:Generated_Source\PSoC5/CyLib.c **** *
1319:Generated_Source\PSoC5/CyLib.c **** *  Enables the fault recovery circuit which will switch to the IMO in the case
1320:Generated_Source\PSoC5/CyLib.c **** *  of a fault in the megahertz crystal circuit. The crystal must be up and
1321:Generated_Source\PSoC5/CyLib.c **** *  running with the XERR bit at 0, before calling this function to prevent
1322:Generated_Source\PSoC5/CyLib.c **** *  an immediate fault switchover. This function is not available for PSoC5.
1323:Generated_Source\PSoC5/CyLib.c **** *
1324:Generated_Source\PSoC5/CyLib.c **** *******************************************************************************/
1325:Generated_Source\PSoC5/CyLib.c **** void CyXTAL_EnableFaultRecovery(void) 
1326:Generated_Source\PSoC5/CyLib.c **** {
 1407              		.loc 1 1326 1 is_stmt 1 view -0
 1408              		.cfi_startproc
 1409              		@ args = 0, pretend = 0, frame = 0
 1410              		@ frame_needed = 0, uses_anonymous_args = 0
 1411              		@ link register save eliminated.
1327:Generated_Source\PSoC5/CyLib.c ****     CY_CLK_XMHZ_CSR_REG |= CY_CLK_XMHZ_CSR_XPROT;
 1412              		.loc 1 1327 5 view .LVU319
 1413              		.loc 1 1327 25 is_stmt 0 view .LVU320
 1414 0000 024A     		ldr	r2, .L133
 1415 0002 1378     		ldrb	r3, [r2]	@ zero_extendqisi2
ARM GAS  C:\Users\jens-\AppData\Local\Temp\ccdWTNhT.s 			page 52


 1416 0004 43F04003 		orr	r3, r3, #64
 1417 0008 1370     		strb	r3, [r2]
1328:Generated_Source\PSoC5/CyLib.c **** }
 1418              		.loc 1 1328 1 view .LVU321
 1419 000a 7047     		bx	lr
 1420              	.L134:
 1421              		.align	2
 1422              	.L133:
 1423 000c 10420040 		.word	1073758736
 1424              		.cfi_endproc
 1425              	.LFE34:
 1426              		.size	CyXTAL_EnableFaultRecovery, .-CyXTAL_EnableFaultRecovery
 1427              		.section	.text.CyXTAL_DisableFaultRecovery,"ax",%progbits
 1428              		.align	1
 1429              		.global	CyXTAL_DisableFaultRecovery
 1430              		.syntax unified
 1431              		.thumb
 1432              		.thumb_func
 1433              		.fpu softvfp
 1434              		.type	CyXTAL_DisableFaultRecovery, %function
 1435              	CyXTAL_DisableFaultRecovery:
 1436              	.LFB35:
1329:Generated_Source\PSoC5/CyLib.c **** 
1330:Generated_Source\PSoC5/CyLib.c **** 
1331:Generated_Source\PSoC5/CyLib.c **** /*******************************************************************************
1332:Generated_Source\PSoC5/CyLib.c **** * Function Name: CyXTAL_DisableFaultRecovery
1333:Generated_Source\PSoC5/CyLib.c **** ****************************************************************************//**
1334:Generated_Source\PSoC5/CyLib.c **** *
1335:Generated_Source\PSoC5/CyLib.c **** *  Disables the fault recovery circuit which will switch to the IMO in the case
1336:Generated_Source\PSoC5/CyLib.c **** *  of a fault in the megahertz crystal circuit. This function is not available
1337:Generated_Source\PSoC5/CyLib.c **** *  for PSoC5.
1338:Generated_Source\PSoC5/CyLib.c **** *
1339:Generated_Source\PSoC5/CyLib.c **** *******************************************************************************/
1340:Generated_Source\PSoC5/CyLib.c **** void CyXTAL_DisableFaultRecovery(void) 
1341:Generated_Source\PSoC5/CyLib.c **** {
 1437              		.loc 1 1341 1 is_stmt 1 view -0
 1438              		.cfi_startproc
 1439              		@ args = 0, pretend = 0, frame = 0
 1440              		@ frame_needed = 0, uses_anonymous_args = 0
 1441              		@ link register save eliminated.
1342:Generated_Source\PSoC5/CyLib.c ****     CY_CLK_XMHZ_CSR_REG &= ((uint8)(~CY_CLK_XMHZ_CSR_XPROT));
 1442              		.loc 1 1342 5 view .LVU323
 1443              		.loc 1 1342 25 is_stmt 0 view .LVU324
 1444 0000 024A     		ldr	r2, .L136
 1445 0002 1378     		ldrb	r3, [r2]	@ zero_extendqisi2
 1446 0004 03F0BF03 		and	r3, r3, #191
 1447 0008 1370     		strb	r3, [r2]
1343:Generated_Source\PSoC5/CyLib.c **** }
 1448              		.loc 1 1343 1 view .LVU325
 1449 000a 7047     		bx	lr
 1450              	.L137:
 1451              		.align	2
 1452              	.L136:
 1453 000c 10420040 		.word	1073758736
 1454              		.cfi_endproc
 1455              	.LFE35:
 1456              		.size	CyXTAL_DisableFaultRecovery, .-CyXTAL_DisableFaultRecovery
ARM GAS  C:\Users\jens-\AppData\Local\Temp\ccdWTNhT.s 			page 53


 1457              		.section	.text.CyXTAL_SetStartup,"ax",%progbits
 1458              		.align	1
 1459              		.global	CyXTAL_SetStartup
 1460              		.syntax unified
 1461              		.thumb
 1462              		.thumb_func
 1463              		.fpu softvfp
 1464              		.type	CyXTAL_SetStartup, %function
 1465              	CyXTAL_SetStartup:
 1466              	.LVL65:
 1467              	.LFB36:
1344:Generated_Source\PSoC5/CyLib.c **** 
1345:Generated_Source\PSoC5/CyLib.c **** 
1346:Generated_Source\PSoC5/CyLib.c **** /*******************************************************************************
1347:Generated_Source\PSoC5/CyLib.c **** * Function Name: CyXTAL_SetStartup
1348:Generated_Source\PSoC5/CyLib.c **** ****************************************************************************//**
1349:Generated_Source\PSoC5/CyLib.c **** *
1350:Generated_Source\PSoC5/CyLib.c **** *  Sets the startup settings for the crystal. The logic model outputs a
1351:Generated_Source\PSoC5/CyLib.c **** *  frequency (setting + 4) MHz when enabled.
1352:Generated_Source\PSoC5/CyLib.c **** *
1353:Generated_Source\PSoC5/CyLib.c **** *  This is artificial as the actual frequency is determined by an attached
1354:Generated_Source\PSoC5/CyLib.c **** *  external crystal.
1355:Generated_Source\PSoC5/CyLib.c **** *
1356:Generated_Source\PSoC5/CyLib.c **** *  \param setting: Valid range [0-31].
1357:Generated_Source\PSoC5/CyLib.c **** *   The value is dependent on the frequency and quality of the crystal being
1358:Generated_Source\PSoC5/CyLib.c **** *   used. Refer to the device TRM and datasheet for more information.
1359:Generated_Source\PSoC5/CyLib.c **** *
1360:Generated_Source\PSoC5/CyLib.c **** *******************************************************************************/
1361:Generated_Source\PSoC5/CyLib.c **** void CyXTAL_SetStartup(uint8 setting) 
1362:Generated_Source\PSoC5/CyLib.c **** {
 1468              		.loc 1 1362 1 is_stmt 1 view -0
 1469              		.cfi_startproc
 1470              		@ args = 0, pretend = 0, frame = 0
 1471              		@ frame_needed = 0, uses_anonymous_args = 0
 1472              		@ link register save eliminated.
1363:Generated_Source\PSoC5/CyLib.c ****     CY_CLK_XMHZ_CFG0_REG = (CY_CLK_XMHZ_CFG0_REG & ((uint8)(~CY_CLK_XMHZ_CFG0_XCFG_MASK))) |
 1473              		.loc 1 1363 5 view .LVU327
 1474              		.loc 1 1363 29 is_stmt 0 view .LVU328
 1475 0000 044A     		ldr	r2, .L139
 1476 0002 1378     		ldrb	r3, [r2]	@ zero_extendqisi2
 1477              		.loc 1 1363 50 view .LVU329
 1478 0004 03F0E003 		and	r3, r3, #224
1364:Generated_Source\PSoC5/CyLib.c ****                            (setting & CY_CLK_XMHZ_CFG0_XCFG_MASK);
 1479              		.loc 1 1364 37 view .LVU330
 1480 0008 00F01F00 		and	r0, r0, #31
 1481              	.LVL66:
1363:Generated_Source\PSoC5/CyLib.c ****     CY_CLK_XMHZ_CFG0_REG = (CY_CLK_XMHZ_CFG0_REG & ((uint8)(~CY_CLK_XMHZ_CFG0_XCFG_MASK))) |
 1482              		.loc 1 1363 92 view .LVU331
 1483 000c 0343     		orrs	r3, r3, r0
1363:Generated_Source\PSoC5/CyLib.c ****     CY_CLK_XMHZ_CFG0_REG = (CY_CLK_XMHZ_CFG0_REG & ((uint8)(~CY_CLK_XMHZ_CFG0_XCFG_MASK))) |
 1484              		.loc 1 1363 26 view .LVU332
 1485 000e 1370     		strb	r3, [r2]
1365:Generated_Source\PSoC5/CyLib.c **** }
 1486              		.loc 1 1365 1 view .LVU333
 1487 0010 7047     		bx	lr
 1488              	.L140:
 1489 0012 00BF     		.align	2
ARM GAS  C:\Users\jens-\AppData\Local\Temp\ccdWTNhT.s 			page 54


 1490              	.L139:
 1491 0014 12420040 		.word	1073758738
 1492              		.cfi_endproc
 1493              	.LFE36:
 1494              		.size	CyXTAL_SetStartup, .-CyXTAL_SetStartup
 1495              		.section	.text.CyXTAL_SetFbVoltage,"ax",%progbits
 1496              		.align	1
 1497              		.global	CyXTAL_SetFbVoltage
 1498              		.syntax unified
 1499              		.thumb
 1500              		.thumb_func
 1501              		.fpu softvfp
 1502              		.type	CyXTAL_SetFbVoltage, %function
 1503              	CyXTAL_SetFbVoltage:
 1504              	.LVL67:
 1505              	.LFB37:
1366:Generated_Source\PSoC5/CyLib.c **** 
1367:Generated_Source\PSoC5/CyLib.c **** 
1368:Generated_Source\PSoC5/CyLib.c **** 
1369:Generated_Source\PSoC5/CyLib.c **** /*******************************************************************************
1370:Generated_Source\PSoC5/CyLib.c **** * Function Name: CyXTAL_SetFbVoltage
1371:Generated_Source\PSoC5/CyLib.c **** ****************************************************************************//**
1372:Generated_Source\PSoC5/CyLib.c **** *
1373:Generated_Source\PSoC5/CyLib.c **** *  Sets the feedback reference voltage to use for the crystal circuit.
1374:Generated_Source\PSoC5/CyLib.c **** *  This function is only available for PSoC3 and PSoC 5LP.
1375:Generated_Source\PSoC5/CyLib.c **** *
1376:Generated_Source\PSoC5/CyLib.c **** *  \param setting: Valid range [0-15].
1377:Generated_Source\PSoC5/CyLib.c **** *  Refer to the device TRM and datasheet for more information.
1378:Generated_Source\PSoC5/CyLib.c **** *
1379:Generated_Source\PSoC5/CyLib.c **** *******************************************************************************/
1380:Generated_Source\PSoC5/CyLib.c **** void CyXTAL_SetFbVoltage(uint8 setting) 
1381:Generated_Source\PSoC5/CyLib.c **** {
 1506              		.loc 1 1381 1 is_stmt 1 view -0
 1507              		.cfi_startproc
 1508              		@ args = 0, pretend = 0, frame = 0
 1509              		@ frame_needed = 0, uses_anonymous_args = 0
 1510              		@ link register save eliminated.
1382:Generated_Source\PSoC5/CyLib.c ****     CY_CLK_XMHZ_CFG1_REG = ((CY_CLK_XMHZ_CFG1_REG & ((uint8)(~CY_CLK_XMHZ_CFG1_VREF_FB_MASK))) |
 1511              		.loc 1 1382 5 view .LVU335
 1512              		.loc 1 1382 30 is_stmt 0 view .LVU336
 1513 0000 044A     		ldr	r2, .L142
 1514 0002 1378     		ldrb	r3, [r2]	@ zero_extendqisi2
 1515              		.loc 1 1382 51 view .LVU337
 1516 0004 03F0F003 		and	r3, r3, #240
1383:Generated_Source\PSoC5/CyLib.c ****                             (setting & CY_CLK_XMHZ_CFG1_VREF_FB_MASK));
 1517              		.loc 1 1383 38 view .LVU338
 1518 0008 00F00F00 		and	r0, r0, #15
 1519              	.LVL68:
1382:Generated_Source\PSoC5/CyLib.c ****     CY_CLK_XMHZ_CFG1_REG = ((CY_CLK_XMHZ_CFG1_REG & ((uint8)(~CY_CLK_XMHZ_CFG1_VREF_FB_MASK))) |
 1520              		.loc 1 1382 96 view .LVU339
 1521 000c 0343     		orrs	r3, r3, r0
1382:Generated_Source\PSoC5/CyLib.c ****     CY_CLK_XMHZ_CFG1_REG = ((CY_CLK_XMHZ_CFG1_REG & ((uint8)(~CY_CLK_XMHZ_CFG1_VREF_FB_MASK))) |
 1522              		.loc 1 1382 26 view .LVU340
 1523 000e 1370     		strb	r3, [r2]
1384:Generated_Source\PSoC5/CyLib.c **** }
 1524              		.loc 1 1384 1 view .LVU341
 1525 0010 7047     		bx	lr
ARM GAS  C:\Users\jens-\AppData\Local\Temp\ccdWTNhT.s 			page 55


 1526              	.L143:
 1527 0012 00BF     		.align	2
 1528              	.L142:
 1529 0014 13420040 		.word	1073758739
 1530              		.cfi_endproc
 1531              	.LFE37:
 1532              		.size	CyXTAL_SetFbVoltage, .-CyXTAL_SetFbVoltage
 1533              		.section	.text.CyXTAL_SetWdVoltage,"ax",%progbits
 1534              		.align	1
 1535              		.global	CyXTAL_SetWdVoltage
 1536              		.syntax unified
 1537              		.thumb
 1538              		.thumb_func
 1539              		.fpu softvfp
 1540              		.type	CyXTAL_SetWdVoltage, %function
 1541              	CyXTAL_SetWdVoltage:
 1542              	.LVL69:
 1543              	.LFB38:
1385:Generated_Source\PSoC5/CyLib.c **** 
1386:Generated_Source\PSoC5/CyLib.c **** 
1387:Generated_Source\PSoC5/CyLib.c **** /*******************************************************************************
1388:Generated_Source\PSoC5/CyLib.c **** * Function Name: CyXTAL_SetWdVoltage
1389:Generated_Source\PSoC5/CyLib.c **** ****************************************************************************//**
1390:Generated_Source\PSoC5/CyLib.c **** *
1391:Generated_Source\PSoC5/CyLib.c **** *  Sets the reference voltage used by the watchdog to detect a failure in the
1392:Generated_Source\PSoC5/CyLib.c **** *  crystal circuit. This function is only available for PSoC3 and PSoC 5LP.
1393:Generated_Source\PSoC5/CyLib.c **** *
1394:Generated_Source\PSoC5/CyLib.c **** *  \param setting: Valid range [0-7].
1395:Generated_Source\PSoC5/CyLib.c **** *  Refer to the device TRM and datasheet for more information.
1396:Generated_Source\PSoC5/CyLib.c **** *
1397:Generated_Source\PSoC5/CyLib.c **** *******************************************************************************/
1398:Generated_Source\PSoC5/CyLib.c **** void CyXTAL_SetWdVoltage(uint8 setting) 
1399:Generated_Source\PSoC5/CyLib.c **** {
 1544              		.loc 1 1399 1 is_stmt 1 view -0
 1545              		.cfi_startproc
 1546              		@ args = 0, pretend = 0, frame = 0
 1547              		@ frame_needed = 0, uses_anonymous_args = 0
 1548              		@ link register save eliminated.
1400:Generated_Source\PSoC5/CyLib.c ****     CY_CLK_XMHZ_CFG1_REG = ((CY_CLK_XMHZ_CFG1_REG & ((uint8)(~CY_CLK_XMHZ_CFG1_VREF_WD_MASK))) |
 1549              		.loc 1 1400 5 view .LVU343
 1550              		.loc 1 1400 30 is_stmt 0 view .LVU344
 1551 0000 044A     		ldr	r2, .L145
 1552 0002 1378     		ldrb	r3, [r2]	@ zero_extendqisi2
 1553              		.loc 1 1400 51 view .LVU345
 1554 0004 03F08F03 		and	r3, r3, #143
1401:Generated_Source\PSoC5/CyLib.c ****                             (((uint8)(setting << 4u)) & CY_CLK_XMHZ_CFG1_VREF_WD_MASK));
 1555              		.loc 1 1401 31 view .LVU346
 1556 0008 0001     		lsls	r0, r0, #4
 1557              	.LVL70:
 1558              		.loc 1 1401 55 view .LVU347
 1559 000a 00F07000 		and	r0, r0, #112
1400:Generated_Source\PSoC5/CyLib.c ****     CY_CLK_XMHZ_CFG1_REG = ((CY_CLK_XMHZ_CFG1_REG & ((uint8)(~CY_CLK_XMHZ_CFG1_VREF_WD_MASK))) |
 1560              		.loc 1 1400 96 view .LVU348
 1561 000e 0343     		orrs	r3, r3, r0
1400:Generated_Source\PSoC5/CyLib.c ****     CY_CLK_XMHZ_CFG1_REG = ((CY_CLK_XMHZ_CFG1_REG & ((uint8)(~CY_CLK_XMHZ_CFG1_VREF_WD_MASK))) |
 1562              		.loc 1 1400 26 view .LVU349
 1563 0010 1370     		strb	r3, [r2]
ARM GAS  C:\Users\jens-\AppData\Local\Temp\ccdWTNhT.s 			page 56


1402:Generated_Source\PSoC5/CyLib.c **** }
 1564              		.loc 1 1402 1 view .LVU350
 1565 0012 7047     		bx	lr
 1566              	.L146:
 1567              		.align	2
 1568              	.L145:
 1569 0014 13420040 		.word	1073758739
 1570              		.cfi_endproc
 1571              	.LFE38:
 1572              		.size	CyXTAL_SetWdVoltage, .-CyXTAL_SetWdVoltage
 1573              		.section	.text.CyHalt,"ax",%progbits
 1574              		.align	1
 1575              		.global	CyHalt
 1576              		.syntax unified
 1577              		.thumb
 1578              		.thumb_func
 1579              		.fpu softvfp
 1580              		.type	CyHalt, %function
 1581              	CyHalt:
 1582              	.LVL71:
 1583              	.LFB39:
1403:Generated_Source\PSoC5/CyLib.c **** 
1404:Generated_Source\PSoC5/CyLib.c **** 
1405:Generated_Source\PSoC5/CyLib.c **** /*******************************************************************************
1406:Generated_Source\PSoC5/CyLib.c **** * Function Name: CyHalt
1407:Generated_Source\PSoC5/CyLib.c **** ****************************************************************************//**
1408:Generated_Source\PSoC5/CyLib.c **** *
1409:Generated_Source\PSoC5/CyLib.c **** *  Halts the CPU.
1410:Generated_Source\PSoC5/CyLib.c **** *
1411:Generated_Source\PSoC5/CyLib.c **** *  \param uint8 reason: Value to be used during debugging.
1412:Generated_Source\PSoC5/CyLib.c **** *
1413:Generated_Source\PSoC5/CyLib.c **** *******************************************************************************/
1414:Generated_Source\PSoC5/CyLib.c **** void CyHalt(uint8 reason) CYREENTRANT
1415:Generated_Source\PSoC5/CyLib.c **** {
 1584              		.loc 1 1415 1 is_stmt 1 view -0
 1585              		.cfi_startproc
 1586              		@ args = 0, pretend = 0, frame = 0
 1587              		@ frame_needed = 0, uses_anonymous_args = 0
 1588              		@ link register save eliminated.
1416:Generated_Source\PSoC5/CyLib.c ****     if(0u != reason)
 1589              		.loc 1 1416 5 view .LVU352
1417:Generated_Source\PSoC5/CyLib.c ****     {
1418:Generated_Source\PSoC5/CyLib.c ****         /* To remove unreferenced local variable warning */
1419:Generated_Source\PSoC5/CyLib.c ****     }
 1590              		.loc 1 1419 5 view .LVU353
1420:Generated_Source\PSoC5/CyLib.c **** 
1421:Generated_Source\PSoC5/CyLib.c ****     #if defined (__ARMCC_VERSION)
1422:Generated_Source\PSoC5/CyLib.c ****         __breakpoint(0x0);
1423:Generated_Source\PSoC5/CyLib.c ****     #elif defined(__GNUC__) || defined (__ICCARM__)
1424:Generated_Source\PSoC5/CyLib.c ****         __asm("    bkpt    1");
 1591              		.loc 1 1424 9 view .LVU354
 1592              		.syntax unified
 1593              	@ 1424 "Generated_Source\PSoC5\CyLib.c" 1
 1594 0000 01BE     		    bkpt    1
 1595              	@ 0 "" 2
1425:Generated_Source\PSoC5/CyLib.c ****     #elif defined(__C51__)
1426:Generated_Source\PSoC5/CyLib.c ****         CYDEV_HALT_CPU;
ARM GAS  C:\Users\jens-\AppData\Local\Temp\ccdWTNhT.s 			page 57


1427:Generated_Source\PSoC5/CyLib.c ****     #endif  /* (__ARMCC_VERSION) */
1428:Generated_Source\PSoC5/CyLib.c **** }
 1596              		.loc 1 1428 1 is_stmt 0 view .LVU355
 1597              		.thumb
 1598              		.syntax unified
 1599 0002 7047     		bx	lr
 1600              		.cfi_endproc
 1601              	.LFE39:
 1602              		.size	CyHalt, .-CyHalt
 1603              		.section	.text.CyPLL_OUT_SetPQ,"ax",%progbits
 1604              		.align	1
 1605              		.global	CyPLL_OUT_SetPQ
 1606              		.syntax unified
 1607              		.thumb
 1608              		.thumb_func
 1609              		.fpu softvfp
 1610              		.type	CyPLL_OUT_SetPQ, %function
 1611              	CyPLL_OUT_SetPQ:
 1612              	.LVL72:
 1613              	.LFB2:
 188:Generated_Source\PSoC5/CyLib.c ****     /* Halt CPU in debug mode if PLL is enabled */
 1614              		.loc 1 188 1 is_stmt 1 view -0
 1615              		.cfi_startproc
 1616              		@ args = 0, pretend = 0, frame = 0
 1617              		@ frame_needed = 0, uses_anonymous_args = 0
 188:Generated_Source\PSoC5/CyLib.c ****     /* Halt CPU in debug mode if PLL is enabled */
 1618              		.loc 1 188 1 is_stmt 0 view .LVU357
 1619 0000 70B5     		push	{r4, r5, r6, lr}
 1620              		.cfi_def_cfa_offset 16
 1621              		.cfi_offset 4, -16
 1622              		.cfi_offset 5, -12
 1623              		.cfi_offset 6, -8
 1624              		.cfi_offset 14, -4
 1625 0002 0546     		mov	r5, r0
 1626 0004 0C46     		mov	r4, r1
 1627 0006 1646     		mov	r6, r2
 190:Generated_Source\PSoC5/CyLib.c **** 
 1628              		.loc 1 190 5 is_stmt 1 view .LVU358
 1629 0008 124B     		ldr	r3, .L154
 1630 000a 1B78     		ldrb	r3, [r3]	@ zero_extendqisi2
 1631 000c 13F0010F 		tst	r3, #1
 1632 0010 18D1     		bne	.L153
 1633              	.LVL73:
 1634              	.L149:
 190:Generated_Source\PSoC5/CyLib.c **** 
 1635              		.loc 1 190 62 discriminator 3 view .LVU359
 192:Generated_Source\PSoC5/CyLib.c ****        (qDiv    <= CY_CLK_PLL_MAX_Q_VALUE  ) && (qDiv    >= CY_CLK_PLL_MIN_Q_VALUE  ) &&
 1636              		.loc 1 192 5 discriminator 3 view .LVU360
 192:Generated_Source\PSoC5/CyLib.c ****        (qDiv    <= CY_CLK_PLL_MAX_Q_VALUE  ) && (qDiv    >= CY_CLK_PLL_MIN_Q_VALUE  ) &&
 1637              		.loc 1 192 7 is_stmt 0 discriminator 3 view .LVU361
 1638 0012 072D     		cmp	r5, #7
 1639 0014 1AD9     		bls	.L150
 192:Generated_Source\PSoC5/CyLib.c ****        (qDiv    <= CY_CLK_PLL_MAX_Q_VALUE  ) && (qDiv    >= CY_CLK_PLL_MIN_Q_VALUE  ) &&
 1640              		.loc 1 192 46 discriminator 1 view .LVU362
 1641 0016 102C     		cmp	r4, #16
 1642 0018 18D8     		bhi	.L150
 193:Generated_Source\PSoC5/CyLib.c ****        (current >= CY_CLK_PLL_MIN_CUR_VALUE) && (current <= CY_CLK_PLL_MAX_CUR_VALUE))
ARM GAS  C:\Users\jens-\AppData\Local\Temp\ccdWTNhT.s 			page 58


 1643              		.loc 1 193 46 view .LVU363
 1644 001a BCB1     		cbz	r4, .L150
 193:Generated_Source\PSoC5/CyLib.c ****        (current >= CY_CLK_PLL_MIN_CUR_VALUE) && (current <= CY_CLK_PLL_MAX_CUR_VALUE))
 1645              		.loc 1 193 87 discriminator 1 view .LVU364
 1646 001c B6B1     		cbz	r6, .L150
 194:Generated_Source\PSoC5/CyLib.c ****     {
 1647              		.loc 1 194 46 view .LVU365
 1648 001e 072E     		cmp	r6, #7
 1649 0020 14D8     		bhi	.L150
 197:Generated_Source\PSoC5/CyLib.c ****         CY_CLK_PLL_Q_REG = ((uint8)(qDiv - 1u));
 1650              		.loc 1 197 9 is_stmt 1 view .LVU366
 197:Generated_Source\PSoC5/CyLib.c ****         CY_CLK_PLL_Q_REG = ((uint8)(qDiv - 1u));
 1651              		.loc 1 197 26 is_stmt 0 view .LVU367
 1652 0022 0D4B     		ldr	r3, .L154+4
 1653 0024 1D70     		strb	r5, [r3]
 198:Generated_Source\PSoC5/CyLib.c ****         CY_CLK_PLL_CFG1_REG = (CY_CLK_PLL_CFG1_REG & CY_CLK_PLL_CURRENT_MASK) |
 1654              		.loc 1 198 9 is_stmt 1 view .LVU368
 198:Generated_Source\PSoC5/CyLib.c ****         CY_CLK_PLL_CFG1_REG = (CY_CLK_PLL_CFG1_REG & CY_CLK_PLL_CURRENT_MASK) |
 1655              		.loc 1 198 29 is_stmt 0 view .LVU369
 1656 0026 013C     		subs	r4, r4, #1
 1657 0028 E4B2     		uxtb	r4, r4
 198:Generated_Source\PSoC5/CyLib.c ****         CY_CLK_PLL_CFG1_REG = (CY_CLK_PLL_CFG1_REG & CY_CLK_PLL_CURRENT_MASK) |
 1658              		.loc 1 198 26 view .LVU370
 1659 002a 0133     		adds	r3, r3, #1
 1660 002c 1C70     		strb	r4, [r3]
 199:Generated_Source\PSoC5/CyLib.c ****                                 ((uint8)(((uint8)(current - 1u)) << CY_CLK_PLL_CURRENT_POSITION));
 1661              		.loc 1 199 9 is_stmt 1 view .LVU371
 199:Generated_Source\PSoC5/CyLib.c ****                                 ((uint8)(((uint8)(current - 1u)) << CY_CLK_PLL_CURRENT_POSITION));
 1662              		.loc 1 199 32 is_stmt 0 view .LVU372
 1663 002e 0B49     		ldr	r1, .L154+8
 1664 0030 0B78     		ldrb	r3, [r1]	@ zero_extendqisi2
 199:Generated_Source\PSoC5/CyLib.c ****                                 ((uint8)(((uint8)(current - 1u)) << CY_CLK_PLL_CURRENT_POSITION));
 1665              		.loc 1 199 52 view .LVU373
 1666 0032 03F08F02 		and	r2, r3, #143
 200:Generated_Source\PSoC5/CyLib.c ****     }
 1667              		.loc 1 200 43 view .LVU374
 1668 0036 731E     		subs	r3, r6, #1
 1669 0038 DBB2     		uxtb	r3, r3
 200:Generated_Source\PSoC5/CyLib.c ****     }
 1670              		.loc 1 200 34 view .LVU375
 1671 003a 1B01     		lsls	r3, r3, #4
 1672 003c DBB2     		uxtb	r3, r3
 199:Generated_Source\PSoC5/CyLib.c ****                                 ((uint8)(((uint8)(current - 1u)) << CY_CLK_PLL_CURRENT_POSITION));
 1673              		.loc 1 199 79 view .LVU376
 1674 003e 1343     		orrs	r3, r3, r2
 199:Generated_Source\PSoC5/CyLib.c ****                                 ((uint8)(((uint8)(current - 1u)) << CY_CLK_PLL_CURRENT_POSITION));
 1675              		.loc 1 199 29 view .LVU377
 1676 0040 0B70     		strb	r3, [r1]
 1677 0042 06E0     		b	.L148
 1678              	.LVL74:
 1679              	.L153:
 190:Generated_Source\PSoC5/CyLib.c **** 
 1680              		.loc 1 190 5 is_stmt 1 discriminator 1 view .LVU378
 1681 0044 0020     		movs	r0, #0
 1682              	.LVL75:
 190:Generated_Source\PSoC5/CyLib.c **** 
 1683              		.loc 1 190 5 is_stmt 0 discriminator 1 view .LVU379
ARM GAS  C:\Users\jens-\AppData\Local\Temp\ccdWTNhT.s 			page 59


 1684 0046 FFF7FEFF 		bl	CyHalt
 1685              	.LVL76:
 190:Generated_Source\PSoC5/CyLib.c **** 
 1686              		.loc 1 190 5 discriminator 1 view .LVU380
 1687 004a E2E7     		b	.L149
 1688              	.L150:
 210:Generated_Source\PSoC5/CyLib.c ****     }
 1689              		.loc 1 210 9 is_stmt 1 discriminator 1 view .LVU381
 210:Generated_Source\PSoC5/CyLib.c ****     }
 1690              		.loc 1 210 9 discriminator 1 view .LVU382
 1691 004c 0020     		movs	r0, #0
 1692 004e FFF7FEFF 		bl	CyHalt
 1693              	.LVL77:
 210:Generated_Source\PSoC5/CyLib.c ****     }
 1694              		.loc 1 210 27 discriminator 1 view .LVU383
 1695              	.L148:
 213:Generated_Source\PSoC5/CyLib.c **** 
 1696              		.loc 1 213 1 is_stmt 0 view .LVU384
 1697 0052 70BD     		pop	{r4, r5, r6, pc}
 1698              	.L155:
 1699              		.align	2
 1700              	.L154:
 1701 0054 20420040 		.word	1073758752
 1702 0058 22420040 		.word	1073758754
 1703 005c 21420040 		.word	1073758753
 1704              		.cfi_endproc
 1705              	.LFE2:
 1706              		.size	CyPLL_OUT_SetPQ, .-CyPLL_OUT_SetPQ
 1707              		.section	.text.CyPLL_OUT_SetSource,"ax",%progbits
 1708              		.align	1
 1709              		.global	CyPLL_OUT_SetSource
 1710              		.syntax unified
 1711              		.thumb
 1712              		.thumb_func
 1713              		.fpu softvfp
 1714              		.type	CyPLL_OUT_SetSource, %function
 1715              	CyPLL_OUT_SetSource:
 1716              	.LVL78:
 1717              	.LFB3:
 238:Generated_Source\PSoC5/CyLib.c ****     /* Halt CPU in debug mode if PLL is enabled */
 1718              		.loc 1 238 1 is_stmt 1 view -0
 1719              		.cfi_startproc
 1720              		@ args = 0, pretend = 0, frame = 0
 1721              		@ frame_needed = 0, uses_anonymous_args = 0
 238:Generated_Source\PSoC5/CyLib.c ****     /* Halt CPU in debug mode if PLL is enabled */
 1722              		.loc 1 238 1 is_stmt 0 view .LVU386
 1723 0000 10B5     		push	{r4, lr}
 1724              		.cfi_def_cfa_offset 8
 1725              		.cfi_offset 4, -8
 1726              		.cfi_offset 14, -4
 1727 0002 0446     		mov	r4, r0
 240:Generated_Source\PSoC5/CyLib.c **** 
 1728              		.loc 1 240 5 is_stmt 1 view .LVU387
 1729 0004 0B4B     		ldr	r3, .L162
 1730 0006 1B78     		ldrb	r3, [r3]	@ zero_extendqisi2
 1731 0008 13F0010F 		tst	r3, #1
 1732 000c 09D1     		bne	.L161
ARM GAS  C:\Users\jens-\AppData\Local\Temp\ccdWTNhT.s 			page 60


 1733              	.LVL79:
 1734              	.L157:
 240:Generated_Source\PSoC5/CyLib.c **** 
 1735              		.loc 1 240 62 discriminator 3 view .LVU388
 242:Generated_Source\PSoC5/CyLib.c ****     {
 1736              		.loc 1 242 5 discriminator 3 view .LVU389
 1737 000e 022C     		cmp	r4, #2
 1738 0010 0BD8     		bhi	.L158
 247:Generated_Source\PSoC5/CyLib.c ****         break;
 1739              		.loc 1 247 13 view .LVU390
 247:Generated_Source\PSoC5/CyLib.c ****         break;
 1740              		.loc 1 247 39 is_stmt 0 view .LVU391
 1741 0012 4FF04023 		mov	r3, #1073758208
 1742 0016 1878     		ldrb	r0, [r3]	@ zero_extendqisi2
 247:Generated_Source\PSoC5/CyLib.c ****         break;
 1743              		.loc 1 247 61 view .LVU392
 1744 0018 00F0FC00 		and	r0, r0, #252
 247:Generated_Source\PSoC5/CyLib.c ****         break;
 1745              		.loc 1 247 95 view .LVU393
 1746 001c 0443     		orrs	r4, r4, r0
 247:Generated_Source\PSoC5/CyLib.c ****         break;
 1747              		.loc 1 247 35 view .LVU394
 1748 001e 1C70     		strb	r4, [r3]
 248:Generated_Source\PSoC5/CyLib.c **** 
 1749              		.loc 1 248 9 is_stmt 1 view .LVU395
 1750              	.L156:
 254:Generated_Source\PSoC5/CyLib.c **** 
 1751              		.loc 1 254 1 is_stmt 0 view .LVU396
 1752 0020 10BD     		pop	{r4, pc}
 1753              	.LVL80:
 1754              	.L161:
 240:Generated_Source\PSoC5/CyLib.c **** 
 1755              		.loc 1 240 5 is_stmt 1 discriminator 1 view .LVU397
 1756 0022 0020     		movs	r0, #0
 1757              	.LVL81:
 240:Generated_Source\PSoC5/CyLib.c **** 
 1758              		.loc 1 240 5 is_stmt 0 discriminator 1 view .LVU398
 1759 0024 FFF7FEFF 		bl	CyHalt
 1760              	.LVL82:
 1761 0028 F1E7     		b	.L157
 1762              	.L158:
 251:Generated_Source\PSoC5/CyLib.c ****         break;
 1763              		.loc 1 251 13 is_stmt 1 discriminator 1 view .LVU399
 251:Generated_Source\PSoC5/CyLib.c ****         break;
 1764              		.loc 1 251 13 discriminator 1 view .LVU400
 1765 002a 0020     		movs	r0, #0
 1766 002c FFF7FEFF 		bl	CyHalt
 1767              	.LVL83:
 251:Generated_Source\PSoC5/CyLib.c ****         break;
 1768              		.loc 1 251 31 discriminator 1 view .LVU401
 252:Generated_Source\PSoC5/CyLib.c ****     }
 1769              		.loc 1 252 9 discriminator 1 view .LVU402
 254:Generated_Source\PSoC5/CyLib.c **** 
 1770              		.loc 1 254 1 is_stmt 0 discriminator 1 view .LVU403
 1771 0030 F6E7     		b	.L156
 1772              	.L163:
 1773 0032 00BF     		.align	2
ARM GAS  C:\Users\jens-\AppData\Local\Temp\ccdWTNhT.s 			page 61


 1774              	.L162:
 1775 0034 20420040 		.word	1073758752
 1776              		.cfi_endproc
 1777              	.LFE3:
 1778              		.size	CyPLL_OUT_SetSource, .-CyPLL_OUT_SetSource
 1779              		.section	.text.CyIMO_SetTrimValue,"ax",%progbits
 1780              		.align	1
 1781              		.syntax unified
 1782              		.thumb
 1783              		.thumb_func
 1784              		.fpu softvfp
 1785              		.type	CyIMO_SetTrimValue, %function
 1786              	CyIMO_SetTrimValue:
 1787              	.LVL84:
 1788              	.LFB7:
 368:Generated_Source\PSoC5/CyLib.c ****     uint8 usbPowerOn = CyUSB_PowerOnCheck();
 1789              		.loc 1 368 1 is_stmt 1 view -0
 1790              		.cfi_startproc
 1791              		@ args = 0, pretend = 0, frame = 0
 1792              		@ frame_needed = 0, uses_anonymous_args = 0
 368:Generated_Source\PSoC5/CyLib.c ****     uint8 usbPowerOn = CyUSB_PowerOnCheck();
 1793              		.loc 1 368 1 is_stmt 0 view .LVU405
 1794 0000 10B5     		push	{r4, lr}
 1795              		.cfi_def_cfa_offset 8
 1796              		.cfi_offset 4, -8
 1797              		.cfi_offset 14, -4
 1798 0002 0446     		mov	r4, r0
 369:Generated_Source\PSoC5/CyLib.c **** 
 1799              		.loc 1 369 5 is_stmt 1 view .LVU406
 369:Generated_Source\PSoC5/CyLib.c **** 
 1800              		.loc 1 369 24 is_stmt 0 view .LVU407
 1801 0004 FFF7FEFF 		bl	CyUSB_PowerOnCheck
 1802              	.LVL85:
 372:Generated_Source\PSoC5/CyLib.c ****     {
 1803              		.loc 1 372 5 is_stmt 1 view .LVU408
 372:Generated_Source\PSoC5/CyLib.c ****     {
 1804              		.loc 1 372 7 is_stmt 0 view .LVU409
 1805 0008 0128     		cmp	r0, #1
 1806 000a 08D0     		beq	.L178
 1807              	.L165:
 377:Generated_Source\PSoC5/CyLib.c ****     {
 1808              		.loc 1 377 5 is_stmt 1 view .LVU410
 1809 000c 082C     		cmp	r4, #8
 1810 000e 45D8     		bhi	.L166
 1811 0010 DFE804F0 		tbb	[pc, r4]
 1812              	.L168:
 1813 0014 0B       		.byte	(.L175-.L168)/2
 1814 0015 11       		.byte	(.L174-.L168)/2
 1815 0016 17       		.byte	(.L173-.L168)/2
 1816 0017 1D       		.byte	(.L172-.L168)/2
 1817 0018 23       		.byte	(.L171-.L168)/2
 1818 0019 29       		.byte	(.L170-.L168)/2
 1819 001a 2F       		.byte	(.L169-.L168)/2
 1820 001b 44       		.byte	(.L166-.L168)/2
 1821 001c 35       		.byte	(.L167-.L168)/2
 1822 001d 00       		.p2align 1
 1823              	.L178:
ARM GAS  C:\Users\jens-\AppData\Local\Temp\ccdWTNhT.s 			page 62


 375:Generated_Source\PSoC5/CyLib.c ****     }
 1824              		.loc 1 375 9 view .LVU411
 375:Generated_Source\PSoC5/CyLib.c ****     }
 1825              		.loc 1 375 28 is_stmt 0 view .LVU412
 1826 001e 214A     		ldr	r2, .L179
 1827 0020 1378     		ldrb	r3, [r2]	@ zero_extendqisi2
 1828 0022 03F0FD03 		and	r3, r3, #253
 1829 0026 1370     		strb	r3, [r2]
 1830 0028 F0E7     		b	.L165
 1831              	.L175:
 380:Generated_Source\PSoC5/CyLib.c ****         break;
 1832              		.loc 1 380 9 is_stmt 1 view .LVU413
 380:Generated_Source\PSoC5/CyLib.c ****         break;
 1833              		.loc 1 380 30 is_stmt 0 view .LVU414
 1834 002a 1F4B     		ldr	r3, .L179+4
 1835 002c 1B78     		ldrb	r3, [r3]	@ zero_extendqisi2
 1836 002e DBB2     		uxtb	r3, r3
 380:Generated_Source\PSoC5/CyLib.c ****         break;
 1837              		.loc 1 380 28 view .LVU415
 1838 0030 1E4A     		ldr	r2, .L179+8
 1839 0032 1370     		strb	r3, [r2]
 381:Generated_Source\PSoC5/CyLib.c **** 
 1840              		.loc 1 381 9 is_stmt 1 view .LVU416
 1841              	.LVL86:
 1842              	.L164:
 425:Generated_Source\PSoC5/CyLib.c **** 
 1843              		.loc 1 425 1 is_stmt 0 view .LVU417
 1844 0034 10BD     		pop	{r4, pc}
 1845              	.LVL87:
 1846              	.L174:
 384:Generated_Source\PSoC5/CyLib.c ****         break;
 1847              		.loc 1 384 9 is_stmt 1 view .LVU418
 384:Generated_Source\PSoC5/CyLib.c ****         break;
 1848              		.loc 1 384 30 is_stmt 0 view .LVU419
 1849 0036 1E4B     		ldr	r3, .L179+12
 1850 0038 1B78     		ldrb	r3, [r3]	@ zero_extendqisi2
 1851 003a DBB2     		uxtb	r3, r3
 384:Generated_Source\PSoC5/CyLib.c ****         break;
 1852              		.loc 1 384 28 view .LVU420
 1853 003c 1B4A     		ldr	r2, .L179+8
 1854 003e 1370     		strb	r3, [r2]
 385:Generated_Source\PSoC5/CyLib.c **** 
 1855              		.loc 1 385 9 is_stmt 1 view .LVU421
 1856 0040 F8E7     		b	.L164
 1857              	.L173:
 388:Generated_Source\PSoC5/CyLib.c ****         break;
 1858              		.loc 1 388 9 view .LVU422
 388:Generated_Source\PSoC5/CyLib.c ****         break;
 1859              		.loc 1 388 30 is_stmt 0 view .LVU423
 1860 0042 1C4B     		ldr	r3, .L179+16
 1861 0044 1B78     		ldrb	r3, [r3]	@ zero_extendqisi2
 1862 0046 DBB2     		uxtb	r3, r3
 388:Generated_Source\PSoC5/CyLib.c ****         break;
 1863              		.loc 1 388 28 view .LVU424
 1864 0048 184A     		ldr	r2, .L179+8
 1865 004a 1370     		strb	r3, [r2]
 389:Generated_Source\PSoC5/CyLib.c **** 
ARM GAS  C:\Users\jens-\AppData\Local\Temp\ccdWTNhT.s 			page 63


 1866              		.loc 1 389 9 is_stmt 1 view .LVU425
 1867 004c F2E7     		b	.L164
 1868              	.L172:
 392:Generated_Source\PSoC5/CyLib.c ****         break;
 1869              		.loc 1 392 9 view .LVU426
 392:Generated_Source\PSoC5/CyLib.c ****         break;
 1870              		.loc 1 392 30 is_stmt 0 view .LVU427
 1871 004e 1A4B     		ldr	r3, .L179+20
 1872 0050 1B78     		ldrb	r3, [r3]	@ zero_extendqisi2
 1873 0052 DBB2     		uxtb	r3, r3
 392:Generated_Source\PSoC5/CyLib.c ****         break;
 1874              		.loc 1 392 28 view .LVU428
 1875 0054 154A     		ldr	r2, .L179+8
 1876 0056 1370     		strb	r3, [r2]
 393:Generated_Source\PSoC5/CyLib.c **** 
 1877              		.loc 1 393 9 is_stmt 1 view .LVU429
 1878 0058 ECE7     		b	.L164
 1879              	.L171:
 396:Generated_Source\PSoC5/CyLib.c ****         break;
 1880              		.loc 1 396 9 view .LVU430
 396:Generated_Source\PSoC5/CyLib.c ****         break;
 1881              		.loc 1 396 30 is_stmt 0 view .LVU431
 1882 005a 184B     		ldr	r3, .L179+24
 1883 005c 1B78     		ldrb	r3, [r3]	@ zero_extendqisi2
 1884 005e DBB2     		uxtb	r3, r3
 396:Generated_Source\PSoC5/CyLib.c ****         break;
 1885              		.loc 1 396 28 view .LVU432
 1886 0060 124A     		ldr	r2, .L179+8
 1887 0062 1370     		strb	r3, [r2]
 397:Generated_Source\PSoC5/CyLib.c **** 
 1888              		.loc 1 397 9 is_stmt 1 view .LVU433
 1889 0064 E6E7     		b	.L164
 1890              	.L170:
 400:Generated_Source\PSoC5/CyLib.c ****         break;
 1891              		.loc 1 400 9 view .LVU434
 400:Generated_Source\PSoC5/CyLib.c ****         break;
 1892              		.loc 1 400 30 is_stmt 0 view .LVU435
 1893 0066 164B     		ldr	r3, .L179+28
 1894 0068 1B78     		ldrb	r3, [r3]	@ zero_extendqisi2
 1895 006a DBB2     		uxtb	r3, r3
 400:Generated_Source\PSoC5/CyLib.c ****         break;
 1896              		.loc 1 400 28 view .LVU436
 1897 006c 0F4A     		ldr	r2, .L179+8
 1898 006e 1370     		strb	r3, [r2]
 401:Generated_Source\PSoC5/CyLib.c **** 
 1899              		.loc 1 401 9 is_stmt 1 view .LVU437
 1900 0070 E0E7     		b	.L164
 1901              	.L169:
 405:Generated_Source\PSoC5/CyLib.c ****         break;
 1902              		.loc 1 405 9 view .LVU438
 405:Generated_Source\PSoC5/CyLib.c ****         break;
 1903              		.loc 1 405 30 is_stmt 0 view .LVU439
 1904 0072 144B     		ldr	r3, .L179+32
 1905 0074 1B78     		ldrb	r3, [r3]	@ zero_extendqisi2
 1906 0076 DBB2     		uxtb	r3, r3
 405:Generated_Source\PSoC5/CyLib.c ****         break;
 1907              		.loc 1 405 28 view .LVU440
ARM GAS  C:\Users\jens-\AppData\Local\Temp\ccdWTNhT.s 			page 64


 1908 0078 0C4A     		ldr	r2, .L179+8
 1909 007a 1370     		strb	r3, [r2]
 406:Generated_Source\PSoC5/CyLib.c **** #endif  /* (CY_PSOC5) */
 1910              		.loc 1 406 9 is_stmt 1 view .LVU441
 1911 007c DAE7     		b	.L164
 1912              	.L167:
 410:Generated_Source\PSoC5/CyLib.c **** 
 1913              		.loc 1 410 9 view .LVU442
 410:Generated_Source\PSoC5/CyLib.c **** 
 1914              		.loc 1 410 30 is_stmt 0 view .LVU443
 1915 007e 124B     		ldr	r3, .L179+36
 1916 0080 1B78     		ldrb	r3, [r3]	@ zero_extendqisi2
 1917 0082 DBB2     		uxtb	r3, r3
 410:Generated_Source\PSoC5/CyLib.c **** 
 1918              		.loc 1 410 28 view .LVU444
 1919 0084 094A     		ldr	r2, .L179+8
 1920 0086 1370     		strb	r3, [r2]
 413:Generated_Source\PSoC5/CyLib.c ****         {
 1921              		.loc 1 413 9 is_stmt 1 view .LVU445
 413:Generated_Source\PSoC5/CyLib.c ****         {
 1922              		.loc 1 413 11 is_stmt 0 view .LVU446
 1923 0088 0128     		cmp	r0, #1
 1924 008a D3D1     		bne	.L164
 416:Generated_Source\PSoC5/CyLib.c ****         }
 1925              		.loc 1 416 13 is_stmt 1 view .LVU447
 416:Generated_Source\PSoC5/CyLib.c ****         }
 1926              		.loc 1 416 32 is_stmt 0 view .LVU448
 1927 008c 02F5CB52 		add	r2, r2, #6496
 1928 0090 0832     		adds	r2, r2, #8
 1929 0092 1378     		ldrb	r3, [r2]	@ zero_extendqisi2
 1930 0094 43F00203 		orr	r3, r3, #2
 1931 0098 1370     		strb	r3, [r2]
 1932 009a CBE7     		b	.L164
 1933              	.L166:
 421:Generated_Source\PSoC5/CyLib.c ****         break;
 1934              		.loc 1 421 13 is_stmt 1 discriminator 1 view .LVU449
 421:Generated_Source\PSoC5/CyLib.c ****         break;
 1935              		.loc 1 421 13 discriminator 1 view .LVU450
 1936 009c 0020     		movs	r0, #0
 1937              	.LVL88:
 421:Generated_Source\PSoC5/CyLib.c ****         break;
 1938              		.loc 1 421 13 is_stmt 0 discriminator 1 view .LVU451
 1939 009e FFF7FEFF 		bl	CyHalt
 1940              	.LVL89:
 421:Generated_Source\PSoC5/CyLib.c ****         break;
 1941              		.loc 1 421 31 is_stmt 1 discriminator 1 view .LVU452
 422:Generated_Source\PSoC5/CyLib.c ****     }
 1942              		.loc 1 422 9 discriminator 1 view .LVU453
 425:Generated_Source\PSoC5/CyLib.c **** 
 1943              		.loc 1 425 1 is_stmt 0 discriminator 1 view .LVU454
 1944 00a2 C7E7     		b	.L164
 1945              	.L180:
 1946              		.align	2
 1947              	.L179:
 1948 00a4 09600040 		.word	1073766409
 1949 00a8 08010049 		.word	1224737032
 1950 00ac A1460040 		.word	1073759905
ARM GAS  C:\Users\jens-\AppData\Local\Temp\ccdWTNhT.s 			page 65


 1951 00b0 09010049 		.word	1224737033
 1952 00b4 0A010049 		.word	1224737034
 1953 00b8 0B010049 		.word	1224737035
 1954 00bc 89010049 		.word	1224737161
 1955 00c0 0C010049 		.word	1224737036
 1956 00c4 0D010049 		.word	1224737037
 1957 00c8 0F010049 		.word	1224737039
 1958              		.cfi_endproc
 1959              	.LFE7:
 1960              		.size	CyIMO_SetTrimValue, .-CyIMO_SetTrimValue
 1961              		.section	.text.CyIMO_SetFreq,"ax",%progbits
 1962              		.align	1
 1963              		.global	CyIMO_SetFreq
 1964              		.syntax unified
 1965              		.thumb
 1966              		.thumb_func
 1967              		.fpu softvfp
 1968              		.type	CyIMO_SetFreq, %function
 1969              	CyIMO_SetFreq:
 1970              	.LVL90:
 1971              	.LFB8:
 458:Generated_Source\PSoC5/CyLib.c ****     uint8 currentFreq;
 1972              		.loc 1 458 1 is_stmt 1 view -0
 1973              		.cfi_startproc
 1974              		@ args = 0, pretend = 0, frame = 0
 1975              		@ frame_needed = 0, uses_anonymous_args = 0
 458:Generated_Source\PSoC5/CyLib.c ****     uint8 currentFreq;
 1976              		.loc 1 458 1 is_stmt 0 view .LVU456
 1977 0000 70B5     		push	{r4, r5, r6, lr}
 1978              		.cfi_def_cfa_offset 16
 1979              		.cfi_offset 4, -16
 1980              		.cfi_offset 5, -12
 1981              		.cfi_offset 6, -8
 1982              		.cfi_offset 14, -4
 1983 0002 0446     		mov	r4, r0
 459:Generated_Source\PSoC5/CyLib.c ****     uint8 nextFreq;
 1984              		.loc 1 459 5 is_stmt 1 view .LVU457
 460:Generated_Source\PSoC5/CyLib.c **** 
 1985              		.loc 1 460 5 view .LVU458
 469:Generated_Source\PSoC5/CyLib.c **** 
 1986              		.loc 1 469 5 view .LVU459
 469:Generated_Source\PSoC5/CyLib.c **** 
 1987              		.loc 1 469 45 is_stmt 0 view .LVU460
 1988 0004 3B4B     		ldr	r3, .L209
 1989 0006 1D78     		ldrb	r5, [r3]	@ zero_extendqisi2
 469:Generated_Source\PSoC5/CyLib.c **** 
 1990              		.loc 1 469 17 view .LVU461
 1991 0008 05F00705 		and	r5, r5, #7
 1992              	.LVL91:
 472:Generated_Source\PSoC5/CyLib.c **** 
 1993              		.loc 1 472 5 is_stmt 1 view .LVU462
 472:Generated_Source\PSoC5/CyLib.c **** 
 1994              		.loc 1 472 14 is_stmt 0 view .LVU463
 1995 000c 0828     		cmp	r0, #8
 1996 000e 08D0     		beq	.L204
 1997 0010 0646     		mov	r6, r0
 1998              	.L182:
ARM GAS  C:\Users\jens-\AppData\Local\Temp\ccdWTNhT.s 			page 66


 1999              	.LVL92:
 474:Generated_Source\PSoC5/CyLib.c ****     {
 2000              		.loc 1 474 5 is_stmt 1 discriminator 4 view .LVU464
 2001 0012 062D     		cmp	r5, #6
 2002 0014 17D8     		bhi	.L183
 2003 0016 DFE805F0 		tbb	[pc, r5]
 2004              	.L185:
 2005 001a 06       		.byte	(.L188-.L185)/2
 2006 001b 07       		.byte	(.L184-.L185)/2
 2007 001c 12       		.byte	(.L187-.L185)/2
 2008 001d 14       		.byte	(.L186-.L185)/2
 2009 001e 07       		.byte	(.L184-.L185)/2
 2010 001f 07       		.byte	(.L184-.L185)/2
 2011 0020 07       		.byte	(.L184-.L185)/2
 2012              	.LVL93:
 2013 0021 00       		.p2align 1
 2014              	.L204:
 472:Generated_Source\PSoC5/CyLib.c **** 
 2015              		.loc 1 472 14 is_stmt 0 view .LVU465
 2016 0022 0326     		movs	r6, #3
 2017 0024 F5E7     		b	.L182
 2018              	.LVL94:
 2019              	.L188:
 489:Generated_Source\PSoC5/CyLib.c ****         break;
 2020              		.loc 1 489 21 view .LVU466
 2021 0026 0225     		movs	r5, #2
 2022              	.LVL95:
 2023              	.L184:
 511:Generated_Source\PSoC5/CyLib.c ****     {
 2024              		.loc 1 511 5 is_stmt 1 view .LVU467
 511:Generated_Source\PSoC5/CyLib.c ****     {
 2025              		.loc 1 511 8 is_stmt 0 view .LVU468
 2026 0028 B542     		cmp	r5, r6
 2027 002a 10D9     		bls	.L206
 2028              	.L189:
 518:Generated_Source\PSoC5/CyLib.c ****     {
 2029              		.loc 1 518 5 is_stmt 1 view .LVU469
 2030 002c 082C     		cmp	r4, #8
 2031 002e 56D8     		bhi	.L190
 2032 0030 DFE804F0 		tbb	[pc, r4]
 2033              	.L192:
 2034 0034 11       		.byte	(.L199-.L192)/2
 2035 0035 1F       		.byte	(.L198-.L192)/2
 2036 0036 27       		.byte	(.L197-.L192)/2
 2037 0037 2D       		.byte	(.L196-.L192)/2
 2038 0038 35       		.byte	(.L195-.L192)/2
 2039 0039 3D       		.byte	(.L194-.L192)/2
 2040 003a 45       		.byte	(.L193-.L192)/2
 2041 003b 55       		.byte	(.L190-.L192)/2
 2042 003c 4D       		.byte	(.L191-.L192)/2
 2043              	.LVL96:
 2044 003d 00       		.p2align 1
 2045              	.L187:
 485:Generated_Source\PSoC5/CyLib.c ****         break;
 2046              		.loc 1 485 9 view .LVU470
 486:Generated_Source\PSoC5/CyLib.c **** 
 2047              		.loc 1 486 9 view .LVU471
ARM GAS  C:\Users\jens-\AppData\Local\Temp\ccdWTNhT.s 			page 67


 485:Generated_Source\PSoC5/CyLib.c ****         break;
 2048              		.loc 1 485 21 is_stmt 0 view .LVU472
 2049 003e 0325     		movs	r5, #3
 486:Generated_Source\PSoC5/CyLib.c **** 
 2050              		.loc 1 486 9 view .LVU473
 2051 0040 F2E7     		b	.L184
 2052              	.LVL97:
 2053              	.L186:
 489:Generated_Source\PSoC5/CyLib.c ****         break;
 2054              		.loc 1 489 9 is_stmt 1 view .LVU474
 490:Generated_Source\PSoC5/CyLib.c **** 
 2055              		.loc 1 490 9 view .LVU475
 489:Generated_Source\PSoC5/CyLib.c ****         break;
 2056              		.loc 1 489 21 is_stmt 0 view .LVU476
 2057 0042 0025     		movs	r5, #0
 490:Generated_Source\PSoC5/CyLib.c **** 
 2058              		.loc 1 490 9 view .LVU477
 2059 0044 F0E7     		b	.L184
 2060              	.LVL98:
 2061              	.L183:
 507:Generated_Source\PSoC5/CyLib.c ****         break;
 2062              		.loc 1 507 9 is_stmt 1 discriminator 1 view .LVU478
 507:Generated_Source\PSoC5/CyLib.c ****         break;
 2063              		.loc 1 507 9 discriminator 1 view .LVU479
 2064 0046 0020     		movs	r0, #0
 2065              	.LVL99:
 507:Generated_Source\PSoC5/CyLib.c ****         break;
 2066              		.loc 1 507 9 is_stmt 0 discriminator 1 view .LVU480
 2067 0048 FFF7FEFF 		bl	CyHalt
 2068              	.LVL100:
 507:Generated_Source\PSoC5/CyLib.c ****         break;
 2069              		.loc 1 507 27 is_stmt 1 discriminator 1 view .LVU481
 508:Generated_Source\PSoC5/CyLib.c ****     }
 2070              		.loc 1 508 9 discriminator 1 view .LVU482
 2071 004c ECE7     		b	.L184
 2072              	.L206:
 514:Generated_Source\PSoC5/CyLib.c ****     }
 2073              		.loc 1 514 9 view .LVU483
 2074 004e 2046     		mov	r0, r4
 2075 0050 FFF7FEFF 		bl	CyIMO_SetTrimValue
 2076              	.LVL101:
 2077 0054 EAE7     		b	.L189
 2078              	.L199:
 521:Generated_Source\PSoC5/CyLib.c ****             CY_LIB_IMO_3MHZ_VALUE) & ((uint8)(~CY_LIB_IMO_USBCLK_ON_SET));
 2079              		.loc 1 521 9 view .LVU484
 521:Generated_Source\PSoC5/CyLib.c ****             CY_LIB_IMO_3MHZ_VALUE) & ((uint8)(~CY_LIB_IMO_USBCLK_ON_SET));
 2080              		.loc 1 521 39 is_stmt 0 view .LVU485
 2081 0056 274A     		ldr	r2, .L209
 2082 0058 1378     		ldrb	r3, [r2]	@ zero_extendqisi2
 522:Generated_Source\PSoC5/CyLib.c ****         break;
 2083              		.loc 1 522 36 view .LVU486
 2084 005a 03F0B803 		and	r3, r3, #184
 2085 005e 43F00303 		orr	r3, r3, #3
 521:Generated_Source\PSoC5/CyLib.c ****             CY_LIB_IMO_3MHZ_VALUE) & ((uint8)(~CY_LIB_IMO_USBCLK_ON_SET));
 2086              		.loc 1 521 35 view .LVU487
 2087 0062 1370     		strb	r3, [r2]
 523:Generated_Source\PSoC5/CyLib.c **** 
ARM GAS  C:\Users\jens-\AppData\Local\Temp\ccdWTNhT.s 			page 68


 2088              		.loc 1 523 9 is_stmt 1 view .LVU488
 2089              	.L200:
 568:Generated_Source\PSoC5/CyLib.c ****     {
 2090              		.loc 1 568 5 view .LVU489
 568:Generated_Source\PSoC5/CyLib.c ****     {
 2091              		.loc 1 568 8 is_stmt 0 view .LVU490
 2092 0064 082C     		cmp	r4, #8
 2093 0066 3ED0     		beq	.L207
 574:Generated_Source\PSoC5/CyLib.c ****     }
 2094              		.loc 1 574 9 is_stmt 1 view .LVU491
 2095 0068 FFF7FEFF 		bl	CyIMO_DisableDoubler
 2096              	.LVL102:
 2097              	.L202:
 577:Generated_Source\PSoC5/CyLib.c ****     {
 2098              		.loc 1 577 5 view .LVU492
 577:Generated_Source\PSoC5/CyLib.c ****     {
 2099              		.loc 1 577 8 is_stmt 0 view .LVU493
 2100 006c B542     		cmp	r5, r6
 2101 006e 3DD8     		bhi	.L208
 2102              	.L181:
 582:Generated_Source\PSoC5/CyLib.c **** 
 2103              		.loc 1 582 1 view .LVU494
 2104 0070 70BD     		pop	{r4, r5, r6, pc}
 2105              	.LVL103:
 2106              	.L198:
 526:Generated_Source\PSoC5/CyLib.c ****             CY_LIB_IMO_6MHZ_VALUE) & ((uint8)(~CY_LIB_IMO_USBCLK_ON_SET));
 2107              		.loc 1 526 9 is_stmt 1 view .LVU495
 526:Generated_Source\PSoC5/CyLib.c ****             CY_LIB_IMO_6MHZ_VALUE) & ((uint8)(~CY_LIB_IMO_USBCLK_ON_SET));
 2108              		.loc 1 526 39 is_stmt 0 view .LVU496
 2109 0072 204A     		ldr	r2, .L209
 2110 0074 1378     		ldrb	r3, [r2]	@ zero_extendqisi2
 527:Generated_Source\PSoC5/CyLib.c ****         break;
 2111              		.loc 1 527 36 view .LVU497
 2112 0076 03F0B803 		and	r3, r3, #184
 2113 007a 43F00103 		orr	r3, r3, #1
 526:Generated_Source\PSoC5/CyLib.c ****             CY_LIB_IMO_6MHZ_VALUE) & ((uint8)(~CY_LIB_IMO_USBCLK_ON_SET));
 2114              		.loc 1 526 35 view .LVU498
 2115 007e 1370     		strb	r3, [r2]
 528:Generated_Source\PSoC5/CyLib.c **** 
 2116              		.loc 1 528 9 is_stmt 1 view .LVU499
 2117 0080 F0E7     		b	.L200
 2118              	.L197:
 531:Generated_Source\PSoC5/CyLib.c ****             CY_LIB_IMO_12MHZ_VALUE) & ((uint8)(~CY_LIB_IMO_USBCLK_ON_SET));
 2119              		.loc 1 531 9 view .LVU500
 531:Generated_Source\PSoC5/CyLib.c ****             CY_LIB_IMO_12MHZ_VALUE) & ((uint8)(~CY_LIB_IMO_USBCLK_ON_SET));
 2120              		.loc 1 531 39 is_stmt 0 view .LVU501
 2121 0082 1C4A     		ldr	r2, .L209
 2122 0084 1378     		ldrb	r3, [r2]	@ zero_extendqisi2
 532:Generated_Source\PSoC5/CyLib.c ****         break;
 2123              		.loc 1 532 37 view .LVU502
 2124 0086 03F0B803 		and	r3, r3, #184
 531:Generated_Source\PSoC5/CyLib.c ****             CY_LIB_IMO_12MHZ_VALUE) & ((uint8)(~CY_LIB_IMO_USBCLK_ON_SET));
 2125              		.loc 1 531 35 view .LVU503
 2126 008a 1370     		strb	r3, [r2]
 533:Generated_Source\PSoC5/CyLib.c **** 
 2127              		.loc 1 533 9 is_stmt 1 view .LVU504
 2128 008c EAE7     		b	.L200
ARM GAS  C:\Users\jens-\AppData\Local\Temp\ccdWTNhT.s 			page 69


 2129              	.L196:
 536:Generated_Source\PSoC5/CyLib.c ****             CY_LIB_IMO_24MHZ_VALUE) & ((uint8)(~CY_LIB_IMO_USBCLK_ON_SET));
 2130              		.loc 1 536 9 view .LVU505
 536:Generated_Source\PSoC5/CyLib.c ****             CY_LIB_IMO_24MHZ_VALUE) & ((uint8)(~CY_LIB_IMO_USBCLK_ON_SET));
 2131              		.loc 1 536 39 is_stmt 0 view .LVU506
 2132 008e 194A     		ldr	r2, .L209
 2133 0090 1378     		ldrb	r3, [r2]	@ zero_extendqisi2
 537:Generated_Source\PSoC5/CyLib.c ****         break;
 2134              		.loc 1 537 37 view .LVU507
 2135 0092 03F0B803 		and	r3, r3, #184
 2136 0096 43F00203 		orr	r3, r3, #2
 536:Generated_Source\PSoC5/CyLib.c ****             CY_LIB_IMO_24MHZ_VALUE) & ((uint8)(~CY_LIB_IMO_USBCLK_ON_SET));
 2137              		.loc 1 536 35 view .LVU508
 2138 009a 1370     		strb	r3, [r2]
 538:Generated_Source\PSoC5/CyLib.c **** 
 2139              		.loc 1 538 9 is_stmt 1 view .LVU509
 2140 009c E2E7     		b	.L200
 2141              	.L195:
 541:Generated_Source\PSoC5/CyLib.c ****             CY_LIB_IMO_48MHZ_VALUE) & ((uint8)(~CY_LIB_IMO_USBCLK_ON_SET));
 2142              		.loc 1 541 9 view .LVU510
 541:Generated_Source\PSoC5/CyLib.c ****             CY_LIB_IMO_48MHZ_VALUE) & ((uint8)(~CY_LIB_IMO_USBCLK_ON_SET));
 2143              		.loc 1 541 39 is_stmt 0 view .LVU511
 2144 009e 154A     		ldr	r2, .L209
 2145 00a0 1378     		ldrb	r3, [r2]	@ zero_extendqisi2
 542:Generated_Source\PSoC5/CyLib.c ****         break;
 2146              		.loc 1 542 37 view .LVU512
 2147 00a2 03F0B803 		and	r3, r3, #184
 2148 00a6 43F00403 		orr	r3, r3, #4
 541:Generated_Source\PSoC5/CyLib.c ****             CY_LIB_IMO_48MHZ_VALUE) & ((uint8)(~CY_LIB_IMO_USBCLK_ON_SET));
 2149              		.loc 1 541 35 view .LVU513
 2150 00aa 1370     		strb	r3, [r2]
 543:Generated_Source\PSoC5/CyLib.c **** 
 2151              		.loc 1 543 9 is_stmt 1 view .LVU514
 2152 00ac DAE7     		b	.L200
 2153              	.L194:
 546:Generated_Source\PSoC5/CyLib.c ****             CY_LIB_IMO_62MHZ_VALUE) & ((uint8)(~CY_LIB_IMO_USBCLK_ON_SET));
 2154              		.loc 1 546 9 view .LVU515
 546:Generated_Source\PSoC5/CyLib.c ****             CY_LIB_IMO_62MHZ_VALUE) & ((uint8)(~CY_LIB_IMO_USBCLK_ON_SET));
 2155              		.loc 1 546 39 is_stmt 0 view .LVU516
 2156 00ae 114A     		ldr	r2, .L209
 2157 00b0 1378     		ldrb	r3, [r2]	@ zero_extendqisi2
 547:Generated_Source\PSoC5/CyLib.c ****         break;
 2158              		.loc 1 547 37 view .LVU517
 2159 00b2 03F0B803 		and	r3, r3, #184
 2160 00b6 43F00503 		orr	r3, r3, #5
 546:Generated_Source\PSoC5/CyLib.c ****             CY_LIB_IMO_62MHZ_VALUE) & ((uint8)(~CY_LIB_IMO_USBCLK_ON_SET));
 2161              		.loc 1 546 35 view .LVU518
 2162 00ba 1370     		strb	r3, [r2]
 548:Generated_Source\PSoC5/CyLib.c **** 
 2163              		.loc 1 548 9 is_stmt 1 view .LVU519
 2164 00bc D2E7     		b	.L200
 2165              	.L193:
 552:Generated_Source\PSoC5/CyLib.c ****             CY_LIB_IMO_74MHZ_VALUE) & ((uint8)(~CY_LIB_IMO_USBCLK_ON_SET));
 2166              		.loc 1 552 9 view .LVU520
 552:Generated_Source\PSoC5/CyLib.c ****             CY_LIB_IMO_74MHZ_VALUE) & ((uint8)(~CY_LIB_IMO_USBCLK_ON_SET));
 2167              		.loc 1 552 39 is_stmt 0 view .LVU521
 2168 00be 0D4A     		ldr	r2, .L209
ARM GAS  C:\Users\jens-\AppData\Local\Temp\ccdWTNhT.s 			page 70


 2169 00c0 1378     		ldrb	r3, [r2]	@ zero_extendqisi2
 553:Generated_Source\PSoC5/CyLib.c ****         break;
 2170              		.loc 1 553 37 view .LVU522
 2171 00c2 03F0B803 		and	r3, r3, #184
 2172 00c6 43F00603 		orr	r3, r3, #6
 552:Generated_Source\PSoC5/CyLib.c ****             CY_LIB_IMO_74MHZ_VALUE) & ((uint8)(~CY_LIB_IMO_USBCLK_ON_SET));
 2173              		.loc 1 552 35 view .LVU523
 2174 00ca 1370     		strb	r3, [r2]
 554:Generated_Source\PSoC5/CyLib.c **** #endif  /* (CY_PSOC5) */
 2175              		.loc 1 554 9 is_stmt 1 view .LVU524
 2176 00cc CAE7     		b	.L200
 2177              	.L191:
 558:Generated_Source\PSoC5/CyLib.c ****             CY_LIB_IMO_24MHZ_VALUE) | CY_LIB_IMO_USBCLK_ON_SET;
 2178              		.loc 1 558 9 view .LVU525
 558:Generated_Source\PSoC5/CyLib.c ****             CY_LIB_IMO_24MHZ_VALUE) | CY_LIB_IMO_USBCLK_ON_SET;
 2179              		.loc 1 558 39 is_stmt 0 view .LVU526
 2180 00ce 094A     		ldr	r2, .L209
 2181 00d0 1378     		ldrb	r3, [r2]	@ zero_extendqisi2
 559:Generated_Source\PSoC5/CyLib.c ****         break;
 2182              		.loc 1 559 37 view .LVU527
 2183 00d2 03F0B803 		and	r3, r3, #184
 2184 00d6 43F04203 		orr	r3, r3, #66
 558:Generated_Source\PSoC5/CyLib.c ****             CY_LIB_IMO_24MHZ_VALUE) | CY_LIB_IMO_USBCLK_ON_SET;
 2185              		.loc 1 558 35 view .LVU528
 2186 00da 1370     		strb	r3, [r2]
 560:Generated_Source\PSoC5/CyLib.c **** 
 2187              		.loc 1 560 9 is_stmt 1 view .LVU529
 2188 00dc C2E7     		b	.L200
 2189              	.L190:
 563:Generated_Source\PSoC5/CyLib.c ****         break;
 2190              		.loc 1 563 9 discriminator 1 view .LVU530
 563:Generated_Source\PSoC5/CyLib.c ****         break;
 2191              		.loc 1 563 9 discriminator 1 view .LVU531
 2192 00de 0020     		movs	r0, #0
 2193 00e0 FFF7FEFF 		bl	CyHalt
 2194              	.LVL104:
 563:Generated_Source\PSoC5/CyLib.c ****         break;
 2195              		.loc 1 563 27 discriminator 1 view .LVU532
 564:Generated_Source\PSoC5/CyLib.c ****     }
 2196              		.loc 1 564 9 discriminator 1 view .LVU533
 2197 00e4 BEE7     		b	.L200
 2198              	.L207:
 570:Generated_Source\PSoC5/CyLib.c ****     }
 2199              		.loc 1 570 9 view .LVU534
 2200 00e6 FFF7FEFF 		bl	CyIMO_EnableDoubler
 2201              	.LVL105:
 2202 00ea BFE7     		b	.L202
 2203              	.L208:
 580:Generated_Source\PSoC5/CyLib.c ****     }
 2204              		.loc 1 580 9 view .LVU535
 2205 00ec 2046     		mov	r0, r4
 2206 00ee FFF7FEFF 		bl	CyIMO_SetTrimValue
 2207              	.LVL106:
 582:Generated_Source\PSoC5/CyLib.c **** 
 2208              		.loc 1 582 1 is_stmt 0 view .LVU536
 2209 00f2 BDE7     		b	.L181
 2210              	.L210:
ARM GAS  C:\Users\jens-\AppData\Local\Temp\ccdWTNhT.s 			page 71


 2211              		.align	2
 2212              	.L209:
 2213 00f4 00420040 		.word	1073758720
 2214              		.cfi_endproc
 2215              	.LFE8:
 2216              		.size	CyIMO_SetFreq, .-CyIMO_SetFreq
 2217              		.section	.text.CyIMO_SetSource,"ax",%progbits
 2218              		.align	1
 2219              		.global	CyIMO_SetSource
 2220              		.syntax unified
 2221              		.thumb
 2222              		.thumb_func
 2223              		.fpu softvfp
 2224              		.type	CyIMO_SetSource, %function
 2225              	CyIMO_SetSource:
 2226              	.LVL107:
 2227              	.LFB9:
 608:Generated_Source\PSoC5/CyLib.c ****     switch(source)
 2228              		.loc 1 608 1 is_stmt 1 view -0
 2229              		.cfi_startproc
 2230              		@ args = 0, pretend = 0, frame = 0
 2231              		@ frame_needed = 0, uses_anonymous_args = 0
 608:Generated_Source\PSoC5/CyLib.c ****     switch(source)
 2232              		.loc 1 608 1 is_stmt 0 view .LVU538
 2233 0000 08B5     		push	{r3, lr}
 2234              		.cfi_def_cfa_offset 8
 2235              		.cfi_offset 3, -8
 2236              		.cfi_offset 14, -4
 609:Generated_Source\PSoC5/CyLib.c ****     {
 2237              		.loc 1 609 5 is_stmt 1 view .LVU539
 2238 0002 0128     		cmp	r0, #1
 2239 0004 13D0     		beq	.L212
 2240 0006 0228     		cmp	r0, #2
 2241 0008 04D0     		beq	.L213
 2242 000a E8B1     		cbz	r0, .L219
 627:Generated_Source\PSoC5/CyLib.c ****         break;
 2243              		.loc 1 627 9 discriminator 1 view .LVU540
 627:Generated_Source\PSoC5/CyLib.c ****         break;
 2244              		.loc 1 627 9 discriminator 1 view .LVU541
 2245 000c 0020     		movs	r0, #0
 2246              	.LVL108:
 627:Generated_Source\PSoC5/CyLib.c ****         break;
 2247              		.loc 1 627 9 is_stmt 0 discriminator 1 view .LVU542
 2248 000e FFF7FEFF 		bl	CyHalt
 2249              	.LVL109:
 627:Generated_Source\PSoC5/CyLib.c ****         break;
 2250              		.loc 1 627 27 is_stmt 1 discriminator 1 view .LVU543
 628:Generated_Source\PSoC5/CyLib.c ****     }
 2251              		.loc 1 628 9 discriminator 1 view .LVU544
 630:Generated_Source\PSoC5/CyLib.c **** 
 2252              		.loc 1 630 1 is_stmt 0 discriminator 1 view .LVU545
 2253 0012 0BE0     		b	.L211
 2254              	.LVL110:
 2255              	.L213:
 612:Generated_Source\PSoC5/CyLib.c ****         CY_LIB_FASTCLK_IMO_CR_REG |= CY_LIB_FASTCLK_IMO_IMO;
 2256              		.loc 1 612 9 is_stmt 1 view .LVU546
 612:Generated_Source\PSoC5/CyLib.c ****         CY_LIB_FASTCLK_IMO_CR_REG |= CY_LIB_FASTCLK_IMO_IMO;
ARM GAS  C:\Users\jens-\AppData\Local\Temp\ccdWTNhT.s 			page 72


 2257              		.loc 1 612 35 is_stmt 0 view .LVU547
 2258 0014 4FF04022 		mov	r2, #1073758208
 2259 0018 1378     		ldrb	r3, [r2]	@ zero_extendqisi2
 2260 001a 03F0BF03 		and	r3, r3, #191
 2261 001e 1370     		strb	r3, [r2]
 613:Generated_Source\PSoC5/CyLib.c ****         break;
 2262              		.loc 1 613 9 is_stmt 1 view .LVU548
 613:Generated_Source\PSoC5/CyLib.c ****         break;
 2263              		.loc 1 613 35 is_stmt 0 view .LVU549
 2264 0020 02F50072 		add	r2, r2, #512
 2265 0024 1378     		ldrb	r3, [r2]	@ zero_extendqisi2
 2266 0026 43F02003 		orr	r3, r3, #32
 2267 002a 1370     		strb	r3, [r2]
 614:Generated_Source\PSoC5/CyLib.c **** 
 2268              		.loc 1 614 9 is_stmt 1 view .LVU550
 2269              	.LVL111:
 2270              	.L211:
 630:Generated_Source\PSoC5/CyLib.c **** 
 2271              		.loc 1 630 1 is_stmt 0 view .LVU551
 2272 002c 08BD     		pop	{r3, pc}
 2273              	.LVL112:
 2274              	.L212:
 617:Generated_Source\PSoC5/CyLib.c ****         CY_LIB_FASTCLK_IMO_CR_REG |= CY_LIB_FASTCLK_IMO_IMO;
 2275              		.loc 1 617 9 is_stmt 1 view .LVU552
 617:Generated_Source\PSoC5/CyLib.c ****         CY_LIB_FASTCLK_IMO_CR_REG |= CY_LIB_FASTCLK_IMO_IMO;
 2276              		.loc 1 617 35 is_stmt 0 view .LVU553
 2277 002e 4FF04022 		mov	r2, #1073758208
 2278 0032 1378     		ldrb	r3, [r2]	@ zero_extendqisi2
 2279 0034 43F04003 		orr	r3, r3, #64
 2280 0038 1370     		strb	r3, [r2]
 618:Generated_Source\PSoC5/CyLib.c ****         break;
 2281              		.loc 1 618 9 is_stmt 1 view .LVU554
 618:Generated_Source\PSoC5/CyLib.c ****         break;
 2282              		.loc 1 618 35 is_stmt 0 view .LVU555
 2283 003a 02F50072 		add	r2, r2, #512
 2284 003e 1378     		ldrb	r3, [r2]	@ zero_extendqisi2
 2285 0040 43F02003 		orr	r3, r3, #32
 2286 0044 1370     		strb	r3, [r2]
 619:Generated_Source\PSoC5/CyLib.c **** 
 2287              		.loc 1 619 9 is_stmt 1 view .LVU556
 2288 0046 F1E7     		b	.L211
 2289              	.L219:
 622:Generated_Source\PSoC5/CyLib.c ****         break;
 2290              		.loc 1 622 9 view .LVU557
 622:Generated_Source\PSoC5/CyLib.c ****         break;
 2291              		.loc 1 622 35 is_stmt 0 view .LVU558
 2292 0048 024A     		ldr	r2, .L220
 2293 004a 1378     		ldrb	r3, [r2]	@ zero_extendqisi2
 2294 004c 03F0DF03 		and	r3, r3, #223
 2295 0050 1370     		strb	r3, [r2]
 623:Generated_Source\PSoC5/CyLib.c **** 
 2296              		.loc 1 623 9 is_stmt 1 view .LVU559
 2297 0052 EBE7     		b	.L211
 2298              	.L221:
 2299              		.align	2
 2300              	.L220:
 2301 0054 00420040 		.word	1073758720
ARM GAS  C:\Users\jens-\AppData\Local\Temp\ccdWTNhT.s 			page 73


 2302              		.cfi_endproc
 2303              	.LFE9:
 2304              		.size	CyIMO_SetSource, .-CyIMO_SetSource
 2305              		.section	.text.CySoftwareReset,"ax",%progbits
 2306              		.align	1
 2307              		.global	CySoftwareReset
 2308              		.syntax unified
 2309              		.thumb
 2310              		.thumb_func
 2311              		.fpu softvfp
 2312              		.type	CySoftwareReset, %function
 2313              	CySoftwareReset:
 2314              	.LFB40:
1429:Generated_Source\PSoC5/CyLib.c **** 
1430:Generated_Source\PSoC5/CyLib.c **** 
1431:Generated_Source\PSoC5/CyLib.c **** /*******************************************************************************
1432:Generated_Source\PSoC5/CyLib.c **** * Function Name: CySoftwareReset
1433:Generated_Source\PSoC5/CyLib.c **** ****************************************************************************//**
1434:Generated_Source\PSoC5/CyLib.c **** *
1435:Generated_Source\PSoC5/CyLib.c **** *  Forces a device software reset.
1436:Generated_Source\PSoC5/CyLib.c **** *
1437:Generated_Source\PSoC5/CyLib.c **** *******************************************************************************/
1438:Generated_Source\PSoC5/CyLib.c **** void CySoftwareReset(void) 
1439:Generated_Source\PSoC5/CyLib.c **** {
 2315              		.loc 1 1439 1 view -0
 2316              		.cfi_startproc
 2317              		@ args = 0, pretend = 0, frame = 0
 2318              		@ frame_needed = 0, uses_anonymous_args = 0
 2319              		@ link register save eliminated.
1440:Generated_Source\PSoC5/CyLib.c ****     CY_LIB_RESET_CR2_REG |= CY_LIB_RESET_CR2_RESET;
 2320              		.loc 1 1440 5 view .LVU561
 2321              		.loc 1 1440 26 is_stmt 0 view .LVU562
 2322 0000 024A     		ldr	r2, .L223
 2323 0002 1378     		ldrb	r3, [r2]	@ zero_extendqisi2
 2324 0004 43F00103 		orr	r3, r3, #1
 2325 0008 1370     		strb	r3, [r2]
1441:Generated_Source\PSoC5/CyLib.c **** }
 2326              		.loc 1 1441 1 view .LVU563
 2327 000a 7047     		bx	lr
 2328              	.L224:
 2329              		.align	2
 2330              	.L223:
 2331 000c F6460040 		.word	1073759990
 2332              		.cfi_endproc
 2333              	.LFE40:
 2334              		.size	CySoftwareReset, .-CySoftwareReset
 2335              		.section	.text.CyDelay,"ax",%progbits
 2336              		.align	1
 2337              		.global	CyDelay
 2338              		.syntax unified
 2339              		.thumb
 2340              		.thumb_func
 2341              		.fpu softvfp
 2342              		.type	CyDelay, %function
 2343              	CyDelay:
 2344              	.LVL113:
 2345              	.LFB41:
ARM GAS  C:\Users\jens-\AppData\Local\Temp\ccdWTNhT.s 			page 74


1442:Generated_Source\PSoC5/CyLib.c **** 
1443:Generated_Source\PSoC5/CyLib.c **** 
1444:Generated_Source\PSoC5/CyLib.c **** /*******************************************************************************
1445:Generated_Source\PSoC5/CyLib.c **** * Function Name: CyDelay
1446:Generated_Source\PSoC5/CyLib.c **** ****************************************************************************//**
1447:Generated_Source\PSoC5/CyLib.c **** *
1448:Generated_Source\PSoC5/CyLib.c **** *  Blocks for milliseconds.
1449:Generated_Source\PSoC5/CyLib.c **** *
1450:Generated_Source\PSoC5/CyLib.c **** *  Note:
1451:Generated_Source\PSoC5/CyLib.c **** *  CyDelay has been implemented with the instruction cache assumed enabled. When
1452:Generated_Source\PSoC5/CyLib.c **** *  the instruction cache is disabled on PSoC5, CyDelay will be two times larger.
1453:Generated_Source\PSoC5/CyLib.c **** *  For example, with instruction cache disabled CyDelay(100) would result in
1454:Generated_Source\PSoC5/CyLib.c **** *  about 200 ms delay instead of 100 ms.
1455:Generated_Source\PSoC5/CyLib.c **** *
1456:Generated_Source\PSoC5/CyLib.c **** *  \param milliseconds: number of milliseconds to delay.
1457:Generated_Source\PSoC5/CyLib.c **** *
1458:Generated_Source\PSoC5/CyLib.c **** *******************************************************************************/
1459:Generated_Source\PSoC5/CyLib.c **** void CyDelay(uint32 milliseconds) CYREENTRANT
1460:Generated_Source\PSoC5/CyLib.c **** {
 2346              		.loc 1 1460 1 is_stmt 1 view -0
 2347              		.cfi_startproc
 2348              		@ args = 0, pretend = 0, frame = 0
 2349              		@ frame_needed = 0, uses_anonymous_args = 0
 2350              		.loc 1 1460 1 is_stmt 0 view .LVU565
 2351 0000 10B5     		push	{r4, lr}
 2352              		.cfi_def_cfa_offset 8
 2353              		.cfi_offset 4, -8
 2354              		.cfi_offset 14, -4
 2355 0002 0446     		mov	r4, r0
1461:Generated_Source\PSoC5/CyLib.c ****     while (milliseconds > 32768u)
 2356              		.loc 1 1461 5 is_stmt 1 view .LVU566
 2357              	.LVL114:
 2358              	.L226:
 2359              		.loc 1 1461 11 view .LVU567
 2360 0004 B4F5004F 		cmp	r4, #32768
 2361 0008 06D9     		bls	.L229
1462:Generated_Source\PSoC5/CyLib.c ****     {
1463:Generated_Source\PSoC5/CyLib.c ****         /***********************************************************************
1464:Generated_Source\PSoC5/CyLib.c ****         * This loop prevents overflow.At 100MHz, milliseconds * delay_freq_khz
1465:Generated_Source\PSoC5/CyLib.c ****         * overflows at about 42 seconds.
1466:Generated_Source\PSoC5/CyLib.c ****         ***********************************************************************/
1467:Generated_Source\PSoC5/CyLib.c ****         CyDelayCycles(cydelay_32k_ms);
 2362              		.loc 1 1467 9 view .LVU568
 2363 000a 074B     		ldr	r3, .L230
 2364 000c 1868     		ldr	r0, [r3]
 2365 000e FFF7FEFF 		bl	CyDelayCycles
 2366              	.LVL115:
1468:Generated_Source\PSoC5/CyLib.c ****         milliseconds = ((uint32)(milliseconds - 32768u));
 2367              		.loc 1 1468 9 view .LVU569
 2368              		.loc 1 1468 22 is_stmt 0 view .LVU570
 2369 0012 A4F50044 		sub	r4, r4, #32768
 2370              	.LVL116:
 2371              		.loc 1 1468 22 view .LVU571
 2372 0016 F5E7     		b	.L226
 2373              	.L229:
1469:Generated_Source\PSoC5/CyLib.c ****     }
1470:Generated_Source\PSoC5/CyLib.c **** 
ARM GAS  C:\Users\jens-\AppData\Local\Temp\ccdWTNhT.s 			page 75


1471:Generated_Source\PSoC5/CyLib.c ****     CyDelayCycles(milliseconds * cydelay_freq_khz);
 2374              		.loc 1 1471 5 is_stmt 1 view .LVU572
 2375 0018 034B     		ldr	r3, .L230
 2376 001a 5868     		ldr	r0, [r3, #4]
 2377 001c 00FB04F0 		mul	r0, r0, r4
 2378 0020 FFF7FEFF 		bl	CyDelayCycles
 2379              	.LVL117:
1472:Generated_Source\PSoC5/CyLib.c **** }
 2380              		.loc 1 1472 1 is_stmt 0 view .LVU573
 2381 0024 10BD     		pop	{r4, pc}
 2382              	.LVL118:
 2383              	.L231:
 2384              		.loc 1 1472 1 view .LVU574
 2385 0026 00BF     		.align	2
 2386              	.L230:
 2387 0028 00000000 		.word	.LANCHOR0
 2388              		.cfi_endproc
 2389              	.LFE41:
 2390              		.size	CyDelay, .-CyDelay
 2391              		.section	.text.CyDelayUs,"ax",%progbits
 2392              		.align	1
 2393              		.global	CyDelayUs
 2394              		.syntax unified
 2395              		.thumb
 2396              		.thumb_func
 2397              		.fpu softvfp
 2398              		.type	CyDelayUs, %function
 2399              	CyDelayUs:
 2400              	.LVL119:
 2401              	.LFB42:
1473:Generated_Source\PSoC5/CyLib.c **** 
1474:Generated_Source\PSoC5/CyLib.c **** 
1475:Generated_Source\PSoC5/CyLib.c **** #if(!CY_PSOC3)
1476:Generated_Source\PSoC5/CyLib.c **** 
1477:Generated_Source\PSoC5/CyLib.c ****     /* For PSoC3 devices function is defined in CyBootAsmKeil.a51 file */
1478:Generated_Source\PSoC5/CyLib.c **** 
1479:Generated_Source\PSoC5/CyLib.c ****     /*******************************************************************************
1480:Generated_Source\PSoC5/CyLib.c ****     * Function Name: CyDelayUs
1481:Generated_Source\PSoC5/CyLib.c ****     ****************************************************************************//**
1482:Generated_Source\PSoC5/CyLib.c ****     *
1483:Generated_Source\PSoC5/CyLib.c ****     *  Blocks for microseconds.
1484:Generated_Source\PSoC5/CyLib.c ****     *
1485:Generated_Source\PSoC5/CyLib.c ****     *  Note:
1486:Generated_Source\PSoC5/CyLib.c ****     *   CyDelay has been implemented with the instruction cache assumed enabled.
1487:Generated_Source\PSoC5/CyLib.c ****     *   When instruction cache is disabled on PSoC5, CyDelayUs will be two times
1488:Generated_Source\PSoC5/CyLib.c ****     *   larger. Ex: With instruction cache disabled CyDelayUs(100) would result
1489:Generated_Source\PSoC5/CyLib.c ****     *   in about 200us delay instead of 100us.
1490:Generated_Source\PSoC5/CyLib.c ****     *
1491:Generated_Source\PSoC5/CyLib.c ****     *  \param uint16 microseconds: number of microseconds to delay.
1492:Generated_Source\PSoC5/CyLib.c ****     *
1493:Generated_Source\PSoC5/CyLib.c ****     * \sideeffect
1494:Generated_Source\PSoC5/CyLib.c ****     *  CyDelayUS has been implemented with the instruction cache assumed enabled.
1495:Generated_Source\PSoC5/CyLib.c ****     *  When the instruction cache is disabled on PSoC 5, CyDelayUs will be two times
1496:Generated_Source\PSoC5/CyLib.c ****     *  larger. For example, with the instruction cache disabled CyDelayUs(100) would
1497:Generated_Source\PSoC5/CyLib.c ****     *  result in about 200 us delay instead of 100 us.
1498:Generated_Source\PSoC5/CyLib.c ****     *
1499:Generated_Source\PSoC5/CyLib.c ****     *  If the bus clock frequency is a small non-integer number, the actual delay
ARM GAS  C:\Users\jens-\AppData\Local\Temp\ccdWTNhT.s 			page 76


1500:Generated_Source\PSoC5/CyLib.c ****     *  can be up to twice as long as the nominal value. The actual delay cannot be
1501:Generated_Source\PSoC5/CyLib.c ****     *  shorter than the nominal one.
1502:Generated_Source\PSoC5/CyLib.c ****     *******************************************************************************/
1503:Generated_Source\PSoC5/CyLib.c ****     void CyDelayUs(uint16 microseconds) CYREENTRANT
1504:Generated_Source\PSoC5/CyLib.c ****     {
 2402              		.loc 1 1504 5 is_stmt 1 view -0
 2403              		.cfi_startproc
 2404              		@ args = 0, pretend = 0, frame = 0
 2405              		@ frame_needed = 0, uses_anonymous_args = 0
 2406              		.loc 1 1504 5 is_stmt 0 view .LVU576
 2407 0000 08B5     		push	{r3, lr}
 2408              		.cfi_def_cfa_offset 8
 2409              		.cfi_offset 3, -8
 2410              		.cfi_offset 14, -4
1505:Generated_Source\PSoC5/CyLib.c ****         CyDelayCycles((uint32)microseconds * cydelay_freq_mhz);
 2411              		.loc 1 1505 9 is_stmt 1 view .LVU577
 2412 0002 034B     		ldr	r3, .L234
 2413 0004 1B7A     		ldrb	r3, [r3, #8]	@ zero_extendqisi2
 2414 0006 00FB03F0 		mul	r0, r0, r3
 2415              	.LVL120:
 2416              		.loc 1 1505 9 is_stmt 0 view .LVU578
 2417 000a FFF7FEFF 		bl	CyDelayCycles
 2418              	.LVL121:
1506:Generated_Source\PSoC5/CyLib.c ****     }
 2419              		.loc 1 1506 5 view .LVU579
 2420 000e 08BD     		pop	{r3, pc}
 2421              	.L235:
 2422              		.align	2
 2423              	.L234:
 2424 0010 00000000 		.word	.LANCHOR0
 2425              		.cfi_endproc
 2426              	.LFE42:
 2427              		.size	CyDelayUs, .-CyDelayUs
 2428              		.section	.text.CyXTAL_32KHZ_SetPowerMode,"ax",%progbits
 2429              		.align	1
 2430              		.global	CyXTAL_32KHZ_SetPowerMode
 2431              		.syntax unified
 2432              		.thumb
 2433              		.thumb_func
 2434              		.fpu softvfp
 2435              		.type	CyXTAL_32KHZ_SetPowerMode, %function
 2436              	CyXTAL_32KHZ_SetPowerMode:
 2437              	.LVL122:
 2438              	.LFB28:
1119:Generated_Source\PSoC5/CyLib.c ****     uint8 state = (0u != (CY_CLK_XTAL32_CR_REG & CY_CLK_XTAL32_CR_LPM)) ? 1u : 0u;
 2439              		.loc 1 1119 1 is_stmt 1 view -0
 2440              		.cfi_startproc
 2441              		@ args = 0, pretend = 0, frame = 0
 2442              		@ frame_needed = 0, uses_anonymous_args = 0
1119:Generated_Source\PSoC5/CyLib.c ****     uint8 state = (0u != (CY_CLK_XTAL32_CR_REG & CY_CLK_XTAL32_CR_LPM)) ? 1u : 0u;
 2443              		.loc 1 1119 1 is_stmt 0 view .LVU581
 2444 0000 10B5     		push	{r4, lr}
 2445              		.cfi_def_cfa_offset 8
 2446              		.cfi_offset 4, -8
 2447              		.cfi_offset 14, -4
1120:Generated_Source\PSoC5/CyLib.c **** 
 2448              		.loc 1 1120 5 is_stmt 1 view .LVU582
ARM GAS  C:\Users\jens-\AppData\Local\Temp\ccdWTNhT.s 			page 77


1120:Generated_Source\PSoC5/CyLib.c **** 
 2449              		.loc 1 1120 27 is_stmt 0 view .LVU583
 2450 0002 1B4B     		ldr	r3, .L242
 2451 0004 1B78     		ldrb	r3, [r3]	@ zero_extendqisi2
1120:Generated_Source\PSoC5/CyLib.c **** 
 2452              		.loc 1 1120 11 view .LVU584
 2453 0006 13F00204 		ands	r4, r3, #2
 2454 000a 00D0     		beq	.L237
 2455 000c 0124     		movs	r4, #1
 2456              	.L237:
 2457              	.LVL123:
1122:Generated_Source\PSoC5/CyLib.c **** 
 2458              		.loc 1 1122 5 is_stmt 1 discriminator 4 view .LVU585
1122:Generated_Source\PSoC5/CyLib.c **** 
 2459              		.loc 1 1122 27 is_stmt 0 discriminator 4 view .LVU586
 2460 000e 194B     		ldr	r3, .L242+4
 2461 0010 F322     		movs	r2, #243
 2462 0012 1A70     		strb	r2, [r3]
1124:Generated_Source\PSoC5/CyLib.c ****     {
 2463              		.loc 1 1124 5 is_stmt 1 discriminator 4 view .LVU587
1124:Generated_Source\PSoC5/CyLib.c ****     {
 2464              		.loc 1 1124 7 is_stmt 0 discriminator 4 view .LVU588
 2465 0014 0128     		cmp	r0, #1
 2466 0016 13D0     		beq	.L241
1137:Generated_Source\PSoC5/CyLib.c ****         CyDelayUs(10u);
 2467              		.loc 1 1137 9 is_stmt 1 view .LVU589
1137:Generated_Source\PSoC5/CyLib.c ****         CyDelayUs(10u);
 2468              		.loc 1 1137 31 is_stmt 0 view .LVU590
 2469 0018 174B     		ldr	r3, .L242+8
 2470 001a 0622     		movs	r2, #6
 2471 001c 1A70     		strb	r2, [r3]
1138:Generated_Source\PSoC5/CyLib.c ****         CY_CLK_XTAL32_CFG_REG = (CY_CLK_XTAL32_CFG_REG & ((uint8)(~CY_CLK_XTAL32_CFG_LP_MASK))) |
