ARM GAS  C:\Users\jens-\AppData\Local\Temp\ccdWTNhT.s 			page 1


   1              		.cpu cortex-m3
   2              		.eabi_attribute 20, 1
   3              		.eabi_attribute 21, 1
   4              		.eabi_attribute 23, 3
   5              		.eabi_attribute 24, 1
   6              		.eabi_attribute 25, 1
   7              		.eabi_attribute 26, 1
   8              		.eabi_attribute 30, 1
   9              		.eabi_attribute 34, 1
  10              		.eabi_attribute 18, 4
  11              		.file	"CyLib.c"
  12              		.text
  13              	.Ltext0:
  14              		.cfi_sections	.debug_frame
  15              		.section	.text.CyUSB_PowerOnCheck,"ax",%progbits
  16              		.align	1
  17              		.arch armv7-m
  18              		.syntax unified
  19              		.thumb
  20              		.thumb_func
  21              		.fpu softvfp
  22              		.type	CyUSB_PowerOnCheck, %function
  23              	CyUSB_PowerOnCheck:
  24              	.LFB6:
  25              		.file 1 "Generated_Source\\PSoC5\\CyLib.c"
   1:Generated_Source\PSoC5/CyLib.c **** /***************************************************************************//**
   2:Generated_Source\PSoC5/CyLib.c **** * \file CyLib.c
   3:Generated_Source\PSoC5/CyLib.c **** * \version 5.70
   4:Generated_Source\PSoC5/CyLib.c **** *
   5:Generated_Source\PSoC5/CyLib.c **** * \brief Provides a system API for the clocking, interrupts and watchdog timer.
   6:Generated_Source\PSoC5/CyLib.c **** *
   7:Generated_Source\PSoC5/CyLib.c **** * \note Documentation of the API's in this file is located in the System
   8:Generated_Source\PSoC5/CyLib.c **** * Reference Guide provided with PSoC Creator.
   9:Generated_Source\PSoC5/CyLib.c **** *
  10:Generated_Source\PSoC5/CyLib.c **** ********************************************************************************
  11:Generated_Source\PSoC5/CyLib.c **** * \copyright
  12:Generated_Source\PSoC5/CyLib.c **** * Copyright 2008-2018, Cypress Semiconductor Corporation.  All rights reserved.
  13:Generated_Source\PSoC5/CyLib.c **** * You may use this file only in accordance with the license, terms, conditions,
  14:Generated_Source\PSoC5/CyLib.c **** * disclaimers, and limitations in the end user license agreement accompanying
  15:Generated_Source\PSoC5/CyLib.c **** * the software package with which this file was provided.
  16:Generated_Source\PSoC5/CyLib.c **** *******************************************************************************/
  17:Generated_Source\PSoC5/CyLib.c **** 
  18:Generated_Source\PSoC5/CyLib.c **** #include "CyLib.h"
  19:Generated_Source\PSoC5/CyLib.c **** 
  20:Generated_Source\PSoC5/CyLib.c **** 
  21:Generated_Source\PSoC5/CyLib.c **** /*******************************************************************************
  22:Generated_Source\PSoC5/CyLib.c **** * The CyResetStatus variable is used to obtain value of RESET_SR0 register after
  23:Generated_Source\PSoC5/CyLib.c **** * a device reset. It is set from initialize_psoc() at the early initialization
  24:Generated_Source\PSoC5/CyLib.c **** * stage. In case of IAR EW IDE, initialize_psoc() is executed before the data
  25:Generated_Source\PSoC5/CyLib.c **** * sections are initialized. To avoid zeroing, CyResetStatus should be placed
  26:Generated_Source\PSoC5/CyLib.c **** * to the .noinit section.
  27:Generated_Source\PSoC5/CyLib.c **** *******************************************************************************/
  28:Generated_Source\PSoC5/CyLib.c **** CY_NOINIT uint8 CYXDATA CyResetStatus;
  29:Generated_Source\PSoC5/CyLib.c **** 
  30:Generated_Source\PSoC5/CyLib.c **** 
  31:Generated_Source\PSoC5/CyLib.c **** /* Variable Vdda */
  32:Generated_Source\PSoC5/CyLib.c **** #if(CYDEV_VARIABLE_VDDA == 1)
ARM GAS  C:\Users\jens-\AppData\Local\Temp\ccdWTNhT.s 			page 2


  33:Generated_Source\PSoC5/CyLib.c **** 
  34:Generated_Source\PSoC5/CyLib.c ****     uint8 CyScPumpEnabled = (uint8)(CYDEV_VDDA_MV < 2700);
  35:Generated_Source\PSoC5/CyLib.c **** 
  36:Generated_Source\PSoC5/CyLib.c **** #endif  /* (CYDEV_VARIABLE_VDDA == 1) */
  37:Generated_Source\PSoC5/CyLib.c **** 
  38:Generated_Source\PSoC5/CyLib.c **** 
  39:Generated_Source\PSoC5/CyLib.c **** /* Do not use these definitions directly in your application */
  40:Generated_Source\PSoC5/CyLib.c **** uint32 cydelay_freq_hz  = BCLK__BUS_CLK__HZ;
  41:Generated_Source\PSoC5/CyLib.c **** uint32 cydelay_freq_khz = (BCLK__BUS_CLK__HZ + 999u) / 1000u;
  42:Generated_Source\PSoC5/CyLib.c **** uint8  cydelay_freq_mhz = (uint8)((BCLK__BUS_CLK__HZ + 999999u) / 1000000u);
  43:Generated_Source\PSoC5/CyLib.c **** uint32 cydelay_32k_ms   = 32768u * ((BCLK__BUS_CLK__HZ + 999u) / 1000u);
  44:Generated_Source\PSoC5/CyLib.c **** 
  45:Generated_Source\PSoC5/CyLib.c **** 
  46:Generated_Source\PSoC5/CyLib.c **** /* Function Prototypes */
  47:Generated_Source\PSoC5/CyLib.c **** static uint8 CyUSB_PowerOnCheck(void)  ;
  48:Generated_Source\PSoC5/CyLib.c **** static void CyIMO_SetTrimValue(uint8 freq) ;
  49:Generated_Source\PSoC5/CyLib.c **** static void CyBusClk_Internal_SetDivider(uint16 divider);
  50:Generated_Source\PSoC5/CyLib.c **** 
  51:Generated_Source\PSoC5/CyLib.c **** #if(CY_PSOC5)
  52:Generated_Source\PSoC5/CyLib.c ****     static cySysTickCallback CySysTickCallbacks[CY_SYS_SYST_NUM_OF_CALLBACKS];
  53:Generated_Source\PSoC5/CyLib.c ****     static void CySysTickServiceCallbacks(void);
  54:Generated_Source\PSoC5/CyLib.c ****     uint32 CySysTickInitVar = 0u;
  55:Generated_Source\PSoC5/CyLib.c **** #endif  /* (CY_PSOC5) */
  56:Generated_Source\PSoC5/CyLib.c **** 
  57:Generated_Source\PSoC5/CyLib.c **** 
  58:Generated_Source\PSoC5/CyLib.c **** #if(CY_PSOC3)
  59:Generated_Source\PSoC5/CyLib.c ****     CY_ISR_PROTO(IntDefaultHandler);
  60:Generated_Source\PSoC5/CyLib.c **** #endif /* (CY_PSOC3) */
  61:Generated_Source\PSoC5/CyLib.c **** 
  62:Generated_Source\PSoC5/CyLib.c **** 
  63:Generated_Source\PSoC5/CyLib.c **** /*******************************************************************************
  64:Generated_Source\PSoC5/CyLib.c **** * Function Name: CyPLL_OUT_Start
  65:Generated_Source\PSoC5/CyLib.c **** ****************************************************************************//**
  66:Generated_Source\PSoC5/CyLib.c **** *
  67:Generated_Source\PSoC5/CyLib.c **** *   Enables the PLL.  Optionally waits for it to become stable.
  68:Generated_Source\PSoC5/CyLib.c **** *   Waits at least 250 us or until it is detected that the PLL is stable.
  69:Generated_Source\PSoC5/CyLib.c **** *
  70:Generated_Source\PSoC5/CyLib.c **** *   \param wait:
  71:Generated_Source\PSoC5/CyLib.c **** *    \param 0: Return immediately after configuration
  72:Generated_Source\PSoC5/CyLib.c **** *    \param 1: Wait for PLL lock or timeout.
  73:Generated_Source\PSoC5/CyLib.c **** *
  74:Generated_Source\PSoC5/CyLib.c **** * \return
  75:Generated_Source\PSoC5/CyLib.c **** *   Status
  76:Generated_Source\PSoC5/CyLib.c **** *    CYRET_SUCCESS - Completed successfully
  77:Generated_Source\PSoC5/CyLib.c **** *    CYRET_TIMEOUT - Timeout occurred without detecting a stable clock.
  78:Generated_Source\PSoC5/CyLib.c **** *     If the input source of the clock is jittery, then the lock indication
  79:Generated_Source\PSoC5/CyLib.c **** *     may not occur.  However, after the timeout has expired the generated PLL
  80:Generated_Source\PSoC5/CyLib.c **** *     clock can still be used.
  81:Generated_Source\PSoC5/CyLib.c **** *
  82:Generated_Source\PSoC5/CyLib.c **** * \sideeffect
  83:Generated_Source\PSoC5/CyLib.c **** *  If wait is enabled: This function uses the Fast Time Wheel to time the wait.
  84:Generated_Source\PSoC5/CyLib.c **** *  Any other use of the Fast Time Wheel will be stopped during the period of
  85:Generated_Source\PSoC5/CyLib.c **** *  this function and then restored. This function also uses the 100 KHz ILO.
  86:Generated_Source\PSoC5/CyLib.c **** *  If not enabled, this function will enable the 100 KHz ILO for the period of
  87:Generated_Source\PSoC5/CyLib.c **** *  this function.
  88:Generated_Source\PSoC5/CyLib.c **** *
  89:Generated_Source\PSoC5/CyLib.c **** *  No changes to the setup of the ILO, Fast Time Wheel, Central Time Wheel or
ARM GAS  C:\Users\jens-\AppData\Local\Temp\ccdWTNhT.s 			page 3


  90:Generated_Source\PSoC5/CyLib.c **** *  Once Per Second interrupt may be made by interrupt routines during the period
  91:Generated_Source\PSoC5/CyLib.c **** *  of this function execution. The current operation of the ILO, Central Time
  92:Generated_Source\PSoC5/CyLib.c **** *  Wheel and Once Per Second interrupt are maintained during the operation of
  93:Generated_Source\PSoC5/CyLib.c **** *  this function provided the reading of the Power Manager Interrupt Status
  94:Generated_Source\PSoC5/CyLib.c **** *  Register is only done using the CyPmReadStatus() function.
  95:Generated_Source\PSoC5/CyLib.c **** *
  96:Generated_Source\PSoC5/CyLib.c **** *******************************************************************************/
  97:Generated_Source\PSoC5/CyLib.c **** cystatus CyPLL_OUT_Start(uint8 wait) 
  98:Generated_Source\PSoC5/CyLib.c **** {
  99:Generated_Source\PSoC5/CyLib.c ****     cystatus status = CYRET_SUCCESS;
 100:Generated_Source\PSoC5/CyLib.c **** 
 101:Generated_Source\PSoC5/CyLib.c ****     uint8 iloEnableState;
 102:Generated_Source\PSoC5/CyLib.c ****     uint8 pmTwCfg0State;
 103:Generated_Source\PSoC5/CyLib.c ****     uint8 pmTwCfg2State;
 104:Generated_Source\PSoC5/CyLib.c **** 
 105:Generated_Source\PSoC5/CyLib.c **** 
 106:Generated_Source\PSoC5/CyLib.c ****     /* Enables PLL circuit  */
 107:Generated_Source\PSoC5/CyLib.c ****     CY_CLK_PLL_CFG0_REG |= CY_CLK_PLL_ENABLE;
 108:Generated_Source\PSoC5/CyLib.c **** 
 109:Generated_Source\PSoC5/CyLib.c ****     if(wait != 0u)
 110:Generated_Source\PSoC5/CyLib.c ****     {
 111:Generated_Source\PSoC5/CyLib.c ****         /* Save 100 KHz ILO, FTW interval, enable and interrupt enable */
 112:Generated_Source\PSoC5/CyLib.c ****         iloEnableState = CY_LIB_SLOWCLK_ILO_CR0_REG & CY_LIB_SLOWCLK_ILO_CR0_EN_100KHZ;
 113:Generated_Source\PSoC5/CyLib.c ****         pmTwCfg0State = CY_LIB_PM_TW_CFG0_REG;
 114:Generated_Source\PSoC5/CyLib.c ****         pmTwCfg2State = CY_LIB_PM_TW_CFG2_REG;
 115:Generated_Source\PSoC5/CyLib.c **** 
 116:Generated_Source\PSoC5/CyLib.c ****         CyPmFtwSetInterval(CY_CLK_PLL_FTW_INTERVAL);
 117:Generated_Source\PSoC5/CyLib.c **** 
 118:Generated_Source\PSoC5/CyLib.c ****         status = CYRET_TIMEOUT;
 119:Generated_Source\PSoC5/CyLib.c **** 
 120:Generated_Source\PSoC5/CyLib.c ****         while(0u == (CY_PM_FTW_INT & CyPmReadStatus(CY_PM_FTW_INT)))
 121:Generated_Source\PSoC5/CyLib.c ****         {
 122:Generated_Source\PSoC5/CyLib.c ****             /* Wait for interrupt status */
 123:Generated_Source\PSoC5/CyLib.c ****             if(0u != (CY_CLK_PLL_SR_REG & CY_CLK_PLL_LOCK_STATUS))
 124:Generated_Source\PSoC5/CyLib.c ****             {
 125:Generated_Source\PSoC5/CyLib.c ****                 if(0u != (CY_CLK_PLL_SR_REG & CY_CLK_PLL_LOCK_STATUS))
 126:Generated_Source\PSoC5/CyLib.c ****                 {
 127:Generated_Source\PSoC5/CyLib.c ****                     status = CYRET_SUCCESS;
 128:Generated_Source\PSoC5/CyLib.c ****                     break;
 129:Generated_Source\PSoC5/CyLib.c ****                 }
 130:Generated_Source\PSoC5/CyLib.c ****             }
 131:Generated_Source\PSoC5/CyLib.c ****         }
 132:Generated_Source\PSoC5/CyLib.c **** 
 133:Generated_Source\PSoC5/CyLib.c ****         /* Restore 100 KHz ILO, FTW interval, enable and interrupt enable */
 134:Generated_Source\PSoC5/CyLib.c ****         if(0u == iloEnableState)
 135:Generated_Source\PSoC5/CyLib.c ****         {
 136:Generated_Source\PSoC5/CyLib.c ****             CyILO_Stop100K();
 137:Generated_Source\PSoC5/CyLib.c ****         }
 138:Generated_Source\PSoC5/CyLib.c **** 
 139:Generated_Source\PSoC5/CyLib.c ****         CY_LIB_PM_TW_CFG0_REG = pmTwCfg0State;
 140:Generated_Source\PSoC5/CyLib.c ****         CY_LIB_PM_TW_CFG2_REG = pmTwCfg2State;
 141:Generated_Source\PSoC5/CyLib.c ****     }
 142:Generated_Source\PSoC5/CyLib.c **** 
 143:Generated_Source\PSoC5/CyLib.c ****     return(status);
 144:Generated_Source\PSoC5/CyLib.c **** }
 145:Generated_Source\PSoC5/CyLib.c **** 
 146:Generated_Source\PSoC5/CyLib.c **** 
ARM GAS  C:\Users\jens-\AppData\Local\Temp\ccdWTNhT.s 			page 4


 147:Generated_Source\PSoC5/CyLib.c **** /*******************************************************************************
 148:Generated_Source\PSoC5/CyLib.c **** * Function Name: CyPLL_OUT_Stop
 149:Generated_Source\PSoC5/CyLib.c **** ****************************************************************************//**
 150:Generated_Source\PSoC5/CyLib.c **** *
 151:Generated_Source\PSoC5/CyLib.c **** *  Disables the PLL.
 152:Generated_Source\PSoC5/CyLib.c **** *
 153:Generated_Source\PSoC5/CyLib.c **** *******************************************************************************/
 154:Generated_Source\PSoC5/CyLib.c **** void CyPLL_OUT_Stop(void) 
 155:Generated_Source\PSoC5/CyLib.c **** {
 156:Generated_Source\PSoC5/CyLib.c ****     CY_CLK_PLL_CFG0_REG &= ((uint8)(~CY_CLK_PLL_ENABLE));
 157:Generated_Source\PSoC5/CyLib.c **** }
 158:Generated_Source\PSoC5/CyLib.c **** 
 159:Generated_Source\PSoC5/CyLib.c **** 
 160:Generated_Source\PSoC5/CyLib.c **** /*******************************************************************************
 161:Generated_Source\PSoC5/CyLib.c **** * Function Name: CyPLL_OUT_SetPQ
 162:Generated_Source\PSoC5/CyLib.c **** ****************************************************************************//**
 163:Generated_Source\PSoC5/CyLib.c **** *
 164:Generated_Source\PSoC5/CyLib.c **** *  Sets the P and Q dividers and the charge pump current.
 165:Generated_Source\PSoC5/CyLib.c **** *  The Frequency Out will be P/Q * Frequency In.
 166:Generated_Source\PSoC5/CyLib.c **** *  The PLL must be disabled before calling this function.
 167:Generated_Source\PSoC5/CyLib.c **** *
 168:Generated_Source\PSoC5/CyLib.c **** *  \param uint8 pDiv:
 169:Generated_Source\PSoC5/CyLib.c **** *   Valid range [8 - 255].
 170:Generated_Source\PSoC5/CyLib.c **** *
 171:Generated_Source\PSoC5/CyLib.c **** *  \param uint8 qDiv:
 172:Generated_Source\PSoC5/CyLib.c **** *   Valid range [1 - 16]. Input Frequency / Q must be in range of 1 to 3 MHz.
 173:Generated_Source\PSoC5/CyLib.c **** 
 174:Generated_Source\PSoC5/CyLib.c **** *  \param uint8 current:
 175:Generated_Source\PSoC5/CyLib.c **** *   Valid range [1 - 7]. Charge pump current in uA. Refer to the device TRM and
 176:Generated_Source\PSoC5/CyLib.c **** *   datasheet for more information.
 177:Generated_Source\PSoC5/CyLib.c **** *
 178:Generated_Source\PSoC5/CyLib.c **** * \sideeffect
 179:Generated_Source\PSoC5/CyLib.c **** *  If this function execution results in the CPU clock frequency increasing,
 180:Generated_Source\PSoC5/CyLib.c **** *  then the number of clock cycles the cache will wait before it samples data
 181:Generated_Source\PSoC5/CyLib.c **** *  coming back from the Flash must be adjusted by calling
 182:Generated_Source\PSoC5/CyLib.c **** *  CyFlash_SetWaitCycles() with an appropriate parameter. It can be optionally
 183:Generated_Source\PSoC5/CyLib.c **** *  called if the CPU clock frequency is lowered in order to improve the CPU
 184:Generated_Source\PSoC5/CyLib.c **** *  performance. See CyFlash_SetWaitCycles() description for more information.
 185:Generated_Source\PSoC5/CyLib.c **** *
 186:Generated_Source\PSoC5/CyLib.c **** *******************************************************************************/
 187:Generated_Source\PSoC5/CyLib.c **** void CyPLL_OUT_SetPQ(uint8 pDiv, uint8 qDiv, uint8 current) 
 188:Generated_Source\PSoC5/CyLib.c **** {
 189:Generated_Source\PSoC5/CyLib.c ****     /* Halt CPU in debug mode if PLL is enabled */
 190:Generated_Source\PSoC5/CyLib.c ****     CYASSERT(0u == (CY_CLK_PLL_CFG0_REG & CY_CLK_PLL_ENABLE));
 191:Generated_Source\PSoC5/CyLib.c **** 
 192:Generated_Source\PSoC5/CyLib.c ****     if((pDiv    >= CY_CLK_PLL_MIN_P_VALUE  ) &&
 193:Generated_Source\PSoC5/CyLib.c ****        (qDiv    <= CY_CLK_PLL_MAX_Q_VALUE  ) && (qDiv    >= CY_CLK_PLL_MIN_Q_VALUE  ) &&
 194:Generated_Source\PSoC5/CyLib.c ****        (current >= CY_CLK_PLL_MIN_CUR_VALUE) && (current <= CY_CLK_PLL_MAX_CUR_VALUE))
 195:Generated_Source\PSoC5/CyLib.c ****     {
 196:Generated_Source\PSoC5/CyLib.c ****         /* Set new values */
 197:Generated_Source\PSoC5/CyLib.c ****         CY_CLK_PLL_P_REG = pDiv;
 198:Generated_Source\PSoC5/CyLib.c ****         CY_CLK_PLL_Q_REG = ((uint8)(qDiv - 1u));
 199:Generated_Source\PSoC5/CyLib.c ****         CY_CLK_PLL_CFG1_REG = (CY_CLK_PLL_CFG1_REG & CY_CLK_PLL_CURRENT_MASK) |
 200:Generated_Source\PSoC5/CyLib.c ****                                 ((uint8)(((uint8)(current - 1u)) << CY_CLK_PLL_CURRENT_POSITION));
 201:Generated_Source\PSoC5/CyLib.c ****     }
 202:Generated_Source\PSoC5/CyLib.c ****     else
 203:Generated_Source\PSoC5/CyLib.c ****     {
ARM GAS  C:\Users\jens-\AppData\Local\Temp\ccdWTNhT.s 			page 5


 204:Generated_Source\PSoC5/CyLib.c ****         /***********************************************************************
 205:Generated_Source\PSoC5/CyLib.c ****         * Halt CPU in debug mode if:
 206:Generated_Source\PSoC5/CyLib.c ****         * - P divider is less than required
 207:Generated_Source\PSoC5/CyLib.c ****         * - Q divider is out of range
 208:Generated_Source\PSoC5/CyLib.c ****         * - pump current is out of range
 209:Generated_Source\PSoC5/CyLib.c ****         ***********************************************************************/
 210:Generated_Source\PSoC5/CyLib.c ****         CYASSERT(0u != 0u);
 211:Generated_Source\PSoC5/CyLib.c ****     }
 212:Generated_Source\PSoC5/CyLib.c **** 
 213:Generated_Source\PSoC5/CyLib.c **** }
 214:Generated_Source\PSoC5/CyLib.c **** 
 215:Generated_Source\PSoC5/CyLib.c **** 
 216:Generated_Source\PSoC5/CyLib.c **** /*******************************************************************************
 217:Generated_Source\PSoC5/CyLib.c **** * Function Name: CyPLL_OUT_SetSource
 218:Generated_Source\PSoC5/CyLib.c **** ****************************************************************************//**
 219:Generated_Source\PSoC5/CyLib.c **** *
 220:Generated_Source\PSoC5/CyLib.c **** *  Sets the input clock source to the PLL. The PLL must be disabled before
 221:Generated_Source\PSoC5/CyLib.c **** *  calling this function.
 222:Generated_Source\PSoC5/CyLib.c **** *
 223:Generated_Source\PSoC5/CyLib.c **** *   \param source: One of the three available PLL clock sources
 224:Generated_Source\PSoC5/CyLib.c **** *    \param CY_PLL_SOURCE_IMO  :   IMO
 225:Generated_Source\PSoC5/CyLib.c **** *    \param CY_PLL_SOURCE_XTAL :   MHz Crystal
 226:Generated_Source\PSoC5/CyLib.c **** *    \param CY_PLL_SOURCE_DSI  :   DSI
 227:Generated_Source\PSoC5/CyLib.c **** *
 228:Generated_Source\PSoC5/CyLib.c **** * \sideeffect
 229:Generated_Source\PSoC5/CyLib.c **** *  If this function execution results in the CPU clock frequency increasing,
 230:Generated_Source\PSoC5/CyLib.c **** *  then the number of clock cycles the cache will wait before it samples data
 231:Generated_Source\PSoC5/CyLib.c **** *  coming back from the3 Flash must be adjusted by calling
 232:Generated_Source\PSoC5/CyLib.c **** *  CyFlash_SetWaitCycles() with an appropriate parameter. It can be optionally
 233:Generated_Source\PSoC5/CyLib.c **** *  called if the CPU clock frequency is lowered in order to improve the CPU
 234:Generated_Source\PSoC5/CyLib.c **** *  performance. See CyFlash_SetWaitCycles() description for more information.
 235:Generated_Source\PSoC5/CyLib.c **** *
 236:Generated_Source\PSoC5/CyLib.c **** *******************************************************************************/
 237:Generated_Source\PSoC5/CyLib.c **** void CyPLL_OUT_SetSource(uint8 source) 
 238:Generated_Source\PSoC5/CyLib.c **** {
 239:Generated_Source\PSoC5/CyLib.c ****     /* Halt CPU in debug mode if PLL is enabled */
 240:Generated_Source\PSoC5/CyLib.c ****     CYASSERT(0u == (CY_CLK_PLL_CFG0_REG & CY_CLK_PLL_ENABLE));
 241:Generated_Source\PSoC5/CyLib.c **** 
 242:Generated_Source\PSoC5/CyLib.c ****     switch(source)
 243:Generated_Source\PSoC5/CyLib.c ****     {
 244:Generated_Source\PSoC5/CyLib.c ****         case CY_PLL_SOURCE_IMO:
 245:Generated_Source\PSoC5/CyLib.c ****         case CY_PLL_SOURCE_XTAL:
 246:Generated_Source\PSoC5/CyLib.c ****         case CY_PLL_SOURCE_DSI:
 247:Generated_Source\PSoC5/CyLib.c ****             CY_LIB_CLKDIST_CR_REG = ((CY_LIB_CLKDIST_CR_REG & CY_LIB_CLKDIST_CR_PLL_SCR_MASK) | sou
 248:Generated_Source\PSoC5/CyLib.c ****         break;
 249:Generated_Source\PSoC5/CyLib.c **** 
 250:Generated_Source\PSoC5/CyLib.c ****         default:
 251:Generated_Source\PSoC5/CyLib.c ****             CYASSERT(0u != 0u);
 252:Generated_Source\PSoC5/CyLib.c ****         break;
 253:Generated_Source\PSoC5/CyLib.c ****     }
 254:Generated_Source\PSoC5/CyLib.c **** }
 255:Generated_Source\PSoC5/CyLib.c **** 
 256:Generated_Source\PSoC5/CyLib.c **** 
 257:Generated_Source\PSoC5/CyLib.c **** /*******************************************************************************
 258:Generated_Source\PSoC5/CyLib.c **** * Function Name: CyIMO_Start
 259:Generated_Source\PSoC5/CyLib.c **** ****************************************************************************//**
 260:Generated_Source\PSoC5/CyLib.c **** *
ARM GAS  C:\Users\jens-\AppData\Local\Temp\ccdWTNhT.s 			page 6


 261:Generated_Source\PSoC5/CyLib.c **** *  Enables the IMO. Optionally waits at least 6 us for it to settle.
 262:Generated_Source\PSoC5/CyLib.c **** *
 263:Generated_Source\PSoC5/CyLib.c **** *  \param uint8 wait:
 264:Generated_Source\PSoC5/CyLib.c **** *   \param 0: Return immediately after configuration
 265:Generated_Source\PSoC5/CyLib.c **** *   \param 1: Wait for at least 6 us for the IMO to settle.
 266:Generated_Source\PSoC5/CyLib.c **** *
 267:Generated_Source\PSoC5/CyLib.c **** * \sideeffect
 268:Generated_Source\PSoC5/CyLib.c **** *  If wait is enabled: This function uses the Fast Time Wheel to time the wait.
 269:Generated_Source\PSoC5/CyLib.c **** *  Any other use of the Fast Time Wheel will be stopped during the period of
 270:Generated_Source\PSoC5/CyLib.c **** *  this function and then restored. This function also uses the 100 KHz ILO.
 271:Generated_Source\PSoC5/CyLib.c **** *  If not enabled, this function will enable the 100 KHz ILO for the period of
 272:Generated_Source\PSoC5/CyLib.c **** *  this function.
 273:Generated_Source\PSoC5/CyLib.c **** *
 274:Generated_Source\PSoC5/CyLib.c **** *  No changes to the setup of the ILO, Fast Time Wheel, Central Time Wheel or
 275:Generated_Source\PSoC5/CyLib.c **** *  Once Per Second interrupt may be made by interrupt routines during the period
 276:Generated_Source\PSoC5/CyLib.c **** *  of this function execution. The current operation of the ILO, Central Time
 277:Generated_Source\PSoC5/CyLib.c **** *  Wheel and Once Per Second interrupt are maintained during the operation of
 278:Generated_Source\PSoC5/CyLib.c **** *  this function provided the reading of the Power Manager Interrupt Status
 279:Generated_Source\PSoC5/CyLib.c **** *  Register is only done using the CyPmReadStatus() function.
 280:Generated_Source\PSoC5/CyLib.c **** *
 281:Generated_Source\PSoC5/CyLib.c **** *******************************************************************************/
 282:Generated_Source\PSoC5/CyLib.c **** void CyIMO_Start(uint8 wait) 
 283:Generated_Source\PSoC5/CyLib.c **** {
 284:Generated_Source\PSoC5/CyLib.c ****     uint8 pmFtwCfg2Reg;
 285:Generated_Source\PSoC5/CyLib.c ****     uint8 pmFtwCfg0Reg;
 286:Generated_Source\PSoC5/CyLib.c ****     uint8 ilo100KhzEnable;
 287:Generated_Source\PSoC5/CyLib.c **** 
 288:Generated_Source\PSoC5/CyLib.c **** 
 289:Generated_Source\PSoC5/CyLib.c ****     CY_LIB_PM_ACT_CFG0_REG  |= CY_LIB_PM_ACT_CFG0_IMO_EN;
 290:Generated_Source\PSoC5/CyLib.c ****     CY_LIB_PM_STBY_CFG0_REG |= CY_LIB_PM_STBY_CFG0_IMO_EN;
 291:Generated_Source\PSoC5/CyLib.c **** 
 292:Generated_Source\PSoC5/CyLib.c ****     if(0u != wait)
 293:Generated_Source\PSoC5/CyLib.c ****     {
 294:Generated_Source\PSoC5/CyLib.c ****         /* Need to turn on 100KHz ILO if it happens to not already be running.*/
 295:Generated_Source\PSoC5/CyLib.c ****         ilo100KhzEnable = CY_LIB_SLOWCLK_ILO_CR0_REG & CY_LIB_SLOWCLK_ILO_CR0_EN_100KHZ;
 296:Generated_Source\PSoC5/CyLib.c ****         pmFtwCfg0Reg = CY_LIB_PM_TW_CFG0_REG;
 297:Generated_Source\PSoC5/CyLib.c ****         pmFtwCfg2Reg = CY_LIB_PM_TW_CFG2_REG;
 298:Generated_Source\PSoC5/CyLib.c **** 
 299:Generated_Source\PSoC5/CyLib.c ****         CyPmFtwSetInterval(CY_LIB_CLK_IMO_FTW_TIMEOUT);
 300:Generated_Source\PSoC5/CyLib.c **** 
 301:Generated_Source\PSoC5/CyLib.c ****         while (0u == (CY_PM_FTW_INT & CyPmReadStatus(CY_PM_FTW_INT)))
 302:Generated_Source\PSoC5/CyLib.c ****         {
 303:Generated_Source\PSoC5/CyLib.c ****             /* Wait for interrupt status */
 304:Generated_Source\PSoC5/CyLib.c ****         }
 305:Generated_Source\PSoC5/CyLib.c **** 
 306:Generated_Source\PSoC5/CyLib.c ****         if(0u == ilo100KhzEnable)
 307:Generated_Source\PSoC5/CyLib.c ****         {
 308:Generated_Source\PSoC5/CyLib.c ****             CyILO_Stop100K();
 309:Generated_Source\PSoC5/CyLib.c ****         }
 310:Generated_Source\PSoC5/CyLib.c **** 
 311:Generated_Source\PSoC5/CyLib.c ****         CY_LIB_PM_TW_CFG0_REG = pmFtwCfg0Reg;
 312:Generated_Source\PSoC5/CyLib.c ****         CY_LIB_PM_TW_CFG2_REG = pmFtwCfg2Reg;
 313:Generated_Source\PSoC5/CyLib.c ****     }
 314:Generated_Source\PSoC5/CyLib.c **** }
 315:Generated_Source\PSoC5/CyLib.c **** 
 316:Generated_Source\PSoC5/CyLib.c **** 
 317:Generated_Source\PSoC5/CyLib.c **** /*******************************************************************************
ARM GAS  C:\Users\jens-\AppData\Local\Temp\ccdWTNhT.s 			page 7


 318:Generated_Source\PSoC5/CyLib.c **** * Function Name: CyIMO_Stop
 319:Generated_Source\PSoC5/CyLib.c **** ****************************************************************************//**
 320:Generated_Source\PSoC5/CyLib.c **** *
 321:Generated_Source\PSoC5/CyLib.c **** *   Disables the IMO.
 322:Generated_Source\PSoC5/CyLib.c **** *
 323:Generated_Source\PSoC5/CyLib.c **** *******************************************************************************/
 324:Generated_Source\PSoC5/CyLib.c **** void CyIMO_Stop(void) 
 325:Generated_Source\PSoC5/CyLib.c **** {
 326:Generated_Source\PSoC5/CyLib.c ****     CY_LIB_PM_ACT_CFG0_REG  &= ((uint8) (~CY_LIB_PM_ACT_CFG0_IMO_EN));
 327:Generated_Source\PSoC5/CyLib.c ****     CY_LIB_PM_STBY_CFG0_REG &= ((uint8) (~CY_LIB_PM_STBY_CFG0_IMO_EN));
 328:Generated_Source\PSoC5/CyLib.c **** }
 329:Generated_Source\PSoC5/CyLib.c **** 
 330:Generated_Source\PSoC5/CyLib.c **** 
 331:Generated_Source\PSoC5/CyLib.c **** /*******************************************************************************
 332:Generated_Source\PSoC5/CyLib.c **** * Function Name: CyUSB_PowerOnCheck
 333:Generated_Source\PSoC5/CyLib.c **** ****************************************************************************//**
 334:Generated_Source\PSoC5/CyLib.c **** *
 335:Generated_Source\PSoC5/CyLib.c **** *  Returns the USB power status value. A private function to cy_boot.
 336:Generated_Source\PSoC5/CyLib.c **** *
 337:Generated_Source\PSoC5/CyLib.c **** * \return
 338:Generated_Source\PSoC5/CyLib.c **** *   uint8: one if the USB is enabled, 0 if not enabled.
 339:Generated_Source\PSoC5/CyLib.c **** *
 340:Generated_Source\PSoC5/CyLib.c **** *******************************************************************************/
 341:Generated_Source\PSoC5/CyLib.c **** static uint8 CyUSB_PowerOnCheck(void)  
 342:Generated_Source\PSoC5/CyLib.c **** {
  26              		.loc 1 342 1 view -0
  27              		.cfi_startproc
  28              		@ args = 0, pretend = 0, frame = 0
  29              		@ frame_needed = 0, uses_anonymous_args = 0
  30              		@ link register save eliminated.
 343:Generated_Source\PSoC5/CyLib.c ****     uint8 poweredOn = 0u;
  31              		.loc 1 343 5 view .LVU1
  32              	.LVL0:
 344:Generated_Source\PSoC5/CyLib.c **** 
 345:Generated_Source\PSoC5/CyLib.c ****     /* Check whether device is in Active or AltActive and if USB is powered on */
 346:Generated_Source\PSoC5/CyLib.c ****     if((((CY_PM_MODE_CSR_REG & CY_PM_MODE_CSR_MASK) == CY_PM_MODE_CSR_ACTIVE ) &&
  33              		.loc 1 346 5 view .LVU2
  34              		.loc 1 346 11 is_stmt 0 view .LVU3
  35 0000 0D4B     		ldr	r3, .L8
  36 0002 1B78     		ldrb	r3, [r3]	@ zero_extendqisi2
  37              		.loc 1 346 7 view .LVU4
  38 0004 13F0070F 		tst	r3, #7
  39 0008 04D1     		bne	.L2
 347:Generated_Source\PSoC5/CyLib.c ****        (0u != (CY_LIB_PM_ACT_CFG5_REG & CY_ACT_USB_ENABLED     )))  ||
  40              		.loc 1 347 16 discriminator 1 view .LVU5
  41 000a 0C4B     		ldr	r3, .L8+4
  42 000c 1B78     		ldrb	r3, [r3]	@ zero_extendqisi2
 346:Generated_Source\PSoC5/CyLib.c ****        (0u != (CY_LIB_PM_ACT_CFG5_REG & CY_ACT_USB_ENABLED     )))  ||
  43              		.loc 1 346 80 discriminator 1 view .LVU6
  44 000e 13F0010F 		tst	r3, #1
  45 0012 0DD1     		bne	.L4
  46              	.L2:
 348:Generated_Source\PSoC5/CyLib.c ****        (((CY_PM_MODE_CSR_REG & CY_PM_MODE_CSR_MASK) == CY_PM_MODE_CSR_ALT_ACT) &&
  47              		.loc 1 348 11 view .LVU7
  48 0014 084B     		ldr	r3, .L8
  49 0016 1B78     		ldrb	r3, [r3]	@ zero_extendqisi2
 347:Generated_Source\PSoC5/CyLib.c ****        (0u != (CY_LIB_PM_ACT_CFG5_REG & CY_ACT_USB_ENABLED     )))  ||
ARM GAS  C:\Users\jens-\AppData\Local\Temp\ccdWTNhT.s 			page 8


  50              		.loc 1 347 69 view .LVU8
  51 0018 03F00703 		and	r3, r3, #7
  52 001c 012B     		cmp	r3, #1
  53 001e 01D0     		beq	.L7
 343:Generated_Source\PSoC5/CyLib.c **** 
  54              		.loc 1 343 11 view .LVU9
  55 0020 0020     		movs	r0, #0
  56 0022 7047     		bx	lr
  57              	.L7:
 349:Generated_Source\PSoC5/CyLib.c ****        (0u != (CY_LIB_PM_STBY_CFG5_REG & CY_ALT_ACT_USB_ENABLED))))
  58              		.loc 1 349 16 view .LVU10
  59 0024 064B     		ldr	r3, .L8+8
  60 0026 1878     		ldrb	r0, [r3]	@ zero_extendqisi2
 348:Generated_Source\PSoC5/CyLib.c ****        (((CY_PM_MODE_CSR_REG & CY_PM_MODE_CSR_MASK) == CY_PM_MODE_CSR_ALT_ACT) &&
  61              		.loc 1 348 80 view .LVU11
  62 0028 10F00100 		ands	r0, r0, #1
  63 002c 02D1     		bne	.L6
  64 002e 7047     		bx	lr
  65              	.L4:
 350:Generated_Source\PSoC5/CyLib.c ****     {
 351:Generated_Source\PSoC5/CyLib.c ****         poweredOn = 1u;
  66              		.loc 1 351 19 view .LVU12
  67 0030 0120     		movs	r0, #1
  68 0032 7047     		bx	lr
  69              	.L6:
  70 0034 0120     		movs	r0, #1
  71              	.LVL1:
 352:Generated_Source\PSoC5/CyLib.c ****     }
 353:Generated_Source\PSoC5/CyLib.c **** 
 354:Generated_Source\PSoC5/CyLib.c ****     return (poweredOn);
  72              		.loc 1 354 5 is_stmt 1 view .LVU13
 355:Generated_Source\PSoC5/CyLib.c **** }
  73              		.loc 1 355 1 is_stmt 0 view .LVU14
  74 0036 7047     		bx	lr
  75              	.L9:
  76              		.align	2
  77              	.L8:
  78 0038 93430040 		.word	1073759123
  79 003c A5430040 		.word	1073759141
  80 0040 B5430040 		.word	1073759157
  81              		.cfi_endproc
  82              	.LFE6:
  83              		.size	CyUSB_PowerOnCheck, .-CyUSB_PowerOnCheck
  84              		.section	.text.CyBusClk_Internal_SetDivider,"ax",%progbits
  85              		.align	1
  86              		.syntax unified
  87              		.thumb
  88              		.thumb_func
  89              		.fpu softvfp
  90              		.type	CyBusClk_Internal_SetDivider, %function
  91              	CyBusClk_Internal_SetDivider:
  92              	.LVL2:
  93              	.LFB14:
 356:Generated_Source\PSoC5/CyLib.c **** 
 357:Generated_Source\PSoC5/CyLib.c **** 
 358:Generated_Source\PSoC5/CyLib.c **** /*******************************************************************************
 359:Generated_Source\PSoC5/CyLib.c **** * Function Name: CyIMO_SetTrimValue
ARM GAS  C:\Users\jens-\AppData\Local\Temp\ccdWTNhT.s 			page 9


 360:Generated_Source\PSoC5/CyLib.c **** ****************************************************************************//**
 361:Generated_Source\PSoC5/CyLib.c **** *
 362:Generated_Source\PSoC5/CyLib.c **** *  Sets the IMO factory trim values.
 363:Generated_Source\PSoC5/CyLib.c **** *
 364:Generated_Source\PSoC5/CyLib.c **** *  uint8 freq - frequency for which trims must be set
 365:Generated_Source\PSoC5/CyLib.c **** *
 366:Generated_Source\PSoC5/CyLib.c **** *******************************************************************************/
 367:Generated_Source\PSoC5/CyLib.c **** static void CyIMO_SetTrimValue(uint8 freq) 
 368:Generated_Source\PSoC5/CyLib.c **** {
 369:Generated_Source\PSoC5/CyLib.c ****     uint8 usbPowerOn = CyUSB_PowerOnCheck();
 370:Generated_Source\PSoC5/CyLib.c **** 
 371:Generated_Source\PSoC5/CyLib.c ****     /* If USB is powered */
 372:Generated_Source\PSoC5/CyLib.c ****     if(usbPowerOn == 1u)
 373:Generated_Source\PSoC5/CyLib.c ****     {
 374:Generated_Source\PSoC5/CyLib.c ****         /* Unlock USB write */
 375:Generated_Source\PSoC5/CyLib.c ****         CY_LIB_USB_CR1_REG &= ((uint8)(~CY_LIB_USB_CLK_EN));
 376:Generated_Source\PSoC5/CyLib.c ****     }
 377:Generated_Source\PSoC5/CyLib.c ****     switch(freq)
 378:Generated_Source\PSoC5/CyLib.c ****     {
 379:Generated_Source\PSoC5/CyLib.c ****     case CY_IMO_FREQ_3MHZ:
 380:Generated_Source\PSoC5/CyLib.c ****         CY_LIB_IMO_TR1_REG = CY_GET_XTND_REG8(CY_LIB_TRIM_IMO_3MHZ_PTR);
 381:Generated_Source\PSoC5/CyLib.c ****         break;
 382:Generated_Source\PSoC5/CyLib.c **** 
 383:Generated_Source\PSoC5/CyLib.c ****     case CY_IMO_FREQ_6MHZ:
 384:Generated_Source\PSoC5/CyLib.c ****         CY_LIB_IMO_TR1_REG = CY_GET_XTND_REG8(CY_LIB_TRIM_IMO_6MHZ_PTR);
 385:Generated_Source\PSoC5/CyLib.c ****         break;
 386:Generated_Source\PSoC5/CyLib.c **** 
 387:Generated_Source\PSoC5/CyLib.c ****     case CY_IMO_FREQ_12MHZ:
 388:Generated_Source\PSoC5/CyLib.c ****         CY_LIB_IMO_TR1_REG = CY_GET_XTND_REG8(CY_LIB_TRIM_IMO_12MHZ_PTR);
 389:Generated_Source\PSoC5/CyLib.c ****         break;
 390:Generated_Source\PSoC5/CyLib.c **** 
 391:Generated_Source\PSoC5/CyLib.c ****     case CY_IMO_FREQ_24MHZ:
 392:Generated_Source\PSoC5/CyLib.c ****         CY_LIB_IMO_TR1_REG = CY_GET_XTND_REG8(CY_LIB_TRIM_IMO_24MHZ_PTR);
 393:Generated_Source\PSoC5/CyLib.c ****         break;
 394:Generated_Source\PSoC5/CyLib.c **** 
 395:Generated_Source\PSoC5/CyLib.c ****     case CY_IMO_FREQ_48MHZ:
 396:Generated_Source\PSoC5/CyLib.c ****         CY_LIB_IMO_TR1_REG = CY_GET_XTND_REG8(CY_LIB_TRIM_IMO_TR1_PTR);
 397:Generated_Source\PSoC5/CyLib.c ****         break;
 398:Generated_Source\PSoC5/CyLib.c **** 
 399:Generated_Source\PSoC5/CyLib.c ****     case CY_IMO_FREQ_62MHZ:
 400:Generated_Source\PSoC5/CyLib.c ****         CY_LIB_IMO_TR1_REG = CY_GET_XTND_REG8(CY_LIB_TRIM_IMO_67MHZ_PTR);
 401:Generated_Source\PSoC5/CyLib.c ****         break;
 402:Generated_Source\PSoC5/CyLib.c **** 
 403:Generated_Source\PSoC5/CyLib.c **** #if(CY_PSOC5)
 404:Generated_Source\PSoC5/CyLib.c ****     case CY_IMO_FREQ_74MHZ:
 405:Generated_Source\PSoC5/CyLib.c ****         CY_LIB_IMO_TR1_REG = CY_GET_XTND_REG8(CY_LIB_TRIM_IMO_80MHZ_PTR);
 406:Generated_Source\PSoC5/CyLib.c ****         break;
 407:Generated_Source\PSoC5/CyLib.c **** #endif  /* (CY_PSOC5) */
 408:Generated_Source\PSoC5/CyLib.c **** 
 409:Generated_Source\PSoC5/CyLib.c ****     case CY_IMO_FREQ_USB:
 410:Generated_Source\PSoC5/CyLib.c ****         CY_LIB_IMO_TR1_REG = CY_GET_XTND_REG8(CY_LIB_TRIM_IMO_USB_PTR);
 411:Generated_Source\PSoC5/CyLib.c **** 
 412:Generated_Source\PSoC5/CyLib.c ****         /* If USB is powered */
 413:Generated_Source\PSoC5/CyLib.c ****         if(usbPowerOn == 1u)
 414:Generated_Source\PSoC5/CyLib.c ****         {
 415:Generated_Source\PSoC5/CyLib.c ****             /* Lock USB Oscillator */
 416:Generated_Source\PSoC5/CyLib.c ****             CY_LIB_USB_CR1_REG |= CY_LIB_USB_CLK_EN;
ARM GAS  C:\Users\jens-\AppData\Local\Temp\ccdWTNhT.s 			page 10


 417:Generated_Source\PSoC5/CyLib.c ****         }
 418:Generated_Source\PSoC5/CyLib.c ****         break;
 419:Generated_Source\PSoC5/CyLib.c **** 
 420:Generated_Source\PSoC5/CyLib.c ****     default:
 421:Generated_Source\PSoC5/CyLib.c ****             CYASSERT(0u != 0u);
 422:Generated_Source\PSoC5/CyLib.c ****         break;
 423:Generated_Source\PSoC5/CyLib.c ****     }
 424:Generated_Source\PSoC5/CyLib.c **** 
 425:Generated_Source\PSoC5/CyLib.c **** }
 426:Generated_Source\PSoC5/CyLib.c **** 
 427:Generated_Source\PSoC5/CyLib.c **** 
 428:Generated_Source\PSoC5/CyLib.c **** /*******************************************************************************
 429:Generated_Source\PSoC5/CyLib.c **** * Function Name: CyIMO_SetFreq
 430:Generated_Source\PSoC5/CyLib.c **** ****************************************************************************//**
 431:Generated_Source\PSoC5/CyLib.c **** *
 432:Generated_Source\PSoC5/CyLib.c **** *  Sets the frequency of the IMO. Changes may be made while the IMO is running.
 433:Generated_Source\PSoC5/CyLib.c **** *
 434:Generated_Source\PSoC5/CyLib.c **** *  \param freq: Frequency of IMO operation
 435:Generated_Source\PSoC5/CyLib.c **** *       CY_IMO_FREQ_3MHZ  to set  3   MHz
 436:Generated_Source\PSoC5/CyLib.c **** *       CY_IMO_FREQ_6MHZ  to set  6   MHz
 437:Generated_Source\PSoC5/CyLib.c **** *       CY_IMO_FREQ_12MHZ to set 12   MHz
 438:Generated_Source\PSoC5/CyLib.c **** *       CY_IMO_FREQ_24MHZ to set 24   MHz
 439:Generated_Source\PSoC5/CyLib.c **** *       CY_IMO_FREQ_48MHZ to set 48   MHz
 440:Generated_Source\PSoC5/CyLib.c **** *       CY_IMO_FREQ_62MHZ to set 62.6 MHz
 441:Generated_Source\PSoC5/CyLib.c **** *       CY_IMO_FREQ_74MHZ to set 74.7 MHz (not applicable for PSoC 3)
 442:Generated_Source\PSoC5/CyLib.c **** *       CY_IMO_FREQ_USB   to set 24   MHz (Trimmed for USB operation)
 443:Generated_Source\PSoC5/CyLib.c **** *
 444:Generated_Source\PSoC5/CyLib.c **** * \sideeffect
 445:Generated_Source\PSoC5/CyLib.c **** *  If this function execution results in the CPU clock frequency increasing,
 446:Generated_Source\PSoC5/CyLib.c **** *  then the number of clock cycles the cache will wait before it samples data
 447:Generated_Source\PSoC5/CyLib.c **** *  coming back from the Flash must be adjusted by calling
 448:Generated_Source\PSoC5/CyLib.c **** *  CyFlash_SetWaitCycles() with an appropriate parameter. It can be optionally
 449:Generated_Source\PSoC5/CyLib.c **** *  called if the CPU clock frequency is lowered in order to improve the CPU
 450:Generated_Source\PSoC5/CyLib.c **** *  performance. See CyFlash_SetWaitCycles() description for more information.
 451:Generated_Source\PSoC5/CyLib.c **** *
 452:Generated_Source\PSoC5/CyLib.c **** *  When the USB setting is chosen, the USB clock locking circuit is enabled.
 453:Generated_Source\PSoC5/CyLib.c **** *  Otherwise this circuit is disabled. The USB block must be powered before
 454:Generated_Source\PSoC5/CyLib.c **** *  selecting the USB setting.
 455:Generated_Source\PSoC5/CyLib.c **** *
 456:Generated_Source\PSoC5/CyLib.c **** *******************************************************************************/
 457:Generated_Source\PSoC5/CyLib.c **** void CyIMO_SetFreq(uint8 freq) 
 458:Generated_Source\PSoC5/CyLib.c **** {
 459:Generated_Source\PSoC5/CyLib.c ****     uint8 currentFreq;
 460:Generated_Source\PSoC5/CyLib.c ****     uint8 nextFreq;
 461:Generated_Source\PSoC5/CyLib.c **** 
 462:Generated_Source\PSoC5/CyLib.c ****     /***************************************************************************
 463:Generated_Source\PSoC5/CyLib.c ****     * If the IMO frequency is changed,the Trim values must also be set
 464:Generated_Source\PSoC5/CyLib.c ****     * accordingly.This requires reading the current frequency. If the new
 465:Generated_Source\PSoC5/CyLib.c ****     * frequency is faster, then set a new trim and then change the frequency,
 466:Generated_Source\PSoC5/CyLib.c ****     * otherwise change the frequency and then set new trim values.
 467:Generated_Source\PSoC5/CyLib.c ****     ***************************************************************************/
 468:Generated_Source\PSoC5/CyLib.c **** 
 469:Generated_Source\PSoC5/CyLib.c ****     currentFreq = CY_LIB_FASTCLK_IMO_CR_REG & ((uint8)(~CY_LIB_FASTCLK_IMO_CR_RANGE_MASK));
 470:Generated_Source\PSoC5/CyLib.c **** 
 471:Generated_Source\PSoC5/CyLib.c ****     /* Check if requested frequency is USB. */
 472:Generated_Source\PSoC5/CyLib.c ****     nextFreq = (freq == CY_IMO_FREQ_USB) ? CY_IMO_FREQ_24MHZ : freq;
 473:Generated_Source\PSoC5/CyLib.c **** 
ARM GAS  C:\Users\jens-\AppData\Local\Temp\ccdWTNhT.s 			page 11


 474:Generated_Source\PSoC5/CyLib.c ****     switch (currentFreq)
 475:Generated_Source\PSoC5/CyLib.c ****     {
 476:Generated_Source\PSoC5/CyLib.c ****     case 0u:
 477:Generated_Source\PSoC5/CyLib.c ****         currentFreq = CY_IMO_FREQ_12MHZ;
 478:Generated_Source\PSoC5/CyLib.c ****         break;
 479:Generated_Source\PSoC5/CyLib.c **** 
 480:Generated_Source\PSoC5/CyLib.c ****     case 1u:
 481:Generated_Source\PSoC5/CyLib.c ****         currentFreq = CY_IMO_FREQ_6MHZ;
 482:Generated_Source\PSoC5/CyLib.c ****         break;
 483:Generated_Source\PSoC5/CyLib.c **** 
 484:Generated_Source\PSoC5/CyLib.c ****     case 2u:
 485:Generated_Source\PSoC5/CyLib.c ****         currentFreq = CY_IMO_FREQ_24MHZ;
 486:Generated_Source\PSoC5/CyLib.c ****         break;
 487:Generated_Source\PSoC5/CyLib.c **** 
 488:Generated_Source\PSoC5/CyLib.c ****     case 3u:
 489:Generated_Source\PSoC5/CyLib.c ****         currentFreq = CY_IMO_FREQ_3MHZ;
 490:Generated_Source\PSoC5/CyLib.c ****         break;
 491:Generated_Source\PSoC5/CyLib.c **** 
 492:Generated_Source\PSoC5/CyLib.c ****     case 4u:
 493:Generated_Source\PSoC5/CyLib.c ****         currentFreq = CY_IMO_FREQ_48MHZ;
 494:Generated_Source\PSoC5/CyLib.c ****         break;
 495:Generated_Source\PSoC5/CyLib.c **** 
 496:Generated_Source\PSoC5/CyLib.c ****     case 5u:
 497:Generated_Source\PSoC5/CyLib.c ****         currentFreq = CY_IMO_FREQ_62MHZ;
 498:Generated_Source\PSoC5/CyLib.c ****         break;
 499:Generated_Source\PSoC5/CyLib.c **** 
 500:Generated_Source\PSoC5/CyLib.c **** #if(CY_PSOC5)
 501:Generated_Source\PSoC5/CyLib.c ****     case 6u:
 502:Generated_Source\PSoC5/CyLib.c ****         currentFreq = CY_IMO_FREQ_74MHZ;
 503:Generated_Source\PSoC5/CyLib.c ****         break;
 504:Generated_Source\PSoC5/CyLib.c **** #endif  /* (CY_PSOC5) */
 505:Generated_Source\PSoC5/CyLib.c **** 
 506:Generated_Source\PSoC5/CyLib.c ****     default:
 507:Generated_Source\PSoC5/CyLib.c ****         CYASSERT(0u != 0u);
 508:Generated_Source\PSoC5/CyLib.c ****         break;
 509:Generated_Source\PSoC5/CyLib.c ****     }
 510:Generated_Source\PSoC5/CyLib.c **** 
 511:Generated_Source\PSoC5/CyLib.c ****     if (nextFreq >= currentFreq)
 512:Generated_Source\PSoC5/CyLib.c ****     {
 513:Generated_Source\PSoC5/CyLib.c ****         /* Set new trim first */
 514:Generated_Source\PSoC5/CyLib.c ****         CyIMO_SetTrimValue(freq);
 515:Generated_Source\PSoC5/CyLib.c ****     }
 516:Generated_Source\PSoC5/CyLib.c **** 
 517:Generated_Source\PSoC5/CyLib.c ****     /* Set usbclk_on bit when using CY_IMO_FREQ_USB, if not clear it */
 518:Generated_Source\PSoC5/CyLib.c ****     switch(freq)
 519:Generated_Source\PSoC5/CyLib.c ****     {
 520:Generated_Source\PSoC5/CyLib.c ****     case CY_IMO_FREQ_3MHZ:
 521:Generated_Source\PSoC5/CyLib.c ****         CY_LIB_FASTCLK_IMO_CR_REG = ((CY_LIB_FASTCLK_IMO_CR_REG & CY_LIB_FASTCLK_IMO_CR_RANGE_MASK)
 522:Generated_Source\PSoC5/CyLib.c ****             CY_LIB_IMO_3MHZ_VALUE) & ((uint8)(~CY_LIB_IMO_USBCLK_ON_SET));
 523:Generated_Source\PSoC5/CyLib.c ****         break;
 524:Generated_Source\PSoC5/CyLib.c **** 
 525:Generated_Source\PSoC5/CyLib.c ****     case CY_IMO_FREQ_6MHZ:
 526:Generated_Source\PSoC5/CyLib.c ****         CY_LIB_FASTCLK_IMO_CR_REG = ((CY_LIB_FASTCLK_IMO_CR_REG & CY_LIB_FASTCLK_IMO_CR_RANGE_MASK)
 527:Generated_Source\PSoC5/CyLib.c ****             CY_LIB_IMO_6MHZ_VALUE) & ((uint8)(~CY_LIB_IMO_USBCLK_ON_SET));
 528:Generated_Source\PSoC5/CyLib.c ****         break;
 529:Generated_Source\PSoC5/CyLib.c **** 
 530:Generated_Source\PSoC5/CyLib.c ****     case CY_IMO_FREQ_12MHZ:
ARM GAS  C:\Users\jens-\AppData\Local\Temp\ccdWTNhT.s 			page 12


 531:Generated_Source\PSoC5/CyLib.c ****         CY_LIB_FASTCLK_IMO_CR_REG = ((CY_LIB_FASTCLK_IMO_CR_REG & CY_LIB_FASTCLK_IMO_CR_RANGE_MASK)
 532:Generated_Source\PSoC5/CyLib.c ****             CY_LIB_IMO_12MHZ_VALUE) & ((uint8)(~CY_LIB_IMO_USBCLK_ON_SET));
 533:Generated_Source\PSoC5/CyLib.c ****         break;
 534:Generated_Source\PSoC5/CyLib.c **** 
 535:Generated_Source\PSoC5/CyLib.c ****     case CY_IMO_FREQ_24MHZ:
 536:Generated_Source\PSoC5/CyLib.c ****         CY_LIB_FASTCLK_IMO_CR_REG = ((CY_LIB_FASTCLK_IMO_CR_REG & CY_LIB_FASTCLK_IMO_CR_RANGE_MASK)
 537:Generated_Source\PSoC5/CyLib.c ****             CY_LIB_IMO_24MHZ_VALUE) & ((uint8)(~CY_LIB_IMO_USBCLK_ON_SET));
 538:Generated_Source\PSoC5/CyLib.c ****         break;
 539:Generated_Source\PSoC5/CyLib.c **** 
 540:Generated_Source\PSoC5/CyLib.c ****     case CY_IMO_FREQ_48MHZ:
 541:Generated_Source\PSoC5/CyLib.c ****         CY_LIB_FASTCLK_IMO_CR_REG = ((CY_LIB_FASTCLK_IMO_CR_REG & CY_LIB_FASTCLK_IMO_CR_RANGE_MASK)
 542:Generated_Source\PSoC5/CyLib.c ****             CY_LIB_IMO_48MHZ_VALUE) & ((uint8)(~CY_LIB_IMO_USBCLK_ON_SET));
 543:Generated_Source\PSoC5/CyLib.c ****         break;
 544:Generated_Source\PSoC5/CyLib.c **** 
 545:Generated_Source\PSoC5/CyLib.c ****     case CY_IMO_FREQ_62MHZ:
 546:Generated_Source\PSoC5/CyLib.c ****         CY_LIB_FASTCLK_IMO_CR_REG = ((CY_LIB_FASTCLK_IMO_CR_REG & CY_LIB_FASTCLK_IMO_CR_RANGE_MASK)
 547:Generated_Source\PSoC5/CyLib.c ****             CY_LIB_IMO_62MHZ_VALUE) & ((uint8)(~CY_LIB_IMO_USBCLK_ON_SET));
 548:Generated_Source\PSoC5/CyLib.c ****         break;
 549:Generated_Source\PSoC5/CyLib.c **** 
 550:Generated_Source\PSoC5/CyLib.c **** #if(CY_PSOC5)
 551:Generated_Source\PSoC5/CyLib.c ****     case CY_IMO_FREQ_74MHZ:
 552:Generated_Source\PSoC5/CyLib.c ****         CY_LIB_FASTCLK_IMO_CR_REG = ((CY_LIB_FASTCLK_IMO_CR_REG & CY_LIB_FASTCLK_IMO_CR_RANGE_MASK)
 553:Generated_Source\PSoC5/CyLib.c ****             CY_LIB_IMO_74MHZ_VALUE) & ((uint8)(~CY_LIB_IMO_USBCLK_ON_SET));
 554:Generated_Source\PSoC5/CyLib.c ****         break;
 555:Generated_Source\PSoC5/CyLib.c **** #endif  /* (CY_PSOC5) */
 556:Generated_Source\PSoC5/CyLib.c **** 
 557:Generated_Source\PSoC5/CyLib.c ****     case CY_IMO_FREQ_USB:
 558:Generated_Source\PSoC5/CyLib.c ****         CY_LIB_FASTCLK_IMO_CR_REG = ((CY_LIB_FASTCLK_IMO_CR_REG & CY_LIB_FASTCLK_IMO_CR_RANGE_MASK)
 559:Generated_Source\PSoC5/CyLib.c ****             CY_LIB_IMO_24MHZ_VALUE) | CY_LIB_IMO_USBCLK_ON_SET;
 560:Generated_Source\PSoC5/CyLib.c ****         break;
 561:Generated_Source\PSoC5/CyLib.c **** 
 562:Generated_Source\PSoC5/CyLib.c ****     default:
 563:Generated_Source\PSoC5/CyLib.c ****         CYASSERT(0u != 0u);
 564:Generated_Source\PSoC5/CyLib.c ****         break;
 565:Generated_Source\PSoC5/CyLib.c ****     }
 566:Generated_Source\PSoC5/CyLib.c **** 
 567:Generated_Source\PSoC5/CyLib.c ****     /* Tu rn onIMO Doubler, if switching to CY_IMO_FREQ_USB */
 568:Generated_Source\PSoC5/CyLib.c ****     if (freq == CY_IMO_FREQ_USB)
 569:Generated_Source\PSoC5/CyLib.c ****     {
 570:Generated_Source\PSoC5/CyLib.c ****         CyIMO_EnableDoubler();
 571:Generated_Source\PSoC5/CyLib.c ****     }
 572:Generated_Source\PSoC5/CyLib.c ****     else
 573:Generated_Source\PSoC5/CyLib.c ****     {
 574:Generated_Source\PSoC5/CyLib.c ****         CyIMO_DisableDoubler();
 575:Generated_Source\PSoC5/CyLib.c ****     }
 576:Generated_Source\PSoC5/CyLib.c **** 
 577:Generated_Source\PSoC5/CyLib.c ****     if (nextFreq < currentFreq)
 578:Generated_Source\PSoC5/CyLib.c ****     {
 579:Generated_Source\PSoC5/CyLib.c ****         /* Set the trim after setting frequency */
 580:Generated_Source\PSoC5/CyLib.c ****         CyIMO_SetTrimValue(freq);
 581:Generated_Source\PSoC5/CyLib.c ****     }
 582:Generated_Source\PSoC5/CyLib.c **** }
 583:Generated_Source\PSoC5/CyLib.c **** 
 584:Generated_Source\PSoC5/CyLib.c **** 
 585:Generated_Source\PSoC5/CyLib.c **** /*******************************************************************************
 586:Generated_Source\PSoC5/CyLib.c **** * Function Name: CyIMO_SetSource
 587:Generated_Source\PSoC5/CyLib.c **** ****************************************************************************//**
ARM GAS  C:\Users\jens-\AppData\Local\Temp\ccdWTNhT.s 			page 13


 588:Generated_Source\PSoC5/CyLib.c **** *
 589:Generated_Source\PSoC5/CyLib.c **** *  Sets the source of the clock output from the IMO block.
 590:Generated_Source\PSoC5/CyLib.c **** *
 591:Generated_Source\PSoC5/CyLib.c **** *  The output from the IMO is by default the IMO itself. Optionally the MHz
 592:Generated_Source\PSoC5/CyLib.c **** *  Crystal or DSI input can be the source of the IMO output instead.
 593:Generated_Source\PSoC5/CyLib.c **** *
 594:Generated_Source\PSoC5/CyLib.c **** *   \param source: CY_IMO_SOURCE_DSI to set the DSI as source.
 595:Generated_Source\PSoC5/CyLib.c **** *           CY_IMO_SOURCE_XTAL to set the MHz as source.
 596:Generated_Source\PSoC5/CyLib.c **** *           CY_IMO_SOURCE_IMO to set the IMO itself.
 597:Generated_Source\PSoC5/CyLib.c **** *
 598:Generated_Source\PSoC5/CyLib.c **** * \sideeffect
 599:Generated_Source\PSoC5/CyLib.c **** *  If this function execution resulted in the CPU clock frequency increasing,
 600:Generated_Source\PSoC5/CyLib.c **** *  then the number of clock cycles the cache will wait before it samples data
 601:Generated_Source\PSoC5/CyLib.c **** *  coming back from the Flash must be adjusted by calling
 602:Generated_Source\PSoC5/CyLib.c **** *  CyFlash_SetWaitCycles() with an appropriate parameter. It can be optionally
 603:Generated_Source\PSoC5/CyLib.c **** *  called if the CPU clock frequency is lowered in order to improve the CPU
 604:Generated_Source\PSoC5/CyLib.c **** *  performance. See CyFlash_SetWaitCycles() description for more information.
 605:Generated_Source\PSoC5/CyLib.c **** *
 606:Generated_Source\PSoC5/CyLib.c **** *******************************************************************************/
 607:Generated_Source\PSoC5/CyLib.c **** void CyIMO_SetSource(uint8 source) 
 608:Generated_Source\PSoC5/CyLib.c **** {
 609:Generated_Source\PSoC5/CyLib.c ****     switch(source)
 610:Generated_Source\PSoC5/CyLib.c ****     {
 611:Generated_Source\PSoC5/CyLib.c ****     case CY_IMO_SOURCE_DSI:
 612:Generated_Source\PSoC5/CyLib.c ****         CY_LIB_CLKDIST_CR_REG     &= ((uint8)(~CY_LIB_CLKDIST_CR_IMO2X));
 613:Generated_Source\PSoC5/CyLib.c ****         CY_LIB_FASTCLK_IMO_CR_REG |= CY_LIB_FASTCLK_IMO_IMO;
 614:Generated_Source\PSoC5/CyLib.c ****         break;
 615:Generated_Source\PSoC5/CyLib.c **** 
 616:Generated_Source\PSoC5/CyLib.c ****     case CY_IMO_SOURCE_XTAL:
 617:Generated_Source\PSoC5/CyLib.c ****         CY_LIB_CLKDIST_CR_REG     |= CY_LIB_CLKDIST_CR_IMO2X;
 618:Generated_Source\PSoC5/CyLib.c ****         CY_LIB_FASTCLK_IMO_CR_REG |= CY_LIB_FASTCLK_IMO_IMO;
 619:Generated_Source\PSoC5/CyLib.c ****         break;
 620:Generated_Source\PSoC5/CyLib.c **** 
 621:Generated_Source\PSoC5/CyLib.c ****     case CY_IMO_SOURCE_IMO:
 622:Generated_Source\PSoC5/CyLib.c ****         CY_LIB_FASTCLK_IMO_CR_REG &= ((uint8)(~CY_LIB_FASTCLK_IMO_IMO));
 623:Generated_Source\PSoC5/CyLib.c ****         break;
 624:Generated_Source\PSoC5/CyLib.c **** 
 625:Generated_Source\PSoC5/CyLib.c ****     default:
 626:Generated_Source\PSoC5/CyLib.c ****         /* Incorrect source value */
 627:Generated_Source\PSoC5/CyLib.c ****         CYASSERT(0u != 0u);
 628:Generated_Source\PSoC5/CyLib.c ****         break;
 629:Generated_Source\PSoC5/CyLib.c ****     }
 630:Generated_Source\PSoC5/CyLib.c **** }
 631:Generated_Source\PSoC5/CyLib.c **** 
 632:Generated_Source\PSoC5/CyLib.c **** 
 633:Generated_Source\PSoC5/CyLib.c **** /*******************************************************************************
 634:Generated_Source\PSoC5/CyLib.c **** * Function Name: CyIMO_EnableDoubler
 635:Generated_Source\PSoC5/CyLib.c **** ****************************************************************************//**
 636:Generated_Source\PSoC5/CyLib.c **** *
 637:Generated_Source\PSoC5/CyLib.c **** *  Enables the IMO doubler.  The 2x frequency clock is used to convert a 24 MHz
 638:Generated_Source\PSoC5/CyLib.c **** *  input to a 48 MHz output for use by the USB block.
 639:Generated_Source\PSoC5/CyLib.c **** *
 640:Generated_Source\PSoC5/CyLib.c **** *******************************************************************************/
 641:Generated_Source\PSoC5/CyLib.c **** void CyIMO_EnableDoubler(void) 
 642:Generated_Source\PSoC5/CyLib.c **** {
 643:Generated_Source\PSoC5/CyLib.c ****     /* Set FASTCLK_IMO_CR_PTR regigster's 4th bit */
 644:Generated_Source\PSoC5/CyLib.c ****     CY_LIB_FASTCLK_IMO_CR_REG |= CY_LIB_FASTCLK_IMO_DOUBLER;
ARM GAS  C:\Users\jens-\AppData\Local\Temp\ccdWTNhT.s 			page 14


 645:Generated_Source\PSoC5/CyLib.c **** }
 646:Generated_Source\PSoC5/CyLib.c **** 
 647:Generated_Source\PSoC5/CyLib.c **** 
 648:Generated_Source\PSoC5/CyLib.c **** /*******************************************************************************
 649:Generated_Source\PSoC5/CyLib.c **** * Function Name: CyIMO_DisableDoubler
 650:Generated_Source\PSoC5/CyLib.c **** ****************************************************************************//**
 651:Generated_Source\PSoC5/CyLib.c **** *
 652:Generated_Source\PSoC5/CyLib.c **** *   Disables the IMO doubler.
 653:Generated_Source\PSoC5/CyLib.c **** *
 654:Generated_Source\PSoC5/CyLib.c **** *******************************************************************************/
 655:Generated_Source\PSoC5/CyLib.c **** void CyIMO_DisableDoubler(void) 
 656:Generated_Source\PSoC5/CyLib.c **** {
 657:Generated_Source\PSoC5/CyLib.c ****     CY_LIB_FASTCLK_IMO_CR_REG &= ((uint8)(~CY_LIB_FASTCLK_IMO_DOUBLER));
 658:Generated_Source\PSoC5/CyLib.c **** }
 659:Generated_Source\PSoC5/CyLib.c **** 
 660:Generated_Source\PSoC5/CyLib.c **** 
 661:Generated_Source\PSoC5/CyLib.c **** /*******************************************************************************
 662:Generated_Source\PSoC5/CyLib.c **** * Function Name: CyMasterClk_SetSource
 663:Generated_Source\PSoC5/CyLib.c **** ****************************************************************************//**
 664:Generated_Source\PSoC5/CyLib.c **** *
 665:Generated_Source\PSoC5/CyLib.c **** *  Sets the source of the master clock.
 666:Generated_Source\PSoC5/CyLib.c **** *
 667:Generated_Source\PSoC5/CyLib.c **** *   \param source: One of the four available Master clock sources.
 668:Generated_Source\PSoC5/CyLib.c **** *     CY_MASTER_SOURCE_IMO
 669:Generated_Source\PSoC5/CyLib.c **** *     CY_MASTER_SOURCE_PLL
 670:Generated_Source\PSoC5/CyLib.c **** *     CY_MASTER_SOURCE_XTAL
 671:Generated_Source\PSoC5/CyLib.c **** *     CY_MASTER_SOURCE_DSI
 672:Generated_Source\PSoC5/CyLib.c **** *
 673:Generated_Source\PSoC5/CyLib.c **** * \sideeffect
 674:Generated_Source\PSoC5/CyLib.c **** *  The current source and the new source must both be running and stable before
 675:Generated_Source\PSoC5/CyLib.c **** *  calling this function.
 676:Generated_Source\PSoC5/CyLib.c **** *
 677:Generated_Source\PSoC5/CyLib.c **** *  If this function execution resulted in the CPU clock frequency increasing,
 678:Generated_Source\PSoC5/CyLib.c **** *  then the number of clock cycles the cache will wait before it samples data
 679:Generated_Source\PSoC5/CyLib.c **** *  coming back from the Flash must be adjusted by calling
 680:Generated_Source\PSoC5/CyLib.c **** *  CyFlash_SetWaitCycles() with an appropriate parameter. It can be optionally
 681:Generated_Source\PSoC5/CyLib.c **** *  called if the CPU clock frequency is lowered in order to improve the CPU
 682:Generated_Source\PSoC5/CyLib.c **** *  performance. See CyFlash_SetWaitCycles() description for more information.
 683:Generated_Source\PSoC5/CyLib.c **** *
 684:Generated_Source\PSoC5/CyLib.c **** *******************************************************************************/
 685:Generated_Source\PSoC5/CyLib.c **** void CyMasterClk_SetSource(uint8 source) 
 686:Generated_Source\PSoC5/CyLib.c **** {
 687:Generated_Source\PSoC5/CyLib.c ****     CY_LIB_CLKDIST_MSTR1_REG = (CY_LIB_CLKDIST_MSTR1_REG & MASTER_CLK_SRC_CLEAR) |
 688:Generated_Source\PSoC5/CyLib.c ****                                 (source & ((uint8)(~MASTER_CLK_SRC_CLEAR)));
 689:Generated_Source\PSoC5/CyLib.c **** }
 690:Generated_Source\PSoC5/CyLib.c **** 
 691:Generated_Source\PSoC5/CyLib.c **** 
 692:Generated_Source\PSoC5/CyLib.c **** /*******************************************************************************
 693:Generated_Source\PSoC5/CyLib.c **** * Function Name: CyMasterClk_SetDivider
 694:Generated_Source\PSoC5/CyLib.c **** ****************************************************************************//**
 695:Generated_Source\PSoC5/CyLib.c **** *
 696:Generated_Source\PSoC5/CyLib.c **** *  Sets the divider value used to generate Master Clock.
 697:Generated_Source\PSoC5/CyLib.c **** *
 698:Generated_Source\PSoC5/CyLib.c **** *  \param uint8 divider:
 699:Generated_Source\PSoC5/CyLib.c **** *   The valid range is [0-255]. The clock will be divided by this value + 1.
 700:Generated_Source\PSoC5/CyLib.c **** *   For example to divide this parameter by two should be set to 1.
 701:Generated_Source\PSoC5/CyLib.c **** *
ARM GAS  C:\Users\jens-\AppData\Local\Temp\ccdWTNhT.s 			page 15


 702:Generated_Source\PSoC5/CyLib.c **** * \sideeffect
 703:Generated_Source\PSoC5/CyLib.c **** *  If this function execution resulted in the CPU clock frequency increasing,
 704:Generated_Source\PSoC5/CyLib.c **** *  then the number of clock cycles the cache will wait before it samples data
 705:Generated_Source\PSoC5/CyLib.c **** *  coming back from the Flash must be adjusted by calling
 706:Generated_Source\PSoC5/CyLib.c **** *  CyFlash_SetWaitCycles() with an appropriate parameter. It can be optionally
 707:Generated_Source\PSoC5/CyLib.c **** *  called if the CPU clock frequency is lowered in order to improve the CPU
 708:Generated_Source\PSoC5/CyLib.c **** *  performance. See CyFlash_SetWaitCycles() description for more information.
 709:Generated_Source\PSoC5/CyLib.c **** *
 710:Generated_Source\PSoC5/CyLib.c **** *  When changing the Master or Bus clock divider value from div-by-n to div-by-1
 711:Generated_Source\PSoC5/CyLib.c **** *  the first clock cycle output after the div-by-1 can be up to 4 ns shorter
 712:Generated_Source\PSoC5/CyLib.c **** *  than the final/expected div-by-1 period.
 713:Generated_Source\PSoC5/CyLib.c **** *
 714:Generated_Source\PSoC5/CyLib.c **** *******************************************************************************/
 715:Generated_Source\PSoC5/CyLib.c **** void CyMasterClk_SetDivider(uint8 divider) 
 716:Generated_Source\PSoC5/CyLib.c **** {
 717:Generated_Source\PSoC5/CyLib.c ****     CY_LIB_CLKDIST_MSTR0_REG = divider;
 718:Generated_Source\PSoC5/CyLib.c **** }
 719:Generated_Source\PSoC5/CyLib.c **** 
 720:Generated_Source\PSoC5/CyLib.c **** 
 721:Generated_Source\PSoC5/CyLib.c **** /*******************************************************************************
 722:Generated_Source\PSoC5/CyLib.c **** * Function Name: CyBusClk_Internal_SetDivider
 723:Generated_Source\PSoC5/CyLib.c **** ****************************************************************************//**
 724:Generated_Source\PSoC5/CyLib.c **** *
 725:Generated_Source\PSoC5/CyLib.c **** *  The function used by CyBusClk_SetDivider(). For internal use only.
 726:Generated_Source\PSoC5/CyLib.c **** *
 727:Generated_Source\PSoC5/CyLib.c **** *   \param divider: Valid range [0-65535].
 728:Generated_Source\PSoC5/CyLib.c **** *   The clock will be divided by this value + 1.
 729:Generated_Source\PSoC5/CyLib.c **** *   For example, to divide this parameter by two should be set to 1.
 730:Generated_Source\PSoC5/CyLib.c **** *
 731:Generated_Source\PSoC5/CyLib.c **** *******************************************************************************/
 732:Generated_Source\PSoC5/CyLib.c **** static void CyBusClk_Internal_SetDivider(uint16 divider)
 733:Generated_Source\PSoC5/CyLib.c **** {
  94              		.loc 1 733 1 is_stmt 1 view -0
  95              		.cfi_startproc
  96              		@ args = 0, pretend = 0, frame = 0
  97              		@ frame_needed = 0, uses_anonymous_args = 0
  98              		@ link register save eliminated.
 734:Generated_Source\PSoC5/CyLib.c ****     /* Mask bits to enable shadow loads  */
 735:Generated_Source\PSoC5/CyLib.c ****     CY_LIB_CLKDIST_AMASK_REG &= CY_LIB_CLKDIST_AMASK_MASK;
  99              		.loc 1 735 5 view .LVU16
 100              		.loc 1 735 30 is_stmt 0 view .LVU17
 101 0000 0C4A     		ldr	r2, .L11
 102 0002 1378     		ldrb	r3, [r2]	@ zero_extendqisi2
 103 0004 03F0F003 		and	r3, r3, #240
 104 0008 1370     		strb	r3, [r2]
 736:Generated_Source\PSoC5/CyLib.c ****     CY_LIB_CLKDIST_DMASK_REG  = CY_LIB_CLKDIST_DMASK_MASK;
 105              		.loc 1 736 5 is_stmt 1 view .LVU18
 106              		.loc 1 736 31 is_stmt 0 view .LVU19
 107 000a 0B4B     		ldr	r3, .L11+4
 108 000c 0022     		movs	r2, #0
 109 000e 1A70     		strb	r2, [r3]
 737:Generated_Source\PSoC5/CyLib.c **** 
 738:Generated_Source\PSoC5/CyLib.c ****     /* Enable mask bits to enable shadow loads */
 739:Generated_Source\PSoC5/CyLib.c ****     CY_LIB_CLKDIST_BCFG2_REG |= CY_LIB_CLKDIST_BCFG2_MASK;
 110              		.loc 1 739 5 is_stmt 1 view .LVU20
 111              		.loc 1 739 30 is_stmt 0 view .LVU21
 112 0010 0A4A     		ldr	r2, .L11+8
ARM GAS  C:\Users\jens-\AppData\Local\Temp\ccdWTNhT.s 			page 16


 113 0012 1378     		ldrb	r3, [r2]	@ zero_extendqisi2
 114 0014 43F08003 		orr	r3, r3, #128
 115 0018 1370     		strb	r3, [r2]
 740:Generated_Source\PSoC5/CyLib.c **** 
 741:Generated_Source\PSoC5/CyLib.c ****     /* Update Shadow Divider Value Register with new divider */
 742:Generated_Source\PSoC5/CyLib.c ****     CY_LIB_CLKDIST_WRK_LSB_REG = LO8(divider);
 116              		.loc 1 742 5 is_stmt 1 view .LVU22
 117              		.loc 1 742 34 is_stmt 0 view .LVU23
 118 001a C2B2     		uxtb	r2, r0
 119              		.loc 1 742 32 view .LVU24
 120 001c 084B     		ldr	r3, .L11+12
 121 001e 1A70     		strb	r2, [r3]
 743:Generated_Source\PSoC5/CyLib.c ****     CY_LIB_CLKDIST_WRK_MSB_REG = HI8(divider);
 122              		.loc 1 743 5 is_stmt 1 view .LVU25
 123              		.loc 1 743 34 is_stmt 0 view .LVU26
 124 0020 000A     		lsrs	r0, r0, #8
 125              	.LVL3:
 126              		.loc 1 743 32 view .LVU27
 127 0022 0133     		adds	r3, r3, #1
 128 0024 1870     		strb	r0, [r3]
 744:Generated_Source\PSoC5/CyLib.c **** 
 745:Generated_Source\PSoC5/CyLib.c **** 
 746:Generated_Source\PSoC5/CyLib.c ****     /***************************************************************************
 747:Generated_Source\PSoC5/CyLib.c ****     * Copy shadow value defined in Shadow Divider Value Register
 748:Generated_Source\PSoC5/CyLib.c ****     * (CY_LIB_CLKDIST_WRK_LSB_REG and CY_LIB_CLKDIST_WRK_MSB_REG) to all
 749:Generated_Source\PSoC5/CyLib.c ****     * dividers selected in Analog and Digital Clock Mask Registers
 750:Generated_Source\PSoC5/CyLib.c ****     * (CY_LIB_CLKDIST_AMASK_REG and CY_LIB_CLKDIST_DMASK_REG).
 751:Generated_Source\PSoC5/CyLib.c ****     ***************************************************************************/
 752:Generated_Source\PSoC5/CyLib.c ****     CY_LIB_CLKDIST_LD_REG |= CY_LIB_CLKDIST_LD_LOAD;
 129              		.loc 1 752 5 is_stmt 1 view .LVU28
 130              		.loc 1 752 27 is_stmt 0 view .LVU29
 131 0026 074A     		ldr	r2, .L11+16
 132 0028 1378     		ldrb	r3, [r2]	@ zero_extendqisi2
 133 002a 43F00103 		orr	r3, r3, #1
 134 002e 1370     		strb	r3, [r2]
 753:Generated_Source\PSoC5/CyLib.c **** }
 135              		.loc 1 753 1 view .LVU30
 136 0030 7047     		bx	lr
 137              	.L12:
 138 0032 00BF     		.align	2
 139              	.L11:
 140 0034 14400040 		.word	1073758228
 141 0038 10400040 		.word	1073758224
 142 003c 08400040 		.word	1073758216
 143 0040 02400040 		.word	1073758210
 144 0044 01400040 		.word	1073758209
 145              		.cfi_endproc
 146              	.LFE14:
 147              		.size	CyBusClk_Internal_SetDivider, .-CyBusClk_Internal_SetDivider
 148              		.section	.text.CyPLL_OUT_Stop,"ax",%progbits
 149              		.align	1
 150              		.global	CyPLL_OUT_Stop
 151              		.syntax unified
 152              		.thumb
 153              		.thumb_func
 154              		.fpu softvfp
 155              		.type	CyPLL_OUT_Stop, %function
ARM GAS  C:\Users\jens-\AppData\Local\Temp\ccdWTNhT.s 			page 17


 156              	CyPLL_OUT_Stop:
 157              	.LFB1:
 155:Generated_Source\PSoC5/CyLib.c ****     CY_CLK_PLL_CFG0_REG &= ((uint8)(~CY_CLK_PLL_ENABLE));
 158              		.loc 1 155 1 is_stmt 1 view -0
 159              		.cfi_startproc
 160              		@ args = 0, pretend = 0, frame = 0
 161              		@ frame_needed = 0, uses_anonymous_args = 0
 162              		@ link register save eliminated.
 156:Generated_Source\PSoC5/CyLib.c **** }
 163              		.loc 1 156 5 view .LVU32
 156:Generated_Source\PSoC5/CyLib.c **** }
 164              		.loc 1 156 25 is_stmt 0 view .LVU33
 165 0000 024A     		ldr	r2, .L14
 166 0002 1378     		ldrb	r3, [r2]	@ zero_extendqisi2
 167 0004 03F0FE03 		and	r3, r3, #254
 168 0008 1370     		strb	r3, [r2]
 157:Generated_Source\PSoC5/CyLib.c **** 
 169              		.loc 1 157 1 view .LVU34
 170 000a 7047     		bx	lr
 171              	.L15:
 172              		.align	2
 173              	.L14:
 174 000c 20420040 		.word	1073758752
 175              		.cfi_endproc
 176              	.LFE1:
 177              		.size	CyPLL_OUT_Stop, .-CyPLL_OUT_Stop
 178              		.section	.text.CyIMO_Stop,"ax",%progbits
 179              		.align	1
 180              		.global	CyIMO_Stop
 181              		.syntax unified
 182              		.thumb
 183              		.thumb_func
 184              		.fpu softvfp
 185              		.type	CyIMO_Stop, %function
 186              	CyIMO_Stop:
 187              	.LFB5:
 325:Generated_Source\PSoC5/CyLib.c ****     CY_LIB_PM_ACT_CFG0_REG  &= ((uint8) (~CY_LIB_PM_ACT_CFG0_IMO_EN));
 188              		.loc 1 325 1 is_stmt 1 view -0
 189              		.cfi_startproc
 190              		@ args = 0, pretend = 0, frame = 0
 191              		@ frame_needed = 0, uses_anonymous_args = 0
 192              		@ link register save eliminated.
 326:Generated_Source\PSoC5/CyLib.c ****     CY_LIB_PM_STBY_CFG0_REG &= ((uint8) (~CY_LIB_PM_STBY_CFG0_IMO_EN));
 193              		.loc 1 326 5 view .LVU36
 326:Generated_Source\PSoC5/CyLib.c ****     CY_LIB_PM_STBY_CFG0_REG &= ((uint8) (~CY_LIB_PM_STBY_CFG0_IMO_EN));
 194              		.loc 1 326 29 is_stmt 0 view .LVU37
 195 0000 054A     		ldr	r2, .L17
 196 0002 1378     		ldrb	r3, [r2]	@ zero_extendqisi2
 197 0004 03F0EF03 		and	r3, r3, #239
 198 0008 1370     		strb	r3, [r2]
 327:Generated_Source\PSoC5/CyLib.c **** }
 199              		.loc 1 327 5 is_stmt 1 view .LVU38
 327:Generated_Source\PSoC5/CyLib.c **** }
 200              		.loc 1 327 29 is_stmt 0 view .LVU39
 201 000a 1032     		adds	r2, r2, #16
 202 000c 1378     		ldrb	r3, [r2]	@ zero_extendqisi2
 203 000e 03F0EF03 		and	r3, r3, #239
ARM GAS  C:\Users\jens-\AppData\Local\Temp\ccdWTNhT.s 			page 18


 204 0012 1370     		strb	r3, [r2]
 328:Generated_Source\PSoC5/CyLib.c **** 
 205              		.loc 1 328 1 view .LVU40
 206 0014 7047     		bx	lr
 207              	.L18:
 208 0016 00BF     		.align	2
 209              	.L17:
 210 0018 A0430040 		.word	1073759136
 211              		.cfi_endproc
 212              	.LFE5:
 213              		.size	CyIMO_Stop, .-CyIMO_Stop
 214              		.section	.text.CyIMO_EnableDoubler,"ax",%progbits
 215              		.align	1
 216              		.global	CyIMO_EnableDoubler
 217              		.syntax unified
 218              		.thumb
 219              		.thumb_func
 220              		.fpu softvfp
 221              		.type	CyIMO_EnableDoubler, %function
 222              	CyIMO_EnableDoubler:
 223              	.LFB10:
 642:Generated_Source\PSoC5/CyLib.c ****     /* Set FASTCLK_IMO_CR_PTR regigster's 4th bit */
 224              		.loc 1 642 1 is_stmt 1 view -0
 225              		.cfi_startproc
 226              		@ args = 0, pretend = 0, frame = 0
 227              		@ frame_needed = 0, uses_anonymous_args = 0
 228              		@ link register save eliminated.
 644:Generated_Source\PSoC5/CyLib.c **** }
 229              		.loc 1 644 5 view .LVU42
 644:Generated_Source\PSoC5/CyLib.c **** }
 230              		.loc 1 644 31 is_stmt 0 view .LVU43
 231 0000 024A     		ldr	r2, .L20
 232 0002 1378     		ldrb	r3, [r2]	@ zero_extendqisi2
 233 0004 43F01003 		orr	r3, r3, #16
 234 0008 1370     		strb	r3, [r2]
 645:Generated_Source\PSoC5/CyLib.c **** 
 235              		.loc 1 645 1 view .LVU44
 236 000a 7047     		bx	lr
 237              	.L21:
 238              		.align	2
 239              	.L20:
 240 000c 00420040 		.word	1073758720
 241              		.cfi_endproc
 242              	.LFE10:
 243              		.size	CyIMO_EnableDoubler, .-CyIMO_EnableDoubler
 244              		.section	.text.CyIMO_DisableDoubler,"ax",%progbits
 245              		.align	1
 246              		.global	CyIMO_DisableDoubler
 247              		.syntax unified
 248              		.thumb
 249              		.thumb_func
 250              		.fpu softvfp
 251              		.type	CyIMO_DisableDoubler, %function
 252              	CyIMO_DisableDoubler:
 253              	.LFB11:
 656:Generated_Source\PSoC5/CyLib.c ****     CY_LIB_FASTCLK_IMO_CR_REG &= ((uint8)(~CY_LIB_FASTCLK_IMO_DOUBLER));
 254              		.loc 1 656 1 is_stmt 1 view -0
ARM GAS  C:\Users\jens-\AppData\Local\Temp\ccdWTNhT.s 			page 19


 255              		.cfi_startproc
 256              		@ args = 0, pretend = 0, frame = 0
 257              		@ frame_needed = 0, uses_anonymous_args = 0
 258              		@ link register save eliminated.
 657:Generated_Source\PSoC5/CyLib.c **** }
 259              		.loc 1 657 5 view .LVU46
 657:Generated_Source\PSoC5/CyLib.c **** }
 260              		.loc 1 657 31 is_stmt 0 view .LVU47
 261 0000 024A     		ldr	r2, .L23
 262 0002 1378     		ldrb	r3, [r2]	@ zero_extendqisi2
 263 0004 03F0EF03 		and	r3, r3, #239
 264 0008 1370     		strb	r3, [r2]
 658:Generated_Source\PSoC5/CyLib.c **** 
 265              		.loc 1 658 1 view .LVU48
 266 000a 7047     		bx	lr
 267              	.L24:
 268              		.align	2
 269              	.L23:
 270 000c 00420040 		.word	1073758720
 271              		.cfi_endproc
 272              	.LFE11:
 273              		.size	CyIMO_DisableDoubler, .-CyIMO_DisableDoubler
 274              		.section	.text.CyMasterClk_SetSource,"ax",%progbits
 275              		.align	1
 276              		.global	CyMasterClk_SetSource
 277              		.syntax unified
 278              		.thumb
 279              		.thumb_func
 280              		.fpu softvfp
 281              		.type	CyMasterClk_SetSource, %function
 282              	CyMasterClk_SetSource:
 283              	.LVL4:
 284              	.LFB12:
 686:Generated_Source\PSoC5/CyLib.c ****     CY_LIB_CLKDIST_MSTR1_REG = (CY_LIB_CLKDIST_MSTR1_REG & MASTER_CLK_SRC_CLEAR) |
 285              		.loc 1 686 1 is_stmt 1 view -0
 286              		.cfi_startproc
 287              		@ args = 0, pretend = 0, frame = 0
 288              		@ frame_needed = 0, uses_anonymous_args = 0
 289              		@ link register save eliminated.
 687:Generated_Source\PSoC5/CyLib.c ****                                 (source & ((uint8)(~MASTER_CLK_SRC_CLEAR)));
 290              		.loc 1 687 5 view .LVU50
 687:Generated_Source\PSoC5/CyLib.c ****                                 (source & ((uint8)(~MASTER_CLK_SRC_CLEAR)));
 291              		.loc 1 687 33 is_stmt 0 view .LVU51
 292 0000 044A     		ldr	r2, .L26
 293 0002 1378     		ldrb	r3, [r2]	@ zero_extendqisi2
 687:Generated_Source\PSoC5/CyLib.c ****                                 (source & ((uint8)(~MASTER_CLK_SRC_CLEAR)));
 294              		.loc 1 687 58 view .LVU52
 295 0004 03F0FC03 		and	r3, r3, #252
 688:Generated_Source\PSoC5/CyLib.c **** }
 296              		.loc 1 688 41 view .LVU53
 297 0008 00F00300 		and	r0, r0, #3
 298              	.LVL5:
 687:Generated_Source\PSoC5/CyLib.c ****                                 (source & ((uint8)(~MASTER_CLK_SRC_CLEAR)));
 299              		.loc 1 687 82 view .LVU54
 300 000c 0343     		orrs	r3, r3, r0
 687:Generated_Source\PSoC5/CyLib.c ****                                 (source & ((uint8)(~MASTER_CLK_SRC_CLEAR)));
 301              		.loc 1 687 30 view .LVU55
ARM GAS  C:\Users\jens-\AppData\Local\Temp\ccdWTNhT.s 			page 20


 302 000e 1370     		strb	r3, [r2]
 689:Generated_Source\PSoC5/CyLib.c **** 
 303              		.loc 1 689 1 view .LVU56
 304 0010 7047     		bx	lr
 305              	.L27:
 306 0012 00BF     		.align	2
 307              	.L26:
 308 0014 05400040 		.word	1073758213
 309              		.cfi_endproc
 310              	.LFE12:
 311              		.size	CyMasterClk_SetSource, .-CyMasterClk_SetSource
 312              		.section	.text.CyMasterClk_SetDivider,"ax",%progbits
 313              		.align	1
 314              		.global	CyMasterClk_SetDivider
 315              		.syntax unified
 316              		.thumb
 317              		.thumb_func
 318              		.fpu softvfp
 319              		.type	CyMasterClk_SetDivider, %function
 320              	CyMasterClk_SetDivider:
 321              	.LVL6:
 322              	.LFB13:
 716:Generated_Source\PSoC5/CyLib.c ****     CY_LIB_CLKDIST_MSTR0_REG = divider;
 323              		.loc 1 716 1 is_stmt 1 view -0
 324              		.cfi_startproc
 325              		@ args = 0, pretend = 0, frame = 0
 326              		@ frame_needed = 0, uses_anonymous_args = 0
 327              		@ link register save eliminated.
 717:Generated_Source\PSoC5/CyLib.c **** }
 328              		.loc 1 717 5 view .LVU58
 717:Generated_Source\PSoC5/CyLib.c **** }
 329              		.loc 1 717 30 is_stmt 0 view .LVU59
 330 0000 014B     		ldr	r3, .L29
 331 0002 1870     		strb	r0, [r3]
 718:Generated_Source\PSoC5/CyLib.c **** 
 332              		.loc 1 718 1 view .LVU60
 333 0004 7047     		bx	lr
 334              	.L30:
 335 0006 00BF     		.align	2
 336              	.L29:
 337 0008 04400040 		.word	1073758212
 338              		.cfi_endproc
 339              	.LFE13:
 340              		.size	CyMasterClk_SetDivider, .-CyMasterClk_SetDivider
 341              		.section	.text.CyBusClk_SetDivider,"ax",%progbits
 342              		.align	1
 343              		.global	CyBusClk_SetDivider
 344              		.syntax unified
 345              		.thumb
 346              		.thumb_func
 347              		.fpu softvfp
 348              		.type	CyBusClk_SetDivider, %function
 349              	CyBusClk_SetDivider:
 350              	.LVL7:
 351              	.LFB15:
 754:Generated_Source\PSoC5/CyLib.c **** 
 755:Generated_Source\PSoC5/CyLib.c **** 
ARM GAS  C:\Users\jens-\AppData\Local\Temp\ccdWTNhT.s 			page 21


 756:Generated_Source\PSoC5/CyLib.c **** /*******************************************************************************
 757:Generated_Source\PSoC5/CyLib.c **** * Function Name: CyBusClk_SetDivider
 758:Generated_Source\PSoC5/CyLib.c **** ****************************************************************************//**
 759:Generated_Source\PSoC5/CyLib.c **** *
 760:Generated_Source\PSoC5/CyLib.c **** *  Sets the divider value used to generate the Bus Clock.
 761:Generated_Source\PSoC5/CyLib.c **** *
 762:Generated_Source\PSoC5/CyLib.c **** *  \param divider: Valid range [0-65535]. The clock will be divided by this value + 1.
 763:Generated_Source\PSoC5/CyLib.c **** *  For example, to divide this parameter by two should be set to 1.
 764:Generated_Source\PSoC5/CyLib.c **** *
 765:Generated_Source\PSoC5/CyLib.c **** * \sideeffect
 766:Generated_Source\PSoC5/CyLib.c **** *  If this function execution resulted in the CPU clock frequency increasing,
 767:Generated_Source\PSoC5/CyLib.c **** *  then the number of clock cycles the cache will wait before it samples data
 768:Generated_Source\PSoC5/CyLib.c **** *  coming back from the Flash must be adjusted by calling
 769:Generated_Source\PSoC5/CyLib.c **** *  CyFlash_SetWaitCycles() with an appropriate parameter. It can be optionally
 770:Generated_Source\PSoC5/CyLib.c **** *  called if the CPU clock frequency is lowered in order to improve the CPU
 771:Generated_Source\PSoC5/CyLib.c **** *  performance. See CyFlash_SetWaitCycles() description for more information.
 772:Generated_Source\PSoC5/CyLib.c **** *
 773:Generated_Source\PSoC5/CyLib.c **** *******************************************************************************/
 774:Generated_Source\PSoC5/CyLib.c **** void CyBusClk_SetDivider(uint16 divider) 
 775:Generated_Source\PSoC5/CyLib.c **** {
 352              		.loc 1 775 1 is_stmt 1 view -0
 353              		.cfi_startproc
 354              		@ args = 0, pretend = 0, frame = 0
 355              		@ frame_needed = 0, uses_anonymous_args = 0
 356              		.loc 1 775 1 is_stmt 0 view .LVU62
 357 0000 70B5     		push	{r4, r5, r6, lr}
 358              		.cfi_def_cfa_offset 16
 359              		.cfi_offset 4, -16
 360              		.cfi_offset 5, -12
 361              		.cfi_offset 6, -8
 362              		.cfi_offset 14, -4
 363 0002 0446     		mov	r4, r0
 776:Generated_Source\PSoC5/CyLib.c ****     uint8  masterClkDiv;
 364              		.loc 1 776 5 is_stmt 1 view .LVU63
 777:Generated_Source\PSoC5/CyLib.c ****     uint16 busClkDiv;
 365              		.loc 1 777 5 view .LVU64
 778:Generated_Source\PSoC5/CyLib.c ****     uint8 interruptState;
 366              		.loc 1 778 5 view .LVU65
 779:Generated_Source\PSoC5/CyLib.c **** 
 780:Generated_Source\PSoC5/CyLib.c ****     interruptState = CyEnterCriticalSection();
 367              		.loc 1 780 5 view .LVU66
 368              		.loc 1 780 22 is_stmt 0 view .LVU67
 369 0004 FFF7FEFF 		bl	CyEnterCriticalSection
 370              	.LVL8:
 371              		.loc 1 780 22 view .LVU68
 372 0008 0646     		mov	r6, r0
 373              	.LVL9:
 781:Generated_Source\PSoC5/CyLib.c **** 
 782:Generated_Source\PSoC5/CyLib.c ****     /* Work around to set bus clock divider value */
 783:Generated_Source\PSoC5/CyLib.c ****     busClkDiv = (uint16)((uint16)CY_LIB_CLKDIST_BCFG_MSB_REG << 8u);
 374              		.loc 1 783 5 is_stmt 1 view .LVU69
 375              		.loc 1 783 34 is_stmt 0 view .LVU70
 376 000a 174B     		ldr	r3, .L40
 377 000c 1A78     		ldrb	r2, [r3]	@ zero_extendqisi2
 378              	.LVL10:
 784:Generated_Source\PSoC5/CyLib.c ****     busClkDiv |= CY_LIB_CLKDIST_BCFG_LSB_REG;
 379              		.loc 1 784 5 is_stmt 1 view .LVU71
ARM GAS  C:\Users\jens-\AppData\Local\Temp\ccdWTNhT.s 			page 22


 380              		.loc 1 784 18 is_stmt 0 view .LVU72
 381 000e 013B     		subs	r3, r3, #1
 382 0010 1B78     		ldrb	r3, [r3]	@ zero_extendqisi2
 383              		.loc 1 784 15 view .LVU73
 384 0012 43EA0223 		orr	r3, r3, r2, lsl #8
 385              	.LVL11:
 785:Generated_Source\PSoC5/CyLib.c **** 
 786:Generated_Source\PSoC5/CyLib.c ****     if ((divider == 0u) || (busClkDiv == 0u))
 386              		.loc 1 786 5 is_stmt 1 view .LVU74
 387              		.loc 1 786 8 is_stmt 0 view .LVU75
 388 0016 04B1     		cbz	r4, .L32
 389              		.loc 1 786 25 discriminator 1 view .LVU76
 390 0018 0BBB     		cbnz	r3, .L33
 391              	.L32:
 787:Generated_Source\PSoC5/CyLib.c ****     {
 788:Generated_Source\PSoC5/CyLib.c ****         /* Save away master clock divider value */
 789:Generated_Source\PSoC5/CyLib.c ****         masterClkDiv = CY_LIB_CLKDIST_MSTR0_REG;
 392              		.loc 1 789 9 is_stmt 1 view .LVU77
 393              		.loc 1 789 22 is_stmt 0 view .LVU78
 394 001a 144B     		ldr	r3, .L40+4
 395              	.LVL12:
 396              		.loc 1 789 22 view .LVU79
 397 001c 1D78     		ldrb	r5, [r3]	@ zero_extendqisi2
 398 001e EDB2     		uxtb	r5, r5
 399              	.LVL13:
 790:Generated_Source\PSoC5/CyLib.c **** 
 791:Generated_Source\PSoC5/CyLib.c ****         if (masterClkDiv < CY_LIB_CLKDIST_MASTERCLK_DIV)
 400              		.loc 1 791 9 is_stmt 1 view .LVU80
 401              		.loc 1 791 12 is_stmt 0 view .LVU81
 402 0020 062D     		cmp	r5, #6
 403 0022 0FD9     		bls	.L39
 404              	.L34:
 792:Generated_Source\PSoC5/CyLib.c ****         {
 793:Generated_Source\PSoC5/CyLib.c ****             /* Set master clock divider to 7 */
 794:Generated_Source\PSoC5/CyLib.c ****             CyMasterClk_SetDivider(CY_LIB_CLKDIST_MASTERCLK_DIV);
 795:Generated_Source\PSoC5/CyLib.c ****         }
 796:Generated_Source\PSoC5/CyLib.c **** 
 797:Generated_Source\PSoC5/CyLib.c ****         if (divider == 0u)
 405              		.loc 1 797 9 is_stmt 1 view .LVU82
 406              		.loc 1 797 12 is_stmt 0 view .LVU83
 407 0024 94B9     		cbnz	r4, .L35
 798:Generated_Source\PSoC5/CyLib.c ****         {
 799:Generated_Source\PSoC5/CyLib.c ****             /* Set SSS bit and divider register desired value */
 800:Generated_Source\PSoC5/CyLib.c ****             CY_LIB_CLKDIST_BCFG2_REG |= CY_LIB_CLKDIST_BCFG2_SSS;
 408              		.loc 1 800 13 is_stmt 1 view .LVU84
 409              		.loc 1 800 38 is_stmt 0 view .LVU85
 410 0026 124A     		ldr	r2, .L40+8
 411 0028 1378     		ldrb	r3, [r2]	@ zero_extendqisi2
 412 002a 43F04003 		orr	r3, r3, #64
 413 002e 1370     		strb	r3, [r2]
 801:Generated_Source\PSoC5/CyLib.c ****             CyBusClk_Internal_SetDivider(divider);
 414              		.loc 1 801 13 is_stmt 1 view .LVU86
 415 0030 2046     		mov	r0, r4
 416 0032 FFF7FEFF 		bl	CyBusClk_Internal_SetDivider
 417              	.LVL14:
 418              	.L36:
 802:Generated_Source\PSoC5/CyLib.c ****         }
ARM GAS  C:\Users\jens-\AppData\Local\Temp\ccdWTNhT.s 			page 23


 803:Generated_Source\PSoC5/CyLib.c ****         else
 804:Generated_Source\PSoC5/CyLib.c ****         {
 805:Generated_Source\PSoC5/CyLib.c ****             CyBusClk_Internal_SetDivider(divider);
 806:Generated_Source\PSoC5/CyLib.c ****             CY_LIB_CLKDIST_BCFG2_REG &= ((uint8)(~CY_LIB_CLKDIST_BCFG2_SSS));
 807:Generated_Source\PSoC5/CyLib.c ****         }
 808:Generated_Source\PSoC5/CyLib.c **** 
 809:Generated_Source\PSoC5/CyLib.c ****         /* Restore master clock */
 810:Generated_Source\PSoC5/CyLib.c ****         CyMasterClk_SetDivider(masterClkDiv);
 419              		.loc 1 810 9 view .LVU87
 420 0036 2846     		mov	r0, r5
 421 0038 FFF7FEFF 		bl	CyMasterClk_SetDivider
 422              	.LVL15:
 423              	.L37:
 811:Generated_Source\PSoC5/CyLib.c ****     }
 812:Generated_Source\PSoC5/CyLib.c ****     else
 813:Generated_Source\PSoC5/CyLib.c ****     {
 814:Generated_Source\PSoC5/CyLib.c ****         CyBusClk_Internal_SetDivider(divider);
 815:Generated_Source\PSoC5/CyLib.c ****     }
 816:Generated_Source\PSoC5/CyLib.c **** 
 817:Generated_Source\PSoC5/CyLib.c ****     CyExitCriticalSection(interruptState);
 424              		.loc 1 817 5 view .LVU88
 425 003c 3046     		mov	r0, r6
 426 003e FFF7FEFF 		bl	CyExitCriticalSection
 427              	.LVL16:
 818:Generated_Source\PSoC5/CyLib.c **** }
 428              		.loc 1 818 1 is_stmt 0 view .LVU89
 429 0042 70BD     		pop	{r4, r5, r6, pc}
 430              	.LVL17:
 431              	.L39:
 794:Generated_Source\PSoC5/CyLib.c ****         }
 432              		.loc 1 794 13 is_stmt 1 view .LVU90
 433 0044 0720     		movs	r0, #7
 434 0046 FFF7FEFF 		bl	CyMasterClk_SetDivider
 435              	.LVL18:
 794:Generated_Source\PSoC5/CyLib.c ****         }
 436              		.loc 1 794 13 is_stmt 0 view .LVU91
 437 004a EBE7     		b	.L34
 438              	.L35:
 805:Generated_Source\PSoC5/CyLib.c ****             CY_LIB_CLKDIST_BCFG2_REG &= ((uint8)(~CY_LIB_CLKDIST_BCFG2_SSS));
 439              		.loc 1 805 13 is_stmt 1 view .LVU92
 440 004c 2046     		mov	r0, r4
 441 004e FFF7FEFF 		bl	CyBusClk_Internal_SetDivider
 442              	.LVL19:
 806:Generated_Source\PSoC5/CyLib.c ****         }
 443              		.loc 1 806 13 view .LVU93
 806:Generated_Source\PSoC5/CyLib.c ****         }
 444              		.loc 1 806 38 is_stmt 0 view .LVU94
 445 0052 074A     		ldr	r2, .L40+8
 446 0054 1378     		ldrb	r3, [r2]	@ zero_extendqisi2
 447 0056 03F0BF03 		and	r3, r3, #191
 448 005a 1370     		strb	r3, [r2]
 449 005c EBE7     		b	.L36
 450              	.LVL20:
 451              	.L33:
 814:Generated_Source\PSoC5/CyLib.c ****     }
 452              		.loc 1 814 9 is_stmt 1 view .LVU95
 453 005e 2046     		mov	r0, r4
ARM GAS  C:\Users\jens-\AppData\Local\Temp\ccdWTNhT.s 			page 24


 454 0060 FFF7FEFF 		bl	CyBusClk_Internal_SetDivider
 455              	.LVL21:
 814:Generated_Source\PSoC5/CyLib.c ****     }
 456              		.loc 1 814 9 is_stmt 0 view .LVU96
 457 0064 EAE7     		b	.L37
 458              	.L41:
 459 0066 00BF     		.align	2
 460              	.L40:
 461 0068 07400040 		.word	1073758215
 462 006c 04400040 		.word	1073758212
 463 0070 08400040 		.word	1073758216
 464              		.cfi_endproc
 465              	.LFE15:
 466              		.size	CyBusClk_SetDivider, .-CyBusClk_SetDivider
 467              		.section	.text.CyUsbClk_SetSource,"ax",%progbits
 468              		.align	1
 469              		.global	CyUsbClk_SetSource
 470              		.syntax unified
 471              		.thumb
 472              		.thumb_func
 473              		.fpu softvfp
 474              		.type	CyUsbClk_SetSource, %function
 475              	CyUsbClk_SetSource:
 476              	.LVL22:
 477              	.LFB16:
 819:Generated_Source\PSoC5/CyLib.c **** 
 820:Generated_Source\PSoC5/CyLib.c **** 
 821:Generated_Source\PSoC5/CyLib.c **** #if(CY_PSOC3)
 822:Generated_Source\PSoC5/CyLib.c **** 
 823:Generated_Source\PSoC5/CyLib.c ****     /*******************************************************************************
 824:Generated_Source\PSoC5/CyLib.c ****     * Function Name: CyCpuClk_SetDivider
 825:Generated_Source\PSoC5/CyLib.c ****     ****************************************************************************//**
 826:Generated_Source\PSoC5/CyLib.c ****     *
 827:Generated_Source\PSoC5/CyLib.c ****     *  Sets the divider value used to generate the CPU Clock. Only applicable for
 828:Generated_Source\PSoC5/CyLib.c ****     *  PSoC 3 parts.
 829:Generated_Source\PSoC5/CyLib.c ****     *
 830:Generated_Source\PSoC5/CyLib.c ****     *  \param divider: Valid range [0-15]. The clock will be divided by this value + 1.
 831:Generated_Source\PSoC5/CyLib.c ****     *  For example, to divide this parameter by two should be set to 1.
 832:Generated_Source\PSoC5/CyLib.c ****     *
 833:Generated_Source\PSoC5/CyLib.c ****     * \sideeffect
 834:Generated_Source\PSoC5/CyLib.c ****     *  If this function execution resulted in the CPU clock frequency increasing,
 835:Generated_Source\PSoC5/CyLib.c ****     *  then the number of clock cycles the cache will wait before it samples data
 836:Generated_Source\PSoC5/CyLib.c ****     *  coming back from the Flash must be adjusted by calling
 837:Generated_Source\PSoC5/CyLib.c ****     *  CyFlash_SetWaitCycles() with an appropriate parameter. It can be optionally
 838:Generated_Source\PSoC5/CyLib.c ****     *  called if the CPU clock frequency is lowered in order to improve the CPU
 839:Generated_Source\PSoC5/CyLib.c ****     *  performance. See CyFlash_SetWaitCycles() description for more information.
 840:Generated_Source\PSoC5/CyLib.c ****     *
 841:Generated_Source\PSoC5/CyLib.c ****     *******************************************************************************/
 842:Generated_Source\PSoC5/CyLib.c ****     void CyCpuClk_SetDivider(uint8 divider) 
 843:Generated_Source\PSoC5/CyLib.c ****     {
 844:Generated_Source\PSoC5/CyLib.c ****             CY_LIB_CLKDIST_MSTR1_REG = (CY_LIB_CLKDIST_MSTR1_REG & CY_LIB_CLKDIST_MSTR1_DIV_MASK) |
 845:Generated_Source\PSoC5/CyLib.c ****                                 ((uint8)(divider << CY_LIB_CLKDIST_DIV_POSITION));
 846:Generated_Source\PSoC5/CyLib.c ****     }
 847:Generated_Source\PSoC5/CyLib.c **** 
 848:Generated_Source\PSoC5/CyLib.c **** #endif /* (CY_PSOC3) */
 849:Generated_Source\PSoC5/CyLib.c **** 
 850:Generated_Source\PSoC5/CyLib.c **** 
ARM GAS  C:\Users\jens-\AppData\Local\Temp\ccdWTNhT.s 			page 25


 851:Generated_Source\PSoC5/CyLib.c **** /*******************************************************************************
 852:Generated_Source\PSoC5/CyLib.c **** * Function Name: CyUsbClk_SetSource
 853:Generated_Source\PSoC5/CyLib.c **** ****************************************************************************//**
 854:Generated_Source\PSoC5/CyLib.c **** *
 855:Generated_Source\PSoC5/CyLib.c **** *  Sets the source of the USB clock.
 856:Generated_Source\PSoC5/CyLib.c **** *
 857:Generated_Source\PSoC5/CyLib.c **** *  \param source: One of the four available USB clock sources
 858:Generated_Source\PSoC5/CyLib.c **** *    CY_LIB_USB_CLK_IMO2X     - IMO 2x
 859:Generated_Source\PSoC5/CyLib.c **** *    CY_LIB_USB_CLK_IMO       - IMO
 860:Generated_Source\PSoC5/CyLib.c **** *    CY_LIB_USB_CLK_PLL       - PLL
 861:Generated_Source\PSoC5/CyLib.c **** *    CY_LIB_USB_CLK_DSI       - DSI
 862:Generated_Source\PSoC5/CyLib.c **** *
 863:Generated_Source\PSoC5/CyLib.c **** *******************************************************************************/
 864:Generated_Source\PSoC5/CyLib.c **** void CyUsbClk_SetSource(uint8 source) 
 865:Generated_Source\PSoC5/CyLib.c **** {
 478              		.loc 1 865 1 is_stmt 1 view -0
 479              		.cfi_startproc
 480              		@ args = 0, pretend = 0, frame = 0
 481              		@ frame_needed = 0, uses_anonymous_args = 0
 482              		@ link register save eliminated.
 866:Generated_Source\PSoC5/CyLib.c ****     CY_LIB_CLKDIST_UCFG_REG = (CY_LIB_CLKDIST_UCFG_REG & ((uint8)(~CY_LIB_CLKDIST_UCFG_SRC_SEL_MASK
 483              		.loc 1 866 5 view .LVU98
 484              		.loc 1 866 32 is_stmt 0 view .LVU99
 485 0000 044A     		ldr	r2, .L43
 486 0002 1378     		ldrb	r3, [r2]	@ zero_extendqisi2
 487              		.loc 1 866 56 view .LVU100
 488 0004 03F0FC03 		and	r3, r3, #252
 867:Generated_Source\PSoC5/CyLib.c ****                         (CY_LIB_CLKDIST_UCFG_SRC_SEL_MASK & source);
 489              		.loc 1 867 59 view .LVU101
 490 0008 00F00300 		and	r0, r0, #3
 491              	.LVL23:
 866:Generated_Source\PSoC5/CyLib.c ****     CY_LIB_CLKDIST_UCFG_REG = (CY_LIB_CLKDIST_UCFG_REG & ((uint8)(~CY_LIB_CLKDIST_UCFG_SRC_SEL_MASK
 492              		.loc 1 866 104 view .LVU102
 493 000c 0343     		orrs	r3, r3, r0
 866:Generated_Source\PSoC5/CyLib.c ****     CY_LIB_CLKDIST_UCFG_REG = (CY_LIB_CLKDIST_UCFG_REG & ((uint8)(~CY_LIB_CLKDIST_UCFG_SRC_SEL_MASK
 494              		.loc 1 866 29 view .LVU103
 495 000e 1370     		strb	r3, [r2]
 868:Generated_Source\PSoC5/CyLib.c **** }
 496              		.loc 1 868 1 view .LVU104
 497 0010 7047     		bx	lr
 498              	.L44:
 499 0012 00BF     		.align	2
 500              	.L43:
 501 0014 09400040 		.word	1073758217
 502              		.cfi_endproc
 503              	.LFE16:
 504              		.size	CyUsbClk_SetSource, .-CyUsbClk_SetSource
 505              		.section	.text.CyILO_Start1K,"ax",%progbits
 506              		.align	1
 507              		.global	CyILO_Start1K
 508              		.syntax unified
 509              		.thumb
 510              		.thumb_func
 511              		.fpu softvfp
 512              		.type	CyILO_Start1K, %function
 513              	CyILO_Start1K:
 514              	.LFB17:
ARM GAS  C:\Users\jens-\AppData\Local\Temp\ccdWTNhT.s 			page 26


 869:Generated_Source\PSoC5/CyLib.c **** 
 870:Generated_Source\PSoC5/CyLib.c **** 
 871:Generated_Source\PSoC5/CyLib.c **** /*******************************************************************************
 872:Generated_Source\PSoC5/CyLib.c **** * Function Name: CyILO_Start1K
 873:Generated_Source\PSoC5/CyLib.c **** ****************************************************************************//**
 874:Generated_Source\PSoC5/CyLib.c **** *
 875:Generated_Source\PSoC5/CyLib.c **** *  Enables the ILO 1 KHz oscillator.
 876:Generated_Source\PSoC5/CyLib.c **** *
 877:Generated_Source\PSoC5/CyLib.c **** *  Note The ILO 1 KHz oscillator is always enabled by default, regardless of the
 878:Generated_Source\PSoC5/CyLib.c **** *  selection in the Clock Editor. Therefore, this API is only needed if the
 879:Generated_Source\PSoC5/CyLib.c **** *  oscillator was turned off manually.
 880:Generated_Source\PSoC5/CyLib.c **** *
 881:Generated_Source\PSoC5/CyLib.c **** *******************************************************************************/
 882:Generated_Source\PSoC5/CyLib.c **** void CyILO_Start1K(void) 
 883:Generated_Source\PSoC5/CyLib.c **** {
 515              		.loc 1 883 1 is_stmt 1 view -0
 516              		.cfi_startproc
 517              		@ args = 0, pretend = 0, frame = 0
 518              		@ frame_needed = 0, uses_anonymous_args = 0
 519              		@ link register save eliminated.
 884:Generated_Source\PSoC5/CyLib.c ****     /* Set bit 1 of ILO RS */
 885:Generated_Source\PSoC5/CyLib.c ****     CY_LIB_SLOWCLK_ILO_CR0_REG |= CY_LIB_SLOWCLK_ILO_CR0_EN_1KHZ;
 520              		.loc 1 885 5 view .LVU106
 521              		.loc 1 885 32 is_stmt 0 view .LVU107
 522 0000 024A     		ldr	r2, .L46
 523 0002 1378     		ldrb	r3, [r2]	@ zero_extendqisi2
 524 0004 43F00203 		orr	r3, r3, #2
 525 0008 1370     		strb	r3, [r2]
 886:Generated_Source\PSoC5/CyLib.c **** }
 526              		.loc 1 886 1 view .LVU108
 527 000a 7047     		bx	lr
 528              	.L47:
 529              		.align	2
 530              	.L46:
 531 000c 00430040 		.word	1073758976
 532              		.cfi_endproc
 533              	.LFE17:
 534              		.size	CyILO_Start1K, .-CyILO_Start1K
 535              		.section	.text.CyILO_Stop1K,"ax",%progbits
 536              		.align	1
 537              		.global	CyILO_Stop1K
 538              		.syntax unified
 539              		.thumb
 540              		.thumb_func
 541              		.fpu softvfp
 542              		.type	CyILO_Stop1K, %function
 543              	CyILO_Stop1K:
 544              	.LFB18:
 887:Generated_Source\PSoC5/CyLib.c **** 
 888:Generated_Source\PSoC5/CyLib.c **** 
 889:Generated_Source\PSoC5/CyLib.c **** /*******************************************************************************
 890:Generated_Source\PSoC5/CyLib.c **** * Function Name: CyILO_Stop1K
 891:Generated_Source\PSoC5/CyLib.c **** ****************************************************************************//**
 892:Generated_Source\PSoC5/CyLib.c **** *
 893:Generated_Source\PSoC5/CyLib.c **** *  Disables the ILO 1 KHz oscillator.
 894:Generated_Source\PSoC5/CyLib.c **** *
 895:Generated_Source\PSoC5/CyLib.c **** *  Note The ILO 1 KHz oscillator must be enabled if the Sleep or Hibernate low
ARM GAS  C:\Users\jens-\AppData\Local\Temp\ccdWTNhT.s 			page 27


 896:Generated_Source\PSoC5/CyLib.c **** *  power mode APIs are expected to be used. For more information, refer to the
 897:Generated_Source\PSoC5/CyLib.c **** *  Power Management section of this document.
 898:Generated_Source\PSoC5/CyLib.c **** *
 899:Generated_Source\PSoC5/CyLib.c **** * \sideeffect
 900:Generated_Source\PSoC5/CyLib.c **** *  PSoC5: Stopping the ILO 1 kHz could break the active WDT functionality.
 901:Generated_Source\PSoC5/CyLib.c **** *
 902:Generated_Source\PSoC5/CyLib.c **** *******************************************************************************/
 903:Generated_Source\PSoC5/CyLib.c **** void CyILO_Stop1K(void) 
 904:Generated_Source\PSoC5/CyLib.c **** {
 545              		.loc 1 904 1 is_stmt 1 view -0
 546              		.cfi_startproc
 547              		@ args = 0, pretend = 0, frame = 0
 548              		@ frame_needed = 0, uses_anonymous_args = 0
 549              		@ link register save eliminated.
 905:Generated_Source\PSoC5/CyLib.c ****     /* Clear bit 1 of ILO RS */
 906:Generated_Source\PSoC5/CyLib.c ****     CY_LIB_SLOWCLK_ILO_CR0_REG &= ((uint8)(~CY_LIB_SLOWCLK_ILO_CR0_EN_1KHZ));
 550              		.loc 1 906 5 view .LVU110
 551              		.loc 1 906 32 is_stmt 0 view .LVU111
 552 0000 024A     		ldr	r2, .L49
 553 0002 1378     		ldrb	r3, [r2]	@ zero_extendqisi2
 554 0004 03F0FD03 		and	r3, r3, #253
 555 0008 1370     		strb	r3, [r2]
 907:Generated_Source\PSoC5/CyLib.c **** }
 556              		.loc 1 907 1 view .LVU112
 557 000a 7047     		bx	lr
 558              	.L50:
 559              		.align	2
 560              	.L49:
 561 000c 00430040 		.word	1073758976
 562              		.cfi_endproc
 563              	.LFE18:
 564              		.size	CyILO_Stop1K, .-CyILO_Stop1K
 565              		.section	.text.CyILO_Start100K,"ax",%progbits
 566              		.align	1
 567              		.global	CyILO_Start100K
 568              		.syntax unified
 569              		.thumb
 570              		.thumb_func
 571              		.fpu softvfp
 572              		.type	CyILO_Start100K, %function
 573              	CyILO_Start100K:
 574              	.LFB19:
 908:Generated_Source\PSoC5/CyLib.c **** 
 909:Generated_Source\PSoC5/CyLib.c **** 
 910:Generated_Source\PSoC5/CyLib.c **** /*******************************************************************************
 911:Generated_Source\PSoC5/CyLib.c **** * Function Name: CyILO_Start100K
 912:Generated_Source\PSoC5/CyLib.c **** ****************************************************************************//**
 913:Generated_Source\PSoC5/CyLib.c **** *
 914:Generated_Source\PSoC5/CyLib.c **** *  Enables the ILO 100 KHz oscillator.
 915:Generated_Source\PSoC5/CyLib.c **** *
 916:Generated_Source\PSoC5/CyLib.c **** *******************************************************************************/
 917:Generated_Source\PSoC5/CyLib.c **** void CyILO_Start100K(void) 
 918:Generated_Source\PSoC5/CyLib.c **** {
 575              		.loc 1 918 1 is_stmt 1 view -0
 576              		.cfi_startproc
 577              		@ args = 0, pretend = 0, frame = 0
 578              		@ frame_needed = 0, uses_anonymous_args = 0
ARM GAS  C:\Users\jens-\AppData\Local\Temp\ccdWTNhT.s 			page 28


 579              		@ link register save eliminated.
 919:Generated_Source\PSoC5/CyLib.c ****     CY_LIB_SLOWCLK_ILO_CR0_REG |= CY_LIB_SLOWCLK_ILO_CR0_EN_100KHZ;
 580              		.loc 1 919 5 view .LVU114
 581              		.loc 1 919 32 is_stmt 0 view .LVU115
 582 0000 024A     		ldr	r2, .L52
 583 0002 1378     		ldrb	r3, [r2]	@ zero_extendqisi2
 584 0004 43F00403 		orr	r3, r3, #4
 585 0008 1370     		strb	r3, [r2]
 920:Generated_Source\PSoC5/CyLib.c **** }
 586              		.loc 1 920 1 view .LVU116
 587 000a 7047     		bx	lr
 588              	.L53:
 589              		.align	2
 590              	.L52:
 591 000c 00430040 		.word	1073758976
 592              		.cfi_endproc
 593              	.LFE19:
 594              		.size	CyILO_Start100K, .-CyILO_Start100K
 595              		.section	.text.CyILO_Stop100K,"ax",%progbits
 596              		.align	1
 597              		.global	CyILO_Stop100K
 598              		.syntax unified
 599              		.thumb
 600              		.thumb_func
 601              		.fpu softvfp
 602              		.type	CyILO_Stop100K, %function
 603              	CyILO_Stop100K:
 604              	.LFB20:
 921:Generated_Source\PSoC5/CyLib.c **** 
 922:Generated_Source\PSoC5/CyLib.c **** 
 923:Generated_Source\PSoC5/CyLib.c **** /*******************************************************************************
 924:Generated_Source\PSoC5/CyLib.c **** * Function Name: CyILO_Stop100K
 925:Generated_Source\PSoC5/CyLib.c **** ****************************************************************************//**
 926:Generated_Source\PSoC5/CyLib.c **** *
 927:Generated_Source\PSoC5/CyLib.c **** *  Disables the ILO 100 KHz oscillator.
 928:Generated_Source\PSoC5/CyLib.c **** *
 929:Generated_Source\PSoC5/CyLib.c **** *******************************************************************************/
 930:Generated_Source\PSoC5/CyLib.c **** void CyILO_Stop100K(void) 
 931:Generated_Source\PSoC5/CyLib.c **** {
 605              		.loc 1 931 1 is_stmt 1 view -0
 606              		.cfi_startproc
 607              		@ args = 0, pretend = 0, frame = 0
 608              		@ frame_needed = 0, uses_anonymous_args = 0
 609              		@ link register save eliminated.
 932:Generated_Source\PSoC5/CyLib.c ****     CY_LIB_SLOWCLK_ILO_CR0_REG &= ((uint8)(~CY_LIB_SLOWCLK_ILO_CR0_EN_100KHZ));
 610              		.loc 1 932 5 view .LVU118
 611              		.loc 1 932 32 is_stmt 0 view .LVU119
 612 0000 024A     		ldr	r2, .L55
 613 0002 1378     		ldrb	r3, [r2]	@ zero_extendqisi2
 614 0004 03F0FB03 		and	r3, r3, #251
 615 0008 1370     		strb	r3, [r2]
 933:Generated_Source\PSoC5/CyLib.c **** }
 616              		.loc 1 933 1 view .LVU120
 617 000a 7047     		bx	lr
 618              	.L56:
 619              		.align	2
 620              	.L55:
ARM GAS  C:\Users\jens-\AppData\Local\Temp\ccdWTNhT.s 			page 29


 621 000c 00430040 		.word	1073758976
 622              		.cfi_endproc
 623              	.LFE20:
 624              		.size	CyILO_Stop100K, .-CyILO_Stop100K
 625              		.section	.text.CyPLL_OUT_Start,"ax",%progbits
 626              		.align	1
 627              		.global	CyPLL_OUT_Start
 628              		.syntax unified
 629              		.thumb
 630              		.thumb_func
 631              		.fpu softvfp
 632              		.type	CyPLL_OUT_Start, %function
 633              	CyPLL_OUT_Start:
 634              	.LVL24:
 635              	.LFB0:
  98:Generated_Source\PSoC5/CyLib.c ****     cystatus status = CYRET_SUCCESS;
 636              		.loc 1 98 1 is_stmt 1 view -0
 637              		.cfi_startproc
 638              		@ args = 0, pretend = 0, frame = 0
 639              		@ frame_needed = 0, uses_anonymous_args = 0
  98:Generated_Source\PSoC5/CyLib.c ****     cystatus status = CYRET_SUCCESS;
 640              		.loc 1 98 1 is_stmt 0 view .LVU122
 641 0000 F8B5     		push	{r3, r4, r5, r6, r7, lr}
 642              		.cfi_def_cfa_offset 24
 643              		.cfi_offset 3, -24
 644              		.cfi_offset 4, -20
 645              		.cfi_offset 5, -16
 646              		.cfi_offset 6, -12
 647              		.cfi_offset 7, -8
 648              		.cfi_offset 14, -4
  99:Generated_Source\PSoC5/CyLib.c **** 
 649              		.loc 1 99 5 is_stmt 1 view .LVU123
 650              	.LVL25:
 101:Generated_Source\PSoC5/CyLib.c ****     uint8 pmTwCfg0State;
 651              		.loc 1 101 5 view .LVU124
 102:Generated_Source\PSoC5/CyLib.c ****     uint8 pmTwCfg2State;
 652              		.loc 1 102 5 view .LVU125
 103:Generated_Source\PSoC5/CyLib.c **** 
 653              		.loc 1 103 5 view .LVU126
 107:Generated_Source\PSoC5/CyLib.c **** 
 654              		.loc 1 107 5 view .LVU127
 107:Generated_Source\PSoC5/CyLib.c **** 
 655              		.loc 1 107 25 is_stmt 0 view .LVU128
 656 0002 194A     		ldr	r2, .L69
 657 0004 1378     		ldrb	r3, [r2]	@ zero_extendqisi2
 658 0006 43F00103 		orr	r3, r3, #1
 659 000a 1370     		strb	r3, [r2]
 109:Generated_Source\PSoC5/CyLib.c ****     {
 660              		.loc 1 109 5 is_stmt 1 view .LVU129
 109:Generated_Source\PSoC5/CyLib.c ****     {
 661              		.loc 1 109 7 is_stmt 0 view .LVU130
 662 000c 10B9     		cbnz	r0, .L66
  99:Generated_Source\PSoC5/CyLib.c **** 
 663              		.loc 1 99 14 view .LVU131
 664 000e 0027     		movs	r7, #0
 143:Generated_Source\PSoC5/CyLib.c **** }
 665              		.loc 1 143 5 is_stmt 1 view .LVU132
ARM GAS  C:\Users\jens-\AppData\Local\Temp\ccdWTNhT.s 			page 30


 666              	.LVL26:
 667              	.L57:
 144:Generated_Source\PSoC5/CyLib.c **** 
 668              		.loc 1 144 1 is_stmt 0 view .LVU133
 669 0010 3846     		mov	r0, r7
 670 0012 F8BD     		pop	{r3, r4, r5, r6, r7, pc}
 671              	.LVL27:
 672              	.L66:
 112:Generated_Source\PSoC5/CyLib.c ****         pmTwCfg0State = CY_LIB_PM_TW_CFG0_REG;
 673              		.loc 1 112 9 is_stmt 1 view .LVU134
 112:Generated_Source\PSoC5/CyLib.c ****         pmTwCfg0State = CY_LIB_PM_TW_CFG0_REG;
 674              		.loc 1 112 26 is_stmt 0 view .LVU135
 675 0014 154B     		ldr	r3, .L69+4
 676 0016 1E78     		ldrb	r6, [r3]	@ zero_extendqisi2
 112:Generated_Source\PSoC5/CyLib.c ****         pmTwCfg0State = CY_LIB_PM_TW_CFG0_REG;
 677              		.loc 1 112 24 view .LVU136
 678 0018 06F00406 		and	r6, r6, #4
 679              	.LVL28:
 113:Generated_Source\PSoC5/CyLib.c ****         pmTwCfg2State = CY_LIB_PM_TW_CFG2_REG;
 680              		.loc 1 113 9 is_stmt 1 view .LVU137
 113:Generated_Source\PSoC5/CyLib.c ****         pmTwCfg2State = CY_LIB_PM_TW_CFG2_REG;
 681              		.loc 1 113 23 is_stmt 0 view .LVU138
 682 001c 8033     		adds	r3, r3, #128
 683 001e 1D78     		ldrb	r5, [r3]	@ zero_extendqisi2
 684 0020 EDB2     		uxtb	r5, r5
 685              	.LVL29:
 114:Generated_Source\PSoC5/CyLib.c **** 
 686              		.loc 1 114 9 is_stmt 1 view .LVU139
 114:Generated_Source\PSoC5/CyLib.c **** 
 687              		.loc 1 114 23 is_stmt 0 view .LVU140
 688 0022 0233     		adds	r3, r3, #2
 689 0024 1C78     		ldrb	r4, [r3]	@ zero_extendqisi2
 690 0026 E4B2     		uxtb	r4, r4
 691              	.LVL30:
 116:Generated_Source\PSoC5/CyLib.c **** 
 692              		.loc 1 116 9 is_stmt 1 view .LVU141
 693 0028 1820     		movs	r0, #24
 694              	.LVL31:
 116:Generated_Source\PSoC5/CyLib.c **** 
 695              		.loc 1 116 9 is_stmt 0 view .LVU142
 696 002a FFF7FEFF 		bl	CyPmFtwSetInterval
 697              	.LVL32:
 118:Generated_Source\PSoC5/CyLib.c **** 
 698              		.loc 1 118 9 is_stmt 1 view .LVU143
 120:Generated_Source\PSoC5/CyLib.c ****         {
 699              		.loc 1 120 9 view .LVU144
 700              	.L59:
 120:Generated_Source\PSoC5/CyLib.c ****         {
 701              		.loc 1 120 14 view .LVU145
 120:Generated_Source\PSoC5/CyLib.c ****         {
 702              		.loc 1 120 38 is_stmt 0 view .LVU146
 703 002e 0120     		movs	r0, #1
 704 0030 FFF7FEFF 		bl	CyPmReadStatus
 705              	.LVL33:
 120:Generated_Source\PSoC5/CyLib.c ****         {
 706              		.loc 1 120 14 view .LVU147
 707 0034 10F0010F 		tst	r0, #1
ARM GAS  C:\Users\jens-\AppData\Local\Temp\ccdWTNhT.s 			page 31


 708 0038 0BD1     		bne	.L67
 123:Generated_Source\PSoC5/CyLib.c ****             {
 709              		.loc 1 123 13 is_stmt 1 view .LVU148
 123:Generated_Source\PSoC5/CyLib.c ****             {
 710              		.loc 1 123 23 is_stmt 0 view .LVU149
 711 003a 0D4B     		ldr	r3, .L69+8
 712 003c 1B78     		ldrb	r3, [r3]	@ zero_extendqisi2
 123:Generated_Source\PSoC5/CyLib.c ****             {
 713              		.loc 1 123 15 view .LVU150
 714 003e 13F0010F 		tst	r3, #1
 715 0042 F4D0     		beq	.L59
 125:Generated_Source\PSoC5/CyLib.c ****                 {
 716              		.loc 1 125 17 is_stmt 1 view .LVU151
 125:Generated_Source\PSoC5/CyLib.c ****                 {
 717              		.loc 1 125 27 is_stmt 0 view .LVU152
 718 0044 0A4B     		ldr	r3, .L69+8
 719 0046 1B78     		ldrb	r3, [r3]	@ zero_extendqisi2
 125:Generated_Source\PSoC5/CyLib.c ****                 {
 720              		.loc 1 125 19 view .LVU153
 721 0048 13F0010F 		tst	r3, #1
 722 004c EFD0     		beq	.L59
 127:Generated_Source\PSoC5/CyLib.c ****                     break;
 723              		.loc 1 127 28 view .LVU154
 724 004e 0027     		movs	r7, #0
 725 0050 00E0     		b	.L60
 726              	.L67:
 118:Generated_Source\PSoC5/CyLib.c **** 
 727              		.loc 1 118 16 view .LVU155
 728 0052 1027     		movs	r7, #16
 729              	.L60:
 730              	.LVL34:
 134:Generated_Source\PSoC5/CyLib.c ****         {
 731              		.loc 1 134 9 is_stmt 1 view .LVU156
 134:Generated_Source\PSoC5/CyLib.c ****         {
 732              		.loc 1 134 11 is_stmt 0 view .LVU157
 733 0054 26B1     		cbz	r6, .L68
 734              	.L62:
 139:Generated_Source\PSoC5/CyLib.c ****         CY_LIB_PM_TW_CFG2_REG = pmTwCfg2State;
 735              		.loc 1 139 9 is_stmt 1 view .LVU158
 139:Generated_Source\PSoC5/CyLib.c ****         CY_LIB_PM_TW_CFG2_REG = pmTwCfg2State;
 736              		.loc 1 139 31 is_stmt 0 view .LVU159
 737 0056 074B     		ldr	r3, .L69+12
 738 0058 1D70     		strb	r5, [r3]
 140:Generated_Source\PSoC5/CyLib.c ****     }
 739              		.loc 1 140 9 is_stmt 1 view .LVU160
 140:Generated_Source\PSoC5/CyLib.c ****     }
 740              		.loc 1 140 31 is_stmt 0 view .LVU161
 741 005a 0233     		adds	r3, r3, #2
 742 005c 1C70     		strb	r4, [r3]
 743 005e D7E7     		b	.L57
 744              	.L68:
 136:Generated_Source\PSoC5/CyLib.c ****         }
 745              		.loc 1 136 13 is_stmt 1 view .LVU162
 746 0060 FFF7FEFF 		bl	CyILO_Stop100K
 747              	.LVL35:
 748 0064 F7E7     		b	.L62
 749              	.L70:
ARM GAS  C:\Users\jens-\AppData\Local\Temp\ccdWTNhT.s 			page 32


 750 0066 00BF     		.align	2
 751              	.L69:
 752 0068 20420040 		.word	1073758752
 753 006c 00430040 		.word	1073758976
 754 0070 25420040 		.word	1073758757
 755 0074 80430040 		.word	1073759104
 756              		.cfi_endproc
 757              	.LFE0:
 758              		.size	CyPLL_OUT_Start, .-CyPLL_OUT_Start
 759              		.section	.text.CyIMO_Start,"ax",%progbits
 760              		.align	1
 761              		.global	CyIMO_Start
 762              		.syntax unified
 763              		.thumb
 764              		.thumb_func
 765              		.fpu softvfp
 766              		.type	CyIMO_Start, %function
 767              	CyIMO_Start:
 768              	.LVL36:
 769              	.LFB4:
 283:Generated_Source\PSoC5/CyLib.c ****     uint8 pmFtwCfg2Reg;
 770              		.loc 1 283 1 view -0
 771              		.cfi_startproc
 772              		@ args = 0, pretend = 0, frame = 0
 773              		@ frame_needed = 0, uses_anonymous_args = 0
 284:Generated_Source\PSoC5/CyLib.c ****     uint8 pmFtwCfg0Reg;
 774              		.loc 1 284 5 view .LVU164
 285:Generated_Source\PSoC5/CyLib.c ****     uint8 ilo100KhzEnable;
 775              		.loc 1 285 5 view .LVU165
 286:Generated_Source\PSoC5/CyLib.c **** 
 776              		.loc 1 286 5 view .LVU166
 289:Generated_Source\PSoC5/CyLib.c ****     CY_LIB_PM_STBY_CFG0_REG |= CY_LIB_PM_STBY_CFG0_IMO_EN;
 777              		.loc 1 289 5 view .LVU167
 289:Generated_Source\PSoC5/CyLib.c ****     CY_LIB_PM_STBY_CFG0_REG |= CY_LIB_PM_STBY_CFG0_IMO_EN;
 778              		.loc 1 289 29 is_stmt 0 view .LVU168
 779 0000 144A     		ldr	r2, .L81
 780 0002 1378     		ldrb	r3, [r2]	@ zero_extendqisi2
 781 0004 43F01003 		orr	r3, r3, #16
 782 0008 1370     		strb	r3, [r2]
 290:Generated_Source\PSoC5/CyLib.c **** 
 783              		.loc 1 290 5 is_stmt 1 view .LVU169
 290:Generated_Source\PSoC5/CyLib.c **** 
 784              		.loc 1 290 29 is_stmt 0 view .LVU170
 785 000a 1032     		adds	r2, r2, #16
 786 000c 1378     		ldrb	r3, [r2]	@ zero_extendqisi2
 787 000e 43F01003 		orr	r3, r3, #16
 788 0012 1370     		strb	r3, [r2]
 292:Generated_Source\PSoC5/CyLib.c ****     {
 789              		.loc 1 292 5 is_stmt 1 view .LVU171
 292:Generated_Source\PSoC5/CyLib.c ****     {
 790              		.loc 1 292 7 is_stmt 0 view .LVU172
 791 0014 00B9     		cbnz	r0, .L79
 792 0016 7047     		bx	lr
 793              	.L79:
 283:Generated_Source\PSoC5/CyLib.c ****     uint8 pmFtwCfg2Reg;
 794              		.loc 1 283 1 view .LVU173
 795 0018 70B5     		push	{r4, r5, r6, lr}
ARM GAS  C:\Users\jens-\AppData\Local\Temp\ccdWTNhT.s 			page 33


 796              		.cfi_def_cfa_offset 16
 797              		.cfi_offset 4, -16
 798              		.cfi_offset 5, -12
 799              		.cfi_offset 6, -8
 800              		.cfi_offset 14, -4
 295:Generated_Source\PSoC5/CyLib.c ****         pmFtwCfg0Reg = CY_LIB_PM_TW_CFG0_REG;
 801              		.loc 1 295 9 is_stmt 1 view .LVU174
 295:Generated_Source\PSoC5/CyLib.c ****         pmFtwCfg0Reg = CY_LIB_PM_TW_CFG0_REG;
 802              		.loc 1 295 27 is_stmt 0 view .LVU175
 803 001a 0F4B     		ldr	r3, .L81+4
 804 001c 1E78     		ldrb	r6, [r3]	@ zero_extendqisi2
 295:Generated_Source\PSoC5/CyLib.c ****         pmFtwCfg0Reg = CY_LIB_PM_TW_CFG0_REG;
 805              		.loc 1 295 25 view .LVU176
 806 001e 06F00406 		and	r6, r6, #4
 807              	.LVL37:
 296:Generated_Source\PSoC5/CyLib.c ****         pmFtwCfg2Reg = CY_LIB_PM_TW_CFG2_REG;
 808              		.loc 1 296 9 is_stmt 1 view .LVU177
 296:Generated_Source\PSoC5/CyLib.c ****         pmFtwCfg2Reg = CY_LIB_PM_TW_CFG2_REG;
 809              		.loc 1 296 22 is_stmt 0 view .LVU178
 810 0022 8033     		adds	r3, r3, #128
 811 0024 1D78     		ldrb	r5, [r3]	@ zero_extendqisi2
 812 0026 EDB2     		uxtb	r5, r5
 813              	.LVL38:
 297:Generated_Source\PSoC5/CyLib.c **** 
 814              		.loc 1 297 9 is_stmt 1 view .LVU179
 297:Generated_Source\PSoC5/CyLib.c **** 
 815              		.loc 1 297 22 is_stmt 0 view .LVU180
 816 0028 0233     		adds	r3, r3, #2
 817 002a 1C78     		ldrb	r4, [r3]	@ zero_extendqisi2
 818 002c E4B2     		uxtb	r4, r4
 819              	.LVL39:
 299:Generated_Source\PSoC5/CyLib.c **** 
 820              		.loc 1 299 9 is_stmt 1 view .LVU181
 821 002e 0020     		movs	r0, #0
 822              	.LVL40:
 299:Generated_Source\PSoC5/CyLib.c **** 
 823              		.loc 1 299 9 is_stmt 0 view .LVU182
 824 0030 FFF7FEFF 		bl	CyPmFtwSetInterval
 825              	.LVL41:
 301:Generated_Source\PSoC5/CyLib.c ****         {
 826              		.loc 1 301 9 is_stmt 1 view .LVU183
 827              	.L73:
 304:Generated_Source\PSoC5/CyLib.c **** 
 828              		.loc 1 304 9 discriminator 1 view .LVU184
 301:Generated_Source\PSoC5/CyLib.c ****         {
 829              		.loc 1 301 15 discriminator 1 view .LVU185
 301:Generated_Source\PSoC5/CyLib.c ****         {
 830              		.loc 1 301 39 is_stmt 0 discriminator 1 view .LVU186
 831 0034 0120     		movs	r0, #1
 832 0036 FFF7FEFF 		bl	CyPmReadStatus
 833              	.LVL42:
 301:Generated_Source\PSoC5/CyLib.c ****         {
 834              		.loc 1 301 15 discriminator 1 view .LVU187
 835 003a 10F0010F 		tst	r0, #1
 836 003e F9D0     		beq	.L73
 306:Generated_Source\PSoC5/CyLib.c ****         {
 837              		.loc 1 306 9 is_stmt 1 view .LVU188
ARM GAS  C:\Users\jens-\AppData\Local\Temp\ccdWTNhT.s 			page 34


 306:Generated_Source\PSoC5/CyLib.c ****         {
 838              		.loc 1 306 11 is_stmt 0 view .LVU189
 839 0040 26B1     		cbz	r6, .L80
 840              	.L74:
 311:Generated_Source\PSoC5/CyLib.c ****         CY_LIB_PM_TW_CFG2_REG = pmFtwCfg2Reg;
 841              		.loc 1 311 9 is_stmt 1 view .LVU190
 311:Generated_Source\PSoC5/CyLib.c ****         CY_LIB_PM_TW_CFG2_REG = pmFtwCfg2Reg;
 842              		.loc 1 311 31 is_stmt 0 view .LVU191
 843 0042 064B     		ldr	r3, .L81+8
 844 0044 1D70     		strb	r5, [r3]
 312:Generated_Source\PSoC5/CyLib.c ****     }
 845              		.loc 1 312 9 is_stmt 1 view .LVU192
 312:Generated_Source\PSoC5/CyLib.c ****     }
 846              		.loc 1 312 31 is_stmt 0 view .LVU193
 847 0046 0233     		adds	r3, r3, #2
 848 0048 1C70     		strb	r4, [r3]
 314:Generated_Source\PSoC5/CyLib.c **** 
 849              		.loc 1 314 1 view .LVU194
 850 004a 70BD     		pop	{r4, r5, r6, pc}
 851              	.LVL43:
 852              	.L80:
 308:Generated_Source\PSoC5/CyLib.c ****         }
 853              		.loc 1 308 13 is_stmt 1 view .LVU195
 854 004c FFF7FEFF 		bl	CyILO_Stop100K
 855              	.LVL44:
 856 0050 F7E7     		b	.L74
 857              	.L82:
 858 0052 00BF     		.align	2
 859              	.L81:
 860 0054 A0430040 		.word	1073759136
 861 0058 00430040 		.word	1073758976
 862 005c 80430040 		.word	1073759104
 863              		.cfi_endproc
 864              	.LFE4:
 865              		.size	CyIMO_Start, .-CyIMO_Start
 866              		.section	.text.CyILO_Enable33K,"ax",%progbits
 867              		.align	1
 868              		.global	CyILO_Enable33K
 869              		.syntax unified
 870              		.thumb
 871              		.thumb_func
 872              		.fpu softvfp
 873              		.type	CyILO_Enable33K, %function
 874              	CyILO_Enable33K:
 875              	.LFB21:
 934:Generated_Source\PSoC5/CyLib.c **** 
 935:Generated_Source\PSoC5/CyLib.c **** 
 936:Generated_Source\PSoC5/CyLib.c **** /*******************************************************************************
 937:Generated_Source\PSoC5/CyLib.c **** * Function Name: CyILO_Enable33K
 938:Generated_Source\PSoC5/CyLib.c **** ****************************************************************************//**
 939:Generated_Source\PSoC5/CyLib.c **** *
 940:Generated_Source\PSoC5/CyLib.c **** *  Enables the ILO 33 KHz divider.
 941:Generated_Source\PSoC5/CyLib.c **** *
 942:Generated_Source\PSoC5/CyLib.c **** *  Note that the 33 KHz clock is generated from the 100 KHz oscillator,
 943:Generated_Source\PSoC5/CyLib.c **** *  so it must also be running in order to generate the 33 KHz output.
 944:Generated_Source\PSoC5/CyLib.c **** *
 945:Generated_Source\PSoC5/CyLib.c **** *******************************************************************************/
ARM GAS  C:\Users\jens-\AppData\Local\Temp\ccdWTNhT.s 			page 35


 946:Generated_Source\PSoC5/CyLib.c **** void CyILO_Enable33K(void) 
 947:Generated_Source\PSoC5/CyLib.c **** {
 876              		.loc 1 947 1 view -0
 877              		.cfi_startproc
 878              		@ args = 0, pretend = 0, frame = 0
 879              		@ frame_needed = 0, uses_anonymous_args = 0
 880              		@ link register save eliminated.
 948:Generated_Source\PSoC5/CyLib.c ****     /* Set bit 5 of ILO RS */
 949:Generated_Source\PSoC5/CyLib.c ****     CY_LIB_SLOWCLK_ILO_CR0_REG |= CY_LIB_SLOWCLK_ILO_CR0_EN_33KHZ;
 881              		.loc 1 949 5 view .LVU197
 882              		.loc 1 949 32 is_stmt 0 view .LVU198
 883 0000 024A     		ldr	r2, .L84
 884 0002 1378     		ldrb	r3, [r2]	@ zero_extendqisi2
 885 0004 43F02003 		orr	r3, r3, #32
 886 0008 1370     		strb	r3, [r2]
 950:Generated_Source\PSoC5/CyLib.c **** }
 887              		.loc 1 950 1 view .LVU199
 888 000a 7047     		bx	lr
 889              	.L85:
 890              		.align	2
 891              	.L84:
 892 000c 00430040 		.word	1073758976
 893              		.cfi_endproc
 894              	.LFE21:
 895              		.size	CyILO_Enable33K, .-CyILO_Enable33K
 896              		.section	.text.CyILO_Disable33K,"ax",%progbits
 897              		.align	1
 898              		.global	CyILO_Disable33K
 899              		.syntax unified
 900              		.thumb
 901              		.thumb_func
 902              		.fpu softvfp
 903              		.type	CyILO_Disable33K, %function
 904              	CyILO_Disable33K:
 905              	.LFB22:
 951:Generated_Source\PSoC5/CyLib.c **** 
 952:Generated_Source\PSoC5/CyLib.c **** 
 953:Generated_Source\PSoC5/CyLib.c **** /*******************************************************************************
 954:Generated_Source\PSoC5/CyLib.c **** * Function Name: CyILO_Disable33K
 955:Generated_Source\PSoC5/CyLib.c **** ****************************************************************************//**
 956:Generated_Source\PSoC5/CyLib.c **** *
 957:Generated_Source\PSoC5/CyLib.c **** *  Disables the ILO 33 KHz divider.
 958:Generated_Source\PSoC5/CyLib.c **** *
 959:Generated_Source\PSoC5/CyLib.c **** *  Note that the 33 KHz clock is generated from the 100 KHz oscillator, but this
 960:Generated_Source\PSoC5/CyLib.c **** *  API does not disable the 100 KHz clock.
 961:Generated_Source\PSoC5/CyLib.c **** *
 962:Generated_Source\PSoC5/CyLib.c **** *******************************************************************************/
 963:Generated_Source\PSoC5/CyLib.c **** void CyILO_Disable33K(void) 
 964:Generated_Source\PSoC5/CyLib.c **** {
 906              		.loc 1 964 1 is_stmt 1 view -0
 907              		.cfi_startproc
 908              		@ args = 0, pretend = 0, frame = 0
 909              		@ frame_needed = 0, uses_anonymous_args = 0
 910              		@ link register save eliminated.
 965:Generated_Source\PSoC5/CyLib.c ****     CY_LIB_SLOWCLK_ILO_CR0_REG &= ((uint8)(~CY_LIB_SLOWCLK_ILO_CR0_EN_33KHZ));
 911              		.loc 1 965 5 view .LVU201
 912              		.loc 1 965 32 is_stmt 0 view .LVU202
ARM GAS  C:\Users\jens-\AppData\Local\Temp\ccdWTNhT.s 			page 36


 913 0000 024A     		ldr	r2, .L87
 914 0002 1378     		ldrb	r3, [r2]	@ zero_extendqisi2
 915 0004 03F0DF03 		and	r3, r3, #223
 916 0008 1370     		strb	r3, [r2]
 966:Generated_Source\PSoC5/CyLib.c **** }
 917              		.loc 1 966 1 view .LVU203
 918 000a 7047     		bx	lr
 919              	.L88:
 920              		.align	2
 921              	.L87:
 922 000c 00430040 		.word	1073758976
 923              		.cfi_endproc
 924              	.LFE22:
 925              		.size	CyILO_Disable33K, .-CyILO_Disable33K
 926              		.section	.text.CyILO_SetSource,"ax",%progbits
 927              		.align	1
 928              		.global	CyILO_SetSource
 929              		.syntax unified
 930              		.thumb
 931              		.thumb_func
 932              		.fpu softvfp
 933              		.type	CyILO_SetSource, %function
 934              	CyILO_SetSource:
 935              	.LVL45:
 936              	.LFB23:
 967:Generated_Source\PSoC5/CyLib.c **** 
 968:Generated_Source\PSoC5/CyLib.c **** 
 969:Generated_Source\PSoC5/CyLib.c **** /*******************************************************************************
 970:Generated_Source\PSoC5/CyLib.c **** * Function Name: CyILO_SetSource
 971:Generated_Source\PSoC5/CyLib.c **** ****************************************************************************//**
 972:Generated_Source\PSoC5/CyLib.c **** *
 973:Generated_Source\PSoC5/CyLib.c **** *  Sets the source of the clock output from the ILO block.
 974:Generated_Source\PSoC5/CyLib.c **** *
 975:Generated_Source\PSoC5/CyLib.c **** *  \param source: One of the three available ILO output sources
 976:Generated_Source\PSoC5/CyLib.c **** *       Value        Define                Source
 977:Generated_Source\PSoC5/CyLib.c **** *       0            CY_ILO_SOURCE_100K    ILO 100 KHz
 978:Generated_Source\PSoC5/CyLib.c **** *       1            CY_ILO_SOURCE_33K     ILO 33 KHz
 979:Generated_Source\PSoC5/CyLib.c **** *       2            CY_ILO_SOURCE_1K      ILO 1 KHz
 980:Generated_Source\PSoC5/CyLib.c **** *
 981:Generated_Source\PSoC5/CyLib.c **** *******************************************************************************/
 982:Generated_Source\PSoC5/CyLib.c **** void CyILO_SetSource(uint8 source) 
 983:Generated_Source\PSoC5/CyLib.c **** {
 937              		.loc 1 983 1 is_stmt 1 view -0
 938              		.cfi_startproc
 939              		@ args = 0, pretend = 0, frame = 0
 940              		@ frame_needed = 0, uses_anonymous_args = 0
 941              		@ link register save eliminated.
 984:Generated_Source\PSoC5/CyLib.c ****     CY_LIB_CLKDIST_CR_REG = (CY_LIB_CLKDIST_CR_REG & CY_ILO_SOURCE_BITS_CLEAR) |
 942              		.loc 1 984 5 view .LVU205
 943              		.loc 1 984 30 is_stmt 0 view .LVU206
 944 0000 4FF04022 		mov	r2, #1073758208
 945 0004 1378     		ldrb	r3, [r2]	@ zero_extendqisi2
 946              		.loc 1 984 52 view .LVU207
 947 0006 03F0F303 		and	r3, r3, #243
 985:Generated_Source\PSoC5/CyLib.c ****                     (((uint8) (source << 2u)) & ((uint8)(~CY_ILO_SOURCE_BITS_CLEAR)));
 948              		.loc 1 985 23 view .LVU208
 949 000a 8000     		lsls	r0, r0, #2
ARM GAS  C:\Users\jens-\AppData\Local\Temp\ccdWTNhT.s 			page 37


 950              	.LVL46:
 951              		.loc 1 985 47 view .LVU209
 952 000c 00F00C00 		and	r0, r0, #12
 984:Generated_Source\PSoC5/CyLib.c ****     CY_LIB_CLKDIST_CR_REG = (CY_LIB_CLKDIST_CR_REG & CY_ILO_SOURCE_BITS_CLEAR) |
 953              		.loc 1 984 80 view .LVU210
 954 0010 0343     		orrs	r3, r3, r0
 984:Generated_Source\PSoC5/CyLib.c ****     CY_LIB_CLKDIST_CR_REG = (CY_LIB_CLKDIST_CR_REG & CY_ILO_SOURCE_BITS_CLEAR) |
 955              		.loc 1 984 27 view .LVU211
 956 0012 1370     		strb	r3, [r2]
 986:Generated_Source\PSoC5/CyLib.c **** }
 957              		.loc 1 986 1 view .LVU212
 958 0014 7047     		bx	lr
 959              		.cfi_endproc
 960              	.LFE23:
 961              		.size	CyILO_SetSource, .-CyILO_SetSource
 962              		.section	.text.CyILO_SetPowerMode,"ax",%progbits
 963              		.align	1
 964              		.global	CyILO_SetPowerMode
 965              		.syntax unified
 966              		.thumb
 967              		.thumb_func
 968              		.fpu softvfp
 969              		.type	CyILO_SetPowerMode, %function
 970              	CyILO_SetPowerMode:
 971              	.LVL47:
 972              	.LFB24:
 987:Generated_Source\PSoC5/CyLib.c **** 
 988:Generated_Source\PSoC5/CyLib.c **** 
 989:Generated_Source\PSoC5/CyLib.c **** /*******************************************************************************
 990:Generated_Source\PSoC5/CyLib.c **** * Function Name: CyILO_SetPowerMode
 991:Generated_Source\PSoC5/CyLib.c **** ****************************************************************************//**
 992:Generated_Source\PSoC5/CyLib.c **** *
 993:Generated_Source\PSoC5/CyLib.c **** * Sets the power mode used by the ILO during power down. Allows for lower power
 994:Generated_Source\PSoC5/CyLib.c **** * down power usage resulting in a slower startup time.
 995:Generated_Source\PSoC5/CyLib.c **** *
 996:Generated_Source\PSoC5/CyLib.c **** * \param mode
 997:Generated_Source\PSoC5/CyLib.c **** * CY_ILO_FAST_START - Faster start-up, internal bias left on when powered down
 998:Generated_Source\PSoC5/CyLib.c **** * CY_ILO_SLOW_START - Slower start-up, internal bias off when powered down
 999:Generated_Source\PSoC5/CyLib.c **** *
1000:Generated_Source\PSoC5/CyLib.c **** * \return Prevous power mode state.
1001:Generated_Source\PSoC5/CyLib.c **** *
1002:Generated_Source\PSoC5/CyLib.c **** *******************************************************************************/
1003:Generated_Source\PSoC5/CyLib.c **** uint8 CyILO_SetPowerMode(uint8 mode) 
1004:Generated_Source\PSoC5/CyLib.c **** {
 973              		.loc 1 1004 1 is_stmt 1 view -0
 974              		.cfi_startproc
 975              		@ args = 0, pretend = 0, frame = 0
 976              		@ frame_needed = 0, uses_anonymous_args = 0
 977              		@ link register save eliminated.
1005:Generated_Source\PSoC5/CyLib.c ****     uint8 state;
 978              		.loc 1 1005 5 view .LVU214
1006:Generated_Source\PSoC5/CyLib.c **** 
1007:Generated_Source\PSoC5/CyLib.c ****     /* Get current state. */
1008:Generated_Source\PSoC5/CyLib.c ****     state = CY_LIB_SLOWCLK_ILO_CR0_REG;
 979              		.loc 1 1008 5 view .LVU215
 980              		.loc 1 1008 11 is_stmt 0 view .LVU216
 981 0000 074B     		ldr	r3, .L93
ARM GAS  C:\Users\jens-\AppData\Local\Temp\ccdWTNhT.s 			page 38


 982 0002 1B78     		ldrb	r3, [r3]	@ zero_extendqisi2
 983 0004 DBB2     		uxtb	r3, r3
 984              	.LVL48:
1009:Generated_Source\PSoC5/CyLib.c **** 
1010:Generated_Source\PSoC5/CyLib.c ****     /* Set the oscillator power mode. */
1011:Generated_Source\PSoC5/CyLib.c ****     if(mode != CY_ILO_FAST_START)
 985              		.loc 1 1011 5 is_stmt 1 view .LVU217
 986              		.loc 1 1011 7 is_stmt 0 view .LVU218
 987 0006 30B1     		cbz	r0, .L91
1012:Generated_Source\PSoC5/CyLib.c ****     {
1013:Generated_Source\PSoC5/CyLib.c ****         CY_LIB_SLOWCLK_ILO_CR0_REG = (state | CY_ILO_CONTROL_PD_MODE);
 988              		.loc 1 1013 9 is_stmt 1 view .LVU219
 989              		.loc 1 1013 36 is_stmt 0 view .LVU220
 990 0008 43F01002 		orr	r2, r3, #16
 991 000c 0449     		ldr	r1, .L93
 992 000e 0A70     		strb	r2, [r1]
 993              	.L92:
1014:Generated_Source\PSoC5/CyLib.c ****     }
1015:Generated_Source\PSoC5/CyLib.c ****     else
1016:Generated_Source\PSoC5/CyLib.c ****     {
1017:Generated_Source\PSoC5/CyLib.c ****         CY_LIB_SLOWCLK_ILO_CR0_REG = (state & ((uint8)(~CY_ILO_CONTROL_PD_MODE)));
1018:Generated_Source\PSoC5/CyLib.c ****     }
1019:Generated_Source\PSoC5/CyLib.c **** 
1020:Generated_Source\PSoC5/CyLib.c ****     /* Return old mode. */
1021:Generated_Source\PSoC5/CyLib.c ****     return ((state & CY_ILO_CONTROL_PD_MODE) >> CY_ILO_CONTROL_PD_POSITION);
 994              		.loc 1 1021 5 is_stmt 1 view .LVU221
1022:Generated_Source\PSoC5/CyLib.c **** }
 995              		.loc 1 1022 1 is_stmt 0 view .LVU222
 996 0010 C3F30010 		ubfx	r0, r3, #4, #1
 997              	.LVL49:
 998              		.loc 1 1022 1 view .LVU223
 999 0014 7047     		bx	lr
 1000              	.LVL50:
 1001              	.L91:
1017:Generated_Source\PSoC5/CyLib.c ****     }
 1002              		.loc 1 1017 9 is_stmt 1 view .LVU224
1017:Generated_Source\PSoC5/CyLib.c ****     }
 1003              		.loc 1 1017 45 is_stmt 0 view .LVU225
 1004 0016 03F0EF02 		and	r2, r3, #239
1017:Generated_Source\PSoC5/CyLib.c ****     }
 1005              		.loc 1 1017 36 view .LVU226
 1006 001a 0149     		ldr	r1, .L93
 1007 001c 0A70     		strb	r2, [r1]
 1008 001e F7E7     		b	.L92
 1009              	.L94:
 1010              		.align	2
 1011              	.L93:
 1012 0020 00430040 		.word	1073758976
 1013              		.cfi_endproc
 1014              	.LFE24:
 1015              		.size	CyILO_SetPowerMode, .-CyILO_SetPowerMode
 1016              		.section	.text.CyXTAL_32KHZ_Stop,"ax",%progbits
 1017              		.align	1
 1018              		.global	CyXTAL_32KHZ_Stop
 1019              		.syntax unified
 1020              		.thumb
 1021              		.thumb_func
ARM GAS  C:\Users\jens-\AppData\Local\Temp\ccdWTNhT.s 			page 39


 1022              		.fpu softvfp
 1023              		.type	CyXTAL_32KHZ_Stop, %function
 1024              	CyXTAL_32KHZ_Stop:
 1025              	.LFB26:
1023:Generated_Source\PSoC5/CyLib.c **** 
1024:Generated_Source\PSoC5/CyLib.c **** 
1025:Generated_Source\PSoC5/CyLib.c **** /*******************************************************************************
1026:Generated_Source\PSoC5/CyLib.c **** * Function Name: CyXTAL_32KHZ_Start
1027:Generated_Source\PSoC5/CyLib.c **** ****************************************************************************//**
1028:Generated_Source\PSoC5/CyLib.c **** *
1029:Generated_Source\PSoC5/CyLib.c **** *  Enables the 32 KHz Crystal Oscillator.
1030:Generated_Source\PSoC5/CyLib.c **** *
1031:Generated_Source\PSoC5/CyLib.c **** *******************************************************************************/
1032:Generated_Source\PSoC5/CyLib.c **** void CyXTAL_32KHZ_Start(void) 
1033:Generated_Source\PSoC5/CyLib.c **** {
1034:Generated_Source\PSoC5/CyLib.c ****     volatile uint16 i;
1035:Generated_Source\PSoC5/CyLib.c **** 
1036:Generated_Source\PSoC5/CyLib.c ****     CY_CLK_XTAL32_TST_REG = CY_CLK_XTAL32_TST_DEFAULT;
1037:Generated_Source\PSoC5/CyLib.c ****     CY_CLK_XTAL32_TR_REG  = CY_CLK_XTAL32_TR_STARTUP;
1038:Generated_Source\PSoC5/CyLib.c ****     CY_CLK_XTAL32_CFG_REG = (CY_CLK_XTAL32_CFG_REG & ((uint8)(~CY_CLK_XTAL32_CFG_LP_MASK))) |
1039:Generated_Source\PSoC5/CyLib.c ****                                 CY_CLK_XTAL32_CFG_LP_DEFAULT;
1040:Generated_Source\PSoC5/CyLib.c **** 
1041:Generated_Source\PSoC5/CyLib.c ****     #if(CY_PSOC3)
1042:Generated_Source\PSoC5/CyLib.c ****         CY_CLK_XTAL32_CR_REG |= CY_CLK_XTAL32_CR_PDBEN;
1043:Generated_Source\PSoC5/CyLib.c ****     #endif  /* (CY_PSOC3) */
1044:Generated_Source\PSoC5/CyLib.c **** 
1045:Generated_Source\PSoC5/CyLib.c ****     /* Enable operation of 32K Crystal Oscillator */
1046:Generated_Source\PSoC5/CyLib.c ****     CY_CLK_XTAL32_CR_REG |= CY_CLK_XTAL32_CR_EN;
1047:Generated_Source\PSoC5/CyLib.c **** 
1048:Generated_Source\PSoC5/CyLib.c ****     for (i = 1000u; i > 0u; i--)
1049:Generated_Source\PSoC5/CyLib.c ****     {
1050:Generated_Source\PSoC5/CyLib.c ****         if(0u != (CyXTAL_32KHZ_ReadStatus() & CY_XTAL32K_ANA_STAT))
1051:Generated_Source\PSoC5/CyLib.c ****         {
1052:Generated_Source\PSoC5/CyLib.c ****             /* Ready - switch to high power mode */
1053:Generated_Source\PSoC5/CyLib.c ****             (void) CyXTAL_32KHZ_SetPowerMode(0u);
1054:Generated_Source\PSoC5/CyLib.c **** 
1055:Generated_Source\PSoC5/CyLib.c ****             break;
1056:Generated_Source\PSoC5/CyLib.c ****         }
1057:Generated_Source\PSoC5/CyLib.c ****         CyDelayUs(1u);
1058:Generated_Source\PSoC5/CyLib.c ****     }
1059:Generated_Source\PSoC5/CyLib.c **** }
1060:Generated_Source\PSoC5/CyLib.c **** 
1061:Generated_Source\PSoC5/CyLib.c **** 
1062:Generated_Source\PSoC5/CyLib.c **** /*******************************************************************************
1063:Generated_Source\PSoC5/CyLib.c **** * Function Name: CyXTAL_32KHZ_Stop
1064:Generated_Source\PSoC5/CyLib.c **** ****************************************************************************//**
1065:Generated_Source\PSoC5/CyLib.c **** *
1066:Generated_Source\PSoC5/CyLib.c **** *  Disables the 32KHz Crystal Oscillator.
1067:Generated_Source\PSoC5/CyLib.c **** *
1068:Generated_Source\PSoC5/CyLib.c **** *******************************************************************************/
1069:Generated_Source\PSoC5/CyLib.c **** void CyXTAL_32KHZ_Stop(void) 
1070:Generated_Source\PSoC5/CyLib.c **** {
 1026              		.loc 1 1070 1 is_stmt 1 view -0
 1027              		.cfi_startproc
 1028              		@ args = 0, pretend = 0, frame = 0
 1029              		@ frame_needed = 0, uses_anonymous_args = 0
 1030              		@ link register save eliminated.
ARM GAS  C:\Users\jens-\AppData\Local\Temp\ccdWTNhT.s 			page 40


1071:Generated_Source\PSoC5/CyLib.c ****     CY_CLK_XTAL32_TST_REG  = CY_CLK_XTAL32_TST_DEFAULT;
 1031              		.loc 1 1071 5 view .LVU228
 1032              		.loc 1 1071 28 is_stmt 0 view .LVU229
 1033 0000 094B     		ldr	r3, .L96
 1034 0002 F322     		movs	r2, #243
 1035 0004 1A70     		strb	r2, [r3]
1072:Generated_Source\PSoC5/CyLib.c ****     CY_CLK_XTAL32_TR_REG   = CY_CLK_XTAL32_TR_POWERDOWN;
 1036              		.loc 1 1072 5 is_stmt 1 view .LVU230
 1037              		.loc 1 1072 28 is_stmt 0 view .LVU231
 1038 0006 03F28E33 		addw	r3, r3, #910
 1039 000a 0022     		movs	r2, #0
 1040 000c 1A70     		strb	r2, [r3]
1073:Generated_Source\PSoC5/CyLib.c ****     CY_CLK_XTAL32_CFG_REG = (CY_CLK_XTAL32_CFG_REG & ((uint8)(~CY_CLK_XTAL32_CFG_LP_MASK))) |
 1041              		.loc 1 1073 5 is_stmt 1 view .LVU232
 1042              		.loc 1 1073 30 is_stmt 0 view .LVU233
 1043 000e 074A     		ldr	r2, .L96+4
 1044 0010 1378     		ldrb	r3, [r2]	@ zero_extendqisi2
 1045              		.loc 1 1073 52 view .LVU234
 1046 0012 03F0F303 		and	r3, r3, #243
 1047              		.loc 1 1073 93 view .LVU235
 1048 0016 43F00403 		orr	r3, r3, #4
 1049              		.loc 1 1073 27 view .LVU236
 1050 001a 1370     		strb	r3, [r2]
1074:Generated_Source\PSoC5/CyLib.c ****                              CY_CLK_XTAL32_CFG_LP_DEFAULT;
1075:Generated_Source\PSoC5/CyLib.c ****     CY_CLK_XTAL32_CR_REG &= ((uint8)(~(CY_CLK_XTAL32_CR_EN | CY_CLK_XTAL32_CR_LPM)));
 1051              		.loc 1 1075 5 is_stmt 1 view .LVU237
 1052              		.loc 1 1075 26 is_stmt 0 view .LVU238
 1053 001c 013A     		subs	r2, r2, #1
 1054 001e 1378     		ldrb	r3, [r2]	@ zero_extendqisi2
 1055 0020 03F0FC03 		and	r3, r3, #252
 1056 0024 1370     		strb	r3, [r2]
1076:Generated_Source\PSoC5/CyLib.c **** 
1077:Generated_Source\PSoC5/CyLib.c ****     #if(CY_PSOC3)
1078:Generated_Source\PSoC5/CyLib.c ****         CY_CLK_XTAL32_CR_REG &= ((uint8)(~CY_CLK_XTAL32_CR_PDBEN));
1079:Generated_Source\PSoC5/CyLib.c ****     #endif  /* (CY_PSOC3) */
1080:Generated_Source\PSoC5/CyLib.c **** }
 1057              		.loc 1 1080 1 view .LVU239
 1058 0026 7047     		bx	lr
 1059              	.L97:
 1060              		.align	2
 1061              	.L96:
 1062 0028 0A430040 		.word	1073758986
 1063 002c 09430040 		.word	1073758985
 1064              		.cfi_endproc
 1065              	.LFE26:
 1066              		.size	CyXTAL_32KHZ_Stop, .-CyXTAL_32KHZ_Stop
 1067              		.section	.text.CyXTAL_32KHZ_ReadStatus,"ax",%progbits
 1068              		.align	1
 1069              		.global	CyXTAL_32KHZ_ReadStatus
 1070              		.syntax unified
 1071              		.thumb
 1072              		.thumb_func
 1073              		.fpu softvfp
 1074              		.type	CyXTAL_32KHZ_ReadStatus, %function
 1075              	CyXTAL_32KHZ_ReadStatus:
 1076              	.LFB27:
1081:Generated_Source\PSoC5/CyLib.c **** 
ARM GAS  C:\Users\jens-\AppData\Local\Temp\ccdWTNhT.s 			page 41


1082:Generated_Source\PSoC5/CyLib.c **** 
1083:Generated_Source\PSoC5/CyLib.c **** /*******************************************************************************
1084:Generated_Source\PSoC5/CyLib.c **** * Function Name: CyXTAL_32KHZ_ReadStatus
1085:Generated_Source\PSoC5/CyLib.c **** ****************************************************************************//**
1086:Generated_Source\PSoC5/CyLib.c **** *
1087:Generated_Source\PSoC5/CyLib.c **** *  Returns status of the 32 KHz oscillator.
1088:Generated_Source\PSoC5/CyLib.c **** *
1089:Generated_Source\PSoC5/CyLib.c **** * \return
1090:Generated_Source\PSoC5/CyLib.c **** *  Value     Define                    Source
1091:Generated_Source\PSoC5/CyLib.c **** *  20        CY_XTAL32K_ANA_STAT       Analog measurement
1092:Generated_Source\PSoC5/CyLib.c **** *                                       1: Stable
1093:Generated_Source\PSoC5/CyLib.c **** *                                       0: Not stable
1094:Generated_Source\PSoC5/CyLib.c **** *
1095:Generated_Source\PSoC5/CyLib.c **** *******************************************************************************/
1096:Generated_Source\PSoC5/CyLib.c **** uint8 CyXTAL_32KHZ_ReadStatus(void) 
1097:Generated_Source\PSoC5/CyLib.c **** {
 1077              		.loc 1 1097 1 is_stmt 1 view -0
 1078              		.cfi_startproc
 1079              		@ args = 0, pretend = 0, frame = 0
 1080              		@ frame_needed = 0, uses_anonymous_args = 0
 1081              		@ link register save eliminated.
1098:Generated_Source\PSoC5/CyLib.c ****     return(CY_CLK_XTAL32_CR_REG & CY_XTAL32K_ANA_STAT);
 1082              		.loc 1 1098 5 view .LVU241
 1083              		.loc 1 1098 12 is_stmt 0 view .LVU242
 1084 0000 024B     		ldr	r3, .L99
 1085 0002 1878     		ldrb	r0, [r3]	@ zero_extendqisi2
1099:Generated_Source\PSoC5/CyLib.c **** }
 1086              		.loc 1 1099 1 view .LVU243
 1087 0004 00F02000 		and	r0, r0, #32
 1088 0008 7047     		bx	lr
 1089              	.L100:
 1090 000a 00BF     		.align	2
 1091              	.L99:
 1092 000c 08430040 		.word	1073758984
 1093              		.cfi_endproc
 1094              	.LFE27:
 1095              		.size	CyXTAL_32KHZ_ReadStatus, .-CyXTAL_32KHZ_ReadStatus
 1096              		.section	.text.CyXTAL_Start,"ax",%progbits
 1097              		.align	1
 1098              		.global	CyXTAL_Start
 1099              		.syntax unified
 1100              		.thumb
 1101              		.thumb_func
 1102              		.fpu softvfp
 1103              		.type	CyXTAL_Start, %function
 1104              	CyXTAL_Start:
 1105              	.LVL51:
 1106              	.LFB29:
1100:Generated_Source\PSoC5/CyLib.c **** 
1101:Generated_Source\PSoC5/CyLib.c **** 
1102:Generated_Source\PSoC5/CyLib.c **** /*******************************************************************************
1103:Generated_Source\PSoC5/CyLib.c **** * Function Name: CyXTAL_32KHZ_SetPowerMode
1104:Generated_Source\PSoC5/CyLib.c **** ****************************************************************************//**
1105:Generated_Source\PSoC5/CyLib.c **** *
1106:Generated_Source\PSoC5/CyLib.c **** *  Sets the power mode for the 32 KHz oscillator used during the sleep mode.
1107:Generated_Source\PSoC5/CyLib.c **** *  Allows for lower power during sleep when there are fewer sources of noise.
1108:Generated_Source\PSoC5/CyLib.c **** *  During the active mode the oscillator is always run in the high power mode.
ARM GAS  C:\Users\jens-\AppData\Local\Temp\ccdWTNhT.s 			page 42


1109:Generated_Source\PSoC5/CyLib.c **** *
1110:Generated_Source\PSoC5/CyLib.c **** *  uint8 mode
1111:Generated_Source\PSoC5/CyLib.c **** *       \param 0: High power mode
1112:Generated_Source\PSoC5/CyLib.c **** *       \param 1: Low power mode during sleep
1113:Generated_Source\PSoC5/CyLib.c **** *
1114:Generated_Source\PSoC5/CyLib.c **** * \return
1115:Generated_Source\PSoC5/CyLib.c **** *  Previous power mode.
1116:Generated_Source\PSoC5/CyLib.c **** *
1117:Generated_Source\PSoC5/CyLib.c **** *******************************************************************************/
1118:Generated_Source\PSoC5/CyLib.c **** uint8 CyXTAL_32KHZ_SetPowerMode(uint8 mode) 
1119:Generated_Source\PSoC5/CyLib.c **** {
1120:Generated_Source\PSoC5/CyLib.c ****     uint8 state = (0u != (CY_CLK_XTAL32_CR_REG & CY_CLK_XTAL32_CR_LPM)) ? 1u : 0u;
1121:Generated_Source\PSoC5/CyLib.c **** 
1122:Generated_Source\PSoC5/CyLib.c ****     CY_CLK_XTAL32_TST_REG = CY_CLK_XTAL32_TST_DEFAULT;
1123:Generated_Source\PSoC5/CyLib.c **** 
1124:Generated_Source\PSoC5/CyLib.c ****     if(1u == mode)
1125:Generated_Source\PSoC5/CyLib.c ****     {
1126:Generated_Source\PSoC5/CyLib.c ****         /* Low power mode during Sleep */
1127:Generated_Source\PSoC5/CyLib.c ****         CY_CLK_XTAL32_TR_REG  = CY_CLK_XTAL32_TR_LOW_POWER;
1128:Generated_Source\PSoC5/CyLib.c ****         CyDelayUs(10u);
1129:Generated_Source\PSoC5/CyLib.c ****         CY_CLK_XTAL32_CFG_REG = (CY_CLK_XTAL32_CFG_REG & ((uint8)(~CY_CLK_XTAL32_CFG_LP_MASK))) |
1130:Generated_Source\PSoC5/CyLib.c ****                                 CY_CLK_XTAL32_CFG_LP_LOWPOWER;
1131:Generated_Source\PSoC5/CyLib.c ****         CyDelayUs(20u);
1132:Generated_Source\PSoC5/CyLib.c ****         CY_CLK_XTAL32_CR_REG |= CY_CLK_XTAL32_CR_LPM;
1133:Generated_Source\PSoC5/CyLib.c ****     }
1134:Generated_Source\PSoC5/CyLib.c ****     else
1135:Generated_Source\PSoC5/CyLib.c ****     {
1136:Generated_Source\PSoC5/CyLib.c ****         /* High power mode */
1137:Generated_Source\PSoC5/CyLib.c ****         CY_CLK_XTAL32_TR_REG  = CY_CLK_XTAL32_TR_HIGH_POWER;
1138:Generated_Source\PSoC5/CyLib.c ****         CyDelayUs(10u);
1139:Generated_Source\PSoC5/CyLib.c ****         CY_CLK_XTAL32_CFG_REG = (CY_CLK_XTAL32_CFG_REG & ((uint8)(~CY_CLK_XTAL32_CFG_LP_MASK))) |
1140:Generated_Source\PSoC5/CyLib.c ****                                 CY_CLK_XTAL32_CFG_LP_DEFAULT;
1141:Generated_Source\PSoC5/CyLib.c ****         CY_CLK_XTAL32_CR_REG &= ((uint8)(~CY_CLK_XTAL32_CR_LPM));
1142:Generated_Source\PSoC5/CyLib.c ****     }
1143:Generated_Source\PSoC5/CyLib.c **** 
1144:Generated_Source\PSoC5/CyLib.c ****     return(state);
1145:Generated_Source\PSoC5/CyLib.c **** }
1146:Generated_Source\PSoC5/CyLib.c **** 
1147:Generated_Source\PSoC5/CyLib.c **** 
1148:Generated_Source\PSoC5/CyLib.c **** /*******************************************************************************
1149:Generated_Source\PSoC5/CyLib.c **** * Function Name: CyXTAL_Start
1150:Generated_Source\PSoC5/CyLib.c **** ****************************************************************************//**
1151:Generated_Source\PSoC5/CyLib.c **** *
1152:Generated_Source\PSoC5/CyLib.c **** *  Enables the megahertz crystal.
1153:Generated_Source\PSoC5/CyLib.c **** *
1154:Generated_Source\PSoC5/CyLib.c **** *  PSoC 3:
1155:Generated_Source\PSoC5/CyLib.c **** *  Waits until the XERR bit is low (no error) for a millisecond or until the
1156:Generated_Source\PSoC5/CyLib.c **** *  number of milliseconds specified by the wait parameter has expired.
1157:Generated_Source\PSoC5/CyLib.c **** *
1158:Generated_Source\PSoC5/CyLib.c **** *   \param wait: Valid range [0-255].
1159:Generated_Source\PSoC5/CyLib.c **** *   This is the timeout value in milliseconds.
1160:Generated_Source\PSoC5/CyLib.c **** *   The appropriate value is crystal specific.
1161:Generated_Source\PSoC5/CyLib.c **** *
1162:Generated_Source\PSoC5/CyLib.c **** * \return
1163:Generated_Source\PSoC5/CyLib.c **** *   CYRET_SUCCESS - Completed successfully
1164:Generated_Source\PSoC5/CyLib.c **** *   CYRET_TIMEOUT - Timeout occurred without detecting a low value on XERR.
1165:Generated_Source\PSoC5/CyLib.c **** *
ARM GAS  C:\Users\jens-\AppData\Local\Temp\ccdWTNhT.s 			page 43


1166:Generated_Source\PSoC5/CyLib.c **** * Side Effects and Restrictions:
1167:Generated_Source\PSoC5/CyLib.c **** *  If wait is enabled (non-zero wait). Uses the Fast Timewheel to time the wait.
1168:Generated_Source\PSoC5/CyLib.c **** *  Any other use of the Fast Timewheel (FTW) will be stopped during the period
1169:Generated_Source\PSoC5/CyLib.c **** *  of this function and then restored.
1170:Generated_Source\PSoC5/CyLib.c **** *
1171:Generated_Source\PSoC5/CyLib.c **** *  Uses the 100KHz ILO.  If not enabled, this function will enable the 100KHz
1172:Generated_Source\PSoC5/CyLib.c **** *  ILO for the period of this function. No changes to the setup of the ILO,
1173:Generated_Source\PSoC5/CyLib.c **** *  Fast Timewheel, Central Timewheel or Once Per Second interrupt may be made
1174:Generated_Source\PSoC5/CyLib.c **** *  by interrupt routines during the period of this function.
1175:Generated_Source\PSoC5/CyLib.c **** *
1176:Generated_Source\PSoC5/CyLib.c **** *  The current operation of the ILO, Central Timewheel and Once Per Second
1177:Generated_Source\PSoC5/CyLib.c **** *  interrupt are maintained during the operation of this function provided the
1178:Generated_Source\PSoC5/CyLib.c **** *  reading of the Power Manager Interrupt Status Register is only done using the
1179:Generated_Source\PSoC5/CyLib.c **** *  CyPmReadStatus() function.
1180:Generated_Source\PSoC5/CyLib.c **** *
1181:Generated_Source\PSoC5/CyLib.c **** *******************************************************************************/
1182:Generated_Source\PSoC5/CyLib.c **** cystatus CyXTAL_Start(uint8 wait) 
1183:Generated_Source\PSoC5/CyLib.c **** {
 1107              		.loc 1 1183 1 is_stmt 1 view -0
 1108              		.cfi_startproc
 1109              		@ args = 0, pretend = 0, frame = 8
 1110              		@ frame_needed = 0, uses_anonymous_args = 0
 1111              		.loc 1 1183 1 is_stmt 0 view .LVU245
 1112 0000 F0B5     		push	{r4, r5, r6, r7, lr}
 1113              		.cfi_def_cfa_offset 20
 1114              		.cfi_offset 4, -20
 1115              		.cfi_offset 5, -16
 1116              		.cfi_offset 6, -12
 1117              		.cfi_offset 7, -8
 1118              		.cfi_offset 14, -4
 1119 0002 83B0     		sub	sp, sp, #12
 1120              		.cfi_def_cfa_offset 32
1184:Generated_Source\PSoC5/CyLib.c ****     cystatus status = CYRET_SUCCESS;
 1121              		.loc 1 1184 5 is_stmt 1 view .LVU246
 1122              	.LVL52:
1185:Generated_Source\PSoC5/CyLib.c ****     volatile uint8  timeout = wait;
 1123              		.loc 1 1185 5 view .LVU247
 1124              		.loc 1 1185 21 is_stmt 0 view .LVU248
 1125 0004 8DF80700 		strb	r0, [sp, #7]
1186:Generated_Source\PSoC5/CyLib.c ****     volatile uint8 count;
 1126              		.loc 1 1186 5 is_stmt 1 view .LVU249
1187:Generated_Source\PSoC5/CyLib.c ****     uint8 iloEnableState;
 1127              		.loc 1 1187 5 view .LVU250
1188:Generated_Source\PSoC5/CyLib.c ****     uint8 pmTwCfg0Tmp;
 1128              		.loc 1 1188 5 view .LVU251
1189:Generated_Source\PSoC5/CyLib.c ****     uint8 pmTwCfg2Tmp;
 1129              		.loc 1 1189 5 view .LVU252
1190:Generated_Source\PSoC5/CyLib.c **** 
1191:Generated_Source\PSoC5/CyLib.c **** 
1192:Generated_Source\PSoC5/CyLib.c ****     /* Enables MHz crystal oscillator circuit  */
1193:Generated_Source\PSoC5/CyLib.c ****     CY_CLK_XMHZ_CSR_REG |= CY_CLK_XMHZ_CSR_ENABLE;
 1130              		.loc 1 1193 5 view .LVU253
 1131              		.loc 1 1193 25 is_stmt 0 view .LVU254
 1132 0008 244A     		ldr	r2, .L115
 1133 000a 1378     		ldrb	r3, [r2]	@ zero_extendqisi2
 1134 000c 43F00103 		orr	r3, r3, #1
 1135 0010 1370     		strb	r3, [r2]
ARM GAS  C:\Users\jens-\AppData\Local\Temp\ccdWTNhT.s 			page 44


1194:Generated_Source\PSoC5/CyLib.c **** 
1195:Generated_Source\PSoC5/CyLib.c **** 
1196:Generated_Source\PSoC5/CyLib.c ****     if(wait > 0u)
 1136              		.loc 1 1196 5 is_stmt 1 view .LVU255
 1137              		.loc 1 1196 7 is_stmt 0 view .LVU256
 1138 0012 18B9     		cbnz	r0, .L112
1184:Generated_Source\PSoC5/CyLib.c ****     volatile uint8  timeout = wait;
 1139              		.loc 1 1184 14 view .LVU257
 1140 0014 0027     		movs	r7, #0
1197:Generated_Source\PSoC5/CyLib.c ****     {
1198:Generated_Source\PSoC5/CyLib.c ****         /* Save 100 KHz ILO, FTW interval, enable and interrupt enable */
1199:Generated_Source\PSoC5/CyLib.c ****         iloEnableState = CY_LIB_SLOWCLK_ILO_CR0_REG;
1200:Generated_Source\PSoC5/CyLib.c ****         pmTwCfg0Tmp = CY_LIB_PM_TW_CFG0_REG;
1201:Generated_Source\PSoC5/CyLib.c ****         pmTwCfg2Tmp = CY_LIB_PM_TW_CFG2_REG;
1202:Generated_Source\PSoC5/CyLib.c **** 
1203:Generated_Source\PSoC5/CyLib.c ****         /* Set 250 us interval */
1204:Generated_Source\PSoC5/CyLib.c ****         CyPmFtwSetInterval(CY_CLK_XMHZ_FTW_INTERVAL);
1205:Generated_Source\PSoC5/CyLib.c ****         status = CYRET_TIMEOUT;
1206:Generated_Source\PSoC5/CyLib.c **** 
1207:Generated_Source\PSoC5/CyLib.c **** 
1208:Generated_Source\PSoC5/CyLib.c ****         for( ; timeout > 0u; timeout--)
1209:Generated_Source\PSoC5/CyLib.c ****         {
1210:Generated_Source\PSoC5/CyLib.c ****             /* Read XERR bit to clear it */
1211:Generated_Source\PSoC5/CyLib.c ****             (void) CY_CLK_XMHZ_CSR_REG;
1212:Generated_Source\PSoC5/CyLib.c **** 
1213:Generated_Source\PSoC5/CyLib.c ****             /* Wait for 1 millisecond - 4 x 250 us */
1214:Generated_Source\PSoC5/CyLib.c ****             for(count = 4u; count > 0u; count--)
1215:Generated_Source\PSoC5/CyLib.c ****             {
1216:Generated_Source\PSoC5/CyLib.c ****                 while(0u == (CY_PM_FTW_INT & CyPmReadStatus(CY_PM_FTW_INT)))
1217:Generated_Source\PSoC5/CyLib.c ****                 {
1218:Generated_Source\PSoC5/CyLib.c ****                     /* Wait for FTW interrupt event */
1219:Generated_Source\PSoC5/CyLib.c ****                 }
1220:Generated_Source\PSoC5/CyLib.c ****             }
1221:Generated_Source\PSoC5/CyLib.c **** 
1222:Generated_Source\PSoC5/CyLib.c **** 
1223:Generated_Source\PSoC5/CyLib.c ****             /*******************************************************************
1224:Generated_Source\PSoC5/CyLib.c ****             * High output indicates an oscillator failure.
1225:Generated_Source\PSoC5/CyLib.c ****             * Only can be used after a start-up interval (1 ms) is completed.
1226:Generated_Source\PSoC5/CyLib.c ****             *******************************************************************/
1227:Generated_Source\PSoC5/CyLib.c ****             if(0u == (CY_CLK_XMHZ_CSR_REG & CY_CLK_XMHZ_CSR_XERR))
1228:Generated_Source\PSoC5/CyLib.c ****             {
1229:Generated_Source\PSoC5/CyLib.c ****                 status = CYRET_SUCCESS;
1230:Generated_Source\PSoC5/CyLib.c ****                 break;
1231:Generated_Source\PSoC5/CyLib.c ****             }
1232:Generated_Source\PSoC5/CyLib.c ****         }
1233:Generated_Source\PSoC5/CyLib.c **** 
1234:Generated_Source\PSoC5/CyLib.c **** 
1235:Generated_Source\PSoC5/CyLib.c ****         /* Restore 100 KHz ILO, FTW interval, enable and interrupt enable */
1236:Generated_Source\PSoC5/CyLib.c ****         if(0u == (iloEnableState & CY_LIB_SLOWCLK_ILO_CR0_EN_100KHZ))
1237:Generated_Source\PSoC5/CyLib.c ****         {
1238:Generated_Source\PSoC5/CyLib.c ****             CyILO_Stop100K();
1239:Generated_Source\PSoC5/CyLib.c ****         }
1240:Generated_Source\PSoC5/CyLib.c ****         CY_LIB_PM_TW_CFG0_REG = pmTwCfg0Tmp;
1241:Generated_Source\PSoC5/CyLib.c ****         CY_LIB_PM_TW_CFG2_REG = pmTwCfg2Tmp;
1242:Generated_Source\PSoC5/CyLib.c ****     }
1243:Generated_Source\PSoC5/CyLib.c **** 
1244:Generated_Source\PSoC5/CyLib.c ****     return(status);
ARM GAS  C:\Users\jens-\AppData\Local\Temp\ccdWTNhT.s 			page 45


 1141              		.loc 1 1244 5 is_stmt 1 view .LVU258
 1142              	.LVL53:
 1143              	.L101:
1245:Generated_Source\PSoC5/CyLib.c **** }
 1144              		.loc 1 1245 1 is_stmt 0 view .LVU259
 1145 0016 3846     		mov	r0, r7
 1146 0018 03B0     		add	sp, sp, #12
 1147              		.cfi_remember_state
 1148              		.cfi_def_cfa_offset 20
 1149              		@ sp needed
 1150 001a F0BD     		pop	{r4, r5, r6, r7, pc}
 1151              	.LVL54:
 1152              	.L112:
 1153              		.cfi_restore_state
1199:Generated_Source\PSoC5/CyLib.c ****         pmTwCfg0Tmp = CY_LIB_PM_TW_CFG0_REG;
 1154              		.loc 1 1199 9 is_stmt 1 view .LVU260
1199:Generated_Source\PSoC5/CyLib.c ****         pmTwCfg0Tmp = CY_LIB_PM_TW_CFG0_REG;
 1155              		.loc 1 1199 24 is_stmt 0 view .LVU261
 1156 001c 204B     		ldr	r3, .L115+4
 1157 001e 1E78     		ldrb	r6, [r3]	@ zero_extendqisi2
 1158 0020 F6B2     		uxtb	r6, r6
 1159              	.LVL55:
1200:Generated_Source\PSoC5/CyLib.c ****         pmTwCfg2Tmp = CY_LIB_PM_TW_CFG2_REG;
 1160              		.loc 1 1200 9 is_stmt 1 view .LVU262
1200:Generated_Source\PSoC5/CyLib.c ****         pmTwCfg2Tmp = CY_LIB_PM_TW_CFG2_REG;
 1161              		.loc 1 1200 21 is_stmt 0 view .LVU263
 1162 0022 8033     		adds	r3, r3, #128
 1163 0024 1D78     		ldrb	r5, [r3]	@ zero_extendqisi2
 1164 0026 EDB2     		uxtb	r5, r5
 1165              	.LVL56:
1201:Generated_Source\PSoC5/CyLib.c **** 
 1166              		.loc 1 1201 9 is_stmt 1 view .LVU264
1201:Generated_Source\PSoC5/CyLib.c **** 
 1167              		.loc 1 1201 21 is_stmt 0 view .LVU265
 1168 0028 0233     		adds	r3, r3, #2
 1169 002a 1C78     		ldrb	r4, [r3]	@ zero_extendqisi2
 1170 002c E4B2     		uxtb	r4, r4
 1171              	.LVL57:
1204:Generated_Source\PSoC5/CyLib.c ****         status = CYRET_TIMEOUT;
 1172              		.loc 1 1204 9 is_stmt 1 view .LVU266
 1173 002e 1820     		movs	r0, #24
 1174              	.LVL58:
1204:Generated_Source\PSoC5/CyLib.c ****         status = CYRET_TIMEOUT;
 1175              		.loc 1 1204 9 is_stmt 0 view .LVU267
 1176 0030 FFF7FEFF 		bl	CyPmFtwSetInterval
 1177              	.LVL59:
1205:Generated_Source\PSoC5/CyLib.c **** 
 1178              		.loc 1 1205 9 is_stmt 1 view .LVU268
1208:Generated_Source\PSoC5/CyLib.c ****         {
 1179              		.loc 1 1208 9 view .LVU269
 1180 0034 1AE0     		b	.L103
 1181              	.L105:
1219:Generated_Source\PSoC5/CyLib.c ****             }
 1182              		.loc 1 1219 17 discriminator 1 view .LVU270
1216:Generated_Source\PSoC5/CyLib.c ****                 {
 1183              		.loc 1 1216 22 discriminator 1 view .LVU271
1216:Generated_Source\PSoC5/CyLib.c ****                 {
ARM GAS  C:\Users\jens-\AppData\Local\Temp\ccdWTNhT.s 			page 46


 1184              		.loc 1 1216 46 is_stmt 0 discriminator 1 view .LVU272
 1185 0036 0120     		movs	r0, #1
 1186 0038 FFF7FEFF 		bl	CyPmReadStatus
 1187              	.LVL60:
1216:Generated_Source\PSoC5/CyLib.c ****                 {
 1188              		.loc 1 1216 22 discriminator 1 view .LVU273
 1189 003c 10F0010F 		tst	r0, #1
 1190 0040 F9D0     		beq	.L105
1214:Generated_Source\PSoC5/CyLib.c ****             {
 1191              		.loc 1 1214 41 is_stmt 1 discriminator 2 view .LVU274
1214:Generated_Source\PSoC5/CyLib.c ****             {
 1192              		.loc 1 1214 46 is_stmt 0 discriminator 2 view .LVU275
 1193 0042 9DF80630 		ldrb	r3, [sp, #6]	@ zero_extendqisi2
 1194 0046 013B     		subs	r3, r3, #1
 1195 0048 DBB2     		uxtb	r3, r3
 1196 004a 8DF80630 		strb	r3, [sp, #6]
 1197              	.L104:
1214:Generated_Source\PSoC5/CyLib.c ****             {
 1198              		.loc 1 1214 29 is_stmt 1 discriminator 1 view .LVU276
1214:Generated_Source\PSoC5/CyLib.c ****             {
 1199              		.loc 1 1214 35 is_stmt 0 discriminator 1 view .LVU277
 1200 004e 9DF80630 		ldrb	r3, [sp, #6]	@ zero_extendqisi2
1214:Generated_Source\PSoC5/CyLib.c ****             {
 1201              		.loc 1 1214 13 discriminator 1 view .LVU278
 1202 0052 002B     		cmp	r3, #0
 1203 0054 EFD1     		bne	.L105
1227:Generated_Source\PSoC5/CyLib.c ****             {
 1204              		.loc 1 1227 13 is_stmt 1 view .LVU279
1227:Generated_Source\PSoC5/CyLib.c ****             {
 1205              		.loc 1 1227 23 is_stmt 0 view .LVU280
 1206 0056 114B     		ldr	r3, .L115
 1207 0058 1B78     		ldrb	r3, [r3]	@ zero_extendqisi2
1227:Generated_Source\PSoC5/CyLib.c ****             {
 1208              		.loc 1 1227 15 view .LVU281
 1209 005a 13F0800F 		tst	r3, #128
 1210 005e 17D0     		beq	.L110
1208:Generated_Source\PSoC5/CyLib.c ****         {
 1211              		.loc 1 1208 30 is_stmt 1 view .LVU282
1208:Generated_Source\PSoC5/CyLib.c ****         {
 1212              		.loc 1 1208 37 is_stmt 0 view .LVU283
 1213 0060 9DF80730 		ldrb	r3, [sp, #7]	@ zero_extendqisi2
 1214 0064 013B     		subs	r3, r3, #1
 1215 0066 DBB2     		uxtb	r3, r3
 1216 0068 8DF80730 		strb	r3, [sp, #7]
 1217              	.L103:
1208:Generated_Source\PSoC5/CyLib.c ****         {
 1218              		.loc 1 1208 16 is_stmt 1 discriminator 1 view .LVU284
1208:Generated_Source\PSoC5/CyLib.c ****         {
 1219              		.loc 1 1208 24 is_stmt 0 discriminator 1 view .LVU285
 1220 006c 9DF80730 		ldrb	r3, [sp, #7]	@ zero_extendqisi2
1208:Generated_Source\PSoC5/CyLib.c ****         {
 1221              		.loc 1 1208 9 discriminator 1 view .LVU286
 1222 0070 2BB1     		cbz	r3, .L113
1211:Generated_Source\PSoC5/CyLib.c **** 
 1223              		.loc 1 1211 13 is_stmt 1 view .LVU287
 1224 0072 0A4B     		ldr	r3, .L115
 1225 0074 1B78     		ldrb	r3, [r3]	@ zero_extendqisi2
ARM GAS  C:\Users\jens-\AppData\Local\Temp\ccdWTNhT.s 			page 47


1214:Generated_Source\PSoC5/CyLib.c ****             {
 1226              		.loc 1 1214 13 view .LVU288
1214:Generated_Source\PSoC5/CyLib.c ****             {
 1227              		.loc 1 1214 23 is_stmt 0 view .LVU289
 1228 0076 0423     		movs	r3, #4
 1229 0078 8DF80630 		strb	r3, [sp, #6]
1214:Generated_Source\PSoC5/CyLib.c ****             {
 1230              		.loc 1 1214 13 view .LVU290
 1231 007c E7E7     		b	.L104
 1232              	.L113:
1205:Generated_Source\PSoC5/CyLib.c **** 
 1233              		.loc 1 1205 16 view .LVU291
 1234 007e 1027     		movs	r7, #16
 1235              	.L106:
 1236              	.LVL61:
1236:Generated_Source\PSoC5/CyLib.c ****         {
 1237              		.loc 1 1236 9 is_stmt 1 view .LVU292
1236:Generated_Source\PSoC5/CyLib.c ****         {
 1238              		.loc 1 1236 11 is_stmt 0 view .LVU293
 1239 0080 16F0040F 		tst	r6, #4
 1240 0084 06D0     		beq	.L114
 1241              	.L108:
1240:Generated_Source\PSoC5/CyLib.c ****         CY_LIB_PM_TW_CFG2_REG = pmTwCfg2Tmp;
 1242              		.loc 1 1240 9 is_stmt 1 view .LVU294
1240:Generated_Source\PSoC5/CyLib.c ****         CY_LIB_PM_TW_CFG2_REG = pmTwCfg2Tmp;
 1243              		.loc 1 1240 31 is_stmt 0 view .LVU295
 1244 0086 074B     		ldr	r3, .L115+8
 1245 0088 1D70     		strb	r5, [r3]
1241:Generated_Source\PSoC5/CyLib.c ****     }
 1246              		.loc 1 1241 9 is_stmt 1 view .LVU296
1241:Generated_Source\PSoC5/CyLib.c ****     }
 1247              		.loc 1 1241 31 is_stmt 0 view .LVU297
 1248 008a 0233     		adds	r3, r3, #2
 1249 008c 1C70     		strb	r4, [r3]
 1250 008e C2E7     		b	.L101
 1251              	.LVL62:
 1252              	.L110:
1229:Generated_Source\PSoC5/CyLib.c ****                 break;
 1253              		.loc 1 1229 24 view .LVU298
 1254 0090 0027     		movs	r7, #0
 1255 0092 F5E7     		b	.L106
 1256              	.LVL63:
 1257              	.L114:
1238:Generated_Source\PSoC5/CyLib.c ****         }
 1258              		.loc 1 1238 13 is_stmt 1 view .LVU299
 1259 0094 FFF7FEFF 		bl	CyILO_Stop100K
 1260              	.LVL64:
 1261 0098 F5E7     		b	.L108
 1262              	.L116:
 1263 009a 00BF     		.align	2
 1264              	.L115:
 1265 009c 10420040 		.word	1073758736
 1266 00a0 00430040 		.word	1073758976
 1267 00a4 80430040 		.word	1073759104
 1268              		.cfi_endproc
 1269              	.LFE29:
 1270              		.size	CyXTAL_Start, .-CyXTAL_Start
ARM GAS  C:\Users\jens-\AppData\Local\Temp\ccdWTNhT.s 			page 48


 1271              		.section	.text.CyXTAL_Stop,"ax",%progbits
 1272              		.align	1
 1273              		.global	CyXTAL_Stop
 1274              		.syntax unified
 1275              		.thumb
 1276              		.thumb_func
 1277              		.fpu softvfp
 1278              		.type	CyXTAL_Stop, %function
 1279              	CyXTAL_Stop:
 1280              	.LFB30:
1246:Generated_Source\PSoC5/CyLib.c **** 
1247:Generated_Source\PSoC5/CyLib.c **** 
1248:Generated_Source\PSoC5/CyLib.c **** /*******************************************************************************
1249:Generated_Source\PSoC5/CyLib.c **** * Function Name: CyXTAL_Stop
1250:Generated_Source\PSoC5/CyLib.c **** ****************************************************************************//**
1251:Generated_Source\PSoC5/CyLib.c **** *
1252:Generated_Source\PSoC5/CyLib.c **** *  Disables the megahertz crystal oscillator.
1253:Generated_Source\PSoC5/CyLib.c **** *
1254:Generated_Source\PSoC5/CyLib.c **** *******************************************************************************/
1255:Generated_Source\PSoC5/CyLib.c **** void CyXTAL_Stop(void) 
1256:Generated_Source\PSoC5/CyLib.c **** {
 1281              		.loc 1 1256 1 view -0
 1282              		.cfi_startproc
 1283              		@ args = 0, pretend = 0, frame = 0
 1284              		@ frame_needed = 0, uses_anonymous_args = 0
 1285              		@ link register save eliminated.
1257:Generated_Source\PSoC5/CyLib.c ****     /* Disable oscillator. */
1258:Generated_Source\PSoC5/CyLib.c ****     FASTCLK_XMHZ_CSR &= ((uint8)(~XMHZ_CONTROL_ENABLE));
 1286              		.loc 1 1258 5 view .LVU301
 1287              		.loc 1 1258 22 is_stmt 0 view .LVU302
 1288 0000 024A     		ldr	r2, .L118
 1289 0002 1378     		ldrb	r3, [r2]	@ zero_extendqisi2
 1290 0004 03F0FE03 		and	r3, r3, #254
 1291 0008 1370     		strb	r3, [r2]
1259:Generated_Source\PSoC5/CyLib.c **** }
 1292              		.loc 1 1259 1 view .LVU303
 1293 000a 7047     		bx	lr
 1294              	.L119:
 1295              		.align	2
 1296              	.L118:
 1297 000c 10420040 		.word	1073758736
 1298              		.cfi_endproc
 1299              	.LFE30:
 1300              		.size	CyXTAL_Stop, .-CyXTAL_Stop
 1301              		.section	.text.CyXTAL_EnableErrStatus,"ax",%progbits
 1302              		.align	1
 1303              		.global	CyXTAL_EnableErrStatus
 1304              		.syntax unified
 1305              		.thumb
 1306              		.thumb_func
 1307              		.fpu softvfp
 1308              		.type	CyXTAL_EnableErrStatus, %function
 1309              	CyXTAL_EnableErrStatus:
 1310              	.LFB31:
1260:Generated_Source\PSoC5/CyLib.c **** 
1261:Generated_Source\PSoC5/CyLib.c **** 
1262:Generated_Source\PSoC5/CyLib.c **** /*******************************************************************************
ARM GAS  C:\Users\jens-\AppData\Local\Temp\ccdWTNhT.s 			page 49


1263:Generated_Source\PSoC5/CyLib.c **** * Function Name: CyXTAL_EnableErrStatus
1264:Generated_Source\PSoC5/CyLib.c **** ****************************************************************************//**
1265:Generated_Source\PSoC5/CyLib.c **** *
1266:Generated_Source\PSoC5/CyLib.c **** *  Enables the generation of the XERR status bit for the megahertz crystal.
1267:Generated_Source\PSoC5/CyLib.c **** *  This function is not available for PSoC5.
1268:Generated_Source\PSoC5/CyLib.c **** *
1269:Generated_Source\PSoC5/CyLib.c **** *******************************************************************************/
1270:Generated_Source\PSoC5/CyLib.c **** void CyXTAL_EnableErrStatus(void) 
1271:Generated_Source\PSoC5/CyLib.c **** {
 1311              		.loc 1 1271 1 is_stmt 1 view -0
 1312              		.cfi_startproc
 1313              		@ args = 0, pretend = 0, frame = 0
 1314              		@ frame_needed = 0, uses_anonymous_args = 0
 1315              		@ link register save eliminated.
1272:Generated_Source\PSoC5/CyLib.c ****     /* If oscillator has insufficient amplitude, XERR bit will be high. */
1273:Generated_Source\PSoC5/CyLib.c ****     CY_CLK_XMHZ_CSR_REG &= ((uint8)(~CY_CLK_XMHZ_CSR_XFB));
 1316              		.loc 1 1273 5 view .LVU305
 1317              		.loc 1 1273 25 is_stmt 0 view .LVU306
 1318 0000 024A     		ldr	r2, .L121
 1319 0002 1378     		ldrb	r3, [r2]	@ zero_extendqisi2
 1320 0004 03F0FB03 		and	r3, r3, #251
 1321 0008 1370     		strb	r3, [r2]
1274:Generated_Source\PSoC5/CyLib.c **** }
 1322              		.loc 1 1274 1 view .LVU307
 1323 000a 7047     		bx	lr
 1324              	.L122:
 1325              		.align	2
 1326              	.L121:
 1327 000c 10420040 		.word	1073758736
 1328              		.cfi_endproc
 1329              	.LFE31:
 1330              		.size	CyXTAL_EnableErrStatus, .-CyXTAL_EnableErrStatus
 1331              		.section	.text.CyXTAL_DisableErrStatus,"ax",%progbits
 1332              		.align	1
 1333              		.global	CyXTAL_DisableErrStatus
 1334              		.syntax unified
 1335              		.thumb
 1336              		.thumb_func
 1337              		.fpu softvfp
 1338              		.type	CyXTAL_DisableErrStatus, %function
 1339              	CyXTAL_DisableErrStatus:
 1340              	.LFB32:
1275:Generated_Source\PSoC5/CyLib.c **** 
1276:Generated_Source\PSoC5/CyLib.c **** 
1277:Generated_Source\PSoC5/CyLib.c **** /*******************************************************************************
1278:Generated_Source\PSoC5/CyLib.c **** * Function Name: CyXTAL_DisableErrStatus
1279:Generated_Source\PSoC5/CyLib.c **** ****************************************************************************//**
1280:Generated_Source\PSoC5/CyLib.c **** *
1281:Generated_Source\PSoC5/CyLib.c **** *  Disables the generation of the XERR status bit for the megahertz crystal.
1282:Generated_Source\PSoC5/CyLib.c **** *  This function is not available for PSoC5.
1283:Generated_Source\PSoC5/CyLib.c **** *
1284:Generated_Source\PSoC5/CyLib.c **** *******************************************************************************/
1285:Generated_Source\PSoC5/CyLib.c **** void CyXTAL_DisableErrStatus(void) 
1286:Generated_Source\PSoC5/CyLib.c **** {
 1341              		.loc 1 1286 1 is_stmt 1 view -0
 1342              		.cfi_startproc
 1343              		@ args = 0, pretend = 0, frame = 0
ARM GAS  C:\Users\jens-\AppData\Local\Temp\ccdWTNhT.s 			page 50


 1344              		@ frame_needed = 0, uses_anonymous_args = 0
 1345              		@ link register save eliminated.
1287:Generated_Source\PSoC5/CyLib.c ****     /* If oscillator has insufficient amplitude, XERR bit will be high. */
1288:Generated_Source\PSoC5/CyLib.c ****     CY_CLK_XMHZ_CSR_REG |= CY_CLK_XMHZ_CSR_XFB;
 1346              		.loc 1 1288 5 view .LVU309
 1347              		.loc 1 1288 25 is_stmt 0 view .LVU310
 1348 0000 024A     		ldr	r2, .L124
 1349 0002 1378     		ldrb	r3, [r2]	@ zero_extendqisi2
 1350 0004 43F00403 		orr	r3, r3, #4
 1351 0008 1370     		strb	r3, [r2]
1289:Generated_Source\PSoC5/CyLib.c **** }
 1352              		.loc 1 1289 1 view .LVU311
 1353 000a 7047     		bx	lr
 1354              	.L125:
 1355              		.align	2
 1356              	.L124:
 1357 000c 10420040 		.word	1073758736
 1358              		.cfi_endproc
 1359              	.LFE32:
 1360              		.size	CyXTAL_DisableErrStatus, .-CyXTAL_DisableErrStatus
 1361              		.section	.text.CyXTAL_ReadStatus,"ax",%progbits
 1362              		.align	1
 1363              		.global	CyXTAL_ReadStatus
 1364              		.syntax unified
 1365              		.thumb
 1366              		.thumb_func
 1367              		.fpu softvfp
 1368              		.type	CyXTAL_ReadStatus, %function
 1369              	CyXTAL_ReadStatus:
 1370              	.LFB33:
1290:Generated_Source\PSoC5/CyLib.c **** 
1291:Generated_Source\PSoC5/CyLib.c **** 
1292:Generated_Source\PSoC5/CyLib.c **** /*******************************************************************************
1293:Generated_Source\PSoC5/CyLib.c **** * Function Name: CyXTAL_ReadStatus
1294:Generated_Source\PSoC5/CyLib.c **** ****************************************************************************//**
1295:Generated_Source\PSoC5/CyLib.c **** *
1296:Generated_Source\PSoC5/CyLib.c **** *  Reads the XERR status bit for the megahertz crystal. This status bit is a
1297:Generated_Source\PSoC5/CyLib.c **** *  sticky, clear on read. This function is not available for PSoC5.
1298:Generated_Source\PSoC5/CyLib.c **** *
1299:Generated_Source\PSoC5/CyLib.c **** * \return
1300:Generated_Source\PSoC5/CyLib.c **** *   Status
1301:Generated_Source\PSoC5/CyLib.c **** *    0: No error
1302:Generated_Source\PSoC5/CyLib.c **** *    1: Error
1303:Generated_Source\PSoC5/CyLib.c **** *
1304:Generated_Source\PSoC5/CyLib.c **** *******************************************************************************/
1305:Generated_Source\PSoC5/CyLib.c **** uint8 CyXTAL_ReadStatus(void) 
1306:Generated_Source\PSoC5/CyLib.c **** {
 1371              		.loc 1 1306 1 is_stmt 1 view -0
 1372              		.cfi_startproc
 1373              		@ args = 0, pretend = 0, frame = 0
 1374              		@ frame_needed = 0, uses_anonymous_args = 0
 1375              		@ link register save eliminated.
1307:Generated_Source\PSoC5/CyLib.c ****     /***************************************************************************
1308:Generated_Source\PSoC5/CyLib.c ****     * High output indicates an oscillator failure. Only use this after a start-up
1309:Generated_Source\PSoC5/CyLib.c ****     * interval is completed. This can be used for the status and failure recovery.
1310:Generated_Source\PSoC5/CyLib.c ****     ***************************************************************************/
1311:Generated_Source\PSoC5/CyLib.c ****     return((0u != (CY_CLK_XMHZ_CSR_REG & CY_CLK_XMHZ_CSR_XERR)) ? 1u : 0u);
ARM GAS  C:\Users\jens-\AppData\Local\Temp\ccdWTNhT.s 			page 51


 1376              		.loc 1 1311 5 view .LVU313
 1377              		.loc 1 1311 20 is_stmt 0 view .LVU314
 1378 0000 044B     		ldr	r3, .L130
 1379 0002 1B78     		ldrb	r3, [r3]	@ zero_extendqisi2
 1380              		.loc 1 1311 70 view .LVU315
 1381 0004 13F0800F 		tst	r3, #128
 1382 0008 01D1     		bne	.L129
 1383 000a 0020     		movs	r0, #0
1312:Generated_Source\PSoC5/CyLib.c **** }
 1384              		.loc 1 1312 1 view .LVU316
 1385 000c 7047     		bx	lr
 1386              	.L129:
1311:Generated_Source\PSoC5/CyLib.c **** }
 1387              		.loc 1 1311 70 view .LVU317
 1388 000e 0120     		movs	r0, #1
 1389 0010 7047     		bx	lr
 1390              	.L131:
 1391 0012 00BF     		.align	2
 1392              	.L130:
 1393 0014 10420040 		.word	1073758736
 1394              		.cfi_endproc
 1395              	.LFE33:
 1396              		.size	CyXTAL_ReadStatus, .-CyXTAL_ReadStatus
 1397              		.section	.text.CyXTAL_EnableFaultRecovery,"ax",%progbits
 1398              		.align	1
 1399              		.global	CyXTAL_EnableFaultRecovery
 1400              		.syntax unified
 1401              		.thumb
 1402              		.thumb_func
 1403              		.fpu softvfp
 1404              		.type	CyXTAL_EnableFaultRecovery, %function
 1405              	CyXTAL_EnableFaultRecovery:
 1406              	.LFB34:
1313:Generated_Source\PSoC5/CyLib.c **** 
1314:Generated_Source\PSoC5/CyLib.c **** 
1315:Generated_Source\PSoC5/CyLib.c **** /*******************************************************************************
1316:Generated_Source\PSoC5/CyLib.c **** * Function Name: CyXTAL_EnableFaultRecovery
1317:Generated_Source\PSoC5/CyLib.c **** ****************************************************************************//**
1318:Generated_Source\PSoC5/CyLib.c **** *
1319:Generated_Source\PSoC5/CyLib.c **** *  Enables the fault recovery circuit which will switch to the IMO in the case
1320:Generated_Source\PSoC5/CyLib.c **** *  of a fault in the megahertz crystal circuit. The crystal must be up and
1321:Generated_Source\PSoC5/CyLib.c **** *  running with the XERR bit at 0, before calling this function to prevent
1322:Generated_Source\PSoC5/CyLib.c **** *  an immediate fault switchover. This function is not available for PSoC5.
1323:Generated_Source\PSoC5/CyLib.c **** *
1324:Generated_Source\PSoC5/CyLib.c **** *******************************************************************************/
1325:Generated_Source\PSoC5/CyLib.c **** void CyXTAL_EnableFaultRecovery(void) 
1326:Generated_Source\PSoC5/CyLib.c **** {
 1407              		.loc 1 1326 1 is_stmt 1 view -0
 1408              		.cfi_startproc
 1409              		@ args = 0, pretend = 0, frame = 0
 1410              		@ frame_needed = 0, uses_anonymous_args = 0
 1411              		@ link register save eliminated.
1327:Generated_Source\PSoC5/CyLib.c ****     CY_CLK_XMHZ_CSR_REG |= CY_CLK_XMHZ_CSR_XPROT;
 1412              		.loc 1 1327 5 view .LVU319
 1413              		.loc 1 1327 25 is_stmt 0 view .LVU320
 1414 0000 024A     		ldr	r2, .L133
 1415 0002 1378     		ldrb	r3, [r2]	@ zero_extendqisi2
ARM GAS  C:\Users\jens-\AppData\Local\Temp\ccdWTNhT.s 			page 52


 1416 0004 43F04003 		orr	r3, r3, #64
 1417 0008 1370     		strb	r3, [r2]
1328:Generated_Source\PSoC5/CyLib.c **** }
 1418              		.loc 1 1328 1 view .LVU321
 1419 000a 7047     		bx	lr
 1420              	.L134:
 1421              		.align	2
 1422              	.L133:
 1423 000c 10420040 		.word	1073758736
 1424              		.cfi_endproc
 1425              	.LFE34:
 1426              		.size	CyXTAL_EnableFaultRecovery, .-CyXTAL_EnableFaultRecovery
 1427              		.section	.text.CyXTAL_DisableFaultRecovery,"ax",%progbits
 1428              		.align	1
 1429              		.global	CyXTAL_DisableFaultRecovery
 1430              		.syntax unified
 1431              		.thumb
 1432              		.thumb_func
 1433              		.fpu softvfp
 1434              		.type	CyXTAL_DisableFaultRecovery, %function
 1435              	CyXTAL_DisableFaultRecovery:
 1436              	.LFB35:
1329:Generated_Source\PSoC5/CyLib.c **** 
1330:Generated_Source\PSoC5/CyLib.c **** 
1331:Generated_Source\PSoC5/CyLib.c **** /*******************************************************************************
1332:Generated_Source\PSoC5/CyLib.c **** * Function Name: CyXTAL_DisableFaultRecovery
1333:Generated_Source\PSoC5/CyLib.c **** ****************************************************************************//**
1334:Generated_Source\PSoC5/CyLib.c **** *
1335:Generated_Source\PSoC5/CyLib.c **** *  Disables the fault recovery circuit which will switch to the IMO in the case
1336:Generated_Source\PSoC5/CyLib.c **** *  of a fault in the megahertz crystal circuit. This function is not available
1337:Generated_Source\PSoC5/CyLib.c **** *  for PSoC5.
1338:Generated_Source\PSoC5/CyLib.c **** *
1339:Generated_Source\PSoC5/CyLib.c **** *******************************************************************************/
1340:Generated_Source\PSoC5/CyLib.c **** void CyXTAL_DisableFaultRecovery(void) 
1341:Generated_Source\PSoC5/CyLib.c **** {
 1437              		.loc 1 1341 1 is_stmt 1 view -0
 1438              		.cfi_startproc
 1439              		@ args = 0, pretend = 0, frame = 0
 1440              		@ frame_needed = 0, uses_anonymous_args = 0
 1441              		@ link register save eliminated.
1342:Generated_Source\PSoC5/CyLib.c ****     CY_CLK_XMHZ_CSR_REG &= ((uint8)(~CY_CLK_XMHZ_CSR_XPROT));
 1442              		.loc 1 1342 5 view .LVU323
 1443              		.loc 1 1342 25 is_stmt 0 view .LVU324
 1444 0000 024A     		ldr	r2, .L136
 1445 0002 1378     		ldrb	r3, [r2]	@ zero_extendqisi2
 1446 0004 03F0BF03 		and	r3, r3, #191
 1447 0008 1370     		strb	r3, [r2]
1343:Generated_Source\PSoC5/CyLib.c **** }
 1448              		.loc 1 1343 1 view .LVU325
 1449 000a 7047     		bx	lr
 1450              	.L137:
 1451              		.align	2
 1452              	.L136:
 1453 000c 10420040 		.word	1073758736
 1454              		.cfi_endproc
 1455              	.LFE35:
 1456              		.size	CyXTAL_DisableFaultRecovery, .-CyXTAL_DisableFaultRecovery
ARM GAS  C:\Users\jens-\AppData\Local\Temp\ccdWTNhT.s 			page 53


 1457              		.section	.text.CyXTAL_SetStartup,"ax",%progbits
 1458              		.align	1
 1459              		.global	CyXTAL_SetStartup
 1460              		.syntax unified
 1461              		.thumb
 1462              		.thumb_func
 1463              		.fpu softvfp
 1464              		.type	CyXTAL_SetStartup, %function
 1465              	CyXTAL_SetStartup:
 1466              	.LVL65:
 1467              	.LFB36:
1344:Generated_Source\PSoC5/CyLib.c **** 
1345:Generated_Source\PSoC5/CyLib.c **** 
1346:Generated_Source\PSoC5/CyLib.c **** /*******************************************************************************
1347:Generated_Source\PSoC5/CyLib.c **** * Function Name: CyXTAL_SetStartup
1348:Generated_Source\PSoC5/CyLib.c **** ****************************************************************************//**
1349:Generated_Source\PSoC5/CyLib.c **** *
1350:Generated_Source\PSoC5/CyLib.c **** *  Sets the startup settings for the crystal. The logic model outputs a
1351:Generated_Source\PSoC5/CyLib.c **** *  frequency (setting + 4) MHz when enabled.
1352:Generated_Source\PSoC5/CyLib.c **** *
1353:Generated_Source\PSoC5/CyLib.c **** *  This is artificial as the actual frequency is determined by an attached
1354:Generated_Source\PSoC5/CyLib.c **** *  external crystal.
1355:Generated_Source\PSoC5/CyLib.c **** *
1356:Generated_Source\PSoC5/CyLib.c **** *  \param setting: Valid range [0-31].
1357:Generated_Source\PSoC5/CyLib.c **** *   The value is dependent on the frequency and quality of the crystal being
1358:Generated_Source\PSoC5/CyLib.c **** *   used. Refer to the device TRM and datasheet for more information.
1359:Generated_Source\PSoC5/CyLib.c **** *
1360:Generated_Source\PSoC5/CyLib.c **** *******************************************************************************/
1361:Generated_Source\PSoC5/CyLib.c **** void CyXTAL_SetStartup(uint8 setting) 
1362:Generated_Source\PSoC5/CyLib.c **** {
 1468              		.loc 1 1362 1 is_stmt 1 view -0
 1469              		.cfi_startproc
 1470              		@ args = 0, pretend = 0, frame = 0
 1471              		@ frame_needed = 0, uses_anonymous_args = 0
 1472              		@ link register save eliminated.
1363:Generated_Source\PSoC5/CyLib.c ****     CY_CLK_XMHZ_CFG0_REG = (CY_CLK_XMHZ_CFG0_REG & ((uint8)(~CY_CLK_XMHZ_CFG0_XCFG_MASK))) |
 1473              		.loc 1 1363 5 view .LVU327
 1474              		.loc 1 1363 29 is_stmt 0 view .LVU328
 1475 0000 044A     		ldr	r2, .L139
 1476 0002 1378     		ldrb	r3, [r2]	@ zero_extendqisi2
 1477              		.loc 1 1363 50 view .LVU329
 1478 0004 03F0E003 		and	r3, r3, #224
1364:Generated_Source\PSoC5/CyLib.c ****                            (setting & CY_CLK_XMHZ_CFG0_XCFG_MASK);
 1479              		.loc 1 1364 37 view .LVU330
 1480 0008 00F01F00 		and	r0, r0, #31
 1481              	.LVL66:
1363:Generated_Source\PSoC5/CyLib.c ****     CY_CLK_XMHZ_CFG0_REG = (CY_CLK_XMHZ_CFG0_REG & ((uint8)(~CY_CLK_XMHZ_CFG0_XCFG_MASK))) |
 1482              		.loc 1 1363 92 view .LVU331
 1483 000c 0343     		orrs	r3, r3, r0
1363:Generated_Source\PSoC5/CyLib.c ****     CY_CLK_XMHZ_CFG0_REG = (CY_CLK_XMHZ_CFG0_REG & ((uint8)(~CY_CLK_XMHZ_CFG0_XCFG_MASK))) |
 1484              		.loc 1 1363 26 view .LVU332
 1485 000e 1370     		strb	r3, [r2]
1365:Generated_Source\PSoC5/CyLib.c **** }
 1486              		.loc 1 1365 1 view .LVU333
 1487 0010 7047     		bx	lr
 1488              	.L140:
 1489 0012 00BF     		.align	2
ARM GAS  C:\Users\jens-\AppData\Local\Temp\ccdWTNhT.s 			page 54


 1490              	.L139:
 1491 0014 12420040 		.word	1073758738
 1492              		.cfi_endproc
 1493              	.LFE36:
 1494              		.size	CyXTAL_SetStartup, .-CyXTAL_SetStartup
 1495              		.section	.text.CyXTAL_SetFbVoltage,"ax",%progbits
 1496              		.align	1
 1497              		.global	CyXTAL_SetFbVoltage
 1498              		.syntax unified
 1499              		.thumb
 1500              		.thumb_func
 1501              		.fpu softvfp
 1502              		.type	CyXTAL_SetFbVoltage, %function
 1503              	CyXTAL_SetFbVoltage:
 1504              	.LVL67:
 1505              	.LFB37:
1366:Generated_Source\PSoC5/CyLib.c **** 
1367:Generated_Source\PSoC5/CyLib.c **** 
1368:Generated_Source\PSoC5/CyLib.c **** 
1369:Generated_Source\PSoC5/CyLib.c **** /*******************************************************************************
1370:Generated_Source\PSoC5/CyLib.c **** * Function Name: CyXTAL_SetFbVoltage
1371:Generated_Source\PSoC5/CyLib.c **** ****************************************************************************//**
1372:Generated_Source\PSoC5/CyLib.c **** *
1373:Generated_Source\PSoC5/CyLib.c **** *  Sets the feedback reference voltage to use for the crystal circuit.
1374:Generated_Source\PSoC5/CyLib.c **** *  This function is only available for PSoC3 and PSoC 5LP.
1375:Generated_Source\PSoC5/CyLib.c **** *
1376:Generated_Source\PSoC5/CyLib.c **** *  \param setting: Valid range [0-15].
1377:Generated_Source\PSoC5/CyLib.c **** *  Refer to the device TRM and datasheet for more information.
1378:Generated_Source\PSoC5/CyLib.c **** *
1379:Generated_Source\PSoC5/CyLib.c **** *******************************************************************************/
1380:Generated_Source\PSoC5/CyLib.c **** void CyXTAL_SetFbVoltage(uint8 setting) 
1381:Generated_Source\PSoC5/CyLib.c **** {
 1506              		.loc 1 1381 1 is_stmt 1 view -0
 1507              		.cfi_startproc
 1508              		@ args = 0, pretend = 0, frame = 0
 1509              		@ frame_needed = 0, uses_anonymous_args = 0
 1510              		@ link register save eliminated.
1382:Generated_Source\PSoC5/CyLib.c ****     CY_CLK_XMHZ_CFG1_REG = ((CY_CLK_XMHZ_CFG1_REG & ((uint8)(~CY_CLK_XMHZ_CFG1_VREF_FB_MASK))) |
 1511              		.loc 1 1382 5 view .LVU335
 1512              		.loc 1 1382 30 is_stmt 0 view .LVU336
 1513 0000 044A     		ldr	r2, .L142
 1514 0002 1378     		ldrb	r3, [r2]	@ zero_extendqisi2
 1515              		.loc 1 1382 51 view .LVU337
 1516 0004 03F0F003 		and	r3, r3, #240
1383:Generated_Source\PSoC5/CyLib.c ****                             (setting & CY_CLK_XMHZ_CFG1_VREF_FB_MASK));
 1517              		.loc 1 1383 38 view .LVU338
 1518 0008 00F00F00 		and	r0, r0, #15
 1519              	.LVL68:
1382:Generated_Source\PSoC5/CyLib.c ****     CY_CLK_XMHZ_CFG1_REG = ((CY_CLK_XMHZ_CFG1_REG & ((uint8)(~CY_CLK_XMHZ_CFG1_VREF_FB_MASK))) |
 1520              		.loc 1 1382 96 view .LVU339
 1521 000c 0343     		orrs	r3, r3, r0
1382:Generated_Source\PSoC5/CyLib.c ****     CY_CLK_XMHZ_CFG1_REG = ((CY_CLK_XMHZ_CFG1_REG & ((uint8)(~CY_CLK_XMHZ_CFG1_VREF_FB_MASK))) |
 1522              		.loc 1 1382 26 view .LVU340
 1523 000e 1370     		strb	r3, [r2]
1384:Generated_Source\PSoC5/CyLib.c **** }
 1524              		.loc 1 1384 1 view .LVU341
 1525 0010 7047     		bx	lr
ARM GAS  C:\Users\jens-\AppData\Local\Temp\ccdWTNhT.s 			page 55


 1526              	.L143:
 1527 0012 00BF     		.align	2
 1528              	.L142:
 1529 0014 13420040 		.word	1073758739
 1530              		.cfi_endproc
 1531              	.LFE37:
 1532              		.size	CyXTAL_SetFbVoltage, .-CyXTAL_SetFbVoltage
 1533              		.section	.text.CyXTAL_SetWdVoltage,"ax",%progbits
 1534              		.align	1
 1535              		.global	CyXTAL_SetWdVoltage
 1536              		.syntax unified
 1537              		.thumb
 1538              		.thumb_func
 1539              		.fpu softvfp
 1540              		.type	CyXTAL_SetWdVoltage, %function
 1541              	CyXTAL_SetWdVoltage:
 1542              	.LVL69:
 1543              	.LFB38:
1385:Generated_Source\PSoC5/CyLib.c **** 
1386:Generated_Source\PSoC5/CyLib.c **** 
1387:Generated_Source\PSoC5/CyLib.c **** /*******************************************************************************
1388:Generated_Source\PSoC5/CyLib.c **** * Function Name: CyXTAL_SetWdVoltage
1389:Generated_Source\PSoC5/CyLib.c **** ****************************************************************************//**
1390:Generated_Source\PSoC5/CyLib.c **** *
1391:Generated_Source\PSoC5/CyLib.c **** *  Sets the reference voltage used by the watchdog to detect a failure in the
1392:Generated_Source\PSoC5/CyLib.c **** *  crystal circuit. This function is only available for PSoC3 and PSoC 5LP.
1393:Generated_Source\PSoC5/CyLib.c **** *
1394:Generated_Source\PSoC5/CyLib.c **** *  \param setting: Valid range [0-7].
1395:Generated_Source\PSoC5/CyLib.c **** *  Refer to the device TRM and datasheet for more information.
1396:Generated_Source\PSoC5/CyLib.c **** *
1397:Generated_Source\PSoC5/CyLib.c **** *******************************************************************************/
1398:Generated_Source\PSoC5/CyLib.c **** void CyXTAL_SetWdVoltage(uint8 setting) 
1399:Generated_Source\PSoC5/CyLib.c **** {
 1544              		.loc 1 1399 1 is_stmt 1 view -0
 1545              		.cfi_startproc
 1546              		@ args = 0, pretend = 0, frame = 0
 1547              		@ frame_needed = 0, uses_anonymous_args = 0
 1548              		@ link register save eliminated.
1400:Generated_Source\PSoC5/CyLib.c ****     CY_CLK_XMHZ_CFG1_REG = ((CY_CLK_XMHZ_CFG1_REG & ((uint8)(~CY_CLK_XMHZ_CFG1_VREF_WD_MASK))) |
 1549              		.loc 1 1400 5 view .LVU343
 1550              		.loc 1 1400 30 is_stmt 0 view .LVU344
 1551 0000 044A     		ldr	r2, .L145
 1552 0002 1378     		ldrb	r3, [r2]	@ zero_extendqisi2
 1553              		.loc 1 1400 51 view .LVU345
 1554 0004 03F08F03 		and	r3, r3, #143
1401:Generated_Source\PSoC5/CyLib.c ****                             (((uint8)(setting << 4u)) & CY_CLK_XMHZ_CFG1_VREF_WD_MASK));
 1555              		.loc 1 1401 31 view .LVU346
 1556 0008 0001     		lsls	r0, r0, #4
 1557              	.LVL70:
 1558              		.loc 1 1401 55 view .LVU347
 1559 000a 00F07000 		and	r0, r0, #112
1400:Generated_Source\PSoC5/CyLib.c ****     CY_CLK_XMHZ_CFG1_REG = ((CY_CLK_XMHZ_CFG1_REG & ((uint8)(~CY_CLK_XMHZ_CFG1_VREF_WD_MASK))) |
 1560              		.loc 1 1400 96 view .LVU348
 1561 000e 0343     		orrs	r3, r3, r0
1400:Generated_Source\PSoC5/CyLib.c ****     CY_CLK_XMHZ_CFG1_REG = ((CY_CLK_XMHZ_CFG1_REG & ((uint8)(~CY_CLK_XMHZ_CFG1_VREF_WD_MASK))) |
 1562              		.loc 1 1400 26 view .LVU349
 1563 0010 1370     		strb	r3, [r2]
ARM GAS  C:\Users\jens-\AppData\Local\Temp\ccdWTNhT.s 			page 56


1402:Generated_Source\PSoC5/CyLib.c **** }
 1564              		.loc 1 1402 1 view .LVU350
 1565 0012 7047     		bx	lr
 1566              	.L146:
 1567              		.align	2
 1568              	.L145:
 1569 0014 13420040 		.word	1073758739
 1570              		.cfi_endproc
 1571              	.LFE38:
 1572              		.size	CyXTAL_SetWdVoltage, .-CyXTAL_SetWdVoltage
 1573              		.section	.text.CyHalt,"ax",%progbits
 1574              		.align	1
 1575              		.global	CyHalt
 1576              		.syntax unified
 1577              		.thumb
 1578              		.thumb_func
 1579              		.fpu softvfp
 1580              		.type	CyHalt, %function
 1581              	CyHalt:
 1582              	.LVL71:
 1583              	.LFB39:
1403:Generated_Source\PSoC5/CyLib.c **** 
1404:Generated_Source\PSoC5/CyLib.c **** 
1405:Generated_Source\PSoC5/CyLib.c **** /*******************************************************************************
1406:Generated_Source\PSoC5/CyLib.c **** * Function Name: CyHalt
1407:Generated_Source\PSoC5/CyLib.c **** ****************************************************************************//**
1408:Generated_Source\PSoC5/CyLib.c **** *
1409:Generated_Source\PSoC5/CyLib.c **** *  Halts the CPU.
1410:Generated_Source\PSoC5/CyLib.c **** *
1411:Generated_Source\PSoC5/CyLib.c **** *  \param uint8 reason: Value to be used during debugging.
1412:Generated_Source\PSoC5/CyLib.c **** *
1413:Generated_Source\PSoC5/CyLib.c **** *******************************************************************************/
1414:Generated_Source\PSoC5/CyLib.c **** void CyHalt(uint8 reason) CYREENTRANT
1415:Generated_Source\PSoC5/CyLib.c **** {
 1584              		.loc 1 1415 1 is_stmt 1 view -0
 1585              		.cfi_startproc
 1586              		@ args = 0, pretend = 0, frame = 0
 1587              		@ frame_needed = 0, uses_anonymous_args = 0
 1588              		@ link register save eliminated.
1416:Generated_Source\PSoC5/CyLib.c ****     if(0u != reason)
 1589              		.loc 1 1416 5 view .LVU352
1417:Generated_Source\PSoC5/CyLib.c ****     {
1418:Generated_Source\PSoC5/CyLib.c ****         /* To remove unreferenced local variable warning */
1419:Generated_Source\PSoC5/CyLib.c ****     }
 1590              		.loc 1 1419 5 view .LVU353
1420:Generated_Source\PSoC5/CyLib.c **** 
1421:Generated_Source\PSoC5/CyLib.c ****     #if defined (__ARMCC_VERSION)
1422:Generated_Source\PSoC5/CyLib.c ****         __breakpoint(0x0);
1423:Generated_Source\PSoC5/CyLib.c ****     #elif defined(__GNUC__) || defined (__ICCARM__)
1424:Generated_Source\PSoC5/CyLib.c ****         __asm("    bkpt    1");
 1591              		.loc 1 1424 9 view .LVU354
 1592              		.syntax unified
 1593              	@ 1424 "Generated_Source\PSoC5\CyLib.c" 1
 1594 0000 01BE     		    bkpt    1
 1595              	@ 0 "" 2
1425:Generated_Source\PSoC5/CyLib.c ****     #elif defined(__C51__)
1426:Generated_Source\PSoC5/CyLib.c ****         CYDEV_HALT_CPU;
ARM GAS  C:\Users\jens-\AppData\Local\Temp\ccdWTNhT.s 			page 57


1427:Generated_Source\PSoC5/CyLib.c ****     #endif  /* (__ARMCC_VERSION) */
1428:Generated_Source\PSoC5/CyLib.c **** }
 1596              		.loc 1 1428 1 is_stmt 0 view .LVU355
 1597              		.thumb
 1598              		.syntax unified
 1599 0002 7047     		bx	lr
 1600              		.cfi_endproc
 1601              	.LFE39:
 1602              		.size	CyHalt, .-CyHalt
 1603              		.section	.text.CyPLL_OUT_SetPQ,"ax",%progbits
 1604              		.align	1
 1605              		.global	CyPLL_OUT_SetPQ
 1606              		.syntax unified
 1607              		.thumb
 1608              		.thumb_func
 1609              		.fpu softvfp
 1610              		.type	CyPLL_OUT_SetPQ, %function
 1611              	CyPLL_OUT_SetPQ:
 1612              	.LVL72:
 1613              	.LFB2:
 188:Generated_Source\PSoC5/CyLib.c ****     /* Halt CPU in debug mode if PLL is enabled */
 1614              		.loc 1 188 1 is_stmt 1 view -0
 1615              		.cfi_startproc
 1616              		@ args = 0, pretend = 0, frame = 0
 1617              		@ frame_needed = 0, uses_anonymous_args = 0
 188:Generated_Source\PSoC5/CyLib.c ****     /* Halt CPU in debug mode if PLL is enabled */
 1618              		.loc 1 188 1 is_stmt 0 view .LVU357
 1619 0000 70B5     		push	{r4, r5, r6, lr}
 1620              		.cfi_def_cfa_offset 16
 1621              		.cfi_offset 4, -16
 1622              		.cfi_offset 5, -12
 1623              		.cfi_offset 6, -8
 1624              		.cfi_offset 14, -4
 1625 0002 0546     		mov	r5, r0
 1626 0004 0C46     		mov	r4, r1
 1627 0006 1646     		mov	r6, r2
 190:Generated_Source\PSoC5/CyLib.c **** 
 1628              		.loc 1 190 5 is_stmt 1 view .LVU358
 1629 0008 124B     		ldr	r3, .L154
 1630 000a 1B78     		ldrb	r3, [r3]	@ zero_extendqisi2
 1631 000c 13F0010F 		tst	r3, #1
 1632 0010 18D1     		bne	.L153
 1633              	.LVL73:
 1634              	.L149:
 190:Generated_Source\PSoC5/CyLib.c **** 
 1635              		.loc 1 190 62 discriminator 3 view .LVU359
 192:Generated_Source\PSoC5/CyLib.c ****        (qDiv    <= CY_CLK_PLL_MAX_Q_VALUE  ) && (qDiv    >= CY_CLK_PLL_MIN_Q_VALUE  ) &&
 1636              		.loc 1 192 5 discriminator 3 view .LVU360
 192:Generated_Source\PSoC5/CyLib.c ****        (qDiv    <= CY_CLK_PLL_MAX_Q_VALUE  ) && (qDiv    >= CY_CLK_PLL_MIN_Q_VALUE  ) &&
 1637              		.loc 1 192 7 is_stmt 0 discriminator 3 view .LVU361
 1638 0012 072D     		cmp	r5, #7
 1639 0014 1AD9     		bls	.L150
 192:Generated_Source\PSoC5/CyLib.c ****        (qDiv    <= CY_CLK_PLL_MAX_Q_VALUE  ) && (qDiv    >= CY_CLK_PLL_MIN_Q_VALUE  ) &&
 1640              		.loc 1 192 46 discriminator 1 view .LVU362
 1641 0016 102C     		cmp	r4, #16
 1642 0018 18D8     		bhi	.L150
 193:Generated_Source\PSoC5/CyLib.c ****        (current >= CY_CLK_PLL_MIN_CUR_VALUE) && (current <= CY_CLK_PLL_MAX_CUR_VALUE))
ARM GAS  C:\Users\jens-\AppData\Local\Temp\ccdWTNhT.s 			page 58


 1643              		.loc 1 193 46 view .LVU363
 1644 001a BCB1     		cbz	r4, .L150
 193:Generated_Source\PSoC5/CyLib.c ****        (current >= CY_CLK_PLL_MIN_CUR_VALUE) && (current <= CY_CLK_PLL_MAX_CUR_VALUE))
 1645              		.loc 1 193 87 discriminator 1 view .LVU364
 1646 001c B6B1     		cbz	r6, .L150
 194:Generated_Source\PSoC5/CyLib.c ****     {
 1647              		.loc 1 194 46 view .LVU365
 1648 001e 072E     		cmp	r6, #7
 1649 0020 14D8     		bhi	.L150
 197:Generated_Source\PSoC5/CyLib.c ****         CY_CLK_PLL_Q_REG = ((uint8)(qDiv - 1u));
 1650              		.loc 1 197 9 is_stmt 1 view .LVU366
 197:Generated_Source\PSoC5/CyLib.c ****         CY_CLK_PLL_Q_REG = ((uint8)(qDiv - 1u));
 1651              		.loc 1 197 26 is_stmt 0 view .LVU367
 1652 0022 0D4B     		ldr	r3, .L154+4
 1653 0024 1D70     		strb	r5, [r3]
 198:Generated_Source\PSoC5/CyLib.c ****         CY_CLK_PLL_CFG1_REG = (CY_CLK_PLL_CFG1_REG & CY_CLK_PLL_CURRENT_MASK) |
 1654              		.loc 1 198 9 is_stmt 1 view .LVU368
 198:Generated_Source\PSoC5/CyLib.c ****         CY_CLK_PLL_CFG1_REG = (CY_CLK_PLL_CFG1_REG & CY_CLK_PLL_CURRENT_MASK) |
 1655              		.loc 1 198 29 is_stmt 0 view .LVU369
 1656 0026 013C     		subs	r4, r4, #1
 1657 0028 E4B2     		uxtb	r4, r4
 198:Generated_Source\PSoC5/CyLib.c ****         CY_CLK_PLL_CFG1_REG = (CY_CLK_PLL_CFG1_REG & CY_CLK_PLL_CURRENT_MASK) |
 1658              		.loc 1 198 26 view .LVU370
 1659 002a 0133     		adds	r3, r3, #1
 1660 002c 1C70     		strb	r4, [r3]
 199:Generated_Source\PSoC5/CyLib.c ****                                 ((uint8)(((uint8)(current - 1u)) << CY_CLK_PLL_CURRENT_POSITION));
 1661              		.loc 1 199 9 is_stmt 1 view .LVU371
 199:Generated_Source\PSoC5/CyLib.c ****                                 ((uint8)(((uint8)(current - 1u)) << CY_CLK_PLL_CURRENT_POSITION));
 1662              		.loc 1 199 32 is_stmt 0 view .LVU372
 1663 002e 0B49     		ldr	r1, .L154+8
 1664 0030 0B78     		ldrb	r3, [r1]	@ zero_extendqisi2
 199:Generated_Source\PSoC5/CyLib.c ****                                 ((uint8)(((uint8)(current - 1u)) << CY_CLK_PLL_CURRENT_POSITION));
 1665              		.loc 1 199 52 view .LVU373
 1666 0032 03F08F02 		and	r2, r3, #143
 200:Generated_Source\PSoC5/CyLib.c ****     }
 1667              		.loc 1 200 43 view .LVU374
 1668 0036 731E     		subs	r3, r6, #1
 1669 0038 DBB2     		uxtb	r3, r3
 200:Generated_Source\PSoC5/CyLib.c ****     }
 1670              		.loc 1 200 34 view .LVU375
 1671 003a 1B01     		lsls	r3, r3, #4
 1672 003c DBB2     		uxtb	r3, r3
 199:Generated_Source\PSoC5/CyLib.c ****                                 ((uint8)(((uint8)(current - 1u)) << CY_CLK_PLL_CURRENT_POSITION));
 1673              		.loc 1 199 79 view .LVU376
 1674 003e 1343     		orrs	r3, r3, r2
 199:Generated_Source\PSoC5/CyLib.c ****                                 ((uint8)(((uint8)(current - 1u)) << CY_CLK_PLL_CURRENT_POSITION));
 1675              		.loc 1 199 29 view .LVU377
 1676 0040 0B70     		strb	r3, [r1]
 1677 0042 06E0     		b	.L148
 1678              	.LVL74:
 1679              	.L153:
 190:Generated_Source\PSoC5/CyLib.c **** 
 1680              		.loc 1 190 5 is_stmt 1 discriminator 1 view .LVU378
 1681 0044 0020     		movs	r0, #0
 1682              	.LVL75:
 190:Generated_Source\PSoC5/CyLib.c **** 
 1683              		.loc 1 190 5 is_stmt 0 discriminator 1 view .LVU379
ARM GAS  C:\Users\jens-\AppData\Local\Temp\ccdWTNhT.s 			page 59


 1684 0046 FFF7FEFF 		bl	CyHalt
 1685              	.LVL76:
 190:Generated_Source\PSoC5/CyLib.c **** 
 1686              		.loc 1 190 5 discriminator 1 view .LVU380
 1687 004a E2E7     		b	.L149
 1688              	.L150:
 210:Generated_Source\PSoC5/CyLib.c ****     }
 1689              		.loc 1 210 9 is_stmt 1 discriminator 1 view .LVU381
 210:Generated_Source\PSoC5/CyLib.c ****     }
 1690              		.loc 1 210 9 discriminator 1 view .LVU382
 1691 004c 0020     		movs	r0, #0
 1692 004e FFF7FEFF 		bl	CyHalt
 1693              	.LVL77:
 210:Generated_Source\PSoC5/CyLib.c ****     }
 1694              		.loc 1 210 27 discriminator 1 view .LVU383
 1695              	.L148:
 213:Generated_Source\PSoC5/CyLib.c **** 
 1696              		.loc 1 213 1 is_stmt 0 view .LVU384
 1697 0052 70BD     		pop	{r4, r5, r6, pc}
 1698              	.L155:
 1699              		.align	2
 1700              	.L154:
 1701 0054 20420040 		.word	1073758752
 1702 0058 22420040 		.word	1073758754
 1703 005c 21420040 		.word	1073758753
 1704              		.cfi_endproc
 1705              	.LFE2:
 1706              		.size	CyPLL_OUT_SetPQ, .-CyPLL_OUT_SetPQ
 1707              		.section	.text.CyPLL_OUT_SetSource,"ax",%progbits
 1708              		.align	1
 1709              		.global	CyPLL_OUT_SetSource
 1710              		.syntax unified
 1711              		.thumb
 1712              		.thumb_func
 1713              		.fpu softvfp
 1714              		.type	CyPLL_OUT_SetSource, %function
 1715              	CyPLL_OUT_SetSource:
 1716              	.LVL78:
 1717              	.LFB3:
 238:Generated_Source\PSoC5/CyLib.c ****     /* Halt CPU in debug mode if PLL is enabled */
 1718              		.loc 1 238 1 is_stmt 1 view -0
 1719              		.cfi_startproc
 1720              		@ args = 0, pretend = 0, frame = 0
 1721              		@ frame_needed = 0, uses_anonymous_args = 0
 238:Generated_Source\PSoC5/CyLib.c ****     /* Halt CPU in debug mode if PLL is enabled */
 1722              		.loc 1 238 1 is_stmt 0 view .LVU386
 1723 0000 10B5     		push	{r4, lr}
 1724              		.cfi_def_cfa_offset 8
 1725              		.cfi_offset 4, -8
 1726              		.cfi_offset 14, -4
 1727 0002 0446     		mov	r4, r0
 240:Generated_Source\PSoC5/CyLib.c **** 
 1728              		.loc 1 240 5 is_stmt 1 view .LVU387
 1729 0004 0B4B     		ldr	r3, .L162
 1730 0006 1B78     		ldrb	r3, [r3]	@ zero_extendqisi2
 1731 0008 13F0010F 		tst	r3, #1
 1732 000c 09D1     		bne	.L161
ARM GAS  C:\Users\jens-\AppData\Local\Temp\ccdWTNhT.s 			page 60


 1733              	.LVL79:
 1734              	.L157:
 240:Generated_Source\PSoC5/CyLib.c **** 
 1735              		.loc 1 240 62 discriminator 3 view .LVU388
 242:Generated_Source\PSoC5/CyLib.c ****     {
 1736              		.loc 1 242 5 discriminator 3 view .LVU389
 1737 000e 022C     		cmp	r4, #2
 1738 0010 0BD8     		bhi	.L158
 247:Generated_Source\PSoC5/CyLib.c ****         break;
 1739              		.loc 1 247 13 view .LVU390
 247:Generated_Source\PSoC5/CyLib.c ****         break;
 1740              		.loc 1 247 39 is_stmt 0 view .LVU391
 1741 0012 4FF04023 		mov	r3, #1073758208
 1742 0016 1878     		ldrb	r0, [r3]	@ zero_extendqisi2
 247:Generated_Source\PSoC5/CyLib.c ****         break;
 1743              		.loc 1 247 61 view .LVU392
 1744 0018 00F0FC00 		and	r0, r0, #252
 247:Generated_Source\PSoC5/CyLib.c ****         break;
 1745              		.loc 1 247 95 view .LVU393
 1746 001c 0443     		orrs	r4, r4, r0
 247:Generated_Source\PSoC5/CyLib.c ****         break;
 1747              		.loc 1 247 35 view .LVU394
 1748 001e 1C70     		strb	r4, [r3]
 248:Generated_Source\PSoC5/CyLib.c **** 
 1749              		.loc 1 248 9 is_stmt 1 view .LVU395
 1750              	.L156:
 254:Generated_Source\PSoC5/CyLib.c **** 
 1751              		.loc 1 254 1 is_stmt 0 view .LVU396
 1752 0020 10BD     		pop	{r4, pc}
 1753              	.LVL80:
 1754              	.L161:
 240:Generated_Source\PSoC5/CyLib.c **** 
 1755              		.loc 1 240 5 is_stmt 1 discriminator 1 view .LVU397
 1756 0022 0020     		movs	r0, #0
 1757              	.LVL81:
 240:Generated_Source\PSoC5/CyLib.c **** 
 1758              		.loc 1 240 5 is_stmt 0 discriminator 1 view .LVU398
 1759 0024 FFF7FEFF 		bl	CyHalt
 1760              	.LVL82:
 1761 0028 F1E7     		b	.L157
 1762              	.L158:
 251:Generated_Source\PSoC5/CyLib.c ****         break;
 1763              		.loc 1 251 13 is_stmt 1 discriminator 1 view .LVU399
 251:Generated_Source\PSoC5/CyLib.c ****         break;
 1764              		.loc 1 251 13 discriminator 1 view .LVU400
 1765 002a 0020     		movs	r0, #0
 1766 002c FFF7FEFF 		bl	CyHalt
 1767              	.LVL83:
 251:Generated_Source\PSoC5/CyLib.c ****         break;
 1768              		.loc 1 251 31 discriminator 1 view .LVU401
 252:Generated_Source\PSoC5/CyLib.c ****     }
 1769              		.loc 1 252 9 discriminator 1 view .LVU402
 254:Generated_Source\PSoC5/CyLib.c **** 
 1770              		.loc 1 254 1 is_stmt 0 discriminator 1 view .LVU403
 1771 0030 F6E7     		b	.L156
 1772              	.L163:
 1773 0032 00BF     		.align	2
ARM GAS  C:\Users\jens-\AppData\Local\Temp\ccdWTNhT.s 			page 61


 1774              	.L162:
 1775 0034 20420040 		.word	1073758752
 1776              		.cfi_endproc
 1777              	.LFE3:
 1778              		.size	CyPLL_OUT_SetSource, .-CyPLL_OUT_SetSource
 1779              		.section	.text.CyIMO_SetTrimValue,"ax",%progbits
 1780              		.align	1
 1781              		.syntax unified
 1782              		.thumb
 1783              		.thumb_func
 1784              		.fpu softvfp
 1785              		.type	CyIMO_SetTrimValue, %function
 1786              	CyIMO_SetTrimValue:
 1787              	.LVL84:
 1788              	.LFB7:
 368:Generated_Source\PSoC5/CyLib.c ****     uint8 usbPowerOn = CyUSB_PowerOnCheck();
 1789              		.loc 1 368 1 is_stmt 1 view -0
 1790              		.cfi_startproc
 1791              		@ args = 0, pretend = 0, frame = 0
 1792              		@ frame_needed = 0, uses_anonymous_args = 0
 368:Generated_Source\PSoC5/CyLib.c ****     uint8 usbPowerOn = CyUSB_PowerOnCheck();
 1793              		.loc 1 368 1 is_stmt 0 view .LVU405
 1794 0000 10B5     		push	{r4, lr}
 1795              		.cfi_def_cfa_offset 8
 1796              		.cfi_offset 4, -8
 1797              		.cfi_offset 14, -4
 1798 0002 0446     		mov	r4, r0
 369:Generated_Source\PSoC5/CyLib.c **** 
 1799              		.loc 1 369 5 is_stmt 1 view .LVU406
 369:Generated_Source\PSoC5/CyLib.c **** 
 1800              		.loc 1 369 24 is_stmt 0 view .LVU407
 1801 0004 FFF7FEFF 		bl	CyUSB_PowerOnCheck
 1802              	.LVL85:
 372:Generated_Source\PSoC5/CyLib.c ****     {
 1803              		.loc 1 372 5 is_stmt 1 view .LVU408
 372:Generated_Source\PSoC5/CyLib.c ****     {
 1804              		.loc 1 372 7 is_stmt 0 view .LVU409
 1805 0008 0128     		cmp	r0, #1
 1806 000a 08D0     		beq	.L178
 1807              	.L165:
 377:Generated_Source\PSoC5/CyLib.c ****     {
 1808              		.loc 1 377 5 is_stmt 1 view .LVU410
 1809 000c 082C     		cmp	r4, #8
 1810 000e 45D8     		bhi	.L166
 1811 0010 DFE804F0 		tbb	[pc, r4]
 1812              	.L168:
 1813 0014 0B       		.byte	(.L175-.L168)/2
 1814 0015 11       		.byte	(.L174-.L168)/2
 1815 0016 17       		.byte	(.L173-.L168)/2
 1816 0017 1D       		.byte	(.L172-.L168)/2
 1817 0018 23       		.byte	(.L171-.L168)/2
 1818 0019 29       		.byte	(.L170-.L168)/2
 1819 001a 2F       		.byte	(.L169-.L168)/2
 1820 001b 44       		.byte	(.L166-.L168)/2
 1821 001c 35       		.byte	(.L167-.L168)/2
 1822 001d 00       		.p2align 1
 1823              	.L178:
ARM GAS  C:\Users\jens-\AppData\Local\Temp\ccdWTNhT.s 			page 62


 375:Generated_Source\PSoC5/CyLib.c ****     }
 1824              		.loc 1 375 9 view .LVU411
 375:Generated_Source\PSoC5/CyLib.c ****     }
 1825              		.loc 1 375 28 is_stmt 0 view .LVU412
 1826 001e 214A     		ldr	r2, .L179
 1827 0020 1378     		ldrb	r3, [r2]	@ zero_extendqisi2
 1828 0022 03F0FD03 		and	r3, r3, #253
 1829 0026 1370     		strb	r3, [r2]
 1830 0028 F0E7     		b	.L165
 1831              	.L175:
 380:Generated_Source\PSoC5/CyLib.c ****         break;
 1832              		.loc 1 380 9 is_stmt 1 view .LVU413
 380:Generated_Source\PSoC5/CyLib.c ****         break;
 1833              		.loc 1 380 30 is_stmt 0 view .LVU414
 1834 002a 1F4B     		ldr	r3, .L179+4
 1835 002c 1B78     		ldrb	r3, [r3]	@ zero_extendqisi2
 1836 002e DBB2     		uxtb	r3, r3
 380:Generated_Source\PSoC5/CyLib.c ****         break;
 1837              		.loc 1 380 28 view .LVU415
 1838 0030 1E4A     		ldr	r2, .L179+8
 1839 0032 1370     		strb	r3, [r2]
 381:Generated_Source\PSoC5/CyLib.c **** 
 1840              		.loc 1 381 9 is_stmt 1 view .LVU416
 1841              	.LVL86:
 1842              	.L164:
 425:Generated_Source\PSoC5/CyLib.c **** 
 1843              		.loc 1 425 1 is_stmt 0 view .LVU417
 1844 0034 10BD     		pop	{r4, pc}
 1845              	.LVL87:
 1846              	.L174:
 384:Generated_Source\PSoC5/CyLib.c ****         break;
 1847              		.loc 1 384 9 is_stmt 1 view .LVU418
 384:Generated_Source\PSoC5/CyLib.c ****         break;
 1848              		.loc 1 384 30 is_stmt 0 view .LVU419
 1849 0036 1E4B     		ldr	r3, .L179+12
 1850 0038 1B78     		ldrb	r3, [r3]	@ zero_extendqisi2
 1851 003a DBB2     		uxtb	r3, r3
 384:Generated_Source\PSoC5/CyLib.c ****         break;
 1852              		.loc 1 384 28 view .LVU420
 1853 003c 1B4A     		ldr	r2, .L179+8
 1854 003e 1370     		strb	r3, [r2]
 385:Generated_Source\PSoC5/CyLib.c **** 
 1855              		.loc 1 385 9 is_stmt 1 view .LVU421
 1856 0040 F8E7     		b	.L164
 1857              	.L173:
 388:Generated_Source\PSoC5/CyLib.c ****         break;
 1858              		.loc 1 388 9 view .LVU422
 388:Generated_Source\PSoC5/CyLib.c ****         break;
 1859              		.loc 1 388 30 is_stmt 0 view .LVU423
 1860 0042 1C4B     		ldr	r3, .L179+16
 1861 0044 1B78     		ldrb	r3, [r3]	@ zero_extendqisi2
 1862 0046 DBB2     		uxtb	r3, r3
 388:Generated_Source\PSoC5/CyLib.c ****         break;
 1863              		.loc 1 388 28 view .LVU424
 1864 0048 184A     		ldr	r2, .L179+8
 1865 004a 1370     		strb	r3, [r2]
 389:Generated_Source\PSoC5/CyLib.c **** 
ARM GAS  C:\Users\jens-\AppData\Local\Temp\ccdWTNhT.s 			page 63


 1866              		.loc 1 389 9 is_stmt 1 view .LVU425
 1867 004c F2E7     		b	.L164
 1868              	.L172:
 392:Generated_Source\PSoC5/CyLib.c ****         break;
 1869              		.loc 1 392 9 view .LVU426
 392:Generated_Source\PSoC5/CyLib.c ****         break;
 1870              		.loc 1 392 30 is_stmt 0 view .LVU427
 1871 004e 1A4B     		ldr	r3, .L179+20
 1872 0050 1B78     		ldrb	r3, [r3]	@ zero_extendqisi2
 1873 0052 DBB2     		uxtb	r3, r3
 392:Generated_Source\PSoC5/CyLib.c ****         break;
 1874              		.loc 1 392 28 view .LVU428
 1875 0054 154A     		ldr	r2, .L179+8
 1876 0056 1370     		strb	r3, [r2]
 393:Generated_Source\PSoC5/CyLib.c **** 
 1877              		.loc 1 393 9 is_stmt 1 view .LVU429
 1878 0058 ECE7     		b	.L164
 1879              	.L171:
 396:Generated_Source\PSoC5/CyLib.c ****         break;
 1880              		.loc 1 396 9 view .LVU430
 396:Generated_Source\PSoC5/CyLib.c ****         break;
 1881              		.loc 1 396 30 is_stmt 0 view .LVU431
 1882 005a 184B     		ldr	r3, .L179+24
 1883 005c 1B78     		ldrb	r3, [r3]	@ zero_extendqisi2
 1884 005e DBB2     		uxtb	r3, r3
 396:Generated_Source\PSoC5/CyLib.c ****         break;
 1885              		.loc 1 396 28 view .LVU432
 1886 0060 124A     		ldr	r2, .L179+8
 1887 0062 1370     		strb	r3, [r2]
 397:Generated_Source\PSoC5/CyLib.c **** 
 1888              		.loc 1 397 9 is_stmt 1 view .LVU433
 1889 0064 E6E7     		b	.L164
 1890              	.L170:
 400:Generated_Source\PSoC5/CyLib.c ****         break;
 1891              		.loc 1 400 9 view .LVU434
 400:Generated_Source\PSoC5/CyLib.c ****         break;
 1892              		.loc 1 400 30 is_stmt 0 view .LVU435
 1893 0066 164B     		ldr	r3, .L179+28
 1894 0068 1B78     		ldrb	r3, [r3]	@ zero_extendqisi2
 1895 006a DBB2     		uxtb	r3, r3
 400:Generated_Source\PSoC5/CyLib.c ****         break;
 1896              		.loc 1 400 28 view .LVU436
 1897 006c 0F4A     		ldr	r2, .L179+8
 1898 006e 1370     		strb	r3, [r2]
 401:Generated_Source\PSoC5/CyLib.c **** 
 1899              		.loc 1 401 9 is_stmt 1 view .LVU437
 1900 0070 E0E7     		b	.L164
 1901              	.L169:
 405:Generated_Source\PSoC5/CyLib.c ****         break;
 1902              		.loc 1 405 9 view .LVU438
 405:Generated_Source\PSoC5/CyLib.c ****         break;
 1903              		.loc 1 405 30 is_stmt 0 view .LVU439
 1904 0072 144B     		ldr	r3, .L179+32
 1905 0074 1B78     		ldrb	r3, [r3]	@ zero_extendqisi2
 1906 0076 DBB2     		uxtb	r3, r3
 405:Generated_Source\PSoC5/CyLib.c ****         break;
 1907              		.loc 1 405 28 view .LVU440
ARM GAS  C:\Users\jens-\AppData\Local\Temp\ccdWTNhT.s 			page 64


 1908 0078 0C4A     		ldr	r2, .L179+8
 1909 007a 1370     		strb	r3, [r2]
 406:Generated_Source\PSoC5/CyLib.c **** #endif  /* (CY_PSOC5) */
 1910              		.loc 1 406 9 is_stmt 1 view .LVU441
 1911 007c DAE7     		b	.L164
 1912              	.L167:
 410:Generated_Source\PSoC5/CyLib.c **** 
 1913              		.loc 1 410 9 view .LVU442
 410:Generated_Source\PSoC5/CyLib.c **** 
 1914              		.loc 1 410 30 is_stmt 0 view .LVU443
 1915 007e 124B     		ldr	r3, .L179+36
 1916 0080 1B78     		ldrb	r3, [r3]	@ zero_extendqisi2
 1917 0082 DBB2     		uxtb	r3, r3
 410:Generated_Source\PSoC5/CyLib.c **** 
 1918              		.loc 1 410 28 view .LVU444
 1919 0084 094A     		ldr	r2, .L179+8
 1920 0086 1370     		strb	r3, [r2]
 413:Generated_Source\PSoC5/CyLib.c ****         {
 1921              		.loc 1 413 9 is_stmt 1 view .LVU445
 413:Generated_Source\PSoC5/CyLib.c ****         {
 1922              		.loc 1 413 11 is_stmt 0 view .LVU446
 1923 0088 0128     		cmp	r0, #1
 1924 008a D3D1     		bne	.L164
 416:Generated_Source\PSoC5/CyLib.c ****         }
 1925              		.loc 1 416 13 is_stmt 1 view .LVU447
 416:Generated_Source\PSoC5/CyLib.c ****         }
 1926              		.loc 1 416 32 is_stmt 0 view .LVU448
 1927 008c 02F5CB52 		add	r2, r2, #6496
 1928 0090 0832     		adds	r2, r2, #8
 1929 0092 1378     		ldrb	r3, [r2]	@ zero_extendqisi2
 1930 0094 43F00203 		orr	r3, r3, #2
 1931 0098 1370     		strb	r3, [r2]
 1932 009a CBE7     		b	.L164
 1933              	.L166:
 421:Generated_Source\PSoC5/CyLib.c ****         break;
 1934              		.loc 1 421 13 is_stmt 1 discriminator 1 view .LVU449
 421:Generated_Source\PSoC5/CyLib.c ****         break;
 1935              		.loc 1 421 13 discriminator 1 view .LVU450
 1936 009c 0020     		movs	r0, #0
 1937              	.LVL88:
 421:Generated_Source\PSoC5/CyLib.c ****         break;
 1938              		.loc 1 421 13 is_stmt 0 discriminator 1 view .LVU451
 1939 009e FFF7FEFF 		bl	CyHalt
 1940              	.LVL89:
 421:Generated_Source\PSoC5/CyLib.c ****         break;
 1941              		.loc 1 421 31 is_stmt 1 discriminator 1 view .LVU452
 422:Generated_Source\PSoC5/CyLib.c ****     }
 1942              		.loc 1 422 9 discriminator 1 view .LVU453
 425:Generated_Source\PSoC5/CyLib.c **** 
 1943              		.loc 1 425 1 is_stmt 0 discriminator 1 view .LVU454
 1944 00a2 C7E7     		b	.L164
 1945              	.L180:
 1946              		.align	2
 1947              	.L179:
 1948 00a4 09600040 		.word	1073766409
 1949 00a8 08010049 		.word	1224737032
 1950 00ac A1460040 		.word	1073759905
ARM GAS  C:\Users\jens-\AppData\Local\Temp\ccdWTNhT.s 			page 65


 1951 00b0 09010049 		.word	1224737033
 1952 00b4 0A010049 		.word	1224737034
 1953 00b8 0B010049 		.word	1224737035
 1954 00bc 89010049 		.word	1224737161
 1955 00c0 0C010049 		.word	1224737036
 1956 00c4 0D010049 		.word	1224737037
 1957 00c8 0F010049 		.word	1224737039
 1958              		.cfi_endproc
 1959              	.LFE7:
 1960              		.size	CyIMO_SetTrimValue, .-CyIMO_SetTrimValue
 1961              		.section	.text.CyIMO_SetFreq,"ax",%progbits
 1962              		.align	1
 1963              		.global	CyIMO_SetFreq
 1964              		.syntax unified
 1965              		.thumb
 1966              		.thumb_func
 1967              		.fpu softvfp
 1968              		.type	CyIMO_SetFreq, %function
 1969              	CyIMO_SetFreq:
 1970              	.LVL90:
 1971              	.LFB8:
 458:Generated_Source\PSoC5/CyLib.c ****     uint8 currentFreq;
 1972              		.loc 1 458 1 is_stmt 1 view -0
 1973              		.cfi_startproc
 1974              		@ args = 0, pretend = 0, frame = 0
 1975              		@ frame_needed = 0, uses_anonymous_args = 0
 458:Generated_Source\PSoC5/CyLib.c ****     uint8 currentFreq;
 1976              		.loc 1 458 1 is_stmt 0 view .LVU456
 1977 0000 70B5     		push	{r4, r5, r6, lr}
 1978              		.cfi_def_cfa_offset 16
 1979              		.cfi_offset 4, -16
 1980              		.cfi_offset 5, -12
 1981              		.cfi_offset 6, -8
 1982              		.cfi_offset 14, -4
 1983 0002 0446     		mov	r4, r0
 459:Generated_Source\PSoC5/CyLib.c ****     uint8 nextFreq;
 1984              		.loc 1 459 5 is_stmt 1 view .LVU457
 460:Generated_Source\PSoC5/CyLib.c **** 
 1985              		.loc 1 460 5 view .LVU458
 469:Generated_Source\PSoC5/CyLib.c **** 
 1986              		.loc 1 469 5 view .LVU459
 469:Generated_Source\PSoC5/CyLib.c **** 
 1987              		.loc 1 469 45 is_stmt 0 view .LVU460
 1988 0004 3B4B     		ldr	r3, .L209
 1989 0006 1D78     		ldrb	r5, [r3]	@ zero_extendqisi2
 469:Generated_Source\PSoC5/CyLib.c **** 
 1990              		.loc 1 469 17 view .LVU461
 1991 0008 05F00705 		and	r5, r5, #7
 1992              	.LVL91:
 472:Generated_Source\PSoC5/CyLib.c **** 
 1993              		.loc 1 472 5 is_stmt 1 view .LVU462
 472:Generated_Source\PSoC5/CyLib.c **** 
 1994              		.loc 1 472 14 is_stmt 0 view .LVU463
 1995 000c 0828     		cmp	r0, #8
 1996 000e 08D0     		beq	.L204
 1997 0010 0646     		mov	r6, r0
 1998              	.L182:
ARM GAS  C:\Users\jens-\AppData\Local\Temp\ccdWTNhT.s 			page 66


 1999              	.LVL92:
 474:Generated_Source\PSoC5/CyLib.c ****     {
 2000              		.loc 1 474 5 is_stmt 1 discriminator 4 view .LVU464
 2001 0012 062D     		cmp	r5, #6
 2002 0014 17D8     		bhi	.L183
 2003 0016 DFE805F0 		tbb	[pc, r5]
 2004              	.L185:
 2005 001a 06       		.byte	(.L188-.L185)/2
 2006 001b 07       		.byte	(.L184-.L185)/2
 2007 001c 12       		.byte	(.L187-.L185)/2
 2008 001d 14       		.byte	(.L186-.L185)/2
 2009 001e 07       		.byte	(.L184-.L185)/2
 2010 001f 07       		.byte	(.L184-.L185)/2
 2011 0020 07       		.byte	(.L184-.L185)/2
 2012              	.LVL93:
 2013 0021 00       		.p2align 1
 2014              	.L204:
 472:Generated_Source\PSoC5/CyLib.c **** 
 2015              		.loc 1 472 14 is_stmt 0 view .LVU465
 2016 0022 0326     		movs	r6, #3
 2017 0024 F5E7     		b	.L182
 2018              	.LVL94:
 2019              	.L188:
 489:Generated_Source\PSoC5/CyLib.c ****         break;
 2020              		.loc 1 489 21 view .LVU466
 2021 0026 0225     		movs	r5, #2
 2022              	.LVL95:
 2023              	.L184:
 511:Generated_Source\PSoC5/CyLib.c ****     {
 2024              		.loc 1 511 5 is_stmt 1 view .LVU467
 511:Generated_Source\PSoC5/CyLib.c ****     {
 2025              		.loc 1 511 8 is_stmt 0 view .LVU468
 2026 0028 B542     		cmp	r5, r6
 2027 002a 10D9     		bls	.L206
 2028              	.L189:
 518:Generated_Source\PSoC5/CyLib.c ****     {
 2029              		.loc 1 518 5 is_stmt 1 view .LVU469
 2030 002c 082C     		cmp	r4, #8
 2031 002e 56D8     		bhi	.L190
 2032 0030 DFE804F0 		tbb	[pc, r4]
 2033              	.L192:
 2034 0034 11       		.byte	(.L199-.L192)/2
 2035 0035 1F       		.byte	(.L198-.L192)/2
 2036 0036 27       		.byte	(.L197-.L192)/2
 2037 0037 2D       		.byte	(.L196-.L192)/2
 2038 0038 35       		.byte	(.L195-.L192)/2
 2039 0039 3D       		.byte	(.L194-.L192)/2
 2040 003a 45       		.byte	(.L193-.L192)/2
 2041 003b 55       		.byte	(.L190-.L192)/2
 2042 003c 4D       		.byte	(.L191-.L192)/2
 2043              	.LVL96:
 2044 003d 00       		.p2align 1
 2045              	.L187:
 485:Generated_Source\PSoC5/CyLib.c ****         break;
 2046              		.loc 1 485 9 view .LVU470
 486:Generated_Source\PSoC5/CyLib.c **** 
 2047              		.loc 1 486 9 view .LVU471
ARM GAS  C:\Users\jens-\AppData\Local\Temp\ccdWTNhT.s 			page 67


 485:Generated_Source\PSoC5/CyLib.c ****         break;
 2048              		.loc 1 485 21 is_stmt 0 view .LVU472
 2049 003e 0325     		movs	r5, #3
 486:Generated_Source\PSoC5/CyLib.c **** 
 2050              		.loc 1 486 9 view .LVU473
 2051 0040 F2E7     		b	.L184
 2052              	.LVL97:
 2053              	.L186:
 489:Generated_Source\PSoC5/CyLib.c ****         break;
 2054              		.loc 1 489 9 is_stmt 1 view .LVU474
 490:Generated_Source\PSoC5/CyLib.c **** 
 2055              		.loc 1 490 9 view .LVU475
 489:Generated_Source\PSoC5/CyLib.c ****         break;
 2056              		.loc 1 489 21 is_stmt 0 view .LVU476
 2057 0042 0025     		movs	r5, #0
 490:Generated_Source\PSoC5/CyLib.c **** 
 2058              		.loc 1 490 9 view .LVU477
 2059 0044 F0E7     		b	.L184
 2060              	.LVL98:
 2061              	.L183:
 507:Generated_Source\PSoC5/CyLib.c ****         break;
 2062              		.loc 1 507 9 is_stmt 1 discriminator 1 view .LVU478
 507:Generated_Source\PSoC5/CyLib.c ****         break;
 2063              		.loc 1 507 9 discriminator 1 view .LVU479
 2064 0046 0020     		movs	r0, #0
 2065              	.LVL99:
 507:Generated_Source\PSoC5/CyLib.c ****         break;
 2066              		.loc 1 507 9 is_stmt 0 discriminator 1 view .LVU480
 2067 0048 FFF7FEFF 		bl	CyHalt
 2068              	.LVL100:
 507:Generated_Source\PSoC5/CyLib.c ****         break;
 2069              		.loc 1 507 27 is_stmt 1 discriminator 1 view .LVU481
 508:Generated_Source\PSoC5/CyLib.c ****     }
 2070              		.loc 1 508 9 discriminator 1 view .LVU482
 2071 004c ECE7     		b	.L184
 2072              	.L206:
 514:Generated_Source\PSoC5/CyLib.c ****     }
 2073              		.loc 1 514 9 view .LVU483
 2074 004e 2046     		mov	r0, r4
 2075 0050 FFF7FEFF 		bl	CyIMO_SetTrimValue
 2076              	.LVL101:
 2077 0054 EAE7     		b	.L189
 2078              	.L199:
 521:Generated_Source\PSoC5/CyLib.c ****             CY_LIB_IMO_3MHZ_VALUE) & ((uint8)(~CY_LIB_IMO_USBCLK_ON_SET));
 2079              		.loc 1 521 9 view .LVU484
 521:Generated_Source\PSoC5/CyLib.c ****             CY_LIB_IMO_3MHZ_VALUE) & ((uint8)(~CY_LIB_IMO_USBCLK_ON_SET));
 2080              		.loc 1 521 39 is_stmt 0 view .LVU485
 2081 0056 274A     		ldr	r2, .L209
 2082 0058 1378     		ldrb	r3, [r2]	@ zero_extendqisi2
 522:Generated_Source\PSoC5/CyLib.c ****         break;
 2083              		.loc 1 522 36 view .LVU486
 2084 005a 03F0B803 		and	r3, r3, #184
 2085 005e 43F00303 		orr	r3, r3, #3
 521:Generated_Source\PSoC5/CyLib.c ****             CY_LIB_IMO_3MHZ_VALUE) & ((uint8)(~CY_LIB_IMO_USBCLK_ON_SET));
 2086              		.loc 1 521 35 view .LVU487
 2087 0062 1370     		strb	r3, [r2]
 523:Generated_Source\PSoC5/CyLib.c **** 
ARM GAS  C:\Users\jens-\AppData\Local\Temp\ccdWTNhT.s 			page 68


 2088              		.loc 1 523 9 is_stmt 1 view .LVU488
 2089              	.L200:
 568:Generated_Source\PSoC5/CyLib.c ****     {
 2090              		.loc 1 568 5 view .LVU489
 568:Generated_Source\PSoC5/CyLib.c ****     {
 2091              		.loc 1 568 8 is_stmt 0 view .LVU490
 2092 0064 082C     		cmp	r4, #8
 2093 0066 3ED0     		beq	.L207
 574:Generated_Source\PSoC5/CyLib.c ****     }
 2094              		.loc 1 574 9 is_stmt 1 view .LVU491
 2095 0068 FFF7FEFF 		bl	CyIMO_DisableDoubler
 2096              	.LVL102:
 2097              	.L202:
 577:Generated_Source\PSoC5/CyLib.c ****     {
 2098              		.loc 1 577 5 view .LVU492
 577:Generated_Source\PSoC5/CyLib.c ****     {
 2099              		.loc 1 577 8 is_stmt 0 view .LVU493
 2100 006c B542     		cmp	r5, r6
 2101 006e 3DD8     		bhi	.L208
 2102              	.L181:
 582:Generated_Source\PSoC5/CyLib.c **** 
 2103              		.loc 1 582 1 view .LVU494
 2104 0070 70BD     		pop	{r4, r5, r6, pc}
 2105              	.LVL103:
 2106              	.L198:
 526:Generated_Source\PSoC5/CyLib.c ****             CY_LIB_IMO_6MHZ_VALUE) & ((uint8)(~CY_LIB_IMO_USBCLK_ON_SET));
 2107              		.loc 1 526 9 is_stmt 1 view .LVU495
 526:Generated_Source\PSoC5/CyLib.c ****             CY_LIB_IMO_6MHZ_VALUE) & ((uint8)(~CY_LIB_IMO_USBCLK_ON_SET));
 2108              		.loc 1 526 39 is_stmt 0 view .LVU496
 2109 0072 204A     		ldr	r2, .L209
 2110 0074 1378     		ldrb	r3, [r2]	@ zero_extendqisi2
 527:Generated_Source\PSoC5/CyLib.c ****         break;
 2111              		.loc 1 527 36 view .LVU497
 2112 0076 03F0B803 		and	r3, r3, #184
 2113 007a 43F00103 		orr	r3, r3, #1
 526:Generated_Source\PSoC5/CyLib.c ****             CY_LIB_IMO_6MHZ_VALUE) & ((uint8)(~CY_LIB_IMO_USBCLK_ON_SET));
 2114              		.loc 1 526 35 view .LVU498
 2115 007e 1370     		strb	r3, [r2]
 528:Generated_Source\PSoC5/CyLib.c **** 
 2116              		.loc 1 528 9 is_stmt 1 view .LVU499
 2117 0080 F0E7     		b	.L200
 2118              	.L197:
 531:Generated_Source\PSoC5/CyLib.c ****             CY_LIB_IMO_12MHZ_VALUE) & ((uint8)(~CY_LIB_IMO_USBCLK_ON_SET));
 2119              		.loc 1 531 9 view .LVU500
 531:Generated_Source\PSoC5/CyLib.c ****             CY_LIB_IMO_12MHZ_VALUE) & ((uint8)(~CY_LIB_IMO_USBCLK_ON_SET));
 2120              		.loc 1 531 39 is_stmt 0 view .LVU501
 2121 0082 1C4A     		ldr	r2, .L209
 2122 0084 1378     		ldrb	r3, [r2]	@ zero_extendqisi2
 532:Generated_Source\PSoC5/CyLib.c ****         break;
 2123              		.loc 1 532 37 view .LVU502
 2124 0086 03F0B803 		and	r3, r3, #184
 531:Generated_Source\PSoC5/CyLib.c ****             CY_LIB_IMO_12MHZ_VALUE) & ((uint8)(~CY_LIB_IMO_USBCLK_ON_SET));
 2125              		.loc 1 531 35 view .LVU503
 2126 008a 1370     		strb	r3, [r2]
 533:Generated_Source\PSoC5/CyLib.c **** 
 2127              		.loc 1 533 9 is_stmt 1 view .LVU504
 2128 008c EAE7     		b	.L200
ARM GAS  C:\Users\jens-\AppData\Local\Temp\ccdWTNhT.s 			page 69


 2129              	.L196:
 536:Generated_Source\PSoC5/CyLib.c ****             CY_LIB_IMO_24MHZ_VALUE) & ((uint8)(~CY_LIB_IMO_USBCLK_ON_SET));
 2130              		.loc 1 536 9 view .LVU505
 536:Generated_Source\PSoC5/CyLib.c ****             CY_LIB_IMO_24MHZ_VALUE) & ((uint8)(~CY_LIB_IMO_USBCLK_ON_SET));
 2131              		.loc 1 536 39 is_stmt 0 view .LVU506
 2132 008e 194A     		ldr	r2, .L209
 2133 0090 1378     		ldrb	r3, [r2]	@ zero_extendqisi2
 537:Generated_Source\PSoC5/CyLib.c ****         break;
 2134              		.loc 1 537 37 view .LVU507
 2135 0092 03F0B803 		and	r3, r3, #184
 2136 0096 43F00203 		orr	r3, r3, #2
 536:Generated_Source\PSoC5/CyLib.c ****             CY_LIB_IMO_24MHZ_VALUE) & ((uint8)(~CY_LIB_IMO_USBCLK_ON_SET));
 2137              		.loc 1 536 35 view .LVU508
 2138 009a 1370     		strb	r3, [r2]
 538:Generated_Source\PSoC5/CyLib.c **** 
 2139              		.loc 1 538 9 is_stmt 1 view .LVU509
 2140 009c E2E7     		b	.L200
 2141              	.L195:
 541:Generated_Source\PSoC5/CyLib.c ****             CY_LIB_IMO_48MHZ_VALUE) & ((uint8)(~CY_LIB_IMO_USBCLK_ON_SET));
 2142              		.loc 1 541 9 view .LVU510
 541:Generated_Source\PSoC5/CyLib.c ****             CY_LIB_IMO_48MHZ_VALUE) & ((uint8)(~CY_LIB_IMO_USBCLK_ON_SET));
 2143              		.loc 1 541 39 is_stmt 0 view .LVU511
 2144 009e 154A     		ldr	r2, .L209
 2145 00a0 1378     		ldrb	r3, [r2]	@ zero_extendqisi2
 542:Generated_Source\PSoC5/CyLib.c ****         break;
 2146              		.loc 1 542 37 view .LVU512
 2147 00a2 03F0B803 		and	r3, r3, #184
 2148 00a6 43F00403 		orr	r3, r3, #4
 541:Generated_Source\PSoC5/CyLib.c ****             CY_LIB_IMO_48MHZ_VALUE) & ((uint8)(~CY_LIB_IMO_USBCLK_ON_SET));
 2149              		.loc 1 541 35 view .LVU513
 2150 00aa 1370     		strb	r3, [r2]
 543:Generated_Source\PSoC5/CyLib.c **** 
 2151              		.loc 1 543 9 is_stmt 1 view .LVU514
 2152 00ac DAE7     		b	.L200
 2153              	.L194:
 546:Generated_Source\PSoC5/CyLib.c ****             CY_LIB_IMO_62MHZ_VALUE) & ((uint8)(~CY_LIB_IMO_USBCLK_ON_SET));
 2154              		.loc 1 546 9 view .LVU515
 546:Generated_Source\PSoC5/CyLib.c ****             CY_LIB_IMO_62MHZ_VALUE) & ((uint8)(~CY_LIB_IMO_USBCLK_ON_SET));
 2155              		.loc 1 546 39 is_stmt 0 view .LVU516
 2156 00ae 114A     		ldr	r2, .L209
 2157 00b0 1378     		ldrb	r3, [r2]	@ zero_extendqisi2
 547:Generated_Source\PSoC5/CyLib.c ****         break;
 2158              		.loc 1 547 37 view .LVU517
 2159 00b2 03F0B803 		and	r3, r3, #184
 2160 00b6 43F00503 		orr	r3, r3, #5
 546:Generated_Source\PSoC5/CyLib.c ****             CY_LIB_IMO_62MHZ_VALUE) & ((uint8)(~CY_LIB_IMO_USBCLK_ON_SET));
 2161              		.loc 1 546 35 view .LVU518
 2162 00ba 1370     		strb	r3, [r2]
 548:Generated_Source\PSoC5/CyLib.c **** 
 2163              		.loc 1 548 9 is_stmt 1 view .LVU519
 2164 00bc D2E7     		b	.L200
 2165              	.L193:
 552:Generated_Source\PSoC5/CyLib.c ****             CY_LIB_IMO_74MHZ_VALUE) & ((uint8)(~CY_LIB_IMO_USBCLK_ON_SET));
 2166              		.loc 1 552 9 view .LVU520
 552:Generated_Source\PSoC5/CyLib.c ****             CY_LIB_IMO_74MHZ_VALUE) & ((uint8)(~CY_LIB_IMO_USBCLK_ON_SET));
 2167              		.loc 1 552 39 is_stmt 0 view .LVU521
 2168 00be 0D4A     		ldr	r2, .L209
ARM GAS  C:\Users\jens-\AppData\Local\Temp\ccdWTNhT.s 			page 70


 2169 00c0 1378     		ldrb	r3, [r2]	@ zero_extendqisi2
 553:Generated_Source\PSoC5/CyLib.c ****         break;
 2170              		.loc 1 553 37 view .LVU522
 2171 00c2 03F0B803 		and	r3, r3, #184
 2172 00c6 43F00603 		orr	r3, r3, #6
 552:Generated_Source\PSoC5/CyLib.c ****             CY_LIB_IMO_74MHZ_VALUE) & ((uint8)(~CY_LIB_IMO_USBCLK_ON_SET));
 2173              		.loc 1 552 35 view .LVU523
 2174 00ca 1370     		strb	r3, [r2]
 554:Generated_Source\PSoC5/CyLib.c **** #endif  /* (CY_PSOC5) */
 2175              		.loc 1 554 9 is_stmt 1 view .LVU524
 2176 00cc CAE7     		b	.L200
 2177              	.L191:
 558:Generated_Source\PSoC5/CyLib.c ****             CY_LIB_IMO_24MHZ_VALUE) | CY_LIB_IMO_USBCLK_ON_SET;
 2178              		.loc 1 558 9 view .LVU525
 558:Generated_Source\PSoC5/CyLib.c ****             CY_LIB_IMO_24MHZ_VALUE) | CY_LIB_IMO_USBCLK_ON_SET;
 2179              		.loc 1 558 39 is_stmt 0 view .LVU526
 2180 00ce 094A     		ldr	r2, .L209
 2181 00d0 1378     		ldrb	r3, [r2]	@ zero_extendqisi2
 559:Generated_Source\PSoC5/CyLib.c ****         break;
 2182              		.loc 1 559 37 view .LVU527
 2183 00d2 03F0B803 		and	r3, r3, #184
 2184 00d6 43F04203 		orr	r3, r3, #66
 558:Generated_Source\PSoC5/CyLib.c ****             CY_LIB_IMO_24MHZ_VALUE) | CY_LIB_IMO_USBCLK_ON_SET;
 2185              		.loc 1 558 35 view .LVU528
 2186 00da 1370     		strb	r3, [r2]
 560:Generated_Source\PSoC5/CyLib.c **** 
 2187              		.loc 1 560 9 is_stmt 1 view .LVU529
 2188 00dc C2E7     		b	.L200
 2189              	.L190:
 563:Generated_Source\PSoC5/CyLib.c ****         break;
 2190              		.loc 1 563 9 discriminator 1 view .LVU530
 563:Generated_Source\PSoC5/CyLib.c ****         break;
 2191              		.loc 1 563 9 discriminator 1 view .LVU531
 2192 00de 0020     		movs	r0, #0
 2193 00e0 FFF7FEFF 		bl	CyHalt
 2194              	.LVL104:
 563:Generated_Source\PSoC5/CyLib.c ****         break;
 2195              		.loc 1 563 27 discriminator 1 view .LVU532
 564:Generated_Source\PSoC5/CyLib.c ****     }
 2196              		.loc 1 564 9 discriminator 1 view .LVU533
 2197 00e4 BEE7     		b	.L200
 2198              	.L207:
 570:Generated_Source\PSoC5/CyLib.c ****     }
 2199              		.loc 1 570 9 view .LVU534
 2200 00e6 FFF7FEFF 		bl	CyIMO_EnableDoubler
 2201              	.LVL105:
 2202 00ea BFE7     		b	.L202
 2203              	.L208:
 580:Generated_Source\PSoC5/CyLib.c ****     }
 2204              		.loc 1 580 9 view .LVU535
 2205 00ec 2046     		mov	r0, r4
 2206 00ee FFF7FEFF 		bl	CyIMO_SetTrimValue
 2207              	.LVL106:
 582:Generated_Source\PSoC5/CyLib.c **** 
 2208              		.loc 1 582 1 is_stmt 0 view .LVU536
 2209 00f2 BDE7     		b	.L181
 2210              	.L210:
ARM GAS  C:\Users\jens-\AppData\Local\Temp\ccdWTNhT.s 			page 71


 2211              		.align	2
 2212              	.L209:
 2213 00f4 00420040 		.word	1073758720
 2214              		.cfi_endproc
 2215              	.LFE8:
 2216              		.size	CyIMO_SetFreq, .-CyIMO_SetFreq
 2217              		.section	.text.CyIMO_SetSource,"ax",%progbits
 2218              		.align	1
 2219              		.global	CyIMO_SetSource
 2220              		.syntax unified
 2221              		.thumb
 2222              		.thumb_func
 2223              		.fpu softvfp
 2224              		.type	CyIMO_SetSource, %function
 2225              	CyIMO_SetSource:
 2226              	.LVL107:
 2227              	.LFB9:
 608:Generated_Source\PSoC5/CyLib.c ****     switch(source)
 2228              		.loc 1 608 1 is_stmt 1 view -0
 2229              		.cfi_startproc
 2230              		@ args = 0, pretend = 0, frame = 0
 2231              		@ frame_needed = 0, uses_anonymous_args = 0
 608:Generated_Source\PSoC5/CyLib.c ****     switch(source)
 2232              		.loc 1 608 1 is_stmt 0 view .LVU538
 2233 0000 08B5     		push	{r3, lr}
 2234              		.cfi_def_cfa_offset 8
 2235              		.cfi_offset 3, -8
 2236              		.cfi_offset 14, -4
 609:Generated_Source\PSoC5/CyLib.c ****     {
 2237              		.loc 1 609 5 is_stmt 1 view .LVU539
 2238 0002 0128     		cmp	r0, #1
 2239 0004 13D0     		beq	.L212
 2240 0006 0228     		cmp	r0, #2
 2241 0008 04D0     		beq	.L213
 2242 000a E8B1     		cbz	r0, .L219
 627:Generated_Source\PSoC5/CyLib.c ****         break;
 2243              		.loc 1 627 9 discriminator 1 view .LVU540
 627:Generated_Source\PSoC5/CyLib.c ****         break;
 2244              		.loc 1 627 9 discriminator 1 view .LVU541
 2245 000c 0020     		movs	r0, #0
 2246              	.LVL108:
 627:Generated_Source\PSoC5/CyLib.c ****         break;
 2247              		.loc 1 627 9 is_stmt 0 discriminator 1 view .LVU542
 2248 000e FFF7FEFF 		bl	CyHalt
 2249              	.LVL109:
 627:Generated_Source\PSoC5/CyLib.c ****         break;
 2250              		.loc 1 627 27 is_stmt 1 discriminator 1 view .LVU543
 628:Generated_Source\PSoC5/CyLib.c ****     }
 2251              		.loc 1 628 9 discriminator 1 view .LVU544
 630:Generated_Source\PSoC5/CyLib.c **** 
 2252              		.loc 1 630 1 is_stmt 0 discriminator 1 view .LVU545
 2253 0012 0BE0     		b	.L211
 2254              	.LVL110:
 2255              	.L213:
 612:Generated_Source\PSoC5/CyLib.c ****         CY_LIB_FASTCLK_IMO_CR_REG |= CY_LIB_FASTCLK_IMO_IMO;
 2256              		.loc 1 612 9 is_stmt 1 view .LVU546
 612:Generated_Source\PSoC5/CyLib.c ****         CY_LIB_FASTCLK_IMO_CR_REG |= CY_LIB_FASTCLK_IMO_IMO;
ARM GAS  C:\Users\jens-\AppData\Local\Temp\ccdWTNhT.s 			page 72


 2257              		.loc 1 612 35 is_stmt 0 view .LVU547
 2258 0014 4FF04022 		mov	r2, #1073758208
 2259 0018 1378     		ldrb	r3, [r2]	@ zero_extendqisi2
 2260 001a 03F0BF03 		and	r3, r3, #191
 2261 001e 1370     		strb	r3, [r2]
 613:Generated_Source\PSoC5/CyLib.c ****         break;
 2262              		.loc 1 613 9 is_stmt 1 view .LVU548
 613:Generated_Source\PSoC5/CyLib.c ****         break;
 2263              		.loc 1 613 35 is_stmt 0 view .LVU549
 2264 0020 02F50072 		add	r2, r2, #512
 2265 0024 1378     		ldrb	r3, [r2]	@ zero_extendqisi2
 2266 0026 43F02003 		orr	r3, r3, #32
 2267 002a 1370     		strb	r3, [r2]
 614:Generated_Source\PSoC5/CyLib.c **** 
 2268              		.loc 1 614 9 is_stmt 1 view .LVU550
 2269              	.LVL111:
 2270              	.L211:
 630:Generated_Source\PSoC5/CyLib.c **** 
 2271              		.loc 1 630 1 is_stmt 0 view .LVU551
 2272 002c 08BD     		pop	{r3, pc}
 2273              	.LVL112:
 2274              	.L212:
 617:Generated_Source\PSoC5/CyLib.c ****         CY_LIB_FASTCLK_IMO_CR_REG |= CY_LIB_FASTCLK_IMO_IMO;
 2275              		.loc 1 617 9 is_stmt 1 view .LVU552
 617:Generated_Source\PSoC5/CyLib.c ****         CY_LIB_FASTCLK_IMO_CR_REG |= CY_LIB_FASTCLK_IMO_IMO;
 2276              		.loc 1 617 35 is_stmt 0 view .LVU553
 2277 002e 4FF04022 		mov	r2, #1073758208
 2278 0032 1378     		ldrb	r3, [r2]	@ zero_extendqisi2
 2279 0034 43F04003 		orr	r3, r3, #64
 2280 0038 1370     		strb	r3, [r2]
 618:Generated_Source\PSoC5/CyLib.c ****         break;
 2281              		.loc 1 618 9 is_stmt 1 view .LVU554
 618:Generated_Source\PSoC5/CyLib.c ****         break;
 2282              		.loc 1 618 35 is_stmt 0 view .LVU555
 2283 003a 02F50072 		add	r2, r2, #512
 2284 003e 1378     		ldrb	r3, [r2]	@ zero_extendqisi2
 2285 0040 43F02003 		orr	r3, r3, #32
 2286 0044 1370     		strb	r3, [r2]
 619:Generated_Source\PSoC5/CyLib.c **** 
 2287              		.loc 1 619 9 is_stmt 1 view .LVU556
 2288 0046 F1E7     		b	.L211
 2289              	.L219:
 622:Generated_Source\PSoC5/CyLib.c ****         break;
 2290              		.loc 1 622 9 view .LVU557
 622:Generated_Source\PSoC5/CyLib.c ****         break;
 2291              		.loc 1 622 35 is_stmt 0 view .LVU558
 2292 0048 024A     		ldr	r2, .L220
 2293 004a 1378     		ldrb	r3, [r2]	@ zero_extendqisi2
 2294 004c 03F0DF03 		and	r3, r3, #223
 2295 0050 1370     		strb	r3, [r2]
 623:Generated_Source\PSoC5/CyLib.c **** 
 2296              		.loc 1 623 9 is_stmt 1 view .LVU559
 2297 0052 EBE7     		b	.L211
 2298              	.L221:
 2299              		.align	2
 2300              	.L220:
 2301 0054 00420040 		.word	1073758720
ARM GAS  C:\Users\jens-\AppData\Local\Temp\ccdWTNhT.s 			page 73


 2302              		.cfi_endproc
 2303              	.LFE9:
 2304              		.size	CyIMO_SetSource, .-CyIMO_SetSource
 2305              		.section	.text.CySoftwareReset,"ax",%progbits
 2306              		.align	1
 2307              		.global	CySoftwareReset
 2308              		.syntax unified
 2309              		.thumb
 2310              		.thumb_func
 2311              		.fpu softvfp
 2312              		.type	CySoftwareReset, %function
 2313              	CySoftwareReset:
 2314              	.LFB40:
1429:Generated_Source\PSoC5/CyLib.c **** 
1430:Generated_Source\PSoC5/CyLib.c **** 
1431:Generated_Source\PSoC5/CyLib.c **** /*******************************************************************************
1432:Generated_Source\PSoC5/CyLib.c **** * Function Name: CySoftwareReset
1433:Generated_Source\PSoC5/CyLib.c **** ****************************************************************************//**
1434:Generated_Source\PSoC5/CyLib.c **** *
1435:Generated_Source\PSoC5/CyLib.c **** *  Forces a device software reset.
1436:Generated_Source\PSoC5/CyLib.c **** *
1437:Generated_Source\PSoC5/CyLib.c **** *******************************************************************************/
1438:Generated_Source\PSoC5/CyLib.c **** void CySoftwareReset(void) 
1439:Generated_Source\PSoC5/CyLib.c **** {
 2315              		.loc 1 1439 1 view -0
 2316              		.cfi_startproc
 2317              		@ args = 0, pretend = 0, frame = 0
 2318              		@ frame_needed = 0, uses_anonymous_args = 0
 2319              		@ link register save eliminated.
1440:Generated_Source\PSoC5/CyLib.c ****     CY_LIB_RESET_CR2_REG |= CY_LIB_RESET_CR2_RESET;
 2320              		.loc 1 1440 5 view .LVU561
 2321              		.loc 1 1440 26 is_stmt 0 view .LVU562
 2322 0000 024A     		ldr	r2, .L223
 2323 0002 1378     		ldrb	r3, [r2]	@ zero_extendqisi2
 2324 0004 43F00103 		orr	r3, r3, #1
 2325 0008 1370     		strb	r3, [r2]
1441:Generated_Source\PSoC5/CyLib.c **** }
 2326              		.loc 1 1441 1 view .LVU563
 2327 000a 7047     		bx	lr
 2328              	.L224:
 2329              		.align	2
 2330              	.L223:
 2331 000c F6460040 		.word	1073759990
 2332              		.cfi_endproc
 2333              	.LFE40:
 2334              		.size	CySoftwareReset, .-CySoftwareReset
 2335              		.section	.text.CyDelay,"ax",%progbits
 2336              		.align	1
 2337              		.global	CyDelay
 2338              		.syntax unified
 2339              		.thumb
 2340              		.thumb_func
 2341              		.fpu softvfp
 2342              		.type	CyDelay, %function
 2343              	CyDelay:
 2344              	.LVL113:
 2345              	.LFB41:
ARM GAS  C:\Users\jens-\AppData\Local\Temp\ccdWTNhT.s 			page 74


1442:Generated_Source\PSoC5/CyLib.c **** 
1443:Generated_Source\PSoC5/CyLib.c **** 
1444:Generated_Source\PSoC5/CyLib.c **** /*******************************************************************************
1445:Generated_Source\PSoC5/CyLib.c **** * Function Name: CyDelay
1446:Generated_Source\PSoC5/CyLib.c **** ****************************************************************************//**
1447:Generated_Source\PSoC5/CyLib.c **** *
1448:Generated_Source\PSoC5/CyLib.c **** *  Blocks for milliseconds.
1449:Generated_Source\PSoC5/CyLib.c **** *
1450:Generated_Source\PSoC5/CyLib.c **** *  Note:
1451:Generated_Source\PSoC5/CyLib.c **** *  CyDelay has been implemented with the instruction cache assumed enabled. When
1452:Generated_Source\PSoC5/CyLib.c **** *  the instruction cache is disabled on PSoC5, CyDelay will be two times larger.
1453:Generated_Source\PSoC5/CyLib.c **** *  For example, with instruction cache disabled CyDelay(100) would result in
1454:Generated_Source\PSoC5/CyLib.c **** *  about 200 ms delay instead of 100 ms.
1455:Generated_Source\PSoC5/CyLib.c **** *
1456:Generated_Source\PSoC5/CyLib.c **** *  \param milliseconds: number of milliseconds to delay.
1457:Generated_Source\PSoC5/CyLib.c **** *
1458:Generated_Source\PSoC5/CyLib.c **** *******************************************************************************/
1459:Generated_Source\PSoC5/CyLib.c **** void CyDelay(uint32 milliseconds) CYREENTRANT
1460:Generated_Source\PSoC5/CyLib.c **** {
 2346              		.loc 1 1460 1 is_stmt 1 view -0
 2347              		.cfi_startproc
 2348              		@ args = 0, pretend = 0, frame = 0
 2349              		@ frame_needed = 0, uses_anonymous_args = 0
 2350              		.loc 1 1460 1 is_stmt 0 view .LVU565
 2351 0000 10B5     		push	{r4, lr}
 2352              		.cfi_def_cfa_offset 8
 2353              		.cfi_offset 4, -8
 2354              		.cfi_offset 14, -4
 2355 0002 0446     		mov	r4, r0
1461:Generated_Source\PSoC5/CyLib.c ****     while (milliseconds > 32768u)
 2356              		.loc 1 1461 5 is_stmt 1 view .LVU566
 2357              	.LVL114:
 2358              	.L226:
 2359              		.loc 1 1461 11 view .LVU567
 2360 0004 B4F5004F 		cmp	r4, #32768
 2361 0008 06D9     		bls	.L229
1462:Generated_Source\PSoC5/CyLib.c ****     {
1463:Generated_Source\PSoC5/CyLib.c ****         /***********************************************************************
1464:Generated_Source\PSoC5/CyLib.c ****         * This loop prevents overflow.At 100MHz, milliseconds * delay_freq_khz
1465:Generated_Source\PSoC5/CyLib.c ****         * overflows at about 42 seconds.
1466:Generated_Source\PSoC5/CyLib.c ****         ***********************************************************************/
1467:Generated_Source\PSoC5/CyLib.c ****         CyDelayCycles(cydelay_32k_ms);
 2362              		.loc 1 1467 9 view .LVU568
 2363 000a 074B     		ldr	r3, .L230
 2364 000c 1868     		ldr	r0, [r3]
 2365 000e FFF7FEFF 		bl	CyDelayCycles
 2366              	.LVL115:
1468:Generated_Source\PSoC5/CyLib.c ****         milliseconds = ((uint32)(milliseconds - 32768u));
 2367              		.loc 1 1468 9 view .LVU569
 2368              		.loc 1 1468 22 is_stmt 0 view .LVU570
 2369 0012 A4F50044 		sub	r4, r4, #32768
 2370              	.LVL116:
 2371              		.loc 1 1468 22 view .LVU571
 2372 0016 F5E7     		b	.L226
 2373              	.L229:
1469:Generated_Source\PSoC5/CyLib.c ****     }
1470:Generated_Source\PSoC5/CyLib.c **** 
ARM GAS  C:\Users\jens-\AppData\Local\Temp\ccdWTNhT.s 			page 75


1471:Generated_Source\PSoC5/CyLib.c ****     CyDelayCycles(milliseconds * cydelay_freq_khz);
 2374              		.loc 1 1471 5 is_stmt 1 view .LVU572
 2375 0018 034B     		ldr	r3, .L230
 2376 001a 5868     		ldr	r0, [r3, #4]
 2377 001c 00FB04F0 		mul	r0, r0, r4
 2378 0020 FFF7FEFF 		bl	CyDelayCycles
 2379              	.LVL117:
1472:Generated_Source\PSoC5/CyLib.c **** }
 2380              		.loc 1 1472 1 is_stmt 0 view .LVU573
 2381 0024 10BD     		pop	{r4, pc}
 2382              	.LVL118:
 2383              	.L231:
 2384              		.loc 1 1472 1 view .LVU574
 2385 0026 00BF     		.align	2
 2386              	.L230:
 2387 0028 00000000 		.word	.LANCHOR0
 2388              		.cfi_endproc
 2389              	.LFE41:
 2390              		.size	CyDelay, .-CyDelay
 2391              		.section	.text.CyDelayUs,"ax",%progbits
 2392              		.align	1
 2393              		.global	CyDelayUs
 2394              		.syntax unified
 2395              		.thumb
 2396              		.thumb_func
 2397              		.fpu softvfp
 2398              		.type	CyDelayUs, %function
 2399              	CyDelayUs:
 2400              	.LVL119:
 2401              	.LFB42:
1473:Generated_Source\PSoC5/CyLib.c **** 
1474:Generated_Source\PSoC5/CyLib.c **** 
1475:Generated_Source\PSoC5/CyLib.c **** #if(!CY_PSOC3)
1476:Generated_Source\PSoC5/CyLib.c **** 
1477:Generated_Source\PSoC5/CyLib.c ****     /* For PSoC3 devices function is defined in CyBootAsmKeil.a51 file */
1478:Generated_Source\PSoC5/CyLib.c **** 
1479:Generated_Source\PSoC5/CyLib.c ****     /*******************************************************************************
1480:Generated_Source\PSoC5/CyLib.c ****     * Function Name: CyDelayUs
1481:Generated_Source\PSoC5/CyLib.c ****     ****************************************************************************//**
1482:Generated_Source\PSoC5/CyLib.c ****     *
1483:Generated_Source\PSoC5/CyLib.c ****     *  Blocks for microseconds.
1484:Generated_Source\PSoC5/CyLib.c ****     *
1485:Generated_Source\PSoC5/CyLib.c ****     *  Note:
1486:Generated_Source\PSoC5/CyLib.c ****     *   CyDelay has been implemented with the instruction cache assumed enabled.
1487:Generated_Source\PSoC5/CyLib.c ****     *   When instruction cache is disabled on PSoC5, CyDelayUs will be two times
1488:Generated_Source\PSoC5/CyLib.c ****     *   larger. Ex: With instruction cache disabled CyDelayUs(100) would result
1489:Generated_Source\PSoC5/CyLib.c ****     *   in about 200us delay instead of 100us.
1490:Generated_Source\PSoC5/CyLib.c ****     *
1491:Generated_Source\PSoC5/CyLib.c ****     *  \param uint16 microseconds: number of microseconds to delay.
1492:Generated_Source\PSoC5/CyLib.c ****     *
1493:Generated_Source\PSoC5/CyLib.c ****     * \sideeffect
1494:Generated_Source\PSoC5/CyLib.c ****     *  CyDelayUS has been implemented with the instruction cache assumed enabled.
1495:Generated_Source\PSoC5/CyLib.c ****     *  When the instruction cache is disabled on PSoC 5, CyDelayUs will be two times
1496:Generated_Source\PSoC5/CyLib.c ****     *  larger. For example, with the instruction cache disabled CyDelayUs(100) would
1497:Generated_Source\PSoC5/CyLib.c ****     *  result in about 200 us delay instead of 100 us.
1498:Generated_Source\PSoC5/CyLib.c ****     *
1499:Generated_Source\PSoC5/CyLib.c ****     *  If the bus clock frequency is a small non-integer number, the actual delay
ARM GAS  C:\Users\jens-\AppData\Local\Temp\ccdWTNhT.s 			page 76


1500:Generated_Source\PSoC5/CyLib.c ****     *  can be up to twice as long as the nominal value. The actual delay cannot be
1501:Generated_Source\PSoC5/CyLib.c ****     *  shorter than the nominal one.
1502:Generated_Source\PSoC5/CyLib.c ****     *******************************************************************************/
1503:Generated_Source\PSoC5/CyLib.c ****     void CyDelayUs(uint16 microseconds) CYREENTRANT
1504:Generated_Source\PSoC5/CyLib.c ****     {
 2402              		.loc 1 1504 5 is_stmt 1 view -0
 2403              		.cfi_startproc
 2404              		@ args = 0, pretend = 0, frame = 0
 2405              		@ frame_needed = 0, uses_anonymous_args = 0
 2406              		.loc 1 1504 5 is_stmt 0 view .LVU576
 2407 0000 08B5     		push	{r3, lr}
 2408              		.cfi_def_cfa_offset 8
 2409              		.cfi_offset 3, -8
 2410              		.cfi_offset 14, -4
1505:Generated_Source\PSoC5/CyLib.c ****         CyDelayCycles((uint32)microseconds * cydelay_freq_mhz);
 2411              		.loc 1 1505 9 is_stmt 1 view .LVU577
 2412 0002 034B     		ldr	r3, .L234
 2413 0004 1B7A     		ldrb	r3, [r3, #8]	@ zero_extendqisi2
 2414 0006 00FB03F0 		mul	r0, r0, r3
 2415              	.LVL120:
 2416              		.loc 1 1505 9 is_stmt 0 view .LVU578
 2417 000a FFF7FEFF 		bl	CyDelayCycles
 2418              	.LVL121:
1506:Generated_Source\PSoC5/CyLib.c ****     }
 2419              		.loc 1 1506 5 view .LVU579
 2420 000e 08BD     		pop	{r3, pc}
 2421              	.L235:
 2422              		.align	2
 2423              	.L234:
 2424 0010 00000000 		.word	.LANCHOR0
 2425              		.cfi_endproc
 2426              	.LFE42:
 2427              		.size	CyDelayUs, .-CyDelayUs
 2428              		.section	.text.CyXTAL_32KHZ_SetPowerMode,"ax",%progbits
 2429              		.align	1
 2430              		.global	CyXTAL_32KHZ_SetPowerMode
 2431              		.syntax unified
 2432              		.thumb
 2433              		.thumb_func
 2434              		.fpu softvfp
 2435              		.type	CyXTAL_32KHZ_SetPowerMode, %function
 2436              	CyXTAL_32KHZ_SetPowerMode:
 2437              	.LVL122:
 2438              	.LFB28:
1119:Generated_Source\PSoC5/CyLib.c ****     uint8 state = (0u != (CY_CLK_XTAL32_CR_REG & CY_CLK_XTAL32_CR_LPM)) ? 1u : 0u;
 2439              		.loc 1 1119 1 is_stmt 1 view -0
 2440              		.cfi_startproc
 2441              		@ args = 0, pretend = 0, frame = 0
 2442              		@ frame_needed = 0, uses_anonymous_args = 0
1119:Generated_Source\PSoC5/CyLib.c ****     uint8 state = (0u != (CY_CLK_XTAL32_CR_REG & CY_CLK_XTAL32_CR_LPM)) ? 1u : 0u;
 2443              		.loc 1 1119 1 is_stmt 0 view .LVU581
 2444 0000 10B5     		push	{r4, lr}
 2445              		.cfi_def_cfa_offset 8
 2446              		.cfi_offset 4, -8
 2447              		.cfi_offset 14, -4
1120:Generated_Source\PSoC5/CyLib.c **** 
 2448              		.loc 1 1120 5 is_stmt 1 view .LVU582
ARM GAS  C:\Users\jens-\AppData\Local\Temp\ccdWTNhT.s 			page 77


1120:Generated_Source\PSoC5/CyLib.c **** 
 2449              		.loc 1 1120 27 is_stmt 0 view .LVU583
 2450 0002 1B4B     		ldr	r3, .L242
 2451 0004 1B78     		ldrb	r3, [r3]	@ zero_extendqisi2
1120:Generated_Source\PSoC5/CyLib.c **** 
 2452              		.loc 1 1120 11 view .LVU584
 2453 0006 13F00204 		ands	r4, r3, #2
 2454 000a 00D0     		beq	.L237
 2455 000c 0124     		movs	r4, #1
 2456              	.L237:
 2457              	.LVL123:
1122:Generated_Source\PSoC5/CyLib.c **** 
 2458              		.loc 1 1122 5 is_stmt 1 discriminator 4 view .LVU585
1122:Generated_Source\PSoC5/CyLib.c **** 
 2459              		.loc 1 1122 27 is_stmt 0 discriminator 4 view .LVU586
 2460 000e 194B     		ldr	r3, .L242+4
 2461 0010 F322     		movs	r2, #243
 2462 0012 1A70     		strb	r2, [r3]
1124:Generated_Source\PSoC5/CyLib.c ****     {
 2463              		.loc 1 1124 5 is_stmt 1 discriminator 4 view .LVU587
1124:Generated_Source\PSoC5/CyLib.c ****     {
 2464              		.loc 1 1124 7 is_stmt 0 discriminator 4 view .LVU588
 2465 0014 0128     		cmp	r0, #1
 2466 0016 13D0     		beq	.L241
1137:Generated_Source\PSoC5/CyLib.c ****         CyDelayUs(10u);
 2467              		.loc 1 1137 9 is_stmt 1 view .LVU589
1137:Generated_Source\PSoC5/CyLib.c ****         CyDelayUs(10u);
 2468              		.loc 1 1137 31 is_stmt 0 view .LVU590
 2469 0018 174B     		ldr	r3, .L242+8
 2470 001a 0622     		movs	r2, #6
 2471 001c 1A70     		strb	r2, [r3]
1138:Generated_Source\PSoC5/CyLib.c ****         CY_CLK_XTAL32_CFG_REG = (CY_CLK_XTAL32_CFG_REG & ((uint8)(~CY_CLK_XTAL32_CFG_LP_MASK))) |
 2472              		.loc 1 1138 9 is_stmt 1 view .LVU591
 2473 001e 0A20     		movs	r0, #10
 2474              	.LVL124:
1138:Generated_Source\PSoC5/CyLib.c ****         CY_CLK_XTAL32_CFG_REG = (CY_CLK_XTAL32_CFG_REG & ((uint8)(~CY_CLK_XTAL32_CFG_LP_MASK))) |
 2475              		.loc 1 1138 9 is_stmt 0 view .LVU592
 2476 0020 FFF7FEFF 		bl	CyDelayUs
 2477              	.LVL125:
1139:Generated_Source\PSoC5/CyLib.c ****                                 CY_CLK_XTAL32_CFG_LP_DEFAULT;
 2478              		.loc 1 1139 9 is_stmt 1 view .LVU593
1139:Generated_Source\PSoC5/CyLib.c ****                                 CY_CLK_XTAL32_CFG_LP_DEFAULT;
 2479              		.loc 1 1139 34 is_stmt 0 view .LVU594
 2480 0024 154A     		ldr	r2, .L242+12
 2481 0026 1378     		ldrb	r3, [r2]	@ zero_extendqisi2
1139:Generated_Source\PSoC5/CyLib.c ****                                 CY_CLK_XTAL32_CFG_LP_DEFAULT;
 2482              		.loc 1 1139 56 view .LVU595
 2483 0028 03F0F303 		and	r3, r3, #243
1139:Generated_Source\PSoC5/CyLib.c ****                                 CY_CLK_XTAL32_CFG_LP_DEFAULT;
 2484              		.loc 1 1139 97 view .LVU596
 2485 002c 43F00403 		orr	r3, r3, #4
1139:Generated_Source\PSoC5/CyLib.c ****                                 CY_CLK_XTAL32_CFG_LP_DEFAULT;
 2486              		.loc 1 1139 31 view .LVU597
 2487 0030 1370     		strb	r3, [r2]
1141:Generated_Source\PSoC5/CyLib.c ****     }
 2488              		.loc 1 1141 9 is_stmt 1 view .LVU598
1141:Generated_Source\PSoC5/CyLib.c ****     }
ARM GAS  C:\Users\jens-\AppData\Local\Temp\ccdWTNhT.s 			page 78


 2489              		.loc 1 1141 30 is_stmt 0 view .LVU599
 2490 0032 013A     		subs	r2, r2, #1
 2491 0034 1378     		ldrb	r3, [r2]	@ zero_extendqisi2
 2492 0036 03F0FD03 		and	r3, r3, #253
 2493 003a 1370     		strb	r3, [r2]
 2494              	.L239:
1144:Generated_Source\PSoC5/CyLib.c **** }
 2495              		.loc 1 1144 5 is_stmt 1 view .LVU600
1145:Generated_Source\PSoC5/CyLib.c **** 
 2496              		.loc 1 1145 1 is_stmt 0 view .LVU601
 2497 003c 2046     		mov	r0, r4
 2498 003e 10BD     		pop	{r4, pc}
 2499              	.LVL126:
 2500              	.L241:
1127:Generated_Source\PSoC5/CyLib.c ****         CyDelayUs(10u);
 2501              		.loc 1 1127 9 is_stmt 1 view .LVU602
1127:Generated_Source\PSoC5/CyLib.c ****         CyDelayUs(10u);
 2502              		.loc 1 1127 31 is_stmt 0 view .LVU603
 2503 0040 03F28E33 		addw	r3, r3, #910
 2504 0044 0122     		movs	r2, #1
 2505 0046 1A70     		strb	r2, [r3]
1128:Generated_Source\PSoC5/CyLib.c ****         CY_CLK_XTAL32_CFG_REG = (CY_CLK_XTAL32_CFG_REG & ((uint8)(~CY_CLK_XTAL32_CFG_LP_MASK))) |
 2506              		.loc 1 1128 9 is_stmt 1 view .LVU604
 2507 0048 0A20     		movs	r0, #10
 2508              	.LVL127:
1128:Generated_Source\PSoC5/CyLib.c ****         CY_CLK_XTAL32_CFG_REG = (CY_CLK_XTAL32_CFG_REG & ((uint8)(~CY_CLK_XTAL32_CFG_LP_MASK))) |
 2509              		.loc 1 1128 9 is_stmt 0 view .LVU605
 2510 004a FFF7FEFF 		bl	CyDelayUs
 2511              	.LVL128:
1129:Generated_Source\PSoC5/CyLib.c ****                                 CY_CLK_XTAL32_CFG_LP_LOWPOWER;
 2512              		.loc 1 1129 9 is_stmt 1 view .LVU606
1129:Generated_Source\PSoC5/CyLib.c ****                                 CY_CLK_XTAL32_CFG_LP_LOWPOWER;
 2513              		.loc 1 1129 34 is_stmt 0 view .LVU607
 2514 004e 0B4A     		ldr	r2, .L242+12
 2515 0050 1378     		ldrb	r3, [r2]	@ zero_extendqisi2
1129:Generated_Source\PSoC5/CyLib.c ****                                 CY_CLK_XTAL32_CFG_LP_LOWPOWER;
 2516              		.loc 1 1129 56 view .LVU608
 2517 0052 03F0F303 		and	r3, r3, #243
1129:Generated_Source\PSoC5/CyLib.c ****                                 CY_CLK_XTAL32_CFG_LP_LOWPOWER;
 2518              		.loc 1 1129 97 view .LVU609
 2519 0056 43F00803 		orr	r3, r3, #8
1129:Generated_Source\PSoC5/CyLib.c ****                                 CY_CLK_XTAL32_CFG_LP_LOWPOWER;
 2520              		.loc 1 1129 31 view .LVU610
 2521 005a 1370     		strb	r3, [r2]
1131:Generated_Source\PSoC5/CyLib.c ****         CY_CLK_XTAL32_CR_REG |= CY_CLK_XTAL32_CR_LPM;
 2522              		.loc 1 1131 9 is_stmt 1 view .LVU611
 2523 005c 1420     		movs	r0, #20
 2524 005e FFF7FEFF 		bl	CyDelayUs
 2525              	.LVL129:
1132:Generated_Source\PSoC5/CyLib.c ****     }
 2526              		.loc 1 1132 9 view .LVU612
1132:Generated_Source\PSoC5/CyLib.c ****     }
 2527              		.loc 1 1132 30 is_stmt 0 view .LVU613
 2528 0062 034A     		ldr	r2, .L242
 2529 0064 1378     		ldrb	r3, [r2]	@ zero_extendqisi2
 2530 0066 43F00203 		orr	r3, r3, #2
 2531 006a 1370     		strb	r3, [r2]
ARM GAS  C:\Users\jens-\AppData\Local\Temp\ccdWTNhT.s 			page 79


 2532 006c E6E7     		b	.L239
 2533              	.L243:
 2534 006e 00BF     		.align	2
 2535              	.L242:
 2536 0070 08430040 		.word	1073758984
 2537 0074 0A430040 		.word	1073758986
 2538 0078 98460040 		.word	1073759896
 2539 007c 09430040 		.word	1073758985
 2540              		.cfi_endproc
 2541              	.LFE28:
 2542              		.size	CyXTAL_32KHZ_SetPowerMode, .-CyXTAL_32KHZ_SetPowerMode
 2543              		.section	.text.CyXTAL_32KHZ_Start,"ax",%progbits
 2544              		.align	1
 2545              		.global	CyXTAL_32KHZ_Start
 2546              		.syntax unified
 2547              		.thumb
 2548              		.thumb_func
 2549              		.fpu softvfp
 2550              		.type	CyXTAL_32KHZ_Start, %function
 2551              	CyXTAL_32KHZ_Start:
 2552              	.LFB25:
1033:Generated_Source\PSoC5/CyLib.c ****     volatile uint16 i;
 2553              		.loc 1 1033 1 is_stmt 1 view -0
 2554              		.cfi_startproc
 2555              		@ args = 0, pretend = 0, frame = 8
 2556              		@ frame_needed = 0, uses_anonymous_args = 0
 2557 0000 00B5     		push	{lr}
 2558              		.cfi_def_cfa_offset 4
 2559              		.cfi_offset 14, -4
 2560 0002 83B0     		sub	sp, sp, #12
 2561              		.cfi_def_cfa_offset 16
1034:Generated_Source\PSoC5/CyLib.c **** 
 2562              		.loc 1 1034 5 view .LVU615
1036:Generated_Source\PSoC5/CyLib.c ****     CY_CLK_XTAL32_TR_REG  = CY_CLK_XTAL32_TR_STARTUP;
 2563              		.loc 1 1036 5 view .LVU616
1036:Generated_Source\PSoC5/CyLib.c ****     CY_CLK_XTAL32_TR_REG  = CY_CLK_XTAL32_TR_STARTUP;
 2564              		.loc 1 1036 27 is_stmt 0 view .LVU617
 2565 0004 184B     		ldr	r3, .L251
 2566 0006 F322     		movs	r2, #243
 2567 0008 1A70     		strb	r2, [r3]
1037:Generated_Source\PSoC5/CyLib.c ****     CY_CLK_XTAL32_CFG_REG = (CY_CLK_XTAL32_CFG_REG & ((uint8)(~CY_CLK_XTAL32_CFG_LP_MASK))) |
 2568              		.loc 1 1037 5 is_stmt 1 view .LVU618
1037:Generated_Source\PSoC5/CyLib.c ****     CY_CLK_XTAL32_CFG_REG = (CY_CLK_XTAL32_CFG_REG & ((uint8)(~CY_CLK_XTAL32_CFG_LP_MASK))) |
 2569              		.loc 1 1037 27 is_stmt 0 view .LVU619
 2570 000a 03F28E33 		addw	r3, r3, #910
 2571 000e 0322     		movs	r2, #3
 2572 0010 1A70     		strb	r2, [r3]
1038:Generated_Source\PSoC5/CyLib.c ****                                 CY_CLK_XTAL32_CFG_LP_DEFAULT;
 2573              		.loc 1 1038 5 is_stmt 1 view .LVU620
1038:Generated_Source\PSoC5/CyLib.c ****                                 CY_CLK_XTAL32_CFG_LP_DEFAULT;
 2574              		.loc 1 1038 30 is_stmt 0 view .LVU621
 2575 0012 164A     		ldr	r2, .L251+4
 2576 0014 1378     		ldrb	r3, [r2]	@ zero_extendqisi2
1038:Generated_Source\PSoC5/CyLib.c ****                                 CY_CLK_XTAL32_CFG_LP_DEFAULT;
 2577              		.loc 1 1038 52 view .LVU622
 2578 0016 03F0F303 		and	r3, r3, #243
1038:Generated_Source\PSoC5/CyLib.c ****                                 CY_CLK_XTAL32_CFG_LP_DEFAULT;
ARM GAS  C:\Users\jens-\AppData\Local\Temp\ccdWTNhT.s 			page 80


 2579              		.loc 1 1038 93 view .LVU623
 2580 001a 43F00403 		orr	r3, r3, #4
1038:Generated_Source\PSoC5/CyLib.c ****                                 CY_CLK_XTAL32_CFG_LP_DEFAULT;
 2581              		.loc 1 1038 27 view .LVU624
 2582 001e 1370     		strb	r3, [r2]
1046:Generated_Source\PSoC5/CyLib.c **** 
 2583              		.loc 1 1046 5 is_stmt 1 view .LVU625
1046:Generated_Source\PSoC5/CyLib.c **** 
 2584              		.loc 1 1046 26 is_stmt 0 view .LVU626
 2585 0020 013A     		subs	r2, r2, #1
 2586 0022 1378     		ldrb	r3, [r2]	@ zero_extendqisi2
 2587 0024 43F00103 		orr	r3, r3, #1
 2588 0028 1370     		strb	r3, [r2]
1048:Generated_Source\PSoC5/CyLib.c ****     {
 2589              		.loc 1 1048 5 is_stmt 1 view .LVU627
1048:Generated_Source\PSoC5/CyLib.c ****     {
 2590              		.loc 1 1048 12 is_stmt 0 view .LVU628
 2591 002a 4FF47A73 		mov	r3, #1000
 2592 002e ADF80630 		strh	r3, [sp, #6]	@ movhi
 2593              	.L245:
1048:Generated_Source\PSoC5/CyLib.c ****     {
 2594              		.loc 1 1048 21 is_stmt 1 discriminator 1 view .LVU629
1048:Generated_Source\PSoC5/CyLib.c ****     {
 2595              		.loc 1 1048 23 is_stmt 0 discriminator 1 view .LVU630
 2596 0032 BDF80630 		ldrh	r3, [sp, #6]
 2597 0036 9BB2     		uxth	r3, r3
1048:Generated_Source\PSoC5/CyLib.c ****     {
 2598              		.loc 1 1048 5 discriminator 1 view .LVU631
 2599 0038 93B1     		cbz	r3, .L244
1050:Generated_Source\PSoC5/CyLib.c ****         {
 2600              		.loc 1 1050 9 is_stmt 1 view .LVU632
1050:Generated_Source\PSoC5/CyLib.c ****         {
 2601              		.loc 1 1050 19 is_stmt 0 view .LVU633
 2602 003a FFF7FEFF 		bl	CyXTAL_32KHZ_ReadStatus
 2603              	.LVL130:
1050:Generated_Source\PSoC5/CyLib.c ****         {
 2604              		.loc 1 1050 11 view .LVU634
 2605 003e 10F0200F 		tst	r0, #32
 2606 0042 0AD1     		bne	.L250
1057:Generated_Source\PSoC5/CyLib.c ****     }
 2607              		.loc 1 1057 9 is_stmt 1 discriminator 2 view .LVU635
 2608 0044 0120     		movs	r0, #1
 2609 0046 FFF7FEFF 		bl	CyDelayUs
 2610              	.LVL131:
1048:Generated_Source\PSoC5/CyLib.c ****     {
 2611              		.loc 1 1048 29 discriminator 2 view .LVU636
1048:Generated_Source\PSoC5/CyLib.c ****     {
 2612              		.loc 1 1048 30 is_stmt 0 discriminator 2 view .LVU637
 2613 004a BDF80630 		ldrh	r3, [sp, #6]
 2614 004e 9BB2     		uxth	r3, r3
 2615 0050 013B     		subs	r3, r3, #1
 2616 0052 9BB2     		uxth	r3, r3
 2617 0054 ADF80630 		strh	r3, [sp, #6]	@ movhi
 2618 0058 EBE7     		b	.L245
 2619              	.L250:
1053:Generated_Source\PSoC5/CyLib.c **** 
 2620              		.loc 1 1053 13 is_stmt 1 view .LVU638
ARM GAS  C:\Users\jens-\AppData\Local\Temp\ccdWTNhT.s 			page 81


1053:Generated_Source\PSoC5/CyLib.c **** 
 2621              		.loc 1 1053 20 is_stmt 0 view .LVU639
 2622 005a 0020     		movs	r0, #0
 2623 005c FFF7FEFF 		bl	CyXTAL_32KHZ_SetPowerMode
 2624              	.LVL132:
1055:Generated_Source\PSoC5/CyLib.c ****         }
 2625              		.loc 1 1055 13 is_stmt 1 view .LVU640
 2626              	.L244:
1059:Generated_Source\PSoC5/CyLib.c **** 
 2627              		.loc 1 1059 1 is_stmt 0 view .LVU641
 2628 0060 03B0     		add	sp, sp, #12
 2629              		.cfi_def_cfa_offset 4
 2630              		@ sp needed
 2631 0062 5DF804FB 		ldr	pc, [sp], #4
 2632              	.L252:
 2633 0066 00BF     		.align	2
 2634              	.L251:
 2635 0068 0A430040 		.word	1073758986
 2636 006c 09430040 		.word	1073758985
 2637              		.cfi_endproc
 2638              	.LFE25:
 2639              		.size	CyXTAL_32KHZ_Start, .-CyXTAL_32KHZ_Start
 2640              		.section	.text.CyDelayFreq,"ax",%progbits
 2641              		.align	1
 2642              		.global	CyDelayFreq
 2643              		.syntax unified
 2644              		.thumb
 2645              		.thumb_func
 2646              		.fpu softvfp
 2647              		.type	CyDelayFreq, %function
 2648              	CyDelayFreq:
 2649              	.LVL133:
 2650              	.LFB43:
1507:Generated_Source\PSoC5/CyLib.c **** 
1508:Generated_Source\PSoC5/CyLib.c **** #endif  /* (!CY_PSOC3) */
1509:Generated_Source\PSoC5/CyLib.c **** 
1510:Generated_Source\PSoC5/CyLib.c **** 
1511:Generated_Source\PSoC5/CyLib.c **** /*******************************************************************************
1512:Generated_Source\PSoC5/CyLib.c **** * Function Name: CyDelayFreq
1513:Generated_Source\PSoC5/CyLib.c **** ****************************************************************************//**
1514:Generated_Source\PSoC5/CyLib.c **** *
1515:Generated_Source\PSoC5/CyLib.c **** *  Sets the clock frequency for CyDelay.
1516:Generated_Source\PSoC5/CyLib.c **** *
1517:Generated_Source\PSoC5/CyLib.c **** *  \param freq: The frequency of the bus clock in Hertz.
1518:Generated_Source\PSoC5/CyLib.c **** *
1519:Generated_Source\PSoC5/CyLib.c **** *******************************************************************************/
1520:Generated_Source\PSoC5/CyLib.c **** void CyDelayFreq(uint32 freq) CYREENTRANT
1521:Generated_Source\PSoC5/CyLib.c **** {
 2651              		.loc 1 1521 1 is_stmt 1 view -0
 2652              		.cfi_startproc
 2653              		@ args = 0, pretend = 0, frame = 0
 2654              		@ frame_needed = 0, uses_anonymous_args = 0
 2655              		@ link register save eliminated.
1522:Generated_Source\PSoC5/CyLib.c ****     if (freq != 0u)
 2656              		.loc 1 1522 5 view .LVU643
 2657              		.loc 1 1522 8 is_stmt 0 view .LVU644
 2658 0000 B8B1     		cbz	r0, .L254
ARM GAS  C:\Users\jens-\AppData\Local\Temp\ccdWTNhT.s 			page 82


1523:Generated_Source\PSoC5/CyLib.c ****     {
1524:Generated_Source\PSoC5/CyLib.c ****         cydelay_freq_hz = freq;
 2659              		.loc 1 1524 9 is_stmt 1 view .LVU645
 2660              		.loc 1 1524 25 is_stmt 0 view .LVU646
 2661 0002 0E4A     		ldr	r2, .L256
 2662 0004 D060     		str	r0, [r2, #12]
 2663              	.L255:
1525:Generated_Source\PSoC5/CyLib.c ****     }
1526:Generated_Source\PSoC5/CyLib.c ****     else
1527:Generated_Source\PSoC5/CyLib.c ****     {
1528:Generated_Source\PSoC5/CyLib.c ****         cydelay_freq_hz = BCLK__BUS_CLK__HZ;
1529:Generated_Source\PSoC5/CyLib.c ****     }
1530:Generated_Source\PSoC5/CyLib.c **** 
1531:Generated_Source\PSoC5/CyLib.c ****     cydelay_freq_mhz = (uint8)((cydelay_freq_hz + 999999u) / 1000000u);
 2664              		.loc 1 1531 5 is_stmt 1 view .LVU647
 2665              		.loc 1 1531 49 is_stmt 0 view .LVU648
 2666 0006 0D49     		ldr	r1, .L256
 2667 0008 CB68     		ldr	r3, [r1, #12]
 2668 000a 03F57422 		add	r2, r3, #999424
 2669 000e 02F23F22 		addw	r2, r2, #575
 2670              		.loc 1 1531 60 view .LVU649
 2671 0012 0B48     		ldr	r0, .L256+4
 2672              	.LVL134:
 2673              		.loc 1 1531 60 view .LVU650
 2674 0014 A0FB0202 		umull	r0, r2, r0, r2
 2675              		.loc 1 1531 24 view .LVU651
 2676 0018 C2F38742 		ubfx	r2, r2, #18, #8
 2677              		.loc 1 1531 22 view .LVU652
 2678 001c 0A72     		strb	r2, [r1, #8]
1532:Generated_Source\PSoC5/CyLib.c ****     cydelay_freq_khz = (cydelay_freq_hz + 999u) / 1000u;
 2679              		.loc 1 1532 5 is_stmt 1 view .LVU653
 2680              		.loc 1 1532 41 is_stmt 0 view .LVU654
 2681 001e 03F2E733 		addw	r3, r3, #999
 2682              		.loc 1 1532 49 view .LVU655
 2683 0022 084A     		ldr	r2, .L256+8
 2684 0024 A2FB0323 		umull	r2, r3, r2, r3
 2685 0028 9B09     		lsrs	r3, r3, #6
 2686              		.loc 1 1532 22 view .LVU656
 2687 002a 4B60     		str	r3, [r1, #4]
1533:Generated_Source\PSoC5/CyLib.c ****     cydelay_32k_ms   = 32768u * cydelay_freq_khz;
 2688              		.loc 1 1533 5 is_stmt 1 view .LVU657
 2689              		.loc 1 1533 31 is_stmt 0 view .LVU658
 2690 002c DB03     		lsls	r3, r3, #15
 2691              		.loc 1 1533 22 view .LVU659
 2692 002e 0B60     		str	r3, [r1]
1534:Generated_Source\PSoC5/CyLib.c **** }
 2693              		.loc 1 1534 1 view .LVU660
 2694 0030 7047     		bx	lr
 2695              	.LVL135:
 2696              	.L254:
1528:Generated_Source\PSoC5/CyLib.c ****     }
 2697              		.loc 1 1528 9 is_stmt 1 view .LVU661
1528:Generated_Source\PSoC5/CyLib.c ****     }
 2698              		.loc 1 1528 25 is_stmt 0 view .LVU662
 2699 0032 024B     		ldr	r3, .L256
 2700 0034 044A     		ldr	r2, .L256+12
 2701 0036 DA60     		str	r2, [r3, #12]
ARM GAS  C:\Users\jens-\AppData\Local\Temp\ccdWTNhT.s 			page 83


 2702 0038 E5E7     		b	.L255
 2703              	.L257:
 2704 003a 00BF     		.align	2
 2705              	.L256:
 2706 003c 00000000 		.word	.LANCHOR0
 2707 0040 83DE1B43 		.word	1125899907
 2708 0044 D34D6210 		.word	274877907
 2709 0048 00366E01 		.word	24000000
 2710              		.cfi_endproc
 2711              	.LFE43:
 2712              		.size	CyDelayFreq, .-CyDelayFreq
 2713              		.section	.text.CyWdtStart,"ax",%progbits
 2714              		.align	1
 2715              		.global	CyWdtStart
 2716              		.syntax unified
 2717              		.thumb
 2718              		.thumb_func
 2719              		.fpu softvfp
 2720              		.type	CyWdtStart, %function
 2721              	CyWdtStart:
 2722              	.LVL136:
 2723              	.LFB44:
1535:Generated_Source\PSoC5/CyLib.c **** 
1536:Generated_Source\PSoC5/CyLib.c **** 
1537:Generated_Source\PSoC5/CyLib.c **** /*******************************************************************************
1538:Generated_Source\PSoC5/CyLib.c **** * Function Name: CyWdtStart
1539:Generated_Source\PSoC5/CyLib.c **** ****************************************************************************//**
1540:Generated_Source\PSoC5/CyLib.c **** *
1541:Generated_Source\PSoC5/CyLib.c **** *  Enables the watchdog timer.
1542:Generated_Source\PSoC5/CyLib.c **** *
1543:Generated_Source\PSoC5/CyLib.c **** *  The timer is configured for the specified count interval, the central
1544:Generated_Source\PSoC5/CyLib.c **** *  timewheel is cleared, the setting for the low power mode is configured and
1545:Generated_Source\PSoC5/CyLib.c **** *  the watchdog timer is enabled.
1546:Generated_Source\PSoC5/CyLib.c **** *
1547:Generated_Source\PSoC5/CyLib.c **** *  Once enabled the watchdog cannot be disabled. The watchdog counts each time
1548:Generated_Source\PSoC5/CyLib.c **** *  the Central Time Wheel (CTW) reaches the period specified. The watchdog must
1549:Generated_Source\PSoC5/CyLib.c **** *  be cleared using the CyWdtClear() function before three ticks of the watchdog
1550:Generated_Source\PSoC5/CyLib.c **** *  timer occur. The CTW is free running, so this will occur after between 2 and
1551:Generated_Source\PSoC5/CyLib.c **** *  3 timer periods elapse.
1552:Generated_Source\PSoC5/CyLib.c **** *
1553:Generated_Source\PSoC5/CyLib.c **** *  PSoC5: The watchdog timer should not be used during sleep modes. Since the
1554:Generated_Source\PSoC5/CyLib.c **** *  WDT cannot be disabled after it is enabled, the WDT timeout period can be
1555:Generated_Source\PSoC5/CyLib.c **** *  set to be greater than the sleep wakeup period, then feed the dog on each
1556:Generated_Source\PSoC5/CyLib.c **** *  wakeup from Sleep.
1557:Generated_Source\PSoC5/CyLib.c **** *
1558:Generated_Source\PSoC5/CyLib.c **** *  \param ticks: One of the four available timer periods. Once WDT enabled, the
1559:Generated_Source\PSoC5/CyLib.c ****    interval cannot be changed.
1560:Generated_Source\PSoC5/CyLib.c **** *         CYWDT_2_TICKS     -     4 - 6     ms
1561:Generated_Source\PSoC5/CyLib.c **** *         CYWDT_16_TICKS    -    32 - 48    ms
1562:Generated_Source\PSoC5/CyLib.c **** *         CYWDT_128_TICKS   -   256 - 384   ms
1563:Generated_Source\PSoC5/CyLib.c **** *         CYWDT_1024_TICKS  - 2.048 - 3.072 s
1564:Generated_Source\PSoC5/CyLib.c **** *
1565:Generated_Source\PSoC5/CyLib.c **** *  \param lpMode: Low power mode configuration. This parameter is ignored for PSoC 5.
1566:Generated_Source\PSoC5/CyLib.c **** *          The WDT always acts as if CYWDT_LPMODE_NOCHANGE is passed.
1567:Generated_Source\PSoC5/CyLib.c **** *
1568:Generated_Source\PSoC5/CyLib.c **** *          CYWDT_LPMODE_NOCHANGE - No Change
1569:Generated_Source\PSoC5/CyLib.c **** *          CYWDT_LPMODE_MAXINTER - Switch to longest timer mode during low power
ARM GAS  C:\Users\jens-\AppData\Local\Temp\ccdWTNhT.s 			page 84


1570:Generated_Source\PSoC5/CyLib.c **** *                                 mode
1571:Generated_Source\PSoC5/CyLib.c **** *          CYWDT_LPMODE_DISABLED - Disable WDT during low power mode
1572:Generated_Source\PSoC5/CyLib.c **** *
1573:Generated_Source\PSoC5/CyLib.c **** * \sideeffect
1574:Generated_Source\PSoC5/CyLib.c **** *  PSoC5: The ILO 1 KHz must be enabled for proper WDT operation. Stopping the
1575:Generated_Source\PSoC5/CyLib.c **** *  ILO 1 kHz could break the active WDT functionality.
1576:Generated_Source\PSoC5/CyLib.c **** *
1577:Generated_Source\PSoC5/CyLib.c **** *******************************************************************************/
1578:Generated_Source\PSoC5/CyLib.c **** void CyWdtStart(uint8 ticks, uint8 lpMode) 
1579:Generated_Source\PSoC5/CyLib.c **** {
 2724              		.loc 1 1579 1 is_stmt 1 view -0
 2725              		.cfi_startproc
 2726              		@ args = 0, pretend = 0, frame = 0
 2727              		@ frame_needed = 0, uses_anonymous_args = 0
 2728              		@ link register save eliminated.
1580:Generated_Source\PSoC5/CyLib.c ****     /* Set WDT interval */
1581:Generated_Source\PSoC5/CyLib.c ****     CY_WDT_CFG_REG = (CY_WDT_CFG_REG & ((uint8)(~CY_WDT_CFG_INTERVAL_MASK))) | (ticks & CY_WDT_CFG_
 2729              		.loc 1 1581 5 view .LVU664
 2730              		.loc 1 1581 23 is_stmt 0 view .LVU665
 2731 0000 0E4B     		ldr	r3, .L259
 2732 0002 1A78     		ldrb	r2, [r3]	@ zero_extendqisi2
 2733              		.loc 1 1581 38 view .LVU666
 2734 0004 02F0FC02 		and	r2, r2, #252
 2735              		.loc 1 1581 87 view .LVU667
 2736 0008 00F00300 		and	r0, r0, #3
 2737              	.LVL137:
 2738              		.loc 1 1581 78 view .LVU668
 2739 000c 0243     		orrs	r2, r2, r0
 2740              		.loc 1 1581 20 view .LVU669
 2741 000e 1A70     		strb	r2, [r3]
1582:Generated_Source\PSoC5/CyLib.c **** 
1583:Generated_Source\PSoC5/CyLib.c ****     /* Reset CTW to ensure that first watchdog period is full */
1584:Generated_Source\PSoC5/CyLib.c ****     CY_WDT_CFG_REG |= CY_WDT_CFG_CTW_RESET;
 2742              		.loc 1 1584 5 is_stmt 1 view .LVU670
 2743              		.loc 1 1584 20 is_stmt 0 view .LVU671
 2744 0010 1A78     		ldrb	r2, [r3]	@ zero_extendqisi2
 2745 0012 42F08002 		orr	r2, r2, #128
 2746 0016 1A70     		strb	r2, [r3]
1585:Generated_Source\PSoC5/CyLib.c ****     CY_WDT_CFG_REG &= ((uint8)(~CY_WDT_CFG_CTW_RESET));
 2747              		.loc 1 1585 5 is_stmt 1 view .LVU672
 2748              		.loc 1 1585 20 is_stmt 0 view .LVU673
 2749 0018 1A78     		ldrb	r2, [r3]	@ zero_extendqisi2
 2750 001a 02F07F02 		and	r2, r2, #127
 2751 001e 1A70     		strb	r2, [r3]
1586:Generated_Source\PSoC5/CyLib.c **** 
1587:Generated_Source\PSoC5/CyLib.c ****     /* Setting low power mode */
1588:Generated_Source\PSoC5/CyLib.c ****     CY_WDT_CFG_REG = (((uint8)(lpMode << CY_WDT_CFG_LPMODE_SHIFT)) & CY_WDT_CFG_LPMODE_MASK) |
 2752              		.loc 1 1588 5 is_stmt 1 view .LVU674
 2753              		.loc 1 1588 24 is_stmt 0 view .LVU675
 2754 0020 4901     		lsls	r1, r1, #5
 2755              	.LVL138:
 2756              		.loc 1 1588 68 view .LVU676
 2757 0022 01F06001 		and	r1, r1, #96
1589:Generated_Source\PSoC5/CyLib.c ****                        (CY_WDT_CFG_REG & ((uint8)(~CY_WDT_CFG_LPMODE_MASK)));
 2758              		.loc 1 1589 25 view .LVU677
 2759 0026 1A78     		ldrb	r2, [r3]	@ zero_extendqisi2
 2760              		.loc 1 1589 40 view .LVU678
ARM GAS  C:\Users\jens-\AppData\Local\Temp\ccdWTNhT.s 			page 85


 2761 0028 02F09F02 		and	r2, r2, #159
1588:Generated_Source\PSoC5/CyLib.c ****                        (CY_WDT_CFG_REG & ((uint8)(~CY_WDT_CFG_LPMODE_MASK)));
 2762              		.loc 1 1588 94 view .LVU679
 2763 002c 1143     		orrs	r1, r1, r2
1588:Generated_Source\PSoC5/CyLib.c ****                        (CY_WDT_CFG_REG & ((uint8)(~CY_WDT_CFG_LPMODE_MASK)));
 2764              		.loc 1 1588 20 view .LVU680
 2765 002e 1970     		strb	r1, [r3]
1590:Generated_Source\PSoC5/CyLib.c **** 
1591:Generated_Source\PSoC5/CyLib.c ****     /* Enables watchdog reset */
1592:Generated_Source\PSoC5/CyLib.c ****     CY_WDT_CFG_REG |= CY_WDT_CFG_WDR_EN;
 2766              		.loc 1 1592 5 is_stmt 1 view .LVU681
 2767              		.loc 1 1592 20 is_stmt 0 view .LVU682
 2768 0030 1A78     		ldrb	r2, [r3]	@ zero_extendqisi2
 2769 0032 42F01002 		orr	r2, r2, #16
 2770 0036 1A70     		strb	r2, [r3]
1593:Generated_Source\PSoC5/CyLib.c **** }
 2771              		.loc 1 1593 1 view .LVU683
 2772 0038 7047     		bx	lr
 2773              	.L260:
 2774 003a 00BF     		.align	2
 2775              	.L259:
 2776 003c 83430040 		.word	1073759107
 2777              		.cfi_endproc
 2778              	.LFE44:
 2779              		.size	CyWdtStart, .-CyWdtStart
 2780              		.section	.text.CyWdtClear,"ax",%progbits
 2781              		.align	1
 2782              		.global	CyWdtClear
 2783              		.syntax unified
 2784              		.thumb
 2785              		.thumb_func
 2786              		.fpu softvfp
 2787              		.type	CyWdtClear, %function
 2788              	CyWdtClear:
 2789              	.LFB45:
1594:Generated_Source\PSoC5/CyLib.c **** 
1595:Generated_Source\PSoC5/CyLib.c **** 
1596:Generated_Source\PSoC5/CyLib.c **** /*******************************************************************************
1597:Generated_Source\PSoC5/CyLib.c **** * Function Name: CyWdtClear
1598:Generated_Source\PSoC5/CyLib.c **** ****************************************************************************//**
1599:Generated_Source\PSoC5/CyLib.c **** *
1600:Generated_Source\PSoC5/CyLib.c **** *  Clears (feeds) the watchdog timer.
1601:Generated_Source\PSoC5/CyLib.c **** *
1602:Generated_Source\PSoC5/CyLib.c **** *******************************************************************************/
1603:Generated_Source\PSoC5/CyLib.c **** void CyWdtClear(void) 
1604:Generated_Source\PSoC5/CyLib.c **** {
 2790              		.loc 1 1604 1 is_stmt 1 view -0
 2791              		.cfi_startproc
 2792              		@ args = 0, pretend = 0, frame = 0
 2793              		@ frame_needed = 0, uses_anonymous_args = 0
 2794              		@ link register save eliminated.
1605:Generated_Source\PSoC5/CyLib.c ****     CY_WDT_CR_REG = CY_WDT_CR_FEED;
 2795              		.loc 1 1605 5 view .LVU685
 2796              		.loc 1 1605 19 is_stmt 0 view .LVU686
 2797 0000 014B     		ldr	r3, .L262
 2798 0002 0122     		movs	r2, #1
 2799 0004 1A70     		strb	r2, [r3]
ARM GAS  C:\Users\jens-\AppData\Local\Temp\ccdWTNhT.s 			page 86


1606:Generated_Source\PSoC5/CyLib.c **** }
 2800              		.loc 1 1606 1 view .LVU687
 2801 0006 7047     		bx	lr
 2802              	.L263:
 2803              		.align	2
 2804              	.L262:
 2805 0008 84430040 		.word	1073759108
 2806              		.cfi_endproc
 2807              	.LFE45:
 2808              		.size	CyWdtClear, .-CyWdtClear
 2809              		.section	.text.CyVdStickyStatus,"ax",%progbits
 2810              		.align	1
 2811              		.global	CyVdStickyStatus
 2812              		.syntax unified
 2813              		.thumb
 2814              		.thumb_func
 2815              		.fpu softvfp
 2816              		.type	CyVdStickyStatus, %function
 2817              	CyVdStickyStatus:
 2818              	.LVL139:
 2819              	.LFB52:
1607:Generated_Source\PSoC5/CyLib.c **** 
1608:Generated_Source\PSoC5/CyLib.c **** 
1609:Generated_Source\PSoC5/CyLib.c **** 
1610:Generated_Source\PSoC5/CyLib.c **** /*******************************************************************************
1611:Generated_Source\PSoC5/CyLib.c **** * Function Name: CyVdLvDigitEnable
1612:Generated_Source\PSoC5/CyLib.c **** ****************************************************************************//**
1613:Generated_Source\PSoC5/CyLib.c **** *
1614:Generated_Source\PSoC5/CyLib.c **** *  Sets the voltage trip level, enables the output of the digital low-voltage
1615:Generated_Source\PSoC5/CyLib.c **** *  monitor, and optionally configures voltage monitor to reset device upon the
1616:Generated_Source\PSoC5/CyLib.c **** *  low-voltage event instead of generating an interrupt.
1617:Generated_Source\PSoC5/CyLib.c **** *
1618:Generated_Source\PSoC5/CyLib.c **** *  Note The associated interrupt enable/disable state is not changed by the
1619:Generated_Source\PSoC5/CyLib.c **** *  function. The Interrupt component API should be used to register the
1620:Generated_Source\PSoC5/CyLib.c **** *  interrupt service routine and to enable/disable associated interrupt.
1621:Generated_Source\PSoC5/CyLib.c **** *
1622:Generated_Source\PSoC5/CyLib.c **** *  \param reset: Enables device reset on digital low-voltage event:
1623:Generated_Source\PSoC5/CyLib.c **** *   Zero - Interrupt on digital low-voltage event
1624:Generated_Source\PSoC5/CyLib.c **** *   Non-zero - Reset on digital low-voltage event
1625:Generated_Source\PSoC5/CyLib.c **** *
1626:Generated_Source\PSoC5/CyLib.c **** *  \param threshold: Sets the trip point of the digital low-voltage monitoring circuit
1627:Generated_Source\PSoC5/CyLib.c **** *   in steps of approximately 250 mV in range from 1.70 V (0x00) to 5.45 V
1628:Generated_Source\PSoC5/CyLib.c **** *   (0x0F). For example, the trip point is set to 1.80 V when the threshold
1629:Generated_Source\PSoC5/CyLib.c **** *   parameter value is 0x04. Refer to the device TRM for the exact trip voltage
1630:Generated_Source\PSoC5/CyLib.c **** *   values.
1631:Generated_Source\PSoC5/CyLib.c **** *
1632:Generated_Source\PSoC5/CyLib.c **** * Side Effects and Restrictions:
1633:Generated_Source\PSoC5/CyLib.c **** *  The voltage resets are momentary. When a voltage reset (analog/digital
1634:Generated_Source\PSoC5/CyLib.c **** *  low-voltage and analog high-voltage) occurs, the RESET_CR1 and RESET_CR3
1635:Generated_Source\PSoC5/CyLib.c **** *  registers are restored to their default values. This means that the voltage
1636:Generated_Source\PSoC5/CyLib.c **** *  monitor circuit is no longer enabled and the device exits reset. If the
1637:Generated_Source\PSoC5/CyLib.c **** *  supply is below the trip level and firmware enables the voltage reset
1638:Generated_Source\PSoC5/CyLib.c **** *  functionality, the device will reset again. This will continue as long as the
1639:Generated_Source\PSoC5/CyLib.c **** *  supply is below the trip level or as long as the user enables the reset
1640:Generated_Source\PSoC5/CyLib.c **** *  functionality of the voltage monitor functionality.
1641:Generated_Source\PSoC5/CyLib.c **** *
1642:Generated_Source\PSoC5/CyLib.c **** *  When any voltage reset occurs, the RESET_SR0 and RESET_SR2 status registers
ARM GAS  C:\Users\jens-\AppData\Local\Temp\ccdWTNhT.s 			page 87


1643:Generated_Source\PSoC5/CyLib.c **** *  are cleared. This means that analog low-voltage, digital low-voltage and
1644:Generated_Source\PSoC5/CyLib.c **** *  analog high-voltage status bits are not persistent across any voltage reset.
1645:Generated_Source\PSoC5/CyLib.c **** *
1646:Generated_Source\PSoC5/CyLib.c **** *******************************************************************************/
1647:Generated_Source\PSoC5/CyLib.c **** void CyVdLvDigitEnable(uint8 reset, uint8 threshold) 
1648:Generated_Source\PSoC5/CyLib.c **** {
1649:Generated_Source\PSoC5/CyLib.c ****     uint32 intRegTmp;
1650:Generated_Source\PSoC5/CyLib.c ****     uint8 interruptState;
1651:Generated_Source\PSoC5/CyLib.c **** 
1652:Generated_Source\PSoC5/CyLib.c ****     interruptState = CyEnterCriticalSection();
1653:Generated_Source\PSoC5/CyLib.c **** 
1654:Generated_Source\PSoC5/CyLib.c ****     /* Store interrupt enable state */
1655:Generated_Source\PSoC5/CyLib.c ****     intRegTmp = CY_INT_ENABLE_REG & CY_VD_INT_MASK;
1656:Generated_Source\PSoC5/CyLib.c **** 
1657:Generated_Source\PSoC5/CyLib.c ****     /* Disable VD interrupt (write 1) to protect against glitches */
1658:Generated_Source\PSoC5/CyLib.c ****     CY_INT_CLEAR_REG = CY_VD_INT_MASK;
1659:Generated_Source\PSoC5/CyLib.c **** 
1660:Generated_Source\PSoC5/CyLib.c ****     CY_VD_PRES_CONTROL_REG &= ((uint8)(~CY_VD_PRESD_EN));
1661:Generated_Source\PSoC5/CyLib.c **** 
1662:Generated_Source\PSoC5/CyLib.c ****     CY_VD_LVI_TRIP_REG = (threshold & CY_VD_LVI_TRIP_LVID_MASK) |
1663:Generated_Source\PSoC5/CyLib.c ****                             (CY_VD_LVI_TRIP_REG & ((uint8)(~CY_VD_LVI_TRIP_LVID_MASK)));
1664:Generated_Source\PSoC5/CyLib.c ****     CY_VD_LVI_HVI_CONTROL_REG |= CY_VD_LVID_EN;
1665:Generated_Source\PSoC5/CyLib.c **** 
1666:Generated_Source\PSoC5/CyLib.c ****     /* Timeout to eliminate glitches on LVI/HVI when enabling (ID # 127412) */
1667:Generated_Source\PSoC5/CyLib.c ****     CyDelayUs(1u);
1668:Generated_Source\PSoC5/CyLib.c **** 
1669:Generated_Source\PSoC5/CyLib.c ****     (void) CyVdStickyStatus(CY_VD_LVID);
1670:Generated_Source\PSoC5/CyLib.c **** 
1671:Generated_Source\PSoC5/CyLib.c ****     if(0u != reset)
1672:Generated_Source\PSoC5/CyLib.c ****     {
1673:Generated_Source\PSoC5/CyLib.c ****         CY_VD_PRES_CONTROL_REG |= CY_VD_PRESD_EN;
1674:Generated_Source\PSoC5/CyLib.c ****     }
1675:Generated_Source\PSoC5/CyLib.c ****     else
1676:Generated_Source\PSoC5/CyLib.c ****     {
1677:Generated_Source\PSoC5/CyLib.c ****         CY_VD_PRES_CONTROL_REG &= ((uint8)(~CY_VD_PRESD_EN));
1678:Generated_Source\PSoC5/CyLib.c ****     }
1679:Generated_Source\PSoC5/CyLib.c **** 
1680:Generated_Source\PSoC5/CyLib.c ****     /* Clear pending interrupt */
1681:Generated_Source\PSoC5/CyLib.c ****     CY_INT_CLR_PEND_REG = CY_VD_INT_MASK;
1682:Generated_Source\PSoC5/CyLib.c **** 
1683:Generated_Source\PSoC5/CyLib.c ****     /* Restore interrupt enable state */
1684:Generated_Source\PSoC5/CyLib.c ****     CY_INT_ENABLE_REG = intRegTmp;
1685:Generated_Source\PSoC5/CyLib.c **** 
1686:Generated_Source\PSoC5/CyLib.c ****     CyExitCriticalSection(interruptState);
1687:Generated_Source\PSoC5/CyLib.c **** }
1688:Generated_Source\PSoC5/CyLib.c **** 
1689:Generated_Source\PSoC5/CyLib.c **** 
1690:Generated_Source\PSoC5/CyLib.c **** /*******************************************************************************
1691:Generated_Source\PSoC5/CyLib.c **** * Function Name: CyVdLvAnalogEnable
1692:Generated_Source\PSoC5/CyLib.c **** ****************************************************************************//**
1693:Generated_Source\PSoC5/CyLib.c **** *
1694:Generated_Source\PSoC5/CyLib.c **** *  Sets the voltage trip level, enables the output of the analog low-voltage
1695:Generated_Source\PSoC5/CyLib.c **** *  monitor, and optionally configures voltage monitor to reset device upon the
1696:Generated_Source\PSoC5/CyLib.c **** *  low-voltage event instead of generating an interrupt.
1697:Generated_Source\PSoC5/CyLib.c **** *
1698:Generated_Source\PSoC5/CyLib.c **** *  Note The associated interrupt enable/disable state is not changed by the
1699:Generated_Source\PSoC5/CyLib.c **** *  function. The Interrupt component API should be used to register the
ARM GAS  C:\Users\jens-\AppData\Local\Temp\ccdWTNhT.s 			page 88


1700:Generated_Source\PSoC5/CyLib.c **** *  interrupt service routine and to enable/disable associated interrupt.
1701:Generated_Source\PSoC5/CyLib.c **** *
1702:Generated_Source\PSoC5/CyLib.c **** *  \param reset: Enables device reset on analog low-voltage event:
1703:Generated_Source\PSoC5/CyLib.c **** *  Zero - Interrupt on analog low-voltage event
1704:Generated_Source\PSoC5/CyLib.c **** *  Non-zero - Reset on analog low-voltage event
1705:Generated_Source\PSoC5/CyLib.c **** *
1706:Generated_Source\PSoC5/CyLib.c **** *  \param threshold: Sets the trip point of the analog low-voltage monitoring circuit
1707:Generated_Source\PSoC5/CyLib.c **** *  in steps of approximately 250 mV in range from 1.70 V (0x00) to 5.45 V
1708:Generated_Source\PSoC5/CyLib.c **** *  (0x0F). For example, the trip point is set to 1.80 V when value of the
1709:Generated_Source\PSoC5/CyLib.c **** *  threshold parameter is 0x04. Please refer to the device TRM for the exact
1710:Generated_Source\PSoC5/CyLib.c **** *  trip voltage values.
1711:Generated_Source\PSoC5/CyLib.c **** *
1712:Generated_Source\PSoC5/CyLib.c **** * Side Effects and Restrictions:
1713:Generated_Source\PSoC5/CyLib.c **** *  The voltage resets are momentary. When a voltage reset (analog/digital
1714:Generated_Source\PSoC5/CyLib.c **** *  low-voltage and analog high-voltage) occurs, the RESET_CR1 and RESET_CR3
1715:Generated_Source\PSoC5/CyLib.c **** *  registers are restored to their default values. This means that the voltage
1716:Generated_Source\PSoC5/CyLib.c **** *  monitor circuit is no longer enabled and the device exits reset. If the
1717:Generated_Source\PSoC5/CyLib.c **** *  supply is below the trip level and firmware enables the voltage reset
1718:Generated_Source\PSoC5/CyLib.c **** *  functionality, the device will reset again. This will continue as long as
1719:Generated_Source\PSoC5/CyLib.c **** *  the supply is below the trip level or as long as the user enables the reset
1720:Generated_Source\PSoC5/CyLib.c **** *  functionality of the voltage monitor functionality.
1721:Generated_Source\PSoC5/CyLib.c **** *
1722:Generated_Source\PSoC5/CyLib.c **** *  When any voltage reset occurs, the RESET_SR0 and RESET_SR2 status registers
1723:Generated_Source\PSoC5/CyLib.c **** *  are cleared. This means that analog low-voltage, digital low-voltage and
1724:Generated_Source\PSoC5/CyLib.c **** *  analog high-voltage status bits are not persistent across any voltage reset.
1725:Generated_Source\PSoC5/CyLib.c **** *
1726:Generated_Source\PSoC5/CyLib.c **** *******************************************************************************/
1727:Generated_Source\PSoC5/CyLib.c **** void CyVdLvAnalogEnable(uint8 reset, uint8 threshold) 
1728:Generated_Source\PSoC5/CyLib.c **** {
1729:Generated_Source\PSoC5/CyLib.c ****     uint32 intRegTmp;
1730:Generated_Source\PSoC5/CyLib.c ****     uint8 interruptState;
1731:Generated_Source\PSoC5/CyLib.c **** 
1732:Generated_Source\PSoC5/CyLib.c ****     interruptState = CyEnterCriticalSection();
1733:Generated_Source\PSoC5/CyLib.c **** 
1734:Generated_Source\PSoC5/CyLib.c ****     /* Store interrupt enable state */
1735:Generated_Source\PSoC5/CyLib.c ****     intRegTmp = CY_INT_ENABLE_REG & CY_VD_INT_MASK;
1736:Generated_Source\PSoC5/CyLib.c **** 
1737:Generated_Source\PSoC5/CyLib.c ****     /* Disable VD interrupt (write 1) to protect against glitches */
1738:Generated_Source\PSoC5/CyLib.c ****     CY_INT_CLEAR_REG = CY_VD_INT_MASK;
1739:Generated_Source\PSoC5/CyLib.c **** 
1740:Generated_Source\PSoC5/CyLib.c ****     CY_VD_PRES_CONTROL_REG &= ((uint8)(~CY_VD_PRESA_EN));
1741:Generated_Source\PSoC5/CyLib.c **** 
1742:Generated_Source\PSoC5/CyLib.c ****     CY_VD_LVI_TRIP_REG = ((uint8)(threshold << 4u)) | (CY_VD_LVI_TRIP_REG & 0x0Fu);
1743:Generated_Source\PSoC5/CyLib.c ****     CY_VD_LVI_HVI_CONTROL_REG |= CY_VD_LVIA_EN;
1744:Generated_Source\PSoC5/CyLib.c **** 
1745:Generated_Source\PSoC5/CyLib.c ****     /* Timeout to eliminate glitches on LVI/HVI when enabling (ID # 127412) */
1746:Generated_Source\PSoC5/CyLib.c ****     CyDelayUs(1u);
1747:Generated_Source\PSoC5/CyLib.c **** 
1748:Generated_Source\PSoC5/CyLib.c ****     (void) CyVdStickyStatus(CY_VD_LVIA);
1749:Generated_Source\PSoC5/CyLib.c **** 
1750:Generated_Source\PSoC5/CyLib.c ****     if(0u != reset)
1751:Generated_Source\PSoC5/CyLib.c ****     {
1752:Generated_Source\PSoC5/CyLib.c ****         CY_VD_PRES_CONTROL_REG |= CY_VD_PRESA_EN;
1753:Generated_Source\PSoC5/CyLib.c ****     }
1754:Generated_Source\PSoC5/CyLib.c ****     else
1755:Generated_Source\PSoC5/CyLib.c ****     {
1756:Generated_Source\PSoC5/CyLib.c ****         CY_VD_PRES_CONTROL_REG &= ((uint8)(~CY_VD_PRESA_EN));
ARM GAS  C:\Users\jens-\AppData\Local\Temp\ccdWTNhT.s 			page 89


1757:Generated_Source\PSoC5/CyLib.c ****     }
1758:Generated_Source\PSoC5/CyLib.c **** 
1759:Generated_Source\PSoC5/CyLib.c ****     /* Clear pending interrupt */
1760:Generated_Source\PSoC5/CyLib.c ****     CY_INT_CLR_PEND_REG = CY_VD_INT_MASK;
1761:Generated_Source\PSoC5/CyLib.c **** 
1762:Generated_Source\PSoC5/CyLib.c ****     /* Restore interrupt enable state */
1763:Generated_Source\PSoC5/CyLib.c ****     CY_INT_ENABLE_REG = intRegTmp;
1764:Generated_Source\PSoC5/CyLib.c **** 
1765:Generated_Source\PSoC5/CyLib.c ****     CyExitCriticalSection(interruptState);
1766:Generated_Source\PSoC5/CyLib.c **** }
1767:Generated_Source\PSoC5/CyLib.c **** 
1768:Generated_Source\PSoC5/CyLib.c **** 
1769:Generated_Source\PSoC5/CyLib.c **** /*******************************************************************************
1770:Generated_Source\PSoC5/CyLib.c **** * Function Name: CyVdLvDigitDisable
1771:Generated_Source\PSoC5/CyLib.c **** ****************************************************************************//**
1772:Generated_Source\PSoC5/CyLib.c **** *
1773:Generated_Source\PSoC5/CyLib.c **** *  Disables the digital low-voltage monitor, turns off device reset upon the
1774:Generated_Source\PSoC5/CyLib.c **** *  digital low-voltage event, and clears the associated persistent status bit.
1775:Generated_Source\PSoC5/CyLib.c **** *
1776:Generated_Source\PSoC5/CyLib.c **** *  Note The associated interrupt enable/disable state is not changed by the
1777:Generated_Source\PSoC5/CyLib.c **** *  function. The pending interrupt status is not cleared. The Interrupt
1778:Generated_Source\PSoC5/CyLib.c **** *  component API should be used to manipulate with the associated interrupts.
1779:Generated_Source\PSoC5/CyLib.c **** *
1780:Generated_Source\PSoC5/CyLib.c **** *******************************************************************************/
1781:Generated_Source\PSoC5/CyLib.c **** void CyVdLvDigitDisable(void) 
1782:Generated_Source\PSoC5/CyLib.c **** {
1783:Generated_Source\PSoC5/CyLib.c ****     CY_VD_LVI_HVI_CONTROL_REG &= ((uint8)(~CY_VD_LVID_EN));
1784:Generated_Source\PSoC5/CyLib.c ****     CY_VD_PRES_CONTROL_REG &= ((uint8)(~CY_VD_PRESD_EN));
1785:Generated_Source\PSoC5/CyLib.c ****     (void) CyVdStickyStatus(CY_VD_LVID);
1786:Generated_Source\PSoC5/CyLib.c **** 
1787:Generated_Source\PSoC5/CyLib.c ****     while(0u != (CyVdStickyStatus(CY_VD_LVID) & CY_VD_LVID))
1788:Generated_Source\PSoC5/CyLib.c ****     {
1789:Generated_Source\PSoC5/CyLib.c **** 
1790:Generated_Source\PSoC5/CyLib.c ****     }
1791:Generated_Source\PSoC5/CyLib.c **** }
1792:Generated_Source\PSoC5/CyLib.c **** 
1793:Generated_Source\PSoC5/CyLib.c **** 
1794:Generated_Source\PSoC5/CyLib.c **** /*******************************************************************************
1795:Generated_Source\PSoC5/CyLib.c **** * Function Name: CyVdLvAnalogDisable
1796:Generated_Source\PSoC5/CyLib.c **** ****************************************************************************//**
1797:Generated_Source\PSoC5/CyLib.c **** *
1798:Generated_Source\PSoC5/CyLib.c **** *  Disables the analog low-voltage monitor, turns off device reset upon the
1799:Generated_Source\PSoC5/CyLib.c **** *  analog low-voltage event, and clears the associated persistent status bit.
1800:Generated_Source\PSoC5/CyLib.c **** *
1801:Generated_Source\PSoC5/CyLib.c **** *  Note The associated interrupt enable/disable state is not changed by the
1802:Generated_Source\PSoC5/CyLib.c **** *  function. The pending interrupt status is not cleared. The Interrupt
1803:Generated_Source\PSoC5/CyLib.c **** *  component API should be used to manipulate with the associated interrupts.
1804:Generated_Source\PSoC5/CyLib.c **** *
1805:Generated_Source\PSoC5/CyLib.c **** *******************************************************************************/
1806:Generated_Source\PSoC5/CyLib.c **** void CyVdLvAnalogDisable(void) 
1807:Generated_Source\PSoC5/CyLib.c **** {
1808:Generated_Source\PSoC5/CyLib.c ****     CY_VD_LVI_HVI_CONTROL_REG &= ((uint8)(~CY_VD_LVIA_EN));
1809:Generated_Source\PSoC5/CyLib.c ****     CY_VD_PRES_CONTROL_REG &= ((uint8)(~CY_VD_PRESA_EN));
1810:Generated_Source\PSoC5/CyLib.c ****     while(0u != (CyVdStickyStatus(CY_VD_LVIA) & CY_VD_LVIA))
1811:Generated_Source\PSoC5/CyLib.c ****     {
1812:Generated_Source\PSoC5/CyLib.c **** 
1813:Generated_Source\PSoC5/CyLib.c ****     }
ARM GAS  C:\Users\jens-\AppData\Local\Temp\ccdWTNhT.s 			page 90


1814:Generated_Source\PSoC5/CyLib.c **** }
1815:Generated_Source\PSoC5/CyLib.c **** 
1816:Generated_Source\PSoC5/CyLib.c **** 
1817:Generated_Source\PSoC5/CyLib.c **** /*******************************************************************************
1818:Generated_Source\PSoC5/CyLib.c **** * Function Name: CyVdHvAnalogEnable
1819:Generated_Source\PSoC5/CyLib.c **** ****************************************************************************//**
1820:Generated_Source\PSoC5/CyLib.c **** *
1821:Generated_Source\PSoC5/CyLib.c **** *  Enables the output of the analog high-voltage monitor and sets 5.75 V
1822:Generated_Source\PSoC5/CyLib.c **** *  threshold detection for Vdda.
1823:Generated_Source\PSoC5/CyLib.c **** *
1824:Generated_Source\PSoC5/CyLib.c **** *  Note The associated interrupt enable/disable state is not changed by the
1825:Generated_Source\PSoC5/CyLib.c **** *  function. The Interrupt component API should be used to register the
1826:Generated_Source\PSoC5/CyLib.c **** *  interrupt service routine and to enable/disable associated interrupt.
1827:Generated_Source\PSoC5/CyLib.c **** *
1828:Generated_Source\PSoC5/CyLib.c **** *******************************************************************************/
1829:Generated_Source\PSoC5/CyLib.c **** void CyVdHvAnalogEnable(void) 
1830:Generated_Source\PSoC5/CyLib.c **** {
1831:Generated_Source\PSoC5/CyLib.c ****     uint32 intRegTmp;
1832:Generated_Source\PSoC5/CyLib.c ****     uint8 interruptState;
1833:Generated_Source\PSoC5/CyLib.c **** 
1834:Generated_Source\PSoC5/CyLib.c ****     interruptState = CyEnterCriticalSection();
1835:Generated_Source\PSoC5/CyLib.c **** 
1836:Generated_Source\PSoC5/CyLib.c ****     /* Store interrupt enable state */
1837:Generated_Source\PSoC5/CyLib.c ****     intRegTmp = CY_INT_ENABLE_REG & CY_VD_INT_MASK;
1838:Generated_Source\PSoC5/CyLib.c **** 
1839:Generated_Source\PSoC5/CyLib.c ****     /* Disable VD interrupt (write 1) to protect against glitches */
1840:Generated_Source\PSoC5/CyLib.c ****     CY_INT_CLEAR_REG = CY_VD_INT_MASK;
1841:Generated_Source\PSoC5/CyLib.c **** 
1842:Generated_Source\PSoC5/CyLib.c ****     CY_VD_PRES_CONTROL_REG &= ((uint8)(~CY_VD_PRESA_EN));
1843:Generated_Source\PSoC5/CyLib.c **** 
1844:Generated_Source\PSoC5/CyLib.c ****     CY_VD_LVI_HVI_CONTROL_REG |= CY_VD_HVIA_EN;
1845:Generated_Source\PSoC5/CyLib.c **** 
1846:Generated_Source\PSoC5/CyLib.c ****     /* Timeout to eliminate glitches on the LVI/HVI when enabling (ID # 127412)  */
1847:Generated_Source\PSoC5/CyLib.c ****     CyDelayUs(1u);
1848:Generated_Source\PSoC5/CyLib.c **** 
1849:Generated_Source\PSoC5/CyLib.c ****     (void) CyVdStickyStatus(CY_VD_HVIA);
1850:Generated_Source\PSoC5/CyLib.c **** 
1851:Generated_Source\PSoC5/CyLib.c ****     /* Clear pending interrupt */
1852:Generated_Source\PSoC5/CyLib.c ****     CY_INT_CLR_PEND_REG = CY_VD_INT_MASK;
1853:Generated_Source\PSoC5/CyLib.c **** 
1854:Generated_Source\PSoC5/CyLib.c ****     /* Restore interrupt enable state */
1855:Generated_Source\PSoC5/CyLib.c ****     CY_INT_ENABLE_REG = intRegTmp;
1856:Generated_Source\PSoC5/CyLib.c **** 
1857:Generated_Source\PSoC5/CyLib.c ****     CyExitCriticalSection(interruptState);
1858:Generated_Source\PSoC5/CyLib.c **** }
1859:Generated_Source\PSoC5/CyLib.c **** 
1860:Generated_Source\PSoC5/CyLib.c **** 
1861:Generated_Source\PSoC5/CyLib.c **** /*******************************************************************************
1862:Generated_Source\PSoC5/CyLib.c **** * Function Name: CyVdHvAnalogDisable
1863:Generated_Source\PSoC5/CyLib.c **** ****************************************************************************//**
1864:Generated_Source\PSoC5/CyLib.c **** *
1865:Generated_Source\PSoC5/CyLib.c **** *  Disables the analog high-voltage monitor and clears the associated persistent
1866:Generated_Source\PSoC5/CyLib.c **** *  status bit.
1867:Generated_Source\PSoC5/CyLib.c **** *
1868:Generated_Source\PSoC5/CyLib.c **** *  Note The associated interrupt enable/disable state is not changed by the
1869:Generated_Source\PSoC5/CyLib.c **** *  function. The pending interrupt status is not cleared. The Interrupt
1870:Generated_Source\PSoC5/CyLib.c **** *  component API should be used to manipulate with the associated interrupts.
ARM GAS  C:\Users\jens-\AppData\Local\Temp\ccdWTNhT.s 			page 91


1871:Generated_Source\PSoC5/CyLib.c **** *
1872:Generated_Source\PSoC5/CyLib.c **** *******************************************************************************/
1873:Generated_Source\PSoC5/CyLib.c **** void CyVdHvAnalogDisable(void) 
1874:Generated_Source\PSoC5/CyLib.c **** {
1875:Generated_Source\PSoC5/CyLib.c ****     CY_VD_LVI_HVI_CONTROL_REG &= ((uint8)(~CY_VD_HVIA_EN));
1876:Generated_Source\PSoC5/CyLib.c ****     while(0u != (CyVdStickyStatus(CY_VD_HVIA) & CY_VD_HVIA))
1877:Generated_Source\PSoC5/CyLib.c ****     {
1878:Generated_Source\PSoC5/CyLib.c **** 
1879:Generated_Source\PSoC5/CyLib.c ****     }
1880:Generated_Source\PSoC5/CyLib.c **** }
1881:Generated_Source\PSoC5/CyLib.c **** 
1882:Generated_Source\PSoC5/CyLib.c **** 
1883:Generated_Source\PSoC5/CyLib.c **** /*******************************************************************************
1884:Generated_Source\PSoC5/CyLib.c **** * Function Name: CyVdStickyStatus
1885:Generated_Source\PSoC5/CyLib.c **** ****************************************************************************//**
1886:Generated_Source\PSoC5/CyLib.c **** *
1887:Generated_Source\PSoC5/CyLib.c **** *  Reads and clears the voltage detection status bits in the RESET_SR0 register.
1888:Generated_Source\PSoC5/CyLib.c **** *  The bits are set to 1 by the voltage monitor circuit when the supply is
1889:Generated_Source\PSoC5/CyLib.c **** *  outside the detector trip point. They stay set to 1 until they are read or
1890:Generated_Source\PSoC5/CyLib.c **** *  a POR / LVI / PRES reset occurs. This function uses a shadow register, so
1891:Generated_Source\PSoC5/CyLib.c **** *  only the bits passed in the parameter will be cleared in the shadow register.
1892:Generated_Source\PSoC5/CyLib.c **** *
1893:Generated_Source\PSoC5/CyLib.c **** *  \param mask: Bits in the RESET_SR0 shadow register to clear and return.
1894:Generated_Source\PSoC5/CyLib.c **** *   Define                  Definition
1895:Generated_Source\PSoC5/CyLib.c **** *   CY_VD_LVID            Persistent status of digital LVI.
1896:Generated_Source\PSoC5/CyLib.c **** *   CY_VD_LVIA            Persistent status of analog LVI.
1897:Generated_Source\PSoC5/CyLib.c **** *   CY_VD_HVIA            Persistent status of analog HVI.
1898:Generated_Source\PSoC5/CyLib.c **** *
1899:Generated_Source\PSoC5/CyLib.c **** * \return
1900:Generated_Source\PSoC5/CyLib.c **** *  Status. Same enumerated bit values as used for the mask parameter. A zero is
1901:Generated_Source\PSoC5/CyLib.c **** *  returned for bits not used in the mask parameter.
1902:Generated_Source\PSoC5/CyLib.c **** *
1903:Generated_Source\PSoC5/CyLib.c **** * Side Effects and Restrictions:
1904:Generated_Source\PSoC5/CyLib.c **** *  When an LVI reset occurs, the RESET_SR0 status registers are cleared. This
1905:Generated_Source\PSoC5/CyLib.c **** *  means that the voltage detection status bits are not persistent across an LVI
1906:Generated_Source\PSoC5/CyLib.c **** *  reset and cannot be used to determine a reset source.
1907:Generated_Source\PSoC5/CyLib.c **** *
1908:Generated_Source\PSoC5/CyLib.c **** *******************************************************************************/
1909:Generated_Source\PSoC5/CyLib.c **** uint8 CyVdStickyStatus(uint8 mask) 
1910:Generated_Source\PSoC5/CyLib.c **** {
 2820              		.loc 1 1910 1 is_stmt 1 view -0
 2821              		.cfi_startproc
 2822              		@ args = 0, pretend = 0, frame = 0
 2823              		@ frame_needed = 0, uses_anonymous_args = 0
 2824              		.loc 1 1910 1 is_stmt 0 view .LVU689
 2825 0000 38B5     		push	{r3, r4, r5, lr}
 2826              		.cfi_def_cfa_offset 16
 2827              		.cfi_offset 3, -16
 2828              		.cfi_offset 4, -12
 2829              		.cfi_offset 5, -8
 2830              		.cfi_offset 14, -4
 2831 0002 0446     		mov	r4, r0
1911:Generated_Source\PSoC5/CyLib.c ****     static uint8 interruptStatus;
 2832              		.loc 1 1911 5 is_stmt 1 view .LVU690
1912:Generated_Source\PSoC5/CyLib.c ****     uint8 interruptState;
 2833              		.loc 1 1912 5 view .LVU691
1913:Generated_Source\PSoC5/CyLib.c ****     uint8 tmpStatus;
ARM GAS  C:\Users\jens-\AppData\Local\Temp\ccdWTNhT.s 			page 92


 2834              		.loc 1 1913 5 view .LVU692
1914:Generated_Source\PSoC5/CyLib.c **** 
1915:Generated_Source\PSoC5/CyLib.c ****     interruptState = CyEnterCriticalSection();
 2835              		.loc 1 1915 5 view .LVU693
 2836              		.loc 1 1915 22 is_stmt 0 view .LVU694
 2837 0004 FFF7FEFF 		bl	CyEnterCriticalSection
 2838              	.LVL140:
1916:Generated_Source\PSoC5/CyLib.c **** 
1917:Generated_Source\PSoC5/CyLib.c ****     interruptStatus |= CY_VD_PERSISTENT_STATUS_REG;
 2839              		.loc 1 1917 5 is_stmt 1 view .LVU695
 2840              		.loc 1 1917 24 is_stmt 0 view .LVU696
 2841 0008 064B     		ldr	r3, .L266
 2842 000a 1B78     		ldrb	r3, [r3]	@ zero_extendqisi2
 2843              		.loc 1 1917 21 view .LVU697
 2844 000c 064A     		ldr	r2, .L266+4
 2845 000e 1178     		ldrb	r1, [r2]	@ zero_extendqisi2
 2846 0010 0B43     		orrs	r3, r3, r1
1918:Generated_Source\PSoC5/CyLib.c ****     tmpStatus = interruptStatus & (uint8)(CY_VD_LVID | CY_VD_LVIA | CY_VD_HVIA);
 2847              		.loc 1 1918 5 is_stmt 1 view .LVU698
 2848              		.loc 1 1918 15 is_stmt 0 view .LVU699
 2849 0012 03F00705 		and	r5, r3, #7
 2850              	.LVL141:
1919:Generated_Source\PSoC5/CyLib.c ****     interruptStatus &= ((uint8)(~mask));
 2851              		.loc 1 1919 5 is_stmt 1 view .LVU700
 2852              		.loc 1 1919 21 is_stmt 0 view .LVU701
 2853 0016 23EA0403 		bic	r3, r3, r4
 2854 001a 1370     		strb	r3, [r2]
1920:Generated_Source\PSoC5/CyLib.c **** 
1921:Generated_Source\PSoC5/CyLib.c ****     CyExitCriticalSection(interruptState);
 2855              		.loc 1 1921 5 is_stmt 1 view .LVU702
 2856 001c FFF7FEFF 		bl	CyExitCriticalSection
 2857              	.LVL142:
1922:Generated_Source\PSoC5/CyLib.c **** 
1923:Generated_Source\PSoC5/CyLib.c ****     return(tmpStatus);
 2858              		.loc 1 1923 5 view .LVU703
1924:Generated_Source\PSoC5/CyLib.c **** }
 2859              		.loc 1 1924 1 is_stmt 0 view .LVU704
 2860 0020 2846     		mov	r0, r5
 2861 0022 38BD     		pop	{r3, r4, r5, pc}
 2862              	.LVL143:
 2863              	.L267:
 2864              		.loc 1 1924 1 view .LVU705
 2865              		.align	2
 2866              	.L266:
 2867 0024 FA460040 		.word	1073759994
 2868 0028 00000000 		.word	.LANCHOR1
 2869              		.cfi_endproc
 2870              	.LFE52:
 2871              		.size	CyVdStickyStatus, .-CyVdStickyStatus
 2872              		.section	.text.CyVdLvDigitEnable,"ax",%progbits
 2873              		.align	1
 2874              		.global	CyVdLvDigitEnable
 2875              		.syntax unified
 2876              		.thumb
 2877              		.thumb_func
 2878              		.fpu softvfp
 2879              		.type	CyVdLvDigitEnable, %function
ARM GAS  C:\Users\jens-\AppData\Local\Temp\ccdWTNhT.s 			page 93


 2880              	CyVdLvDigitEnable:
 2881              	.LVL144:
 2882              	.LFB46:
1648:Generated_Source\PSoC5/CyLib.c ****     uint32 intRegTmp;
 2883              		.loc 1 1648 1 is_stmt 1 view -0
 2884              		.cfi_startproc
 2885              		@ args = 0, pretend = 0, frame = 0
 2886              		@ frame_needed = 0, uses_anonymous_args = 0
1648:Generated_Source\PSoC5/CyLib.c ****     uint32 intRegTmp;
 2887              		.loc 1 1648 1 is_stmt 0 view .LVU707
 2888 0000 2DE9F041 		push	{r4, r5, r6, r7, r8, lr}
 2889              		.cfi_def_cfa_offset 24
 2890              		.cfi_offset 4, -24
 2891              		.cfi_offset 5, -20
 2892              		.cfi_offset 6, -16
 2893              		.cfi_offset 7, -12
 2894              		.cfi_offset 8, -8
 2895              		.cfi_offset 14, -4
 2896 0004 0746     		mov	r7, r0
 2897 0006 0C46     		mov	r4, r1
1649:Generated_Source\PSoC5/CyLib.c ****     uint8 interruptState;
 2898              		.loc 1 1649 5 is_stmt 1 view .LVU708
1650:Generated_Source\PSoC5/CyLib.c **** 
 2899              		.loc 1 1650 5 view .LVU709
1652:Generated_Source\PSoC5/CyLib.c **** 
 2900              		.loc 1 1652 5 view .LVU710
1652:Generated_Source\PSoC5/CyLib.c **** 
 2901              		.loc 1 1652 22 is_stmt 0 view .LVU711
 2902 0008 FFF7FEFF 		bl	CyEnterCriticalSection
 2903              	.LVL145:
1652:Generated_Source\PSoC5/CyLib.c **** 
 2904              		.loc 1 1652 22 view .LVU712
 2905 000c 0546     		mov	r5, r0
 2906              	.LVL146:
1655:Generated_Source\PSoC5/CyLib.c **** 
 2907              		.loc 1 1655 5 is_stmt 1 view .LVU713
1655:Generated_Source\PSoC5/CyLib.c **** 
 2908              		.loc 1 1655 17 is_stmt 0 view .LVU714
 2909 000e 1C4B     		ldr	r3, .L272
 2910 0010 1E68     		ldr	r6, [r3]
1655:Generated_Source\PSoC5/CyLib.c **** 
 2911              		.loc 1 1655 15 view .LVU715
 2912 0012 06F00106 		and	r6, r6, #1
 2913              	.LVL147:
1658:Generated_Source\PSoC5/CyLib.c **** 
 2914              		.loc 1 1658 5 is_stmt 1 view .LVU716
1658:Generated_Source\PSoC5/CyLib.c **** 
 2915              		.loc 1 1658 22 is_stmt 0 view .LVU717
 2916 0016 4FF00108 		mov	r8, #1
 2917 001a 8033     		adds	r3, r3, #128
 2918 001c C3F80080 		str	r8, [r3]
1660:Generated_Source\PSoC5/CyLib.c **** 
 2919              		.loc 1 1660 5 is_stmt 1 view .LVU718
1660:Generated_Source\PSoC5/CyLib.c **** 
 2920              		.loc 1 1660 28 is_stmt 0 view .LVU719
 2921 0020 184A     		ldr	r2, .L272+4
 2922 0022 1378     		ldrb	r3, [r2]	@ zero_extendqisi2
ARM GAS  C:\Users\jens-\AppData\Local\Temp\ccdWTNhT.s 			page 94


 2923 0024 03F0BF03 		and	r3, r3, #191
 2924 0028 1370     		strb	r3, [r2]
1662:Generated_Source\PSoC5/CyLib.c ****                             (CY_VD_LVI_TRIP_REG & ((uint8)(~CY_VD_LVI_TRIP_LVID_MASK)));
 2925              		.loc 1 1662 5 is_stmt 1 view .LVU720
1662:Generated_Source\PSoC5/CyLib.c ****                             (CY_VD_LVI_TRIP_REG & ((uint8)(~CY_VD_LVI_TRIP_LVID_MASK)));
 2926              		.loc 1 1662 37 is_stmt 0 view .LVU721
 2927 002a 04F00F04 		and	r4, r4, #15
1663:Generated_Source\PSoC5/CyLib.c ****     CY_VD_LVI_HVI_CONTROL_REG |= CY_VD_LVID_EN;
 2928              		.loc 1 1663 30 view .LVU722
 2929 002e 164B     		ldr	r3, .L272+8
 2930 0030 1978     		ldrb	r1, [r3]	@ zero_extendqisi2
1663:Generated_Source\PSoC5/CyLib.c ****     CY_VD_LVI_HVI_CONTROL_REG |= CY_VD_LVID_EN;
 2931              		.loc 1 1663 49 view .LVU723
 2932 0032 01F0F001 		and	r1, r1, #240
1662:Generated_Source\PSoC5/CyLib.c ****                             (CY_VD_LVI_TRIP_REG & ((uint8)(~CY_VD_LVI_TRIP_LVID_MASK)));
 2933              		.loc 1 1662 65 view .LVU724
 2934 0036 0C43     		orrs	r4, r4, r1
1662:Generated_Source\PSoC5/CyLib.c ****                             (CY_VD_LVI_TRIP_REG & ((uint8)(~CY_VD_LVI_TRIP_LVID_MASK)));
 2935              		.loc 1 1662 24 view .LVU725
 2936 0038 1C70     		strb	r4, [r3]
1664:Generated_Source\PSoC5/CyLib.c **** 
 2937              		.loc 1 1664 5 is_stmt 1 view .LVU726
1664:Generated_Source\PSoC5/CyLib.c **** 
 2938              		.loc 1 1664 31 is_stmt 0 view .LVU727
 2939 003a 023A     		subs	r2, r2, #2
 2940 003c 1378     		ldrb	r3, [r2]	@ zero_extendqisi2
 2941 003e 43EA0803 		orr	r3, r3, r8
 2942 0042 1370     		strb	r3, [r2]
1667:Generated_Source\PSoC5/CyLib.c **** 
 2943              		.loc 1 1667 5 is_stmt 1 view .LVU728
 2944 0044 4046     		mov	r0, r8
 2945 0046 FFF7FEFF 		bl	CyDelayUs
 2946              	.LVL148:
1669:Generated_Source\PSoC5/CyLib.c **** 
 2947              		.loc 1 1669 5 view .LVU729
1669:Generated_Source\PSoC5/CyLib.c **** 
 2948              		.loc 1 1669 12 is_stmt 0 view .LVU730
 2949 004a 4046     		mov	r0, r8
 2950 004c FFF7FEFF 		bl	CyVdStickyStatus
 2951              	.LVL149:
1671:Generated_Source\PSoC5/CyLib.c ****     {
 2952              		.loc 1 1671 5 is_stmt 1 view .LVU731
1671:Generated_Source\PSoC5/CyLib.c ****     {
 2953              		.loc 1 1671 7 is_stmt 0 view .LVU732
 2954 0050 7FB1     		cbz	r7, .L269
1673:Generated_Source\PSoC5/CyLib.c ****     }
 2955              		.loc 1 1673 9 is_stmt 1 view .LVU733
1673:Generated_Source\PSoC5/CyLib.c ****     }
 2956              		.loc 1 1673 32 is_stmt 0 view .LVU734
 2957 0052 0C4A     		ldr	r2, .L272+4
 2958 0054 1378     		ldrb	r3, [r2]	@ zero_extendqisi2
 2959 0056 43F04003 		orr	r3, r3, #64
 2960 005a 1370     		strb	r3, [r2]
 2961              	.L270:
1681:Generated_Source\PSoC5/CyLib.c **** 
 2962              		.loc 1 1681 5 is_stmt 1 view .LVU735
1681:Generated_Source\PSoC5/CyLib.c **** 
ARM GAS  C:\Users\jens-\AppData\Local\Temp\ccdWTNhT.s 			page 95


 2963              		.loc 1 1681 25 is_stmt 0 view .LVU736
 2964 005c 0B4B     		ldr	r3, .L272+12
 2965 005e 0122     		movs	r2, #1
 2966 0060 1A60     		str	r2, [r3]
1684:Generated_Source\PSoC5/CyLib.c **** 
 2967              		.loc 1 1684 5 is_stmt 1 view .LVU737
1684:Generated_Source\PSoC5/CyLib.c **** 
 2968              		.loc 1 1684 23 is_stmt 0 view .LVU738
 2969 0062 A3F5C073 		sub	r3, r3, #384
 2970 0066 1E60     		str	r6, [r3]
1686:Generated_Source\PSoC5/CyLib.c **** }
 2971              		.loc 1 1686 5 is_stmt 1 view .LVU739
 2972 0068 2846     		mov	r0, r5
 2973 006a FFF7FEFF 		bl	CyExitCriticalSection
 2974              	.LVL150:
1687:Generated_Source\PSoC5/CyLib.c **** 
 2975              		.loc 1 1687 1 is_stmt 0 view .LVU740
 2976 006e BDE8F081 		pop	{r4, r5, r6, r7, r8, pc}
 2977              	.LVL151:
 2978              	.L269:
1677:Generated_Source\PSoC5/CyLib.c ****     }
 2979              		.loc 1 1677 9 is_stmt 1 view .LVU741
1677:Generated_Source\PSoC5/CyLib.c ****     }
 2980              		.loc 1 1677 32 is_stmt 0 view .LVU742
 2981 0072 044A     		ldr	r2, .L272+4
 2982 0074 1378     		ldrb	r3, [r2]	@ zero_extendqisi2
 2983 0076 03F0BF03 		and	r3, r3, #191
 2984 007a 1370     		strb	r3, [r2]
 2985 007c EEE7     		b	.L270
 2986              	.L273:
 2987 007e 00BF     		.align	2
 2988              	.L272:
 2989 0080 00E100E0 		.word	-536813312
 2990 0084 F7460040 		.word	1073759991
 2991 0088 F4460040 		.word	1073759988
 2992 008c 80E200E0 		.word	-536812928
 2993              		.cfi_endproc
 2994              	.LFE46:
 2995              		.size	CyVdLvDigitEnable, .-CyVdLvDigitEnable
 2996              		.section	.text.CyVdLvAnalogEnable,"ax",%progbits
 2997              		.align	1
 2998              		.global	CyVdLvAnalogEnable
 2999              		.syntax unified
 3000              		.thumb
 3001              		.thumb_func
 3002              		.fpu softvfp
 3003              		.type	CyVdLvAnalogEnable, %function
 3004              	CyVdLvAnalogEnable:
 3005              	.LVL152:
 3006              	.LFB47:
1728:Generated_Source\PSoC5/CyLib.c ****     uint32 intRegTmp;
 3007              		.loc 1 1728 1 is_stmt 1 view -0
 3008              		.cfi_startproc
 3009              		@ args = 0, pretend = 0, frame = 0
 3010              		@ frame_needed = 0, uses_anonymous_args = 0
1728:Generated_Source\PSoC5/CyLib.c ****     uint32 intRegTmp;
 3011              		.loc 1 1728 1 is_stmt 0 view .LVU744
ARM GAS  C:\Users\jens-\AppData\Local\Temp\ccdWTNhT.s 			page 96


 3012 0000 F8B5     		push	{r3, r4, r5, r6, r7, lr}
 3013              		.cfi_def_cfa_offset 24
 3014              		.cfi_offset 3, -24
 3015              		.cfi_offset 4, -20
 3016              		.cfi_offset 5, -16
 3017              		.cfi_offset 6, -12
 3018              		.cfi_offset 7, -8
 3019              		.cfi_offset 14, -4
 3020 0002 0746     		mov	r7, r0
 3021 0004 0C46     		mov	r4, r1
1729:Generated_Source\PSoC5/CyLib.c ****     uint8 interruptState;
 3022              		.loc 1 1729 5 is_stmt 1 view .LVU745
1730:Generated_Source\PSoC5/CyLib.c **** 
 3023              		.loc 1 1730 5 view .LVU746
1732:Generated_Source\PSoC5/CyLib.c **** 
 3024              		.loc 1 1732 5 view .LVU747
1732:Generated_Source\PSoC5/CyLib.c **** 
 3025              		.loc 1 1732 22 is_stmt 0 view .LVU748
 3026 0006 FFF7FEFF 		bl	CyEnterCriticalSection
 3027              	.LVL153:
1732:Generated_Source\PSoC5/CyLib.c **** 
 3028              		.loc 1 1732 22 view .LVU749
 3029 000a 0546     		mov	r5, r0
 3030              	.LVL154:
1735:Generated_Source\PSoC5/CyLib.c **** 
 3031              		.loc 1 1735 5 is_stmt 1 view .LVU750
1735:Generated_Source\PSoC5/CyLib.c **** 
 3032              		.loc 1 1735 17 is_stmt 0 view .LVU751
 3033 000c 194B     		ldr	r3, .L278
 3034 000e 1E68     		ldr	r6, [r3]
1735:Generated_Source\PSoC5/CyLib.c **** 
 3035              		.loc 1 1735 15 view .LVU752
 3036 0010 06F00106 		and	r6, r6, #1
 3037              	.LVL155:
1738:Generated_Source\PSoC5/CyLib.c **** 
 3038              		.loc 1 1738 5 is_stmt 1 view .LVU753
1738:Generated_Source\PSoC5/CyLib.c **** 
 3039              		.loc 1 1738 22 is_stmt 0 view .LVU754
 3040 0014 0120     		movs	r0, #1
 3041 0016 8033     		adds	r3, r3, #128
 3042 0018 1860     		str	r0, [r3]
1740:Generated_Source\PSoC5/CyLib.c **** 
 3043              		.loc 1 1740 5 is_stmt 1 view .LVU755
1740:Generated_Source\PSoC5/CyLib.c **** 
 3044              		.loc 1 1740 28 is_stmt 0 view .LVU756
 3045 001a 174A     		ldr	r2, .L278+4
 3046 001c 1378     		ldrb	r3, [r2]	@ zero_extendqisi2
 3047 001e 03F07F03 		and	r3, r3, #127
 3048 0022 1370     		strb	r3, [r2]
1742:Generated_Source\PSoC5/CyLib.c ****     CY_VD_LVI_HVI_CONTROL_REG |= CY_VD_LVIA_EN;
 3049              		.loc 1 1742 5 is_stmt 1 view .LVU757
1742:Generated_Source\PSoC5/CyLib.c ****     CY_VD_LVI_HVI_CONTROL_REG |= CY_VD_LVIA_EN;
 3050              		.loc 1 1742 27 is_stmt 0 view .LVU758
 3051 0024 2401     		lsls	r4, r4, #4
 3052 0026 E4B2     		uxtb	r4, r4
1742:Generated_Source\PSoC5/CyLib.c ****     CY_VD_LVI_HVI_CONTROL_REG |= CY_VD_LVIA_EN;
 3053              		.loc 1 1742 56 view .LVU759
ARM GAS  C:\Users\jens-\AppData\Local\Temp\ccdWTNhT.s 			page 97


 3054 0028 033A     		subs	r2, r2, #3
 3055 002a 1378     		ldrb	r3, [r2]	@ zero_extendqisi2
1742:Generated_Source\PSoC5/CyLib.c ****     CY_VD_LVI_HVI_CONTROL_REG |= CY_VD_LVIA_EN;
 3056              		.loc 1 1742 75 view .LVU760
 3057 002c 03F00F03 		and	r3, r3, #15
1742:Generated_Source\PSoC5/CyLib.c ****     CY_VD_LVI_HVI_CONTROL_REG |= CY_VD_LVIA_EN;
 3058              		.loc 1 1742 53 view .LVU761
 3059 0030 1C43     		orrs	r4, r4, r3
1742:Generated_Source\PSoC5/CyLib.c ****     CY_VD_LVI_HVI_CONTROL_REG |= CY_VD_LVIA_EN;
 3060              		.loc 1 1742 24 view .LVU762
 3061 0032 1470     		strb	r4, [r2]
1743:Generated_Source\PSoC5/CyLib.c **** 
 3062              		.loc 1 1743 5 is_stmt 1 view .LVU763
1743:Generated_Source\PSoC5/CyLib.c **** 
 3063              		.loc 1 1743 31 is_stmt 0 view .LVU764
 3064 0034 0132     		adds	r2, r2, #1
 3065 0036 1378     		ldrb	r3, [r2]	@ zero_extendqisi2
 3066 0038 43F00203 		orr	r3, r3, #2
 3067 003c 1370     		strb	r3, [r2]
1746:Generated_Source\PSoC5/CyLib.c **** 
 3068              		.loc 1 1746 5 is_stmt 1 view .LVU765
 3069 003e FFF7FEFF 		bl	CyDelayUs
 3070              	.LVL156:
1748:Generated_Source\PSoC5/CyLib.c **** 
 3071              		.loc 1 1748 5 view .LVU766
1748:Generated_Source\PSoC5/CyLib.c **** 
 3072              		.loc 1 1748 12 is_stmt 0 view .LVU767
 3073 0042 0220     		movs	r0, #2
 3074 0044 FFF7FEFF 		bl	CyVdStickyStatus
 3075              	.LVL157:
1750:Generated_Source\PSoC5/CyLib.c ****     {
 3076              		.loc 1 1750 5 is_stmt 1 view .LVU768
1750:Generated_Source\PSoC5/CyLib.c ****     {
 3077              		.loc 1 1750 7 is_stmt 0 view .LVU769
 3078 0048 77B1     		cbz	r7, .L275
1752:Generated_Source\PSoC5/CyLib.c ****     }
 3079              		.loc 1 1752 9 is_stmt 1 view .LVU770
1752:Generated_Source\PSoC5/CyLib.c ****     }
 3080              		.loc 1 1752 32 is_stmt 0 view .LVU771
 3081 004a 0B4A     		ldr	r2, .L278+4
 3082 004c 1378     		ldrb	r3, [r2]	@ zero_extendqisi2
 3083 004e 43F08003 		orr	r3, r3, #128
 3084 0052 1370     		strb	r3, [r2]
 3085              	.L276:
1760:Generated_Source\PSoC5/CyLib.c **** 
 3086              		.loc 1 1760 5 is_stmt 1 view .LVU772
1760:Generated_Source\PSoC5/CyLib.c **** 
 3087              		.loc 1 1760 25 is_stmt 0 view .LVU773
 3088 0054 094B     		ldr	r3, .L278+8
 3089 0056 0122     		movs	r2, #1
 3090 0058 1A60     		str	r2, [r3]
1763:Generated_Source\PSoC5/CyLib.c **** 
 3091              		.loc 1 1763 5 is_stmt 1 view .LVU774
1763:Generated_Source\PSoC5/CyLib.c **** 
 3092              		.loc 1 1763 23 is_stmt 0 view .LVU775
 3093 005a A3F5C073 		sub	r3, r3, #384
 3094 005e 1E60     		str	r6, [r3]
ARM GAS  C:\Users\jens-\AppData\Local\Temp\ccdWTNhT.s 			page 98


1765:Generated_Source\PSoC5/CyLib.c **** }
 3095              		.loc 1 1765 5 is_stmt 1 view .LVU776
 3096 0060 2846     		mov	r0, r5
 3097 0062 FFF7FEFF 		bl	CyExitCriticalSection
 3098              	.LVL158:
1766:Generated_Source\PSoC5/CyLib.c **** 
 3099              		.loc 1 1766 1 is_stmt 0 view .LVU777
 3100 0066 F8BD     		pop	{r3, r4, r5, r6, r7, pc}
 3101              	.LVL159:
 3102              	.L275:
1756:Generated_Source\PSoC5/CyLib.c ****     }
 3103              		.loc 1 1756 9 is_stmt 1 view .LVU778
1756:Generated_Source\PSoC5/CyLib.c ****     }
 3104              		.loc 1 1756 32 is_stmt 0 view .LVU779
 3105 0068 034A     		ldr	r2, .L278+4
 3106 006a 1378     		ldrb	r3, [r2]	@ zero_extendqisi2
 3107 006c 03F07F03 		and	r3, r3, #127
 3108 0070 1370     		strb	r3, [r2]
 3109 0072 EFE7     		b	.L276
 3110              	.L279:
 3111              		.align	2
 3112              	.L278:
 3113 0074 00E100E0 		.word	-536813312
 3114 0078 F7460040 		.word	1073759991
 3115 007c 80E200E0 		.word	-536812928
 3116              		.cfi_endproc
 3117              	.LFE47:
 3118              		.size	CyVdLvAnalogEnable, .-CyVdLvAnalogEnable
 3119              		.section	.text.CyVdLvDigitDisable,"ax",%progbits
 3120              		.align	1
 3121              		.global	CyVdLvDigitDisable
 3122              		.syntax unified
 3123              		.thumb
 3124              		.thumb_func
 3125              		.fpu softvfp
 3126              		.type	CyVdLvDigitDisable, %function
 3127              	CyVdLvDigitDisable:
 3128              	.LFB48:
1782:Generated_Source\PSoC5/CyLib.c ****     CY_VD_LVI_HVI_CONTROL_REG &= ((uint8)(~CY_VD_LVID_EN));
 3129              		.loc 1 1782 1 is_stmt 1 view -0
 3130              		.cfi_startproc
 3131              		@ args = 0, pretend = 0, frame = 0
 3132              		@ frame_needed = 0, uses_anonymous_args = 0
 3133 0000 08B5     		push	{r3, lr}
 3134              		.cfi_def_cfa_offset 8
 3135              		.cfi_offset 3, -8
 3136              		.cfi_offset 14, -4
1783:Generated_Source\PSoC5/CyLib.c ****     CY_VD_PRES_CONTROL_REG &= ((uint8)(~CY_VD_PRESD_EN));
 3137              		.loc 1 1783 5 view .LVU781
1783:Generated_Source\PSoC5/CyLib.c ****     CY_VD_PRES_CONTROL_REG &= ((uint8)(~CY_VD_PRESD_EN));
 3138              		.loc 1 1783 31 is_stmt 0 view .LVU782
 3139 0002 0A4A     		ldr	r2, .L283
 3140 0004 1378     		ldrb	r3, [r2]	@ zero_extendqisi2
 3141 0006 03F0FE03 		and	r3, r3, #254
 3142 000a 1370     		strb	r3, [r2]
1784:Generated_Source\PSoC5/CyLib.c ****     (void) CyVdStickyStatus(CY_VD_LVID);
 3143              		.loc 1 1784 5 is_stmt 1 view .LVU783
ARM GAS  C:\Users\jens-\AppData\Local\Temp\ccdWTNhT.s 			page 99


1784:Generated_Source\PSoC5/CyLib.c ****     (void) CyVdStickyStatus(CY_VD_LVID);
 3144              		.loc 1 1784 28 is_stmt 0 view .LVU784
 3145 000c 0232     		adds	r2, r2, #2
 3146 000e 1378     		ldrb	r3, [r2]	@ zero_extendqisi2
 3147 0010 03F0BF03 		and	r3, r3, #191
 3148 0014 1370     		strb	r3, [r2]
1785:Generated_Source\PSoC5/CyLib.c **** 
 3149              		.loc 1 1785 5 is_stmt 1 view .LVU785
1785:Generated_Source\PSoC5/CyLib.c **** 
 3150              		.loc 1 1785 12 is_stmt 0 view .LVU786
 3151 0016 0120     		movs	r0, #1
 3152 0018 FFF7FEFF 		bl	CyVdStickyStatus
 3153              	.LVL160:
1787:Generated_Source\PSoC5/CyLib.c ****     {
 3154              		.loc 1 1787 5 is_stmt 1 view .LVU787
 3155              	.L281:
1790:Generated_Source\PSoC5/CyLib.c **** }
 3156              		.loc 1 1790 5 discriminator 1 view .LVU788
1787:Generated_Source\PSoC5/CyLib.c ****     {
 3157              		.loc 1 1787 10 discriminator 1 view .LVU789
1787:Generated_Source\PSoC5/CyLib.c ****     {
 3158              		.loc 1 1787 18 is_stmt 0 discriminator 1 view .LVU790
 3159 001c 0120     		movs	r0, #1
 3160 001e FFF7FEFF 		bl	CyVdStickyStatus
 3161              	.LVL161:
1787:Generated_Source\PSoC5/CyLib.c ****     {
 3162              		.loc 1 1787 10 discriminator 1 view .LVU791
 3163 0022 10F0010F 		tst	r0, #1
 3164 0026 F9D1     		bne	.L281
1791:Generated_Source\PSoC5/CyLib.c **** 
 3165              		.loc 1 1791 1 view .LVU792
 3166 0028 08BD     		pop	{r3, pc}
 3167              	.L284:
 3168 002a 00BF     		.align	2
 3169              	.L283:
 3170 002c F5460040 		.word	1073759989
 3171              		.cfi_endproc
 3172              	.LFE48:
 3173              		.size	CyVdLvDigitDisable, .-CyVdLvDigitDisable
 3174              		.section	.text.CyVdLvAnalogDisable,"ax",%progbits
 3175              		.align	1
 3176              		.global	CyVdLvAnalogDisable
 3177              		.syntax unified
 3178              		.thumb
 3179              		.thumb_func
 3180              		.fpu softvfp
 3181              		.type	CyVdLvAnalogDisable, %function
 3182              	CyVdLvAnalogDisable:
 3183              	.LFB49:
1807:Generated_Source\PSoC5/CyLib.c ****     CY_VD_LVI_HVI_CONTROL_REG &= ((uint8)(~CY_VD_LVIA_EN));
 3184              		.loc 1 1807 1 is_stmt 1 view -0
 3185              		.cfi_startproc
 3186              		@ args = 0, pretend = 0, frame = 0
 3187              		@ frame_needed = 0, uses_anonymous_args = 0
 3188 0000 08B5     		push	{r3, lr}
 3189              		.cfi_def_cfa_offset 8
 3190              		.cfi_offset 3, -8
ARM GAS  C:\Users\jens-\AppData\Local\Temp\ccdWTNhT.s 			page 100


 3191              		.cfi_offset 14, -4
1808:Generated_Source\PSoC5/CyLib.c ****     CY_VD_PRES_CONTROL_REG &= ((uint8)(~CY_VD_PRESA_EN));
 3192              		.loc 1 1808 5 view .LVU794
1808:Generated_Source\PSoC5/CyLib.c ****     CY_VD_PRES_CONTROL_REG &= ((uint8)(~CY_VD_PRESA_EN));
 3193              		.loc 1 1808 31 is_stmt 0 view .LVU795
 3194 0002 084A     		ldr	r2, .L288
 3195 0004 1378     		ldrb	r3, [r2]	@ zero_extendqisi2
 3196 0006 03F0FD03 		and	r3, r3, #253
 3197 000a 1370     		strb	r3, [r2]
1809:Generated_Source\PSoC5/CyLib.c ****     while(0u != (CyVdStickyStatus(CY_VD_LVIA) & CY_VD_LVIA))
 3198              		.loc 1 1809 5 is_stmt 1 view .LVU796
1809:Generated_Source\PSoC5/CyLib.c ****     while(0u != (CyVdStickyStatus(CY_VD_LVIA) & CY_VD_LVIA))
 3199              		.loc 1 1809 28 is_stmt 0 view .LVU797
 3200 000c 0232     		adds	r2, r2, #2
 3201 000e 1378     		ldrb	r3, [r2]	@ zero_extendqisi2
 3202 0010 03F07F03 		and	r3, r3, #127
 3203 0014 1370     		strb	r3, [r2]
1810:Generated_Source\PSoC5/CyLib.c ****     {
 3204              		.loc 1 1810 5 is_stmt 1 view .LVU798
 3205              	.L286:
1813:Generated_Source\PSoC5/CyLib.c **** }
 3206              		.loc 1 1813 5 discriminator 1 view .LVU799
1810:Generated_Source\PSoC5/CyLib.c ****     {
 3207              		.loc 1 1810 10 discriminator 1 view .LVU800
1810:Generated_Source\PSoC5/CyLib.c ****     {
 3208              		.loc 1 1810 18 is_stmt 0 discriminator 1 view .LVU801
 3209 0016 0220     		movs	r0, #2
 3210 0018 FFF7FEFF 		bl	CyVdStickyStatus
 3211              	.LVL162:
1810:Generated_Source\PSoC5/CyLib.c ****     {
 3212              		.loc 1 1810 10 discriminator 1 view .LVU802
 3213 001c 10F0020F 		tst	r0, #2
 3214 0020 F9D1     		bne	.L286
1814:Generated_Source\PSoC5/CyLib.c **** 
 3215              		.loc 1 1814 1 view .LVU803
 3216 0022 08BD     		pop	{r3, pc}
 3217              	.L289:
 3218              		.align	2
 3219              	.L288:
 3220 0024 F5460040 		.word	1073759989
 3221              		.cfi_endproc
 3222              	.LFE49:
 3223              		.size	CyVdLvAnalogDisable, .-CyVdLvAnalogDisable
 3224              		.section	.text.CyVdHvAnalogEnable,"ax",%progbits
 3225              		.align	1
 3226              		.global	CyVdHvAnalogEnable
 3227              		.syntax unified
 3228              		.thumb
 3229              		.thumb_func
 3230              		.fpu softvfp
 3231              		.type	CyVdHvAnalogEnable, %function
 3232              	CyVdHvAnalogEnable:
 3233              	.LFB50:
1830:Generated_Source\PSoC5/CyLib.c ****     uint32 intRegTmp;
 3234              		.loc 1 1830 1 is_stmt 1 view -0
 3235              		.cfi_startproc
 3236              		@ args = 0, pretend = 0, frame = 0
ARM GAS  C:\Users\jens-\AppData\Local\Temp\ccdWTNhT.s 			page 101


 3237              		@ frame_needed = 0, uses_anonymous_args = 0
 3238 0000 F8B5     		push	{r3, r4, r5, r6, r7, lr}
 3239              		.cfi_def_cfa_offset 24
 3240              		.cfi_offset 3, -24
 3241              		.cfi_offset 4, -20
 3242              		.cfi_offset 5, -16
 3243              		.cfi_offset 6, -12
 3244              		.cfi_offset 7, -8
 3245              		.cfi_offset 14, -4
1831:Generated_Source\PSoC5/CyLib.c ****     uint8 interruptState;
 3246              		.loc 1 1831 5 view .LVU805
1832:Generated_Source\PSoC5/CyLib.c **** 
 3247              		.loc 1 1832 5 view .LVU806
1834:Generated_Source\PSoC5/CyLib.c **** 
 3248              		.loc 1 1834 5 view .LVU807
1834:Generated_Source\PSoC5/CyLib.c **** 
 3249              		.loc 1 1834 22 is_stmt 0 view .LVU808
 3250 0002 FFF7FEFF 		bl	CyEnterCriticalSection
 3251              	.LVL163:
 3252 0006 0446     		mov	r4, r0
 3253              	.LVL164:
1837:Generated_Source\PSoC5/CyLib.c **** 
 3254              		.loc 1 1837 5 is_stmt 1 view .LVU809
1837:Generated_Source\PSoC5/CyLib.c **** 
 3255              		.loc 1 1837 17 is_stmt 0 view .LVU810
 3256 0008 0E4F     		ldr	r7, .L292
 3257 000a 3D68     		ldr	r5, [r7]
1837:Generated_Source\PSoC5/CyLib.c **** 
 3258              		.loc 1 1837 15 view .LVU811
 3259 000c 05F00105 		and	r5, r5, #1
 3260              	.LVL165:
1840:Generated_Source\PSoC5/CyLib.c **** 
 3261              		.loc 1 1840 5 is_stmt 1 view .LVU812
1840:Generated_Source\PSoC5/CyLib.c **** 
 3262              		.loc 1 1840 22 is_stmt 0 view .LVU813
 3263 0010 0126     		movs	r6, #1
 3264 0012 0D4B     		ldr	r3, .L292+4
 3265 0014 1E60     		str	r6, [r3]
1842:Generated_Source\PSoC5/CyLib.c **** 
 3266              		.loc 1 1842 5 is_stmt 1 view .LVU814
1842:Generated_Source\PSoC5/CyLib.c **** 
 3267              		.loc 1 1842 28 is_stmt 0 view .LVU815
 3268 0016 0D4A     		ldr	r2, .L292+8
 3269 0018 1378     		ldrb	r3, [r2]	@ zero_extendqisi2
 3270 001a 03F07F03 		and	r3, r3, #127
 3271 001e 1370     		strb	r3, [r2]
1844:Generated_Source\PSoC5/CyLib.c **** 
 3272              		.loc 1 1844 5 is_stmt 1 view .LVU816
1844:Generated_Source\PSoC5/CyLib.c **** 
 3273              		.loc 1 1844 31 is_stmt 0 view .LVU817
 3274 0020 023A     		subs	r2, r2, #2
 3275 0022 1378     		ldrb	r3, [r2]	@ zero_extendqisi2
 3276 0024 43F00403 		orr	r3, r3, #4
 3277 0028 1370     		strb	r3, [r2]
1847:Generated_Source\PSoC5/CyLib.c **** 
 3278              		.loc 1 1847 5 is_stmt 1 view .LVU818
 3279 002a 3046     		mov	r0, r6
ARM GAS  C:\Users\jens-\AppData\Local\Temp\ccdWTNhT.s 			page 102


 3280 002c FFF7FEFF 		bl	CyDelayUs
 3281              	.LVL166:
1849:Generated_Source\PSoC5/CyLib.c **** 
 3282              		.loc 1 1849 5 view .LVU819
1849:Generated_Source\PSoC5/CyLib.c **** 
 3283              		.loc 1 1849 12 is_stmt 0 view .LVU820
 3284 0030 0420     		movs	r0, #4
 3285 0032 FFF7FEFF 		bl	CyVdStickyStatus
 3286              	.LVL167:
1852:Generated_Source\PSoC5/CyLib.c **** 
 3287              		.loc 1 1852 5 is_stmt 1 view .LVU821
1852:Generated_Source\PSoC5/CyLib.c **** 
 3288              		.loc 1 1852 25 is_stmt 0 view .LVU822
 3289 0036 064B     		ldr	r3, .L292+12
 3290 0038 1E60     		str	r6, [r3]
1855:Generated_Source\PSoC5/CyLib.c **** 
 3291              		.loc 1 1855 5 is_stmt 1 view .LVU823
1855:Generated_Source\PSoC5/CyLib.c **** 
 3292              		.loc 1 1855 23 is_stmt 0 view .LVU824
 3293 003a 3D60     		str	r5, [r7]
1857:Generated_Source\PSoC5/CyLib.c **** }
 3294              		.loc 1 1857 5 is_stmt 1 view .LVU825
 3295 003c 2046     		mov	r0, r4
 3296 003e FFF7FEFF 		bl	CyExitCriticalSection
 3297              	.LVL168:
1858:Generated_Source\PSoC5/CyLib.c **** 
 3298              		.loc 1 1858 1 is_stmt 0 view .LVU826
 3299 0042 F8BD     		pop	{r3, r4, r5, r6, r7, pc}
 3300              	.LVL169:
 3301              	.L293:
1858:Generated_Source\PSoC5/CyLib.c **** 
 3302              		.loc 1 1858 1 view .LVU827
 3303              		.align	2
 3304              	.L292:
 3305 0044 00E100E0 		.word	-536813312
 3306 0048 80E100E0 		.word	-536813184
 3307 004c F7460040 		.word	1073759991
 3308 0050 80E200E0 		.word	-536812928
 3309              		.cfi_endproc
 3310              	.LFE50:
 3311              		.size	CyVdHvAnalogEnable, .-CyVdHvAnalogEnable
 3312              		.section	.text.CyVdHvAnalogDisable,"ax",%progbits
 3313              		.align	1
 3314              		.global	CyVdHvAnalogDisable
 3315              		.syntax unified
 3316              		.thumb
 3317              		.thumb_func
 3318              		.fpu softvfp
 3319              		.type	CyVdHvAnalogDisable, %function
 3320              	CyVdHvAnalogDisable:
 3321              	.LFB51:
1874:Generated_Source\PSoC5/CyLib.c ****     CY_VD_LVI_HVI_CONTROL_REG &= ((uint8)(~CY_VD_HVIA_EN));
 3322              		.loc 1 1874 1 is_stmt 1 view -0
 3323              		.cfi_startproc
 3324              		@ args = 0, pretend = 0, frame = 0
 3325              		@ frame_needed = 0, uses_anonymous_args = 0
 3326 0000 08B5     		push	{r3, lr}
ARM GAS  C:\Users\jens-\AppData\Local\Temp\ccdWTNhT.s 			page 103


 3327              		.cfi_def_cfa_offset 8
 3328              		.cfi_offset 3, -8
 3329              		.cfi_offset 14, -4
1875:Generated_Source\PSoC5/CyLib.c ****     while(0u != (CyVdStickyStatus(CY_VD_HVIA) & CY_VD_HVIA))
 3330              		.loc 1 1875 5 view .LVU829
1875:Generated_Source\PSoC5/CyLib.c ****     while(0u != (CyVdStickyStatus(CY_VD_HVIA) & CY_VD_HVIA))
 3331              		.loc 1 1875 31 is_stmt 0 view .LVU830
 3332 0002 064A     		ldr	r2, .L297
 3333 0004 1378     		ldrb	r3, [r2]	@ zero_extendqisi2
 3334 0006 03F0FB03 		and	r3, r3, #251
 3335 000a 1370     		strb	r3, [r2]
1876:Generated_Source\PSoC5/CyLib.c ****     {
 3336              		.loc 1 1876 5 is_stmt 1 view .LVU831
 3337              	.L295:
1879:Generated_Source\PSoC5/CyLib.c **** }
 3338              		.loc 1 1879 5 discriminator 1 view .LVU832
1876:Generated_Source\PSoC5/CyLib.c ****     {
 3339              		.loc 1 1876 10 discriminator 1 view .LVU833
1876:Generated_Source\PSoC5/CyLib.c ****     {
 3340              		.loc 1 1876 18 is_stmt 0 discriminator 1 view .LVU834
 3341 000c 0420     		movs	r0, #4
 3342 000e FFF7FEFF 		bl	CyVdStickyStatus
 3343              	.LVL170:
1876:Generated_Source\PSoC5/CyLib.c ****     {
 3344              		.loc 1 1876 10 discriminator 1 view .LVU835
 3345 0012 10F0040F 		tst	r0, #4
 3346 0016 F9D1     		bne	.L295
1880:Generated_Source\PSoC5/CyLib.c **** 
 3347              		.loc 1 1880 1 view .LVU836
 3348 0018 08BD     		pop	{r3, pc}
 3349              	.L298:
 3350 001a 00BF     		.align	2
 3351              	.L297:
 3352 001c F5460040 		.word	1073759989
 3353              		.cfi_endproc
 3354              	.LFE51:
 3355              		.size	CyVdHvAnalogDisable, .-CyVdHvAnalogDisable
 3356              		.section	.text.CyVdRealTimeStatus,"ax",%progbits
 3357              		.align	1
 3358              		.global	CyVdRealTimeStatus
 3359              		.syntax unified
 3360              		.thumb
 3361              		.thumb_func
 3362              		.fpu softvfp
 3363              		.type	CyVdRealTimeStatus, %function
 3364              	CyVdRealTimeStatus:
 3365              	.LFB53:
1925:Generated_Source\PSoC5/CyLib.c **** 
1926:Generated_Source\PSoC5/CyLib.c **** 
1927:Generated_Source\PSoC5/CyLib.c **** /*******************************************************************************
1928:Generated_Source\PSoC5/CyLib.c **** * Function Name: CyVdRealTimeStatus
1929:Generated_Source\PSoC5/CyLib.c **** ****************************************************************************//**
1930:Generated_Source\PSoC5/CyLib.c **** *
1931:Generated_Source\PSoC5/CyLib.c **** *  Reads the real-time voltage detection status bits in the RESET_SR2 register.
1932:Generated_Source\PSoC5/CyLib.c **** *  The bits are set to 1 by the voltage monitor circuit when the supply is
1933:Generated_Source\PSoC5/CyLib.c **** *  outside the detectors trip point, and set to 0 when the supply is inside the
1934:Generated_Source\PSoC5/CyLib.c **** *  trip point.
ARM GAS  C:\Users\jens-\AppData\Local\Temp\ccdWTNhT.s 			page 104


1935:Generated_Source\PSoC5/CyLib.c **** *
1936:Generated_Source\PSoC5/CyLib.c **** * \return
1937:Generated_Source\PSoC5/CyLib.c **** *  Status of the LVID, LVIA, and HVIA bits in the RESET_SR2 register.
1938:Generated_Source\PSoC5/CyLib.c **** *   Define                  Definition
1939:Generated_Source\PSoC5/CyLib.c **** *   CY_VD_LVID            Real-time status of digital LVI.
1940:Generated_Source\PSoC5/CyLib.c **** *   CY_VD_LVIA            Real-time status of analog LVI.
1941:Generated_Source\PSoC5/CyLib.c **** *   CY_VD_HVIA            Real-time status of analog HVI.
1942:Generated_Source\PSoC5/CyLib.c **** *
1943:Generated_Source\PSoC5/CyLib.c **** * Side Effects and Restrictions:
1944:Generated_Source\PSoC5/CyLib.c **** *  When an LVI reset occurs, the RESET_SR2 status registers are cleared. This
1945:Generated_Source\PSoC5/CyLib.c **** *  means that the voltage detection status bits are not persistent across an LVI
1946:Generated_Source\PSoC5/CyLib.c **** *  reset and cannot be used to determine a reset source.
1947:Generated_Source\PSoC5/CyLib.c **** *
1948:Generated_Source\PSoC5/CyLib.c **** *******************************************************************************/
1949:Generated_Source\PSoC5/CyLib.c **** uint8 CyVdRealTimeStatus(void) 
1950:Generated_Source\PSoC5/CyLib.c **** {
 3366              		.loc 1 1950 1 is_stmt 1 view -0
 3367              		.cfi_startproc
 3368              		@ args = 0, pretend = 0, frame = 0
 3369              		@ frame_needed = 0, uses_anonymous_args = 0
 3370 0000 10B5     		push	{r4, lr}
 3371              		.cfi_def_cfa_offset 8
 3372              		.cfi_offset 4, -8
 3373              		.cfi_offset 14, -4
1951:Generated_Source\PSoC5/CyLib.c ****     uint8 interruptState;
 3374              		.loc 1 1951 5 view .LVU838
1952:Generated_Source\PSoC5/CyLib.c ****     uint8 vdFlagsState;
 3375              		.loc 1 1952 5 view .LVU839
1953:Generated_Source\PSoC5/CyLib.c **** 
1954:Generated_Source\PSoC5/CyLib.c ****     interruptState = CyEnterCriticalSection();
 3376              		.loc 1 1954 5 view .LVU840
 3377              		.loc 1 1954 22 is_stmt 0 view .LVU841
 3378 0002 FFF7FEFF 		bl	CyEnterCriticalSection
 3379              	.LVL171:
1955:Generated_Source\PSoC5/CyLib.c ****     vdFlagsState = CY_VD_RT_STATUS_REG & (CY_VD_LVID | CY_VD_LVIA | CY_VD_HVIA);
 3380              		.loc 1 1955 5 is_stmt 1 view .LVU842
 3381              		.loc 1 1955 20 is_stmt 0 view .LVU843
 3382 0006 044B     		ldr	r3, .L301
 3383 0008 1C78     		ldrb	r4, [r3]	@ zero_extendqisi2
 3384              		.loc 1 1955 18 view .LVU844
 3385 000a 04F00704 		and	r4, r4, #7
 3386              	.LVL172:
1956:Generated_Source\PSoC5/CyLib.c ****     CyExitCriticalSection(interruptState);
 3387              		.loc 1 1956 5 is_stmt 1 view .LVU845
 3388 000e FFF7FEFF 		bl	CyExitCriticalSection
 3389              	.LVL173:
1957:Generated_Source\PSoC5/CyLib.c **** 
1958:Generated_Source\PSoC5/CyLib.c ****     return(vdFlagsState);
 3390              		.loc 1 1958 5 view .LVU846
1959:Generated_Source\PSoC5/CyLib.c **** }
 3391              		.loc 1 1959 1 is_stmt 0 view .LVU847
 3392 0012 2046     		mov	r0, r4
 3393 0014 10BD     		pop	{r4, pc}
 3394              	.LVL174:
 3395              	.L302:
 3396              		.loc 1 1959 1 view .LVU848
 3397 0016 00BF     		.align	2
ARM GAS  C:\Users\jens-\AppData\Local\Temp\ccdWTNhT.s 			page 105


 3398              	.L301:
 3399 0018 FC460040 		.word	1073759996
 3400              		.cfi_endproc
 3401              	.LFE53:
 3402              		.size	CyVdRealTimeStatus, .-CyVdRealTimeStatus
 3403              		.section	.text.CyDisableInts,"ax",%progbits
 3404              		.align	1
 3405              		.global	CyDisableInts
 3406              		.syntax unified
 3407              		.thumb
 3408              		.thumb_func
 3409              		.fpu softvfp
 3410              		.type	CyDisableInts, %function
 3411              	CyDisableInts:
 3412              	.LFB54:
1960:Generated_Source\PSoC5/CyLib.c **** 
1961:Generated_Source\PSoC5/CyLib.c **** 
1962:Generated_Source\PSoC5/CyLib.c **** /*******************************************************************************
1963:Generated_Source\PSoC5/CyLib.c **** * Function Name: CyDisableInts
1964:Generated_Source\PSoC5/CyLib.c **** ****************************************************************************//**
1965:Generated_Source\PSoC5/CyLib.c **** *
1966:Generated_Source\PSoC5/CyLib.c **** *  Disables the interrupt enable for each interrupt.
1967:Generated_Source\PSoC5/CyLib.c **** *
1968:Generated_Source\PSoC5/CyLib.c **** * \return
1969:Generated_Source\PSoC5/CyLib.c **** *  32 bit mask of previously enabled interrupts.
1970:Generated_Source\PSoC5/CyLib.c **** *
1971:Generated_Source\PSoC5/CyLib.c **** *******************************************************************************/
1972:Generated_Source\PSoC5/CyLib.c **** uint32 CyDisableInts(void) 
1973:Generated_Source\PSoC5/CyLib.c **** {
 3413              		.loc 1 1973 1 is_stmt 1 view -0
 3414              		.cfi_startproc
 3415              		@ args = 0, pretend = 0, frame = 0
 3416              		@ frame_needed = 0, uses_anonymous_args = 0
 3417 0000 10B5     		push	{r4, lr}
 3418              		.cfi_def_cfa_offset 8
 3419              		.cfi_offset 4, -8
 3420              		.cfi_offset 14, -4
1974:Generated_Source\PSoC5/CyLib.c ****     uint32 intState;
 3421              		.loc 1 1974 5 view .LVU850
1975:Generated_Source\PSoC5/CyLib.c ****     uint8 interruptState;
 3422              		.loc 1 1975 5 view .LVU851
1976:Generated_Source\PSoC5/CyLib.c **** 
1977:Generated_Source\PSoC5/CyLib.c ****     interruptState = CyEnterCriticalSection();
 3423              		.loc 1 1977 5 view .LVU852
 3424              		.loc 1 1977 22 is_stmt 0 view .LVU853
 3425 0002 FFF7FEFF 		bl	CyEnterCriticalSection
 3426              	.LVL175:
1978:Generated_Source\PSoC5/CyLib.c **** 
1979:Generated_Source\PSoC5/CyLib.c ****     #if(CY_PSOC3)
1980:Generated_Source\PSoC5/CyLib.c **** 
1981:Generated_Source\PSoC5/CyLib.c ****         /* Get the current interrupt state. */
1982:Generated_Source\PSoC5/CyLib.c ****         intState  = ((uint32) CY_GET_REG8(CY_INT_CLR_EN0_PTR));
1983:Generated_Source\PSoC5/CyLib.c ****         intState |= ((uint32) (((uint32) CY_GET_REG8(CY_INT_CLR_EN1_PTR)) << 8u));
1984:Generated_Source\PSoC5/CyLib.c ****         intState |= ((uint32) (((uint32) CY_GET_REG8(CY_INT_CLR_EN2_PTR)) << 16u));
1985:Generated_Source\PSoC5/CyLib.c ****         intState |= ((uint32) (((uint32) CY_GET_REG8(CY_INT_CLR_EN3_PTR)) << 24u));
1986:Generated_Source\PSoC5/CyLib.c **** 
1987:Generated_Source\PSoC5/CyLib.c **** 
ARM GAS  C:\Users\jens-\AppData\Local\Temp\ccdWTNhT.s 			page 106


1988:Generated_Source\PSoC5/CyLib.c ****         /* Disable all of the interrupts. */
1989:Generated_Source\PSoC5/CyLib.c ****         CY_SET_REG8(CY_INT_CLR_EN0_PTR, 0xFFu);
1990:Generated_Source\PSoC5/CyLib.c ****         CY_SET_REG8(CY_INT_CLR_EN1_PTR, 0xFFu);
1991:Generated_Source\PSoC5/CyLib.c ****         CY_SET_REG8(CY_INT_CLR_EN2_PTR, 0xFFu);
1992:Generated_Source\PSoC5/CyLib.c ****         CY_SET_REG8(CY_INT_CLR_EN3_PTR, 0xFFu);
1993:Generated_Source\PSoC5/CyLib.c **** 
1994:Generated_Source\PSoC5/CyLib.c ****     #else
1995:Generated_Source\PSoC5/CyLib.c **** 
1996:Generated_Source\PSoC5/CyLib.c ****         /* Get the current interrupt state. */
1997:Generated_Source\PSoC5/CyLib.c ****         intState = CY_GET_REG32(CY_INT_CLEAR_PTR);
 3427              		.loc 1 1997 9 is_stmt 1 view .LVU854
 3428              		.loc 1 1997 18 is_stmt 0 view .LVU855
 3429 0006 044B     		ldr	r3, .L305
 3430 0008 1C68     		ldr	r4, [r3]
 3431              	.LVL176:
1998:Generated_Source\PSoC5/CyLib.c **** 
1999:Generated_Source\PSoC5/CyLib.c ****         /* Disable all of the interrupts. */
2000:Generated_Source\PSoC5/CyLib.c ****         CY_SET_REG32(CY_INT_CLEAR_PTR, 0xFFFFFFFFu);
 3432              		.loc 1 2000 9 is_stmt 1 view .LVU856
 3433 000a 4FF0FF32 		mov	r2, #-1
 3434 000e 1A60     		str	r2, [r3]
2001:Generated_Source\PSoC5/CyLib.c **** 
2002:Generated_Source\PSoC5/CyLib.c ****     #endif /* (CY_PSOC3) */
2003:Generated_Source\PSoC5/CyLib.c **** 
2004:Generated_Source\PSoC5/CyLib.c ****     CyExitCriticalSection(interruptState);
 3435              		.loc 1 2004 5 view .LVU857
 3436 0010 FFF7FEFF 		bl	CyExitCriticalSection
 3437              	.LVL177:
2005:Generated_Source\PSoC5/CyLib.c **** 
2006:Generated_Source\PSoC5/CyLib.c ****     return (intState);
 3438              		.loc 1 2006 5 view .LVU858
2007:Generated_Source\PSoC5/CyLib.c **** }
 3439              		.loc 1 2007 1 is_stmt 0 view .LVU859
 3440 0014 2046     		mov	r0, r4
 3441 0016 10BD     		pop	{r4, pc}
 3442              	.LVL178:
 3443              	.L306:
 3444              		.loc 1 2007 1 view .LVU860
 3445              		.align	2
 3446              	.L305:
 3447 0018 80E100E0 		.word	-536813184
 3448              		.cfi_endproc
 3449              	.LFE54:
 3450              		.size	CyDisableInts, .-CyDisableInts
 3451              		.section	.text.CyEnableInts,"ax",%progbits
 3452              		.align	1
 3453              		.global	CyEnableInts
 3454              		.syntax unified
 3455              		.thumb
 3456              		.thumb_func
 3457              		.fpu softvfp
 3458              		.type	CyEnableInts, %function
 3459              	CyEnableInts:
 3460              	.LVL179:
 3461              	.LFB55:
2008:Generated_Source\PSoC5/CyLib.c **** 
2009:Generated_Source\PSoC5/CyLib.c **** 
ARM GAS  C:\Users\jens-\AppData\Local\Temp\ccdWTNhT.s 			page 107


2010:Generated_Source\PSoC5/CyLib.c **** /*******************************************************************************
2011:Generated_Source\PSoC5/CyLib.c **** * Function Name: CyEnableInts
2012:Generated_Source\PSoC5/CyLib.c **** ****************************************************************************//**
2013:Generated_Source\PSoC5/CyLib.c **** *
2014:Generated_Source\PSoC5/CyLib.c **** *  Enables interrupts to a given state.
2015:Generated_Source\PSoC5/CyLib.c **** *
2016:Generated_Source\PSoC5/CyLib.c **** *  \param uint32 mask: 32 bit mask of interrupts to enable.
2017:Generated_Source\PSoC5/CyLib.c **** *
2018:Generated_Source\PSoC5/CyLib.c **** *******************************************************************************/
2019:Generated_Source\PSoC5/CyLib.c **** void CyEnableInts(uint32 mask) 
2020:Generated_Source\PSoC5/CyLib.c **** {
 3462              		.loc 1 2020 1 is_stmt 1 view -0
 3463              		.cfi_startproc
 3464              		@ args = 0, pretend = 0, frame = 0
 3465              		@ frame_needed = 0, uses_anonymous_args = 0
 3466              		.loc 1 2020 1 is_stmt 0 view .LVU862
 3467 0000 10B5     		push	{r4, lr}
 3468              		.cfi_def_cfa_offset 8
 3469              		.cfi_offset 4, -8
 3470              		.cfi_offset 14, -4
 3471 0002 0446     		mov	r4, r0
2021:Generated_Source\PSoC5/CyLib.c **** 
2022:Generated_Source\PSoC5/CyLib.c ****     uint8 interruptState;
 3472              		.loc 1 2022 5 is_stmt 1 view .LVU863
2023:Generated_Source\PSoC5/CyLib.c **** 
2024:Generated_Source\PSoC5/CyLib.c ****     interruptState = CyEnterCriticalSection();
 3473              		.loc 1 2024 5 view .LVU864
 3474              		.loc 1 2024 22 is_stmt 0 view .LVU865
 3475 0004 FFF7FEFF 		bl	CyEnterCriticalSection
 3476              	.LVL180:
2025:Generated_Source\PSoC5/CyLib.c **** 
2026:Generated_Source\PSoC5/CyLib.c ****     #if(CY_PSOC3)
2027:Generated_Source\PSoC5/CyLib.c **** 
2028:Generated_Source\PSoC5/CyLib.c ****         /* Set interrupts as enabled. */
2029:Generated_Source\PSoC5/CyLib.c ****         CY_SET_REG8(CY_INT_SET_EN3_PTR, ((uint8) (mask >> 24u)));
2030:Generated_Source\PSoC5/CyLib.c ****         CY_SET_REG8(CY_INT_SET_EN2_PTR, ((uint8) (mask >> 16u)));
2031:Generated_Source\PSoC5/CyLib.c ****         CY_SET_REG8(CY_INT_SET_EN1_PTR, ((uint8) (mask >> 8u )));
2032:Generated_Source\PSoC5/CyLib.c ****         CY_SET_REG8(CY_INT_SET_EN0_PTR, ((uint8) (mask )));
2033:Generated_Source\PSoC5/CyLib.c **** 
2034:Generated_Source\PSoC5/CyLib.c ****     #else
2035:Generated_Source\PSoC5/CyLib.c **** 
2036:Generated_Source\PSoC5/CyLib.c ****         CY_SET_REG32(CY_INT_ENABLE_PTR, mask);
 3477              		.loc 1 2036 9 is_stmt 1 view .LVU866
 3478 0008 024B     		ldr	r3, .L309
 3479 000a 1C60     		str	r4, [r3]
2037:Generated_Source\PSoC5/CyLib.c **** 
2038:Generated_Source\PSoC5/CyLib.c ****     #endif /* (CY_PSOC3) */
2039:Generated_Source\PSoC5/CyLib.c **** 
2040:Generated_Source\PSoC5/CyLib.c ****     CyExitCriticalSection(interruptState);
 3480              		.loc 1 2040 5 view .LVU867
 3481 000c FFF7FEFF 		bl	CyExitCriticalSection
 3482              	.LVL181:
2041:Generated_Source\PSoC5/CyLib.c **** 
2042:Generated_Source\PSoC5/CyLib.c **** }
 3483              		.loc 1 2042 1 is_stmt 0 view .LVU868
 3484 0010 10BD     		pop	{r4, pc}
 3485              	.LVL182:
ARM GAS  C:\Users\jens-\AppData\Local\Temp\ccdWTNhT.s 			page 108


 3486              	.L310:
 3487              		.loc 1 2042 1 view .LVU869
 3488 0012 00BF     		.align	2
 3489              	.L309:
 3490 0014 00E100E0 		.word	-536813312
 3491              		.cfi_endproc
 3492              	.LFE55:
 3493              		.size	CyEnableInts, .-CyEnableInts
 3494              		.section	.text.CyFlushCache,"ax",%progbits
 3495              		.align	1
 3496              		.global	CyFlushCache
 3497              		.syntax unified
 3498              		.thumb
 3499              		.thumb_func
 3500              		.fpu softvfp
 3501              		.type	CyFlushCache, %function
 3502              	CyFlushCache:
 3503              	.LFB56:
2043:Generated_Source\PSoC5/CyLib.c **** 
2044:Generated_Source\PSoC5/CyLib.c **** #if(CY_PSOC5)
2045:Generated_Source\PSoC5/CyLib.c **** 
2046:Generated_Source\PSoC5/CyLib.c ****     /*******************************************************************************
2047:Generated_Source\PSoC5/CyLib.c ****     * Function Name: CyFlushCache
2048:Generated_Source\PSoC5/CyLib.c ****     ****************************************************************************//**
2049:Generated_Source\PSoC5/CyLib.c ****     *  Call this API after a flash row erase/write operation to invalidate or flush
2050:Generated_Source\PSoC5/CyLib.c ****     *  any of that particular flash region content already present in the cache.
2051:Generated_Source\PSoC5/CyLib.c ****     *  After a cache flush operation, any access to that flash region after the
2052:Generated_Source\PSoC5/CyLib.c ****     *  erase/write operation would reload the cache with the modified data from the
2053:Generated_Source\PSoC5/CyLib.c ****     *  flash region. If the flash region update involves multiple flash row write
2054:Generated_Source\PSoC5/CyLib.c ****     *  operations, then the flushing of the cache can be done once at the end of
2055:Generated_Source\PSoC5/CyLib.c ****     *  the operation as long as the flash data would not be accessed in the middle
2056:Generated_Source\PSoC5/CyLib.c ****     *  of the multiple row update process. Else, flush the cache after every flash
2057:Generated_Source\PSoC5/CyLib.c ****     *  row write.
2058:Generated_Source\PSoC5/CyLib.c ****     *
2059:Generated_Source\PSoC5/CyLib.c ****     *******************************************************************************/
2060:Generated_Source\PSoC5/CyLib.c ****     void CyFlushCache(void)
2061:Generated_Source\PSoC5/CyLib.c ****     {
 3504              		.loc 1 2061 5 is_stmt 1 view -0
 3505              		.cfi_startproc
 3506              		@ args = 0, pretend = 0, frame = 0
 3507              		@ frame_needed = 0, uses_anonymous_args = 0
 3508 0000 08B5     		push	{r3, lr}
 3509              		.cfi_def_cfa_offset 8
 3510              		.cfi_offset 3, -8
 3511              		.cfi_offset 14, -4
2062:Generated_Source\PSoC5/CyLib.c ****         uint8 interruptState;
 3512              		.loc 1 2062 9 view .LVU871
2063:Generated_Source\PSoC5/CyLib.c **** 
2064:Generated_Source\PSoC5/CyLib.c ****         /* Save current global interrupt enable and disable it */
2065:Generated_Source\PSoC5/CyLib.c ****         interruptState = CyEnterCriticalSection();
 3513              		.loc 1 2065 9 view .LVU872
 3514              		.loc 1 2065 26 is_stmt 0 view .LVU873
 3515 0002 FFF7FEFF 		bl	CyEnterCriticalSection
 3516              	.LVL183:
2066:Generated_Source\PSoC5/CyLib.c **** 
2067:Generated_Source\PSoC5/CyLib.c ****         /* Fill instruction prefectch unit to insure data integrity */
2068:Generated_Source\PSoC5/CyLib.c ****         CY_NOP;
ARM GAS  C:\Users\jens-\AppData\Local\Temp\ccdWTNhT.s 			page 109


 3517              		.loc 1 2068 9 is_stmt 1 view .LVU874
 3518              		.syntax unified
 3519              	@ 2068 "Generated_Source\PSoC5\CyLib.c" 1
 3520 0006 00BF     		NOP
 3521              	
 3522              	@ 0 "" 2
2069:Generated_Source\PSoC5/CyLib.c ****         CY_NOP;
 3523              		.loc 1 2069 9 view .LVU875
 3524              	@ 2069 "Generated_Source\PSoC5\CyLib.c" 1
 3525 0008 00BF     		NOP
 3526              	
 3527              	@ 0 "" 2
2070:Generated_Source\PSoC5/CyLib.c ****         CY_NOP;
 3528              		.loc 1 2070 9 view .LVU876
 3529              	@ 2070 "Generated_Source\PSoC5\CyLib.c" 1
 3530 000a 00BF     		NOP
 3531              	
 3532              	@ 0 "" 2
2071:Generated_Source\PSoC5/CyLib.c ****         CY_NOP;
 3533              		.loc 1 2071 9 view .LVU877
 3534              	@ 2071 "Generated_Source\PSoC5\CyLib.c" 1
 3535 000c 00BF     		NOP
 3536              	
 3537              	@ 0 "" 2
2072:Generated_Source\PSoC5/CyLib.c ****         CY_NOP;
 3538              		.loc 1 2072 9 view .LVU878
 3539              	@ 2072 "Generated_Source\PSoC5\CyLib.c" 1
 3540 000e 00BF     		NOP
 3541              	
 3542              	@ 0 "" 2
2073:Generated_Source\PSoC5/CyLib.c ****         CY_NOP;
 3543              		.loc 1 2073 9 view .LVU879
 3544              	@ 2073 "Generated_Source\PSoC5\CyLib.c" 1
 3545 0010 00BF     		NOP
 3546              	
 3547              	@ 0 "" 2
2074:Generated_Source\PSoC5/CyLib.c ****         CY_NOP;
 3548              		.loc 1 2074 9 view .LVU880
 3549              	@ 2074 "Generated_Source\PSoC5\CyLib.c" 1
 3550 0012 00BF     		NOP
 3551              	
 3552              	@ 0 "" 2
2075:Generated_Source\PSoC5/CyLib.c ****         CY_NOP;
 3553              		.loc 1 2075 9 view .LVU881
 3554              	@ 2075 "Generated_Source\PSoC5\CyLib.c" 1
 3555 0014 00BF     		NOP
 3556              	
 3557              	@ 0 "" 2
2076:Generated_Source\PSoC5/CyLib.c ****         CY_NOP;
 3558              		.loc 1 2076 9 view .LVU882
 3559              	@ 2076 "Generated_Source\PSoC5\CyLib.c" 1
 3560 0016 00BF     		NOP
 3561              	
 3562              	@ 0 "" 2
2077:Generated_Source\PSoC5/CyLib.c ****         CY_NOP;
 3563              		.loc 1 2077 9 view .LVU883
 3564              	@ 2077 "Generated_Source\PSoC5\CyLib.c" 1
ARM GAS  C:\Users\jens-\AppData\Local\Temp\ccdWTNhT.s 			page 110


 3565 0018 00BF     		NOP
 3566              	
 3567              	@ 0 "" 2
2078:Generated_Source\PSoC5/CyLib.c ****         CY_NOP;
 3568              		.loc 1 2078 9 view .LVU884
 3569              	@ 2078 "Generated_Source\PSoC5\CyLib.c" 1
 3570 001a 00BF     		NOP
 3571              	
 3572              	@ 0 "" 2
2079:Generated_Source\PSoC5/CyLib.c ****         CY_NOP;
 3573              		.loc 1 2079 9 view .LVU885
 3574              	@ 2079 "Generated_Source\PSoC5\CyLib.c" 1
 3575 001c 00BF     		NOP
 3576              	
 3577              	@ 0 "" 2
2080:Generated_Source\PSoC5/CyLib.c ****         CY_NOP;
 3578              		.loc 1 2080 9 view .LVU886
 3579              	@ 2080 "Generated_Source\PSoC5\CyLib.c" 1
 3580 001e 00BF     		NOP
 3581              	
 3582              	@ 0 "" 2
2081:Generated_Source\PSoC5/CyLib.c ****         CY_NOP;
 3583              		.loc 1 2081 9 view .LVU887
 3584              	@ 2081 "Generated_Source\PSoC5\CyLib.c" 1
 3585 0020 00BF     		NOP
 3586              	
 3587              	@ 0 "" 2
2082:Generated_Source\PSoC5/CyLib.c ****         CY_NOP;
 3588              		.loc 1 2082 9 view .LVU888
 3589              	@ 2082 "Generated_Source\PSoC5\CyLib.c" 1
 3590 0022 00BF     		NOP
 3591              	
 3592              	@ 0 "" 2
2083:Generated_Source\PSoC5/CyLib.c ****         CY_NOP;
 3593              		.loc 1 2083 9 view .LVU889
 3594              	@ 2083 "Generated_Source\PSoC5\CyLib.c" 1
 3595 0024 00BF     		NOP
 3596              	
 3597              	@ 0 "" 2
2084:Generated_Source\PSoC5/CyLib.c **** 
2085:Generated_Source\PSoC5/CyLib.c ****         /* All entries in cache are invalidated on next clock cycle. */
2086:Generated_Source\PSoC5/CyLib.c ****         CY_CACHE_CONTROL_REG |= CY_CACHE_CONTROL_FLUSH;
 3598              		.loc 1 2086 9 view .LVU890
 3599              		.loc 1 2086 30 is_stmt 0 view .LVU891
 3600              		.thumb
 3601              		.syntax unified
 3602 0026 064A     		ldr	r2, .L313
 3603 0028 1388     		ldrh	r3, [r2]
 3604 002a 9BB2     		uxth	r3, r3
 3605 002c 43F00403 		orr	r3, r3, #4
 3606 0030 1380     		strh	r3, [r2]	@ movhi
2087:Generated_Source\PSoC5/CyLib.c **** 
2088:Generated_Source\PSoC5/CyLib.c ****         /* Once this is executed it's guaranteed the cache has been flushed */
2089:Generated_Source\PSoC5/CyLib.c ****         (void) CY_CACHE_CONTROL_REG;
 3607              		.loc 1 2089 9 is_stmt 1 view .LVU892
 3608 0032 1388     		ldrh	r3, [r2]
2090:Generated_Source\PSoC5/CyLib.c **** 
ARM GAS  C:\Users\jens-\AppData\Local\Temp\ccdWTNhT.s 			page 111


2091:Generated_Source\PSoC5/CyLib.c ****         /* Flush the pipeline */
2092:Generated_Source\PSoC5/CyLib.c ****         CY_SYS_ISB;
 3609              		.loc 1 2092 9 view .LVU893
 3610              		.syntax unified
 3611              	@ 2092 "Generated_Source\PSoC5\CyLib.c" 1
 3612 0034 BFF36F8F 		isb 
 3613              	
 3614              	@ 0 "" 2
2093:Generated_Source\PSoC5/CyLib.c **** 
2094:Generated_Source\PSoC5/CyLib.c ****         /* Restore global interrupt enable state */
2095:Generated_Source\PSoC5/CyLib.c ****         CyExitCriticalSection(interruptState);
 3615              		.loc 1 2095 9 view .LVU894
 3616              		.thumb
 3617              		.syntax unified
 3618 0038 FFF7FEFF 		bl	CyExitCriticalSection
 3619              	.LVL184:
2096:Generated_Source\PSoC5/CyLib.c ****     }
 3620              		.loc 1 2096 5 is_stmt 0 view .LVU895
 3621 003c 08BD     		pop	{r3, pc}
 3622              	.L314:
 3623 003e 00BF     		.align	2
 3624              	.L313:
 3625 0040 00480040 		.word	1073760256
 3626              		.cfi_endproc
 3627              	.LFE56:
 3628              		.size	CyFlushCache, .-CyFlushCache
 3629              		.section	.text.CyIntSetSysVector,"ax",%progbits
 3630              		.align	1
 3631              		.global	CyIntSetSysVector
 3632              		.syntax unified
 3633              		.thumb
 3634              		.thumb_func
 3635              		.fpu softvfp
 3636              		.type	CyIntSetSysVector, %function
 3637              	CyIntSetSysVector:
 3638              	.LVL185:
 3639              	.LFB57:
2097:Generated_Source\PSoC5/CyLib.c **** 
2098:Generated_Source\PSoC5/CyLib.c **** 
2099:Generated_Source\PSoC5/CyLib.c ****     /*******************************************************************************
2100:Generated_Source\PSoC5/CyLib.c ****     * Function Name: CyIntSetSysVector
2101:Generated_Source\PSoC5/CyLib.c ****     ****************************************************************************//**
2102:Generated_Source\PSoC5/CyLib.c ****     *  Sets the interrupt vector of the specified system interrupt number. System
2103:Generated_Source\PSoC5/CyLib.c ****     *  interrupts are present only for the ARM platform. These interrupts are for
2104:Generated_Source\PSoC5/CyLib.c ****     *  SysTick, PendSV and others.
2105:Generated_Source\PSoC5/CyLib.c ****     *
2106:Generated_Source\PSoC5/CyLib.c ****     *  \param number: System interrupt number:
2107:Generated_Source\PSoC5/CyLib.c ****     *    CY_INT_NMI_IRQN                - Non Maskable Interrupt
2108:Generated_Source\PSoC5/CyLib.c ****     *    CY_INT_HARD_FAULT_IRQN         - Hard Fault Interrupt
2109:Generated_Source\PSoC5/CyLib.c ****     *    CY_INT_MEM_MANAGE_IRQN         - Memory Management Interrupt
2110:Generated_Source\PSoC5/CyLib.c ****     *    CY_INT_BUS_FAULT_IRQN          - Bus Fault Interrupt
2111:Generated_Source\PSoC5/CyLib.c ****     *    CY_INT_USAGE_FAULT_IRQN        - Usage Fault Interrupt
2112:Generated_Source\PSoC5/CyLib.c ****     *    CY_INT_SVCALL_IRQN             - SV Call Interrupt
2113:Generated_Source\PSoC5/CyLib.c ****     *    CY_INT_DEBUG_MONITOR_IRQN      - Debug Monitor Interrupt
2114:Generated_Source\PSoC5/CyLib.c ****     *    CY_INT_PEND_SV_IRQN            - Pend SV Interrupt
2115:Generated_Source\PSoC5/CyLib.c ****     *    CY_INT_SYSTICK_IRQN            - System Tick Interrupt
2116:Generated_Source\PSoC5/CyLib.c ****     *
ARM GAS  C:\Users\jens-\AppData\Local\Temp\ccdWTNhT.s 			page 112


2117:Generated_Source\PSoC5/CyLib.c ****     *  \param address: Pointer to an interrupt service routine.
2118:Generated_Source\PSoC5/CyLib.c ****     *
2119:Generated_Source\PSoC5/CyLib.c ****     * \return
2120:Generated_Source\PSoC5/CyLib.c ****     *   The old ISR vector at this location.
2121:Generated_Source\PSoC5/CyLib.c ****     *
2122:Generated_Source\PSoC5/CyLib.c ****     *******************************************************************************/
2123:Generated_Source\PSoC5/CyLib.c ****     cyisraddress CyIntSetSysVector(uint8 number, cyisraddress address)
2124:Generated_Source\PSoC5/CyLib.c ****     {
 3640              		.loc 1 2124 5 is_stmt 1 view -0
 3641              		.cfi_startproc
 3642              		@ args = 0, pretend = 0, frame = 0
 3643              		@ frame_needed = 0, uses_anonymous_args = 0
 3644              		.loc 1 2124 5 is_stmt 0 view .LVU897
 3645 0000 70B5     		push	{r4, r5, r6, lr}
 3646              		.cfi_def_cfa_offset 16
 3647              		.cfi_offset 4, -16
 3648              		.cfi_offset 5, -12
 3649              		.cfi_offset 6, -8
 3650              		.cfi_offset 14, -4
 3651 0002 0446     		mov	r4, r0
 3652 0004 0D46     		mov	r5, r1
2125:Generated_Source\PSoC5/CyLib.c ****         cyisraddress oldIsr;
 3653              		.loc 1 2125 9 is_stmt 1 view .LVU898
2126:Generated_Source\PSoC5/CyLib.c ****         cyisraddress *ramVectorTable = *CY_INT_VECT_TABLE;
 3654              		.loc 1 2126 9 view .LVU899
 3655              		.loc 1 2126 23 is_stmt 0 view .LVU900
 3656 0006 074B     		ldr	r3, .L319
 3657 0008 1E68     		ldr	r6, [r3]
 3658              	.LVL186:
2127:Generated_Source\PSoC5/CyLib.c **** 
2128:Generated_Source\PSoC5/CyLib.c ****         CYASSERT(number <= CY_INT_SYS_NUMBER_MAX);
 3659              		.loc 1 2128 9 is_stmt 1 view .LVU901
 3660 000a 0F28     		cmp	r0, #15
 3661 000c 06D8     		bhi	.L318
 3662              	.LVL187:
 3663              	.L316:
 3664              		.loc 1 2128 50 discriminator 3 view .LVU902
2129:Generated_Source\PSoC5/CyLib.c **** 
2130:Generated_Source\PSoC5/CyLib.c ****         /* Save old Interrupt service routine. */
2131:Generated_Source\PSoC5/CyLib.c ****         oldIsr = ramVectorTable[number & CY_INT_SYS_NUMBER_MASK];
 3665              		.loc 1 2131 9 discriminator 3 view .LVU903
 3666              		.loc 1 2131 40 is_stmt 0 discriminator 3 view .LVU904
 3667 000e 04F00F04 		and	r4, r4, #15
 3668              		.loc 1 2131 16 discriminator 3 view .LVU905
 3669 0012 56F82400 		ldr	r0, [r6, r4, lsl #2]
 3670              	.LVL188:
2132:Generated_Source\PSoC5/CyLib.c **** 
2133:Generated_Source\PSoC5/CyLib.c ****         /* Set new Interrupt service routine. */
2134:Generated_Source\PSoC5/CyLib.c ****         ramVectorTable[number & CY_INT_SYS_NUMBER_MASK] = address;
 3671              		.loc 1 2134 9 is_stmt 1 discriminator 3 view .LVU906
 3672              		.loc 1 2134 57 is_stmt 0 discriminator 3 view .LVU907
 3673 0016 46F82450 		str	r5, [r6, r4, lsl #2]
2135:Generated_Source\PSoC5/CyLib.c **** 
2136:Generated_Source\PSoC5/CyLib.c ****         return (oldIsr);
 3674              		.loc 1 2136 9 is_stmt 1 discriminator 3 view .LVU908
2137:Generated_Source\PSoC5/CyLib.c ****     }
 3675              		.loc 1 2137 5 is_stmt 0 discriminator 3 view .LVU909
ARM GAS  C:\Users\jens-\AppData\Local\Temp\ccdWTNhT.s 			page 113


 3676 001a 70BD     		pop	{r4, r5, r6, pc}
 3677              	.LVL189:
 3678              	.L318:
2128:Generated_Source\PSoC5/CyLib.c **** 
 3679              		.loc 1 2128 9 is_stmt 1 discriminator 1 view .LVU910
 3680 001c 0020     		movs	r0, #0
 3681              	.LVL190:
2128:Generated_Source\PSoC5/CyLib.c **** 
 3682              		.loc 1 2128 9 is_stmt 0 discriminator 1 view .LVU911
 3683 001e FFF7FEFF 		bl	CyHalt
 3684              	.LVL191:
2128:Generated_Source\PSoC5/CyLib.c **** 
 3685              		.loc 1 2128 9 discriminator 1 view .LVU912
 3686 0022 F4E7     		b	.L316
 3687              	.L320:
 3688              		.align	2
 3689              	.L319:
 3690 0024 08ED00E0 		.word	-536810232
 3691              		.cfi_endproc
 3692              	.LFE57:
 3693              		.size	CyIntSetSysVector, .-CyIntSetSysVector
 3694              		.section	.text.CyIntGetSysVector,"ax",%progbits
 3695              		.align	1
 3696              		.global	CyIntGetSysVector
 3697              		.syntax unified
 3698              		.thumb
 3699              		.thumb_func
 3700              		.fpu softvfp
 3701              		.type	CyIntGetSysVector, %function
 3702              	CyIntGetSysVector:
 3703              	.LVL192:
 3704              	.LFB58:
2138:Generated_Source\PSoC5/CyLib.c **** 
2139:Generated_Source\PSoC5/CyLib.c **** 
2140:Generated_Source\PSoC5/CyLib.c ****     /*******************************************************************************
2141:Generated_Source\PSoC5/CyLib.c ****     * Function Name: CyIntGetSysVector
2142:Generated_Source\PSoC5/CyLib.c ****     ****************************************************************************//**
2143:Generated_Source\PSoC5/CyLib.c ****     *
2144:Generated_Source\PSoC5/CyLib.c ****     *  Gets the interrupt vector of the specified system interrupt number. System
2145:Generated_Source\PSoC5/CyLib.c ****     *  interrupts are present only for the ARM platform. These interrupts are for
2146:Generated_Source\PSoC5/CyLib.c ****     *  SysTick, PendSV and others.
2147:Generated_Source\PSoC5/CyLib.c ****     *
2148:Generated_Source\PSoC5/CyLib.c ****     *  \param number: System interrupt number:
2149:Generated_Source\PSoC5/CyLib.c ****     *    CY_INT_NMI_IRQN                - Non Maskable Interrupt
2150:Generated_Source\PSoC5/CyLib.c ****     *    CY_INT_HARD_FAULT_IRQN         - Hard Fault Interrupt
2151:Generated_Source\PSoC5/CyLib.c ****     *    CY_INT_MEMORY_MANAGEMENT_IRQN  - Memory Management Interrupt
2152:Generated_Source\PSoC5/CyLib.c ****     *    CY_INT_BUS_FAULT_IRQN          - Bus Fault Interrupt
2153:Generated_Source\PSoC5/CyLib.c ****     *    CY_INT_USAGE_FAULT_IRQN        - Usage Fault Interrupt
2154:Generated_Source\PSoC5/CyLib.c ****     *    CY_INT_SVCALL_IRQN             - SV Call Interrupt
2155:Generated_Source\PSoC5/CyLib.c ****     *    CY_INT_DEBUG_MONITOR_IRQN      - Debug Monitor Interrupt
2156:Generated_Source\PSoC5/CyLib.c ****     *    CY_INT_PEND_SV_IRQN            - Pend SV Interrupt
2157:Generated_Source\PSoC5/CyLib.c ****     *    CY_INT_SYSTICK_IRQN            - System Tick Interrupt
2158:Generated_Source\PSoC5/CyLib.c ****     *
2159:Generated_Source\PSoC5/CyLib.c ****     * \return
2160:Generated_Source\PSoC5/CyLib.c ****     *   Address of the ISR in the interrupt vector table.
2161:Generated_Source\PSoC5/CyLib.c ****     *
2162:Generated_Source\PSoC5/CyLib.c ****     *******************************************************************************/
ARM GAS  C:\Users\jens-\AppData\Local\Temp\ccdWTNhT.s 			page 114


2163:Generated_Source\PSoC5/CyLib.c ****     cyisraddress CyIntGetSysVector(uint8 number)
2164:Generated_Source\PSoC5/CyLib.c ****     {
 3705              		.loc 1 2164 5 is_stmt 1 view -0
 3706              		.cfi_startproc
 3707              		@ args = 0, pretend = 0, frame = 0
 3708              		@ frame_needed = 0, uses_anonymous_args = 0
 3709              		.loc 1 2164 5 is_stmt 0 view .LVU914
 3710 0000 38B5     		push	{r3, r4, r5, lr}
 3711              		.cfi_def_cfa_offset 16
 3712              		.cfi_offset 3, -16
 3713              		.cfi_offset 4, -12
 3714              		.cfi_offset 5, -8
 3715              		.cfi_offset 14, -4
 3716 0002 0446     		mov	r4, r0
2165:Generated_Source\PSoC5/CyLib.c ****         cyisraddress *ramVectorTable = *CY_INT_VECT_TABLE;
 3717              		.loc 1 2165 9 is_stmt 1 view .LVU915
 3718              		.loc 1 2165 23 is_stmt 0 view .LVU916
 3719 0004 064B     		ldr	r3, .L325
 3720 0006 1D68     		ldr	r5, [r3]
 3721              	.LVL193:
2166:Generated_Source\PSoC5/CyLib.c ****         CYASSERT(number <= CY_INT_SYS_NUMBER_MAX);
 3722              		.loc 1 2166 9 is_stmt 1 view .LVU917
 3723 0008 0F28     		cmp	r0, #15
 3724 000a 04D8     		bhi	.L324
 3725              	.LVL194:
 3726              	.L322:
 3727              		.loc 1 2166 50 discriminator 3 view .LVU918
2167:Generated_Source\PSoC5/CyLib.c **** 
2168:Generated_Source\PSoC5/CyLib.c ****         return ramVectorTable[number & CY_INT_SYS_NUMBER_MASK];
 3728              		.loc 1 2168 9 discriminator 3 view .LVU919
 3729              		.loc 1 2168 38 is_stmt 0 discriminator 3 view .LVU920
 3730 000c 04F00F04 		and	r4, r4, #15
2169:Generated_Source\PSoC5/CyLib.c ****     }
 3731              		.loc 1 2169 5 discriminator 3 view .LVU921
 3732 0010 55F82400 		ldr	r0, [r5, r4, lsl #2]
 3733 0014 38BD     		pop	{r3, r4, r5, pc}
 3734              	.LVL195:
 3735              	.L324:
2166:Generated_Source\PSoC5/CyLib.c ****         CYASSERT(number <= CY_INT_SYS_NUMBER_MAX);
 3736              		.loc 1 2166 9 is_stmt 1 discriminator 1 view .LVU922
 3737 0016 0020     		movs	r0, #0
 3738              	.LVL196:
2166:Generated_Source\PSoC5/CyLib.c ****         CYASSERT(number <= CY_INT_SYS_NUMBER_MAX);
 3739              		.loc 1 2166 9 is_stmt 0 discriminator 1 view .LVU923
 3740 0018 FFF7FEFF 		bl	CyHalt
 3741              	.LVL197:
 3742 001c F6E7     		b	.L322
 3743              	.L326:
 3744 001e 00BF     		.align	2
 3745              	.L325:
 3746 0020 08ED00E0 		.word	-536810232
 3747              		.cfi_endproc
 3748              	.LFE58:
 3749              		.size	CyIntGetSysVector, .-CyIntGetSysVector
 3750              		.section	.text.CyIntSetVector,"ax",%progbits
 3751              		.align	1
 3752              		.global	CyIntSetVector
ARM GAS  C:\Users\jens-\AppData\Local\Temp\ccdWTNhT.s 			page 115


 3753              		.syntax unified
 3754              		.thumb
 3755              		.thumb_func
 3756              		.fpu softvfp
 3757              		.type	CyIntSetVector, %function
 3758              	CyIntSetVector:
 3759              	.LVL198:
 3760              	.LFB59:
2170:Generated_Source\PSoC5/CyLib.c **** 
2171:Generated_Source\PSoC5/CyLib.c **** 
2172:Generated_Source\PSoC5/CyLib.c ****     /*******************************************************************************
2173:Generated_Source\PSoC5/CyLib.c ****     * Function Name: CyIntSetVector
2174:Generated_Source\PSoC5/CyLib.c ****     ****************************************************************************//**
2175:Generated_Source\PSoC5/CyLib.c ****     *
2176:Generated_Source\PSoC5/CyLib.c ****     *  Sets the interrupt vector of the specified interrupt number.
2177:Generated_Source\PSoC5/CyLib.c ****     *
2178:Generated_Source\PSoC5/CyLib.c ****     *  \param number: Valid range [0-31].  Interrupt number
2179:Generated_Source\PSoC5/CyLib.c ****     *  \param address: Pointer to an interrupt service routine
2180:Generated_Source\PSoC5/CyLib.c ****     *
2181:Generated_Source\PSoC5/CyLib.c ****     * \return
2182:Generated_Source\PSoC5/CyLib.c ****     *   Previous interrupt vector value.
2183:Generated_Source\PSoC5/CyLib.c ****     *
2184:Generated_Source\PSoC5/CyLib.c ****     *******************************************************************************/
2185:Generated_Source\PSoC5/CyLib.c ****     cyisraddress CyIntSetVector(uint8 number, cyisraddress address)
2186:Generated_Source\PSoC5/CyLib.c ****     {
 3761              		.loc 1 2186 5 is_stmt 1 view -0
 3762              		.cfi_startproc
 3763              		@ args = 0, pretend = 0, frame = 0
 3764              		@ frame_needed = 0, uses_anonymous_args = 0
 3765              		.loc 1 2186 5 is_stmt 0 view .LVU925
 3766 0000 70B5     		push	{r4, r5, r6, lr}
 3767              		.cfi_def_cfa_offset 16
 3768              		.cfi_offset 4, -16
 3769              		.cfi_offset 5, -12
 3770              		.cfi_offset 6, -8
 3771              		.cfi_offset 14, -4
 3772 0002 0446     		mov	r4, r0
 3773 0004 0D46     		mov	r5, r1
2187:Generated_Source\PSoC5/CyLib.c ****         cyisraddress oldIsr;
 3774              		.loc 1 2187 9 is_stmt 1 view .LVU926
2188:Generated_Source\PSoC5/CyLib.c ****         cyisraddress *ramVectorTable = *CY_INT_VECT_TABLE;
 3775              		.loc 1 2188 9 view .LVU927
 3776              		.loc 1 2188 23 is_stmt 0 view .LVU928
 3777 0006 084B     		ldr	r3, .L331
 3778 0008 1E68     		ldr	r6, [r3]
 3779              	.LVL199:
2189:Generated_Source\PSoC5/CyLib.c **** 
2190:Generated_Source\PSoC5/CyLib.c ****         CYASSERT(number <= CY_INT_NUMBER_MAX);
 3780              		.loc 1 2190 9 is_stmt 1 view .LVU929
 3781 000a 1F28     		cmp	r0, #31
 3782 000c 07D8     		bhi	.L330
 3783              	.LVL200:
 3784              	.L328:
 3785              		.loc 1 2190 46 discriminator 3 view .LVU930
2191:Generated_Source\PSoC5/CyLib.c **** 
2192:Generated_Source\PSoC5/CyLib.c ****         /* Save old Interrupt service routine. */
2193:Generated_Source\PSoC5/CyLib.c ****         oldIsr = ramVectorTable[CY_INT_IRQ_BASE + (number & CY_INT_NUMBER_MASK)];
ARM GAS  C:\Users\jens-\AppData\Local\Temp\ccdWTNhT.s 			page 116


 3786              		.loc 1 2193 9 discriminator 3 view .LVU931
 3787              		.loc 1 2193 59 is_stmt 0 discriminator 3 view .LVU932
 3788 000e 04F01F04 		and	r4, r4, #31
 3789              		.loc 1 2193 49 discriminator 3 view .LVU933
 3790 0012 1034     		adds	r4, r4, #16
 3791              		.loc 1 2193 16 discriminator 3 view .LVU934
 3792 0014 56F82400 		ldr	r0, [r6, r4, lsl #2]
 3793              	.LVL201:
2194:Generated_Source\PSoC5/CyLib.c **** 
2195:Generated_Source\PSoC5/CyLib.c ****         /* Set new Interrupt service routine. */
2196:Generated_Source\PSoC5/CyLib.c ****         ramVectorTable[CY_INT_IRQ_BASE + (number & CY_INT_NUMBER_MASK)] = address;
 3794              		.loc 1 2196 9 is_stmt 1 discriminator 3 view .LVU935
 3795              		.loc 1 2196 73 is_stmt 0 discriminator 3 view .LVU936
 3796 0018 46F82450 		str	r5, [r6, r4, lsl #2]
2197:Generated_Source\PSoC5/CyLib.c **** 
2198:Generated_Source\PSoC5/CyLib.c ****         return (oldIsr);
 3797              		.loc 1 2198 9 is_stmt 1 discriminator 3 view .LVU937
2199:Generated_Source\PSoC5/CyLib.c ****     }
 3798              		.loc 1 2199 5 is_stmt 0 discriminator 3 view .LVU938
 3799 001c 70BD     		pop	{r4, r5, r6, pc}
 3800              	.LVL202:
 3801              	.L330:
2190:Generated_Source\PSoC5/CyLib.c **** 
 3802              		.loc 1 2190 9 is_stmt 1 discriminator 1 view .LVU939
 3803 001e 0020     		movs	r0, #0
 3804              	.LVL203:
2190:Generated_Source\PSoC5/CyLib.c **** 
 3805              		.loc 1 2190 9 is_stmt 0 discriminator 1 view .LVU940
 3806 0020 FFF7FEFF 		bl	CyHalt
 3807              	.LVL204:
2190:Generated_Source\PSoC5/CyLib.c **** 
 3808              		.loc 1 2190 9 discriminator 1 view .LVU941
 3809 0024 F3E7     		b	.L328
 3810              	.L332:
 3811 0026 00BF     		.align	2
 3812              	.L331:
 3813 0028 08ED00E0 		.word	-536810232
 3814              		.cfi_endproc
 3815              	.LFE59:
 3816              		.size	CyIntSetVector, .-CyIntSetVector
 3817              		.section	.text.CyIntGetVector,"ax",%progbits
 3818              		.align	1
 3819              		.global	CyIntGetVector
 3820              		.syntax unified
 3821              		.thumb
 3822              		.thumb_func
 3823              		.fpu softvfp
 3824              		.type	CyIntGetVector, %function
 3825              	CyIntGetVector:
 3826              	.LVL205:
 3827              	.LFB60:
2200:Generated_Source\PSoC5/CyLib.c **** 
2201:Generated_Source\PSoC5/CyLib.c **** 
2202:Generated_Source\PSoC5/CyLib.c ****     /*******************************************************************************
2203:Generated_Source\PSoC5/CyLib.c ****     * Function Name: CyIntGetVector
2204:Generated_Source\PSoC5/CyLib.c ****     ****************************************************************************//**
2205:Generated_Source\PSoC5/CyLib.c ****     *
ARM GAS  C:\Users\jens-\AppData\Local\Temp\ccdWTNhT.s 			page 117


2206:Generated_Source\PSoC5/CyLib.c ****     *  Gets the interrupt vector of the specified interrupt number.
2207:Generated_Source\PSoC5/CyLib.c ****     *
2208:Generated_Source\PSoC5/CyLib.c ****     *  \param number: Valid range [0-31].  Interrupt number
2209:Generated_Source\PSoC5/CyLib.c ****     *
2210:Generated_Source\PSoC5/CyLib.c ****     * \return
2211:Generated_Source\PSoC5/CyLib.c ****     *  The address of the ISR in the interrupt vector table.
2212:Generated_Source\PSoC5/CyLib.c ****     *
2213:Generated_Source\PSoC5/CyLib.c ****     *******************************************************************************/
2214:Generated_Source\PSoC5/CyLib.c ****     cyisraddress CyIntGetVector(uint8 number)
2215:Generated_Source\PSoC5/CyLib.c ****     {
 3828              		.loc 1 2215 5 is_stmt 1 view -0
 3829              		.cfi_startproc
 3830              		@ args = 0, pretend = 0, frame = 0
 3831              		@ frame_needed = 0, uses_anonymous_args = 0
 3832              		.loc 1 2215 5 is_stmt 0 view .LVU943
 3833 0000 38B5     		push	{r3, r4, r5, lr}
 3834              		.cfi_def_cfa_offset 16
 3835              		.cfi_offset 3, -16
 3836              		.cfi_offset 4, -12
 3837              		.cfi_offset 5, -8
 3838              		.cfi_offset 14, -4
 3839 0002 0446     		mov	r4, r0
2216:Generated_Source\PSoC5/CyLib.c ****         cyisraddress *ramVectorTable = *CY_INT_VECT_TABLE;
 3840              		.loc 1 2216 9 is_stmt 1 view .LVU944
 3841              		.loc 1 2216 23 is_stmt 0 view .LVU945
 3842 0004 064B     		ldr	r3, .L337
 3843 0006 1D68     		ldr	r5, [r3]
 3844              	.LVL206:
2217:Generated_Source\PSoC5/CyLib.c ****         CYASSERT(number <= CY_INT_NUMBER_MAX);
 3845              		.loc 1 2217 9 is_stmt 1 view .LVU946
 3846 0008 1F28     		cmp	r0, #31
 3847 000a 05D8     		bhi	.L336
 3848              	.LVL207:
 3849              	.L334:
 3850              		.loc 1 2217 46 discriminator 3 view .LVU947
2218:Generated_Source\PSoC5/CyLib.c **** 
2219:Generated_Source\PSoC5/CyLib.c ****         return (ramVectorTable[CY_INT_IRQ_BASE + (number & CY_INT_NUMBER_MASK)]);
 3851              		.loc 1 2219 9 discriminator 3 view .LVU948
 3852              		.loc 1 2219 58 is_stmt 0 discriminator 3 view .LVU949
 3853 000c 04F01F04 		and	r4, r4, #31
 3854              		.loc 1 2219 48 discriminator 3 view .LVU950
 3855 0010 1034     		adds	r4, r4, #16
2220:Generated_Source\PSoC5/CyLib.c ****     }
 3856              		.loc 1 2220 5 discriminator 3 view .LVU951
 3857 0012 55F82400 		ldr	r0, [r5, r4, lsl #2]
 3858 0016 38BD     		pop	{r3, r4, r5, pc}
 3859              	.LVL208:
 3860              	.L336:
2217:Generated_Source\PSoC5/CyLib.c ****         CYASSERT(number <= CY_INT_NUMBER_MAX);
 3861              		.loc 1 2217 9 is_stmt 1 discriminator 1 view .LVU952
 3862 0018 0020     		movs	r0, #0
 3863              	.LVL209:
2217:Generated_Source\PSoC5/CyLib.c ****         CYASSERT(number <= CY_INT_NUMBER_MAX);
 3864              		.loc 1 2217 9 is_stmt 0 discriminator 1 view .LVU953
 3865 001a FFF7FEFF 		bl	CyHalt
 3866              	.LVL210:
 3867 001e F5E7     		b	.L334
ARM GAS  C:\Users\jens-\AppData\Local\Temp\ccdWTNhT.s 			page 118


 3868              	.L338:
 3869              		.align	2
 3870              	.L337:
 3871 0020 08ED00E0 		.word	-536810232
 3872              		.cfi_endproc
 3873              	.LFE60:
 3874              		.size	CyIntGetVector, .-CyIntGetVector
 3875              		.section	.text.CyIntSetPriority,"ax",%progbits
 3876              		.align	1
 3877              		.global	CyIntSetPriority
 3878              		.syntax unified
 3879              		.thumb
 3880              		.thumb_func
 3881              		.fpu softvfp
 3882              		.type	CyIntSetPriority, %function
 3883              	CyIntSetPriority:
 3884              	.LVL211:
 3885              	.LFB61:
2221:Generated_Source\PSoC5/CyLib.c **** 
2222:Generated_Source\PSoC5/CyLib.c **** 
2223:Generated_Source\PSoC5/CyLib.c ****     /*******************************************************************************
2224:Generated_Source\PSoC5/CyLib.c ****     * Function Name: CyIntSetPriority
2225:Generated_Source\PSoC5/CyLib.c ****     ****************************************************************************//**
2226:Generated_Source\PSoC5/CyLib.c ****     *
2227:Generated_Source\PSoC5/CyLib.c ****     *  Sets the Priority of the Interrupt.
2228:Generated_Source\PSoC5/CyLib.c ****     *
2229:Generated_Source\PSoC5/CyLib.c ****     *  \param priority: Priority of the interrupt. 0 - 7, 0 being the highest.
2230:Generated_Source\PSoC5/CyLib.c ****     *  \param number: The number of the interrupt, 0 - 31.
2231:Generated_Source\PSoC5/CyLib.c ****     *
2232:Generated_Source\PSoC5/CyLib.c ****     *******************************************************************************/
2233:Generated_Source\PSoC5/CyLib.c ****     void CyIntSetPriority(uint8 number, uint8 priority)
2234:Generated_Source\PSoC5/CyLib.c ****     {
 3886              		.loc 1 2234 5 is_stmt 1 view -0
 3887              		.cfi_startproc
 3888              		@ args = 0, pretend = 0, frame = 0
 3889              		@ frame_needed = 0, uses_anonymous_args = 0
 3890              		.loc 1 2234 5 is_stmt 0 view .LVU955
 3891 0000 38B5     		push	{r3, r4, r5, lr}
 3892              		.cfi_def_cfa_offset 16
 3893              		.cfi_offset 3, -16
 3894              		.cfi_offset 4, -12
 3895              		.cfi_offset 5, -8
 3896              		.cfi_offset 14, -4
 3897 0002 0446     		mov	r4, r0
 3898 0004 0D46     		mov	r5, r1
2235:Generated_Source\PSoC5/CyLib.c ****         CYASSERT(priority <= CY_INT_PRIORITY_MAX);
 3899              		.loc 1 2235 9 is_stmt 1 view .LVU956
 3900 0006 0729     		cmp	r1, #7
 3901 0008 0BD8     		bhi	.L343
 3902              	.LVL212:
 3903              	.L340:
 3904              		.loc 1 2235 50 discriminator 3 view .LVU957
2236:Generated_Source\PSoC5/CyLib.c ****         CYASSERT(number <= CY_INT_NUMBER_MAX);
 3905              		.loc 1 2236 9 discriminator 3 view .LVU958
 3906 000a 1F2C     		cmp	r4, #31
 3907 000c 0DD8     		bhi	.L344
 3908              	.L341:
ARM GAS  C:\Users\jens-\AppData\Local\Temp\ccdWTNhT.s 			page 119


 3909              		.loc 1 2236 46 discriminator 3 view .LVU959
2237:Generated_Source\PSoC5/CyLib.c ****         CY_INT_PRIORITY_PTR[number & CY_INT_NUMBER_MASK] = (priority & CY_INT_PRIORITY_MASK)<< 5;
 3910              		.loc 1 2237 9 discriminator 3 view .LVU960
 3911              		.loc 1 2237 36 is_stmt 0 discriminator 3 view .LVU961
 3912 000e 04F01F00 		and	r0, r4, #31
 3913              		.loc 1 2237 28 discriminator 3 view .LVU962
 3914 0012 00F16040 		add	r0, r0, #-536870912
 3915 0016 00F56440 		add	r0, r0, #58368
 3916              		.loc 1 2237 93 discriminator 3 view .LVU963
 3917 001a 6D01     		lsls	r5, r5, #5
 3918 001c EDB2     		uxtb	r5, r5
 3919              		.loc 1 2237 58 discriminator 3 view .LVU964
 3920 001e 0570     		strb	r5, [r0]
2238:Generated_Source\PSoC5/CyLib.c ****     }
 3921              		.loc 1 2238 5 discriminator 3 view .LVU965
 3922 0020 38BD     		pop	{r3, r4, r5, pc}
 3923              	.LVL213:
 3924              	.L343:
2235:Generated_Source\PSoC5/CyLib.c ****         CYASSERT(number <= CY_INT_NUMBER_MAX);
 3925              		.loc 1 2235 9 is_stmt 1 discriminator 1 view .LVU966
 3926 0022 0020     		movs	r0, #0
 3927              	.LVL214:
2235:Generated_Source\PSoC5/CyLib.c ****         CYASSERT(number <= CY_INT_NUMBER_MAX);
 3928              		.loc 1 2235 9 is_stmt 0 discriminator 1 view .LVU967
 3929 0024 FFF7FEFF 		bl	CyHalt
 3930              	.LVL215:
2235:Generated_Source\PSoC5/CyLib.c ****         CYASSERT(number <= CY_INT_NUMBER_MAX);
 3931              		.loc 1 2235 9 discriminator 1 view .LVU968
 3932 0028 EFE7     		b	.L340
 3933              	.L344:
2236:Generated_Source\PSoC5/CyLib.c ****         CY_INT_PRIORITY_PTR[number & CY_INT_NUMBER_MASK] = (priority & CY_INT_PRIORITY_MASK)<< 5;
 3934              		.loc 1 2236 9 is_stmt 1 discriminator 1 view .LVU969
 3935 002a 0020     		movs	r0, #0
 3936 002c FFF7FEFF 		bl	CyHalt
 3937              	.LVL216:
 3938 0030 EDE7     		b	.L341
 3939              		.cfi_endproc
 3940              	.LFE61:
 3941              		.size	CyIntSetPriority, .-CyIntSetPriority
 3942              		.section	.text.CyIntGetPriority,"ax",%progbits
 3943              		.align	1
 3944              		.global	CyIntGetPriority
 3945              		.syntax unified
 3946              		.thumb
 3947              		.thumb_func
 3948              		.fpu softvfp
 3949              		.type	CyIntGetPriority, %function
 3950              	CyIntGetPriority:
 3951              	.LVL217:
 3952              	.LFB62:
2239:Generated_Source\PSoC5/CyLib.c **** 
2240:Generated_Source\PSoC5/CyLib.c **** 
2241:Generated_Source\PSoC5/CyLib.c ****     /*******************************************************************************
2242:Generated_Source\PSoC5/CyLib.c ****     * Function Name: CyIntGetPriority
2243:Generated_Source\PSoC5/CyLib.c ****     ****************************************************************************//**
2244:Generated_Source\PSoC5/CyLib.c ****     *
2245:Generated_Source\PSoC5/CyLib.c ****     *  Gets the Priority of the Interrupt.
ARM GAS  C:\Users\jens-\AppData\Local\Temp\ccdWTNhT.s 			page 120


2246:Generated_Source\PSoC5/CyLib.c ****     *
2247:Generated_Source\PSoC5/CyLib.c ****     *  \param number: The number of the interrupt, 0 - 31.
2248:Generated_Source\PSoC5/CyLib.c ****     *
2249:Generated_Source\PSoC5/CyLib.c ****     * \return
2250:Generated_Source\PSoC5/CyLib.c ****     *  Priority of the interrupt. 0 - 7, 0 being the highest.
2251:Generated_Source\PSoC5/CyLib.c ****     *
2252:Generated_Source\PSoC5/CyLib.c ****     *******************************************************************************/
2253:Generated_Source\PSoC5/CyLib.c ****     uint8 CyIntGetPriority(uint8 number)
2254:Generated_Source\PSoC5/CyLib.c ****     {
 3953              		.loc 1 2254 5 view -0
 3954              		.cfi_startproc
 3955              		@ args = 0, pretend = 0, frame = 0
 3956              		@ frame_needed = 0, uses_anonymous_args = 0
 3957              		.loc 1 2254 5 is_stmt 0 view .LVU971
 3958 0000 10B5     		push	{r4, lr}
 3959              		.cfi_def_cfa_offset 8
 3960              		.cfi_offset 4, -8
 3961              		.cfi_offset 14, -4
 3962 0002 0446     		mov	r4, r0
2255:Generated_Source\PSoC5/CyLib.c ****         uint8 priority;
 3963              		.loc 1 2255 9 is_stmt 1 view .LVU972
2256:Generated_Source\PSoC5/CyLib.c **** 
2257:Generated_Source\PSoC5/CyLib.c ****         CYASSERT(number <= CY_INT_NUMBER_MAX);
 3964              		.loc 1 2257 9 view .LVU973
 3965 0004 1F28     		cmp	r0, #31
 3966 0006 08D8     		bhi	.L348
 3967              	.LVL218:
 3968              	.L346:
 3969              		.loc 1 2257 46 discriminator 3 view .LVU974
2258:Generated_Source\PSoC5/CyLib.c **** 
2259:Generated_Source\PSoC5/CyLib.c ****         priority = CY_INT_PRIORITY_PTR[number & CY_INT_NUMBER_MASK] >> 5;
 3970              		.loc 1 2259 9 discriminator 3 view .LVU975
 3971              		.loc 1 2259 47 is_stmt 0 discriminator 3 view .LVU976
 3972 0008 04F01F00 		and	r0, r4, #31
 3973              		.loc 1 2259 39 discriminator 3 view .LVU977
 3974 000c 00F16040 		add	r0, r0, #-536870912
 3975 0010 00F56440 		add	r0, r0, #58368
 3976 0014 0078     		ldrb	r0, [r0]	@ zero_extendqisi2
 3977              	.LVL219:
2260:Generated_Source\PSoC5/CyLib.c **** 
2261:Generated_Source\PSoC5/CyLib.c ****         return (priority);
 3978              		.loc 1 2261 9 is_stmt 1 discriminator 3 view .LVU978
2262:Generated_Source\PSoC5/CyLib.c ****     }
 3979              		.loc 1 2262 5 is_stmt 0 discriminator 3 view .LVU979
 3980 0016 4009     		lsrs	r0, r0, #5
 3981              	.LVL220:
 3982              		.loc 1 2262 5 discriminator 3 view .LVU980
 3983 0018 10BD     		pop	{r4, pc}
 3984              	.LVL221:
 3985              	.L348:
2257:Generated_Source\PSoC5/CyLib.c **** 
 3986              		.loc 1 2257 9 is_stmt 1 discriminator 1 view .LVU981
 3987 001a 0020     		movs	r0, #0
 3988              	.LVL222:
2257:Generated_Source\PSoC5/CyLib.c **** 
 3989              		.loc 1 2257 9 is_stmt 0 discriminator 1 view .LVU982
 3990 001c FFF7FEFF 		bl	CyHalt
ARM GAS  C:\Users\jens-\AppData\Local\Temp\ccdWTNhT.s 			page 121


 3991              	.LVL223:
 3992 0020 F2E7     		b	.L346
 3993              		.cfi_endproc
 3994              	.LFE62:
 3995              		.size	CyIntGetPriority, .-CyIntGetPriority
 3996              		.section	.text.CyIntGetState,"ax",%progbits
 3997              		.align	1
 3998              		.global	CyIntGetState
 3999              		.syntax unified
 4000              		.thumb
 4001              		.thumb_func
 4002              		.fpu softvfp
 4003              		.type	CyIntGetState, %function
 4004              	CyIntGetState:
 4005              	.LVL224:
 4006              	.LFB63:
2263:Generated_Source\PSoC5/CyLib.c **** 
2264:Generated_Source\PSoC5/CyLib.c **** 
2265:Generated_Source\PSoC5/CyLib.c ****     /*******************************************************************************
2266:Generated_Source\PSoC5/CyLib.c ****     * Function Name: CyIntGetState
2267:Generated_Source\PSoC5/CyLib.c ****     ****************************************************************************//**
2268:Generated_Source\PSoC5/CyLib.c ****     *
2269:Generated_Source\PSoC5/CyLib.c ****     *   Gets the enable state of the specified interrupt number.
2270:Generated_Source\PSoC5/CyLib.c ****     *
2271:Generated_Source\PSoC5/CyLib.c ****     *   \param number: Valid range [0-31].  Interrupt number.
2272:Generated_Source\PSoC5/CyLib.c ****     *
2273:Generated_Source\PSoC5/CyLib.c ****     * \return
2274:Generated_Source\PSoC5/CyLib.c ****     *   Enable status: 1 if enabled, 0 if disabled
2275:Generated_Source\PSoC5/CyLib.c ****     *
2276:Generated_Source\PSoC5/CyLib.c ****     *******************************************************************************/
2277:Generated_Source\PSoC5/CyLib.c ****     uint8 CyIntGetState(uint8 number)
2278:Generated_Source\PSoC5/CyLib.c ****     {
 4007              		.loc 1 2278 5 is_stmt 1 view -0
 4008              		.cfi_startproc
 4009              		@ args = 0, pretend = 0, frame = 0
 4010              		@ frame_needed = 0, uses_anonymous_args = 0
 4011              		.loc 1 2278 5 is_stmt 0 view .LVU984
 4012 0000 10B5     		push	{r4, lr}
 4013              		.cfi_def_cfa_offset 8
 4014              		.cfi_offset 4, -8
 4015              		.cfi_offset 14, -4
 4016 0002 0446     		mov	r4, r0
2279:Generated_Source\PSoC5/CyLib.c ****         reg32 * stateReg;
 4017              		.loc 1 2279 9 is_stmt 1 view .LVU985
2280:Generated_Source\PSoC5/CyLib.c **** 
2281:Generated_Source\PSoC5/CyLib.c ****         CYASSERT(number <= CY_INT_NUMBER_MAX);
 4018              		.loc 1 2281 9 view .LVU986
 4019 0004 1F28     		cmp	r0, #31
 4020 0006 07D8     		bhi	.L352
 4021              	.LVL225:
 4022              	.L350:
 4023              		.loc 1 2281 46 discriminator 3 view .LVU987
2282:Generated_Source\PSoC5/CyLib.c **** 
2283:Generated_Source\PSoC5/CyLib.c ****         /* Get pointer to Interrupt enable register. */
2284:Generated_Source\PSoC5/CyLib.c ****         stateReg = CY_INT_ENABLE_PTR;
 4024              		.loc 1 2284 9 discriminator 3 view .LVU988
2285:Generated_Source\PSoC5/CyLib.c **** 
ARM GAS  C:\Users\jens-\AppData\Local\Temp\ccdWTNhT.s 			page 122


2286:Generated_Source\PSoC5/CyLib.c ****         /* Get state of interrupt. */
2287:Generated_Source\PSoC5/CyLib.c ****         return (0u != (*stateReg & (((uint32) 1u) << (0x1Fu & number)))) ? ((uint8)(1u)) : ((uint8)
 4025              		.loc 1 2287 9 discriminator 3 view .LVU989
 4026              		.loc 1 2287 24 is_stmt 0 discriminator 3 view .LVU990
 4027 0008 054B     		ldr	r3, .L353
 4028 000a 1868     		ldr	r0, [r3]
 4029              		.loc 1 2287 61 discriminator 3 view .LVU991
 4030 000c 04F01F04 		and	r4, r4, #31
 4031              		.loc 1 2287 20 discriminator 3 view .LVU992
 4032 0010 E040     		lsrs	r0, r0, r4
2288:Generated_Source\PSoC5/CyLib.c ****     }
 4033              		.loc 1 2288 5 discriminator 3 view .LVU993
 4034 0012 00F00100 		and	r0, r0, #1
 4035 0016 10BD     		pop	{r4, pc}
 4036              	.LVL226:
 4037              	.L352:
2281:Generated_Source\PSoC5/CyLib.c **** 
 4038              		.loc 1 2281 9 is_stmt 1 discriminator 1 view .LVU994
 4039 0018 0020     		movs	r0, #0
 4040              	.LVL227:
2281:Generated_Source\PSoC5/CyLib.c **** 
 4041              		.loc 1 2281 9 is_stmt 0 discriminator 1 view .LVU995
 4042 001a FFF7FEFF 		bl	CyHalt
 4043              	.LVL228:
 4044 001e F3E7     		b	.L350
 4045              	.L354:
 4046              		.align	2
 4047              	.L353:
 4048 0020 00E100E0 		.word	-536813312
 4049              		.cfi_endproc
 4050              	.LFE63:
 4051              		.size	CyIntGetState, .-CyIntGetState
 4052              		.section	.text.CySysTickStop,"ax",%progbits
 4053              		.align	1
 4054              		.global	CySysTickStop
 4055              		.syntax unified
 4056              		.thumb
 4057              		.thumb_func
 4058              		.fpu softvfp
 4059              		.type	CySysTickStop, %function
 4060              	CySysTickStop:
 4061              	.LFB67:
2289:Generated_Source\PSoC5/CyLib.c **** 
2290:Generated_Source\PSoC5/CyLib.c **** 
2291:Generated_Source\PSoC5/CyLib.c **** #else   /* PSoC3 */
2292:Generated_Source\PSoC5/CyLib.c **** 
2293:Generated_Source\PSoC5/CyLib.c ****     /*******************************************************************************
2294:Generated_Source\PSoC5/CyLib.c ****     * Function Name: IntDefaultHandler
2295:Generated_Source\PSoC5/CyLib.c ****     ****************************************************************************//**
2296:Generated_Source\PSoC5/CyLib.c ****     *
2297:Generated_Source\PSoC5/CyLib.c ****     *  This function is called for all interrupts, other than a reset that gets
2298:Generated_Source\PSoC5/CyLib.c ****     *  called before the system is setup.
2299:Generated_Source\PSoC5/CyLib.c ****     *
2300:Generated_Source\PSoC5/CyLib.c ****     * Theory:
2301:Generated_Source\PSoC5/CyLib.c ****     *  Any value other than zero is acceptable.
2302:Generated_Source\PSoC5/CyLib.c ****     *
2303:Generated_Source\PSoC5/CyLib.c ****     *******************************************************************************/
ARM GAS  C:\Users\jens-\AppData\Local\Temp\ccdWTNhT.s 			page 123


2304:Generated_Source\PSoC5/CyLib.c ****     CY_ISR(IntDefaultHandler)
2305:Generated_Source\PSoC5/CyLib.c ****     {
2306:Generated_Source\PSoC5/CyLib.c ****         #ifdef CY_BOOT_INT_DEFAULT_HANDLER_EXCEPTION_ENTRY_CALLBACK
2307:Generated_Source\PSoC5/CyLib.c ****             CyBoot_IntDefaultHandler_Exception_EntryCallback();
2308:Generated_Source\PSoC5/CyLib.c ****         #endif /* CY_BOOT_INT_DEFAULT_HANDLER_EXCEPTION_ENTRY_CALLBACK */
2309:Generated_Source\PSoC5/CyLib.c **** 
2310:Generated_Source\PSoC5/CyLib.c ****         while(1)
2311:Generated_Source\PSoC5/CyLib.c ****         {
2312:Generated_Source\PSoC5/CyLib.c ****             /***********************************************************************
2313:Generated_Source\PSoC5/CyLib.c ****             * We must not get here. If we do, a serious problem occurs, so go
2314:Generated_Source\PSoC5/CyLib.c ****             * into an infinite loop.
2315:Generated_Source\PSoC5/CyLib.c ****             ***********************************************************************/
2316:Generated_Source\PSoC5/CyLib.c ****         }
2317:Generated_Source\PSoC5/CyLib.c ****     }
2318:Generated_Source\PSoC5/CyLib.c **** 
2319:Generated_Source\PSoC5/CyLib.c **** 
2320:Generated_Source\PSoC5/CyLib.c ****     /*******************************************************************************
2321:Generated_Source\PSoC5/CyLib.c ****     * Function Name: IntDefaultHandler
2322:Generated_Source\PSoC5/CyLib.c ****     ****************************************************************************//**
2323:Generated_Source\PSoC5/CyLib.c ****     *
2324:Generated_Source\PSoC5/CyLib.c ****     *  This function is called during startup to initialize interrupt address vector
2325:Generated_Source\PSoC5/CyLib.c ****     *  registers with the address of the IntDefaultHandler().
2326:Generated_Source\PSoC5/CyLib.c ****     *
2327:Generated_Source\PSoC5/CyLib.c ****     *******************************************************************************/
2328:Generated_Source\PSoC5/CyLib.c ****     void CyIntInitVectors(void) 
2329:Generated_Source\PSoC5/CyLib.c ****     {
2330:Generated_Source\PSoC5/CyLib.c ****         uint8 i;
2331:Generated_Source\PSoC5/CyLib.c **** 
2332:Generated_Source\PSoC5/CyLib.c ****         for (i = 0; i <= CY_INT_NUMBER_MAX; i++)
2333:Generated_Source\PSoC5/CyLib.c ****         {
2334:Generated_Source\PSoC5/CyLib.c ****             CY_SET_REG16(&CY_INT_VECT_TABLE[i], (uint16) &IntDefaultHandler);
2335:Generated_Source\PSoC5/CyLib.c ****         }
2336:Generated_Source\PSoC5/CyLib.c ****     }
2337:Generated_Source\PSoC5/CyLib.c **** 
2338:Generated_Source\PSoC5/CyLib.c **** 
2339:Generated_Source\PSoC5/CyLib.c ****     /*******************************************************************************
2340:Generated_Source\PSoC5/CyLib.c ****     * Function Name: CyIntSetVector
2341:Generated_Source\PSoC5/CyLib.c ****     ****************************************************************************//**
2342:Generated_Source\PSoC5/CyLib.c ****     *
2343:Generated_Source\PSoC5/CyLib.c ****     *  Sets the interrupt vector of the specified interrupt number.
2344:Generated_Source\PSoC5/CyLib.c ****     *
2345:Generated_Source\PSoC5/CyLib.c ****     *  \param number:  Valid range [0-31].  Interrupt number
2346:Generated_Source\PSoC5/CyLib.c ****     *  \param address: Pointer to an interrupt service routine
2347:Generated_Source\PSoC5/CyLib.c ****     *
2348:Generated_Source\PSoC5/CyLib.c ****     * \return
2349:Generated_Source\PSoC5/CyLib.c ****     *  Previous interrupt vector value.
2350:Generated_Source\PSoC5/CyLib.c ****     *
2351:Generated_Source\PSoC5/CyLib.c ****     *******************************************************************************/
2352:Generated_Source\PSoC5/CyLib.c ****     cyisraddress CyIntSetVector(uint8 number, cyisraddress address) 
2353:Generated_Source\PSoC5/CyLib.c ****     {
2354:Generated_Source\PSoC5/CyLib.c ****         cyisraddress oldIsr;
2355:Generated_Source\PSoC5/CyLib.c **** 
2356:Generated_Source\PSoC5/CyLib.c ****         CYASSERT(number <= CY_INT_NUMBER_MAX);
2357:Generated_Source\PSoC5/CyLib.c **** 
2358:Generated_Source\PSoC5/CyLib.c ****         /* Save old Interrupt service routine. */
2359:Generated_Source\PSoC5/CyLib.c ****         oldIsr = (cyisraddress) \
2360:Generated_Source\PSoC5/CyLib.c ****                     CY_GET_REG16(&CY_INT_VECT_TABLE[number & CY_INT_NUMBER_MASK]);
ARM GAS  C:\Users\jens-\AppData\Local\Temp\ccdWTNhT.s 			page 124


2361:Generated_Source\PSoC5/CyLib.c **** 
2362:Generated_Source\PSoC5/CyLib.c ****         /* Set new Interrupt service routine. */
2363:Generated_Source\PSoC5/CyLib.c ****         CY_SET_REG16(&CY_INT_VECT_TABLE[number], (uint16) address);
2364:Generated_Source\PSoC5/CyLib.c **** 
2365:Generated_Source\PSoC5/CyLib.c ****         return (oldIsr);
2366:Generated_Source\PSoC5/CyLib.c ****     }
2367:Generated_Source\PSoC5/CyLib.c **** 
2368:Generated_Source\PSoC5/CyLib.c **** 
2369:Generated_Source\PSoC5/CyLib.c ****     /*******************************************************************************
2370:Generated_Source\PSoC5/CyLib.c ****     * Function Name: CyIntGetVector
2371:Generated_Source\PSoC5/CyLib.c ****     ****************************************************************************//**
2372:Generated_Source\PSoC5/CyLib.c ****     *
2373:Generated_Source\PSoC5/CyLib.c ****     *  Gets the interrupt vector of the specified interrupt number.
2374:Generated_Source\PSoC5/CyLib.c ****     *
2375:Generated_Source\PSoC5/CyLib.c ****     *  \param number: Valid range [0-31].  Interrupt number
2376:Generated_Source\PSoC5/CyLib.c ****     *
2377:Generated_Source\PSoC5/CyLib.c ****     * \return
2378:Generated_Source\PSoC5/CyLib.c ****     *  Address of the ISR in the interrupt vector table.
2379:Generated_Source\PSoC5/CyLib.c ****     *
2380:Generated_Source\PSoC5/CyLib.c ****     *******************************************************************************/
2381:Generated_Source\PSoC5/CyLib.c ****     cyisraddress CyIntGetVector(uint8 number) 
2382:Generated_Source\PSoC5/CyLib.c ****     {
2383:Generated_Source\PSoC5/CyLib.c ****         CYASSERT(number <= CY_INT_NUMBER_MAX);
2384:Generated_Source\PSoC5/CyLib.c **** 
2385:Generated_Source\PSoC5/CyLib.c ****         return ((cyisraddress) \
2386:Generated_Source\PSoC5/CyLib.c ****                 CY_GET_REG16(&CY_INT_VECT_TABLE[number & CY_INT_NUMBER_MASK]));
2387:Generated_Source\PSoC5/CyLib.c ****     }
2388:Generated_Source\PSoC5/CyLib.c **** 
2389:Generated_Source\PSoC5/CyLib.c **** 
2390:Generated_Source\PSoC5/CyLib.c ****     /*******************************************************************************
2391:Generated_Source\PSoC5/CyLib.c ****     * Function Name: CyIntSetPriority
2392:Generated_Source\PSoC5/CyLib.c ****     ****************************************************************************//**
2393:Generated_Source\PSoC5/CyLib.c ****     *
2394:Generated_Source\PSoC5/CyLib.c ****     *  Sets the Priority of the Interrupt.
2395:Generated_Source\PSoC5/CyLib.c ****     *
2396:Generated_Source\PSoC5/CyLib.c ****     *  \param priority: Priority of the interrupt. 0 - 7, 0 being the highest.
2397:Generated_Source\PSoC5/CyLib.c ****     *  \param number:   The number of the interrupt, 0 - 31.
2398:Generated_Source\PSoC5/CyLib.c ****     *
2399:Generated_Source\PSoC5/CyLib.c ****     *******************************************************************************/
2400:Generated_Source\PSoC5/CyLib.c ****     void CyIntSetPriority(uint8 number, uint8 priority) 
2401:Generated_Source\PSoC5/CyLib.c ****     {
2402:Generated_Source\PSoC5/CyLib.c ****         CYASSERT(priority <= CY_INT_PRIORITY_MAX);
2403:Generated_Source\PSoC5/CyLib.c **** 
2404:Generated_Source\PSoC5/CyLib.c ****         CYASSERT(number <= CY_INT_NUMBER_MAX);
2405:Generated_Source\PSoC5/CyLib.c **** 
2406:Generated_Source\PSoC5/CyLib.c ****         CY_INT_PRIORITY_PTR[number & CY_INT_NUMBER_MASK] =
2407:Generated_Source\PSoC5/CyLib.c ****                     (priority & CY_INT_PRIORITY_MASK) << 5;
2408:Generated_Source\PSoC5/CyLib.c ****     }
2409:Generated_Source\PSoC5/CyLib.c **** 
2410:Generated_Source\PSoC5/CyLib.c **** 
2411:Generated_Source\PSoC5/CyLib.c ****     /*******************************************************************************
2412:Generated_Source\PSoC5/CyLib.c ****     * Function Name: CyIntGetPriority
2413:Generated_Source\PSoC5/CyLib.c ****     ****************************************************************************//**
2414:Generated_Source\PSoC5/CyLib.c ****     *
2415:Generated_Source\PSoC5/CyLib.c ****     *  Gets the Priority of the Interrupt.
2416:Generated_Source\PSoC5/CyLib.c ****     *
2417:Generated_Source\PSoC5/CyLib.c ****     *  \param number: The number of the interrupt, 0 - 31.
ARM GAS  C:\Users\jens-\AppData\Local\Temp\ccdWTNhT.s 			page 125


2418:Generated_Source\PSoC5/CyLib.c ****     *
2419:Generated_Source\PSoC5/CyLib.c ****     * \return
2420:Generated_Source\PSoC5/CyLib.c ****     *  Priority of the interrupt. 0 - 7, 0 being the highest.
2421:Generated_Source\PSoC5/CyLib.c ****     *
2422:Generated_Source\PSoC5/CyLib.c ****     *******************************************************************************/
2423:Generated_Source\PSoC5/CyLib.c ****     uint8 CyIntGetPriority(uint8 number) 
2424:Generated_Source\PSoC5/CyLib.c ****     {
2425:Generated_Source\PSoC5/CyLib.c ****         uint8 priority;
2426:Generated_Source\PSoC5/CyLib.c **** 
2427:Generated_Source\PSoC5/CyLib.c ****         CYASSERT(number <= CY_INT_NUMBER_MAX);
2428:Generated_Source\PSoC5/CyLib.c **** 
2429:Generated_Source\PSoC5/CyLib.c ****         priority = CY_INT_PRIORITY_PTR[number & CY_INT_NUMBER_MASK] >> 5;
2430:Generated_Source\PSoC5/CyLib.c **** 
2431:Generated_Source\PSoC5/CyLib.c ****         return (priority);
2432:Generated_Source\PSoC5/CyLib.c ****     }
2433:Generated_Source\PSoC5/CyLib.c **** 
2434:Generated_Source\PSoC5/CyLib.c **** 
2435:Generated_Source\PSoC5/CyLib.c ****     /*******************************************************************************
2436:Generated_Source\PSoC5/CyLib.c ****     * Function Name: CyIntGetState
2437:Generated_Source\PSoC5/CyLib.c ****     ****************************************************************************//**
2438:Generated_Source\PSoC5/CyLib.c ****     *
2439:Generated_Source\PSoC5/CyLib.c ****     *   Gets the enable state of the specified interrupt number.
2440:Generated_Source\PSoC5/CyLib.c ****     *
2441:Generated_Source\PSoC5/CyLib.c ****     *   \param number: Valid range [0-31].  Interrupt number.
2442:Generated_Source\PSoC5/CyLib.c ****     *
2443:Generated_Source\PSoC5/CyLib.c ****     * \return
2444:Generated_Source\PSoC5/CyLib.c ****     *   Enable status: 1 if enabled, 0 if disabled
2445:Generated_Source\PSoC5/CyLib.c ****     *
2446:Generated_Source\PSoC5/CyLib.c ****     *******************************************************************************/
2447:Generated_Source\PSoC5/CyLib.c ****     uint8 CyIntGetState(uint8 number) 
2448:Generated_Source\PSoC5/CyLib.c ****     {
2449:Generated_Source\PSoC5/CyLib.c ****         reg8 * stateReg;
2450:Generated_Source\PSoC5/CyLib.c **** 
2451:Generated_Source\PSoC5/CyLib.c ****         CYASSERT(number <= CY_INT_NUMBER_MAX);
2452:Generated_Source\PSoC5/CyLib.c **** 
2453:Generated_Source\PSoC5/CyLib.c ****         /* Get pointer to Interrupt enable register. */
2454:Generated_Source\PSoC5/CyLib.c ****         stateReg = CY_INT_ENABLE_PTR + ((number & CY_INT_NUMBER_MASK) >> 3u);
2455:Generated_Source\PSoC5/CyLib.c **** 
2456:Generated_Source\PSoC5/CyLib.c ****         /* Get state of interrupt. */
2457:Generated_Source\PSoC5/CyLib.c ****         return ((0u != (*stateReg & ((uint8)(1u << (0x07u & number))))) ? ((uint8)(1u)) : ((uint8)(
2458:Generated_Source\PSoC5/CyLib.c ****     }
2459:Generated_Source\PSoC5/CyLib.c **** 
2460:Generated_Source\PSoC5/CyLib.c **** #endif  /* (CY_PSOC5) */
2461:Generated_Source\PSoC5/CyLib.c **** 
2462:Generated_Source\PSoC5/CyLib.c **** 
2463:Generated_Source\PSoC5/CyLib.c **** #if(CYDEV_VARIABLE_VDDA == 1)
2464:Generated_Source\PSoC5/CyLib.c **** 
2465:Generated_Source\PSoC5/CyLib.c ****     /*******************************************************************************
2466:Generated_Source\PSoC5/CyLib.c ****     * Function Name: CySetScPumps
2467:Generated_Source\PSoC5/CyLib.c ****     ****************************************************************************//**
2468:Generated_Source\PSoC5/CyLib.c ****     *
2469:Generated_Source\PSoC5/CyLib.c ****     *  If 1 is passed as a parameter:
2470:Generated_Source\PSoC5/CyLib.c ****     *   - if any of the SC blocks are used - enable pumps for the SC blocks and
2471:Generated_Source\PSoC5/CyLib.c ****     *     start boost clock.
2472:Generated_Source\PSoC5/CyLib.c ****     *   - For each enabled SC block set a boost clock index and enable the boost
2473:Generated_Source\PSoC5/CyLib.c ****     *     clock.
2474:Generated_Source\PSoC5/CyLib.c ****     *
ARM GAS  C:\Users\jens-\AppData\Local\Temp\ccdWTNhT.s 			page 126


2475:Generated_Source\PSoC5/CyLib.c ****     *  If non-1 value is passed as a parameter:
2476:Generated_Source\PSoC5/CyLib.c ****     *   - If all SC blocks are not used - disable pumps for the SC blocks and
2477:Generated_Source\PSoC5/CyLib.c ****     *     stop the boost clock.
2478:Generated_Source\PSoC5/CyLib.c ****     *   - For each enabled SC block clear the boost clock index and disable the
2479:Generated_Source\PSoC5/CyLib.c ****     *     boost clock.
2480:Generated_Source\PSoC5/CyLib.c ****     *
2481:Generated_Source\PSoC5/CyLib.c ****     *  The global variable CyScPumpEnabled is updated to be equal to passed the
2482:Generated_Source\PSoC5/CyLib.c ****     *  parameter.
2483:Generated_Source\PSoC5/CyLib.c ****     *
2484:Generated_Source\PSoC5/CyLib.c ****     *   \param uint8 enable: Enable/disable SC pumps and the boost clock for the enabled
2485:Generated_Source\PSoC5/CyLib.c ****     *                 \param SC block:
2486:Generated_Source\PSoC5/CyLib.c ****     *                 1 - Enable
2487:Generated_Source\PSoC5/CyLib.c ****     *                 0 - Disable
2488:Generated_Source\PSoC5/CyLib.c ****     *
2489:Generated_Source\PSoC5/CyLib.c ****     *******************************************************************************/
2490:Generated_Source\PSoC5/CyLib.c ****     void CySetScPumps(uint8 enable) 
2491:Generated_Source\PSoC5/CyLib.c ****     {
2492:Generated_Source\PSoC5/CyLib.c ****         if(1u == enable)
2493:Generated_Source\PSoC5/CyLib.c ****         {
2494:Generated_Source\PSoC5/CyLib.c ****             /* The SC pumps should be enabled */
2495:Generated_Source\PSoC5/CyLib.c ****             CyScPumpEnabled = 1u;
2496:Generated_Source\PSoC5/CyLib.c ****             /* Enable pumps if any of SC blocks are used */
2497:Generated_Source\PSoC5/CyLib.c ****             if(0u != (CY_LIB_ACT_CFG9_REG & CY_LIB_ACT_CFG9_SWCAPS_MASK))
2498:Generated_Source\PSoC5/CyLib.c ****             {
2499:Generated_Source\PSoC5/CyLib.c ****                 CY_LIB_SC_MISC_REG |= CY_LIB_SC_MISC_PUMP_FORCE;
2500:Generated_Source\PSoC5/CyLib.c ****                 CyScBoostClk_Start();
2501:Generated_Source\PSoC5/CyLib.c ****             }
2502:Generated_Source\PSoC5/CyLib.c ****             /* Set positive pump for each enabled SC block: set clock index and enable it */
2503:Generated_Source\PSoC5/CyLib.c ****             if(0u != (CY_LIB_ACT_CFG9_REG & CY_LIB_ACT_CFG9_SWCAP0_EN))
2504:Generated_Source\PSoC5/CyLib.c ****             {
2505:Generated_Source\PSoC5/CyLib.c ****                 CY_LIB_SC0_BST_REG = (CY_LIB_SC0_BST_REG & CY_LIB_SC_BST_CLK_INDEX_MASK) | CyScBoos
2506:Generated_Source\PSoC5/CyLib.c ****                 CY_LIB_SC0_BST_REG |= CY_LIB_SC_BST_CLK_EN;
2507:Generated_Source\PSoC5/CyLib.c ****             }
2508:Generated_Source\PSoC5/CyLib.c ****             if(0u != (CY_LIB_ACT_CFG9_REG & CY_LIB_ACT_CFG9_SWCAP1_EN))
2509:Generated_Source\PSoC5/CyLib.c ****             {
2510:Generated_Source\PSoC5/CyLib.c ****                 CY_LIB_SC1_BST_REG = (CY_LIB_SC1_BST_REG & CY_LIB_SC_BST_CLK_INDEX_MASK) | CyScBoos
2511:Generated_Source\PSoC5/CyLib.c ****                 CY_LIB_SC1_BST_REG |= CY_LIB_SC_BST_CLK_EN;
2512:Generated_Source\PSoC5/CyLib.c ****             }
2513:Generated_Source\PSoC5/CyLib.c ****             if(0u != (CY_LIB_ACT_CFG9_REG & CY_LIB_ACT_CFG9_SWCAP2_EN))
2514:Generated_Source\PSoC5/CyLib.c ****             {
2515:Generated_Source\PSoC5/CyLib.c ****                 CY_LIB_SC2_BST_REG = (CY_LIB_SC2_BST_REG & CY_LIB_SC_BST_CLK_INDEX_MASK) | CyScBoos
2516:Generated_Source\PSoC5/CyLib.c ****                 CY_LIB_SC2_BST_REG |= CY_LIB_SC_BST_CLK_EN;
2517:Generated_Source\PSoC5/CyLib.c ****             }
2518:Generated_Source\PSoC5/CyLib.c ****             if(0u != (CY_LIB_ACT_CFG9_REG & CY_LIB_ACT_CFG9_SWCAP3_EN))
2519:Generated_Source\PSoC5/CyLib.c ****             {
2520:Generated_Source\PSoC5/CyLib.c ****                 CY_LIB_SC3_BST_REG = (CY_LIB_SC3_BST_REG & CY_LIB_SC_BST_CLK_INDEX_MASK) | CyScBoos
2521:Generated_Source\PSoC5/CyLib.c ****                 CY_LIB_SC3_BST_REG |= CY_LIB_SC_BST_CLK_EN;
2522:Generated_Source\PSoC5/CyLib.c ****             }
2523:Generated_Source\PSoC5/CyLib.c ****         }
2524:Generated_Source\PSoC5/CyLib.c ****         else
2525:Generated_Source\PSoC5/CyLib.c ****         {
2526:Generated_Source\PSoC5/CyLib.c ****             /* The SC pumps should be disabled */
2527:Generated_Source\PSoC5/CyLib.c ****             CyScPumpEnabled = 0u;
2528:Generated_Source\PSoC5/CyLib.c ****             /* Disable pumps for all SC blocks and stop boost clock */
2529:Generated_Source\PSoC5/CyLib.c ****             CY_LIB_SC_MISC_REG &= ((uint8)(~CY_LIB_SC_MISC_PUMP_FORCE));
2530:Generated_Source\PSoC5/CyLib.c ****             CyScBoostClk_Stop();
2531:Generated_Source\PSoC5/CyLib.c ****             /* Disable boost clock and clear clock index for each SC block */
ARM GAS  C:\Users\jens-\AppData\Local\Temp\ccdWTNhT.s 			page 127


2532:Generated_Source\PSoC5/CyLib.c ****             CY_LIB_SC0_BST_REG &= ((uint8)(~CY_LIB_SC_BST_CLK_EN));
2533:Generated_Source\PSoC5/CyLib.c ****             CY_LIB_SC0_BST_REG = CY_LIB_SC0_BST_REG & CY_LIB_SC_BST_CLK_INDEX_MASK;
2534:Generated_Source\PSoC5/CyLib.c ****             CY_LIB_SC1_BST_REG &= ((uint8)(~CY_LIB_SC_BST_CLK_EN));
2535:Generated_Source\PSoC5/CyLib.c ****             CY_LIB_SC1_BST_REG = CY_LIB_SC1_BST_REG & CY_LIB_SC_BST_CLK_INDEX_MASK;
2536:Generated_Source\PSoC5/CyLib.c ****             CY_LIB_SC2_BST_REG &= ((uint8)(~CY_LIB_SC_BST_CLK_EN));
2537:Generated_Source\PSoC5/CyLib.c ****             CY_LIB_SC2_BST_REG = CY_LIB_SC2_BST_REG & CY_LIB_SC_BST_CLK_INDEX_MASK;
2538:Generated_Source\PSoC5/CyLib.c ****             CY_LIB_SC3_BST_REG &= ((uint8)(~CY_LIB_SC_BST_CLK_EN));
2539:Generated_Source\PSoC5/CyLib.c ****             CY_LIB_SC3_BST_REG = CY_LIB_SC3_BST_REG & CY_LIB_SC_BST_CLK_INDEX_MASK;
2540:Generated_Source\PSoC5/CyLib.c ****         }
2541:Generated_Source\PSoC5/CyLib.c ****     }
2542:Generated_Source\PSoC5/CyLib.c **** 
2543:Generated_Source\PSoC5/CyLib.c **** #endif  /* (CYDEV_VARIABLE_VDDA == 1) */
2544:Generated_Source\PSoC5/CyLib.c **** 
2545:Generated_Source\PSoC5/CyLib.c **** 
2546:Generated_Source\PSoC5/CyLib.c **** #if(CY_PSOC5)
2547:Generated_Source\PSoC5/CyLib.c ****     /*******************************************************************************
2548:Generated_Source\PSoC5/CyLib.c ****     * Function Name: CySysTickStart
2549:Generated_Source\PSoC5/CyLib.c ****     ****************************************************************************//**
2550:Generated_Source\PSoC5/CyLib.c ****     *
2551:Generated_Source\PSoC5/CyLib.c ****     *  Configures the SysTick timer to generate interrupt every 1 ms by call to the
2552:Generated_Source\PSoC5/CyLib.c ****     *  CySysTickInit() function and starts it by calling CySysTickEnable() function.
2553:Generated_Source\PSoC5/CyLib.c ****     *  Refer to the corresponding function description for the details.
2554:Generated_Source\PSoC5/CyLib.c **** 
2555:Generated_Source\PSoC5/CyLib.c ****     * \sideeffect
2556:Generated_Source\PSoC5/CyLib.c ****     *  Clears SysTick count flag if it was set
2557:Generated_Source\PSoC5/CyLib.c ****     *
2558:Generated_Source\PSoC5/CyLib.c ****     *******************************************************************************/
2559:Generated_Source\PSoC5/CyLib.c ****     void CySysTickStart(void)
2560:Generated_Source\PSoC5/CyLib.c ****     {
2561:Generated_Source\PSoC5/CyLib.c ****         if (0u == CySysTickInitVar)
2562:Generated_Source\PSoC5/CyLib.c ****         {
2563:Generated_Source\PSoC5/CyLib.c ****             CySysTickInit();
2564:Generated_Source\PSoC5/CyLib.c ****             CySysTickInitVar = 1u;
2565:Generated_Source\PSoC5/CyLib.c ****         }
2566:Generated_Source\PSoC5/CyLib.c **** 
2567:Generated_Source\PSoC5/CyLib.c ****         CySysTickEnable();
2568:Generated_Source\PSoC5/CyLib.c ****     }
2569:Generated_Source\PSoC5/CyLib.c **** 
2570:Generated_Source\PSoC5/CyLib.c **** 
2571:Generated_Source\PSoC5/CyLib.c ****     /*******************************************************************************
2572:Generated_Source\PSoC5/CyLib.c ****     * Function Name: CySysTickInit
2573:Generated_Source\PSoC5/CyLib.c ****     ****************************************************************************//**
2574:Generated_Source\PSoC5/CyLib.c ****     *
2575:Generated_Source\PSoC5/CyLib.c ****     *  Initializes the callback addresses with pointers to NULL, associates the
2576:Generated_Source\PSoC5/CyLib.c ****     *  SysTick system vector with the function that is responsible for calling
2577:Generated_Source\PSoC5/CyLib.c ****     *  registered callback functions, configures SysTick timer to generate interrupt
2578:Generated_Source\PSoC5/CyLib.c ****     * every 1 ms.
2579:Generated_Source\PSoC5/CyLib.c ****     *
2580:Generated_Source\PSoC5/CyLib.c ****     * \sideeffect
2581:Generated_Source\PSoC5/CyLib.c ****     *  Clears SysTick count flag if it was set.
2582:Generated_Source\PSoC5/CyLib.c ****     *
2583:Generated_Source\PSoC5/CyLib.c ****     *  The 1 ms interrupt interval is configured based on the frequency determined
2584:Generated_Source\PSoC5/CyLib.c ****     *  by PSoC Creator at build time. If System clock frequency is changed in
2585:Generated_Source\PSoC5/CyLib.c ****     *  runtime, the CyDelayFreq() with the appropriate parameter should be called.
2586:Generated_Source\PSoC5/CyLib.c ****     *
2587:Generated_Source\PSoC5/CyLib.c ****     *******************************************************************************/
2588:Generated_Source\PSoC5/CyLib.c ****     void CySysTickInit(void)
ARM GAS  C:\Users\jens-\AppData\Local\Temp\ccdWTNhT.s 			page 128


2589:Generated_Source\PSoC5/CyLib.c ****     {
2590:Generated_Source\PSoC5/CyLib.c ****         uint32 i;
2591:Generated_Source\PSoC5/CyLib.c **** 
2592:Generated_Source\PSoC5/CyLib.c ****         for (i = 0u; i<CY_SYS_SYST_NUM_OF_CALLBACKS; i++)
2593:Generated_Source\PSoC5/CyLib.c ****         {
2594:Generated_Source\PSoC5/CyLib.c ****             CySysTickCallbacks[i] = (void *) 0;
2595:Generated_Source\PSoC5/CyLib.c ****         }
2596:Generated_Source\PSoC5/CyLib.c **** 
2597:Generated_Source\PSoC5/CyLib.c ****         (void) CyIntSetSysVector(CY_INT_SYSTICK_IRQN, &CySysTickServiceCallbacks);
2598:Generated_Source\PSoC5/CyLib.c ****         CySysTickSetClockSource(CY_SYS_SYST_CSR_CLK_SRC_SYSCLK);
2599:Generated_Source\PSoC5/CyLib.c ****         CySysTickSetReload(cydelay_freq_hz/1000u);
2600:Generated_Source\PSoC5/CyLib.c ****         CySysTickClear();
2601:Generated_Source\PSoC5/CyLib.c ****         CyIntEnable(CY_INT_SYSTICK_IRQN);
2602:Generated_Source\PSoC5/CyLib.c ****     }
2603:Generated_Source\PSoC5/CyLib.c **** 
2604:Generated_Source\PSoC5/CyLib.c **** 
2605:Generated_Source\PSoC5/CyLib.c ****     /*******************************************************************************
2606:Generated_Source\PSoC5/CyLib.c ****     * Function Name: CySysTickEnable
2607:Generated_Source\PSoC5/CyLib.c ****     ****************************************************************************//**
2608:Generated_Source\PSoC5/CyLib.c ****     *
2609:Generated_Source\PSoC5/CyLib.c ****     *  Enables the SysTick timer and its interrupt.
2610:Generated_Source\PSoC5/CyLib.c ****     *
2611:Generated_Source\PSoC5/CyLib.c ****     * \sideeffect
2612:Generated_Source\PSoC5/CyLib.c ****     *  Clears SysTick count flag if it was set
2613:Generated_Source\PSoC5/CyLib.c ****     *
2614:Generated_Source\PSoC5/CyLib.c ****     *******************************************************************************/
2615:Generated_Source\PSoC5/CyLib.c ****     void CySysTickEnable(void)
2616:Generated_Source\PSoC5/CyLib.c ****     {
2617:Generated_Source\PSoC5/CyLib.c ****         CySysTickEnableInterrupt();
2618:Generated_Source\PSoC5/CyLib.c ****         CY_SYS_SYST_CSR_REG |= CY_SYS_SYST_CSR_ENABLE;
2619:Generated_Source\PSoC5/CyLib.c ****     }
2620:Generated_Source\PSoC5/CyLib.c **** 
2621:Generated_Source\PSoC5/CyLib.c **** 
2622:Generated_Source\PSoC5/CyLib.c ****     /*******************************************************************************
2623:Generated_Source\PSoC5/CyLib.c ****     * Function Name: CySysTickStop
2624:Generated_Source\PSoC5/CyLib.c ****     ****************************************************************************//**
2625:Generated_Source\PSoC5/CyLib.c ****     *
2626:Generated_Source\PSoC5/CyLib.c ****     *  Stops the system timer (SysTick).
2627:Generated_Source\PSoC5/CyLib.c ****     *
2628:Generated_Source\PSoC5/CyLib.c ****     * \sideeffect
2629:Generated_Source\PSoC5/CyLib.c ****     *  Clears SysTick count flag if it was set
2630:Generated_Source\PSoC5/CyLib.c ****     *
2631:Generated_Source\PSoC5/CyLib.c ****     *******************************************************************************/
2632:Generated_Source\PSoC5/CyLib.c ****     void CySysTickStop(void)
2633:Generated_Source\PSoC5/CyLib.c ****     {
 4062              		.loc 1 2633 5 is_stmt 1 view -0
 4063              		.cfi_startproc
 4064              		@ args = 0, pretend = 0, frame = 0
 4065              		@ frame_needed = 0, uses_anonymous_args = 0
 4066              		@ link register save eliminated.
2634:Generated_Source\PSoC5/CyLib.c ****         CY_SYS_SYST_CSR_REG &= ((uint32) ~(CY_SYS_SYST_CSR_ENABLE));
 4067              		.loc 1 2634 9 view .LVU997
 4068              		.loc 1 2634 29 is_stmt 0 view .LVU998
 4069 0000 024A     		ldr	r2, .L356
 4070 0002 1368     		ldr	r3, [r2]
 4071 0004 23F00103 		bic	r3, r3, #1
 4072 0008 1360     		str	r3, [r2]
ARM GAS  C:\Users\jens-\AppData\Local\Temp\ccdWTNhT.s 			page 129


2635:Generated_Source\PSoC5/CyLib.c ****     }
 4073              		.loc 1 2635 5 view .LVU999
 4074 000a 7047     		bx	lr
 4075              	.L357:
 4076              		.align	2
 4077              	.L356:
 4078 000c 10E000E0 		.word	-536813552
 4079              		.cfi_endproc
 4080              	.LFE67:
 4081              		.size	CySysTickStop, .-CySysTickStop
 4082              		.section	.text.CySysTickEnableInterrupt,"ax",%progbits
 4083              		.align	1
 4084              		.global	CySysTickEnableInterrupt
 4085              		.syntax unified
 4086              		.thumb
 4087              		.thumb_func
 4088              		.fpu softvfp
 4089              		.type	CySysTickEnableInterrupt, %function
 4090              	CySysTickEnableInterrupt:
 4091              	.LFB68:
2636:Generated_Source\PSoC5/CyLib.c **** 
2637:Generated_Source\PSoC5/CyLib.c **** 
2638:Generated_Source\PSoC5/CyLib.c ****     /*******************************************************************************
2639:Generated_Source\PSoC5/CyLib.c ****     * Function Name: CySysTickEnableInterrupt
2640:Generated_Source\PSoC5/CyLib.c ****     ****************************************************************************//**
2641:Generated_Source\PSoC5/CyLib.c ****     *
2642:Generated_Source\PSoC5/CyLib.c ****     *  Enables the SysTick interrupt.
2643:Generated_Source\PSoC5/CyLib.c ****     *
2644:Generated_Source\PSoC5/CyLib.c ****     * \sideeffect
2645:Generated_Source\PSoC5/CyLib.c ****     *  Clears SysTick count flag if it was set
2646:Generated_Source\PSoC5/CyLib.c ****     *
2647:Generated_Source\PSoC5/CyLib.c ****     *******************************************************************************/
2648:Generated_Source\PSoC5/CyLib.c ****     void CySysTickEnableInterrupt(void)
2649:Generated_Source\PSoC5/CyLib.c ****     {
 4092              		.loc 1 2649 5 is_stmt 1 view -0
 4093              		.cfi_startproc
 4094              		@ args = 0, pretend = 0, frame = 0
 4095              		@ frame_needed = 0, uses_anonymous_args = 0
 4096              		@ link register save eliminated.
2650:Generated_Source\PSoC5/CyLib.c ****         CY_SYS_SYST_CSR_REG |= CY_SYS_SYST_CSR_ENABLE_INT;
 4097              		.loc 1 2650 9 view .LVU1001
 4098              		.loc 1 2650 29 is_stmt 0 view .LVU1002
 4099 0000 024A     		ldr	r2, .L359
 4100 0002 1368     		ldr	r3, [r2]
 4101 0004 43F00203 		orr	r3, r3, #2
 4102 0008 1360     		str	r3, [r2]
2651:Generated_Source\PSoC5/CyLib.c ****     }
 4103              		.loc 1 2651 5 view .LVU1003
 4104 000a 7047     		bx	lr
 4105              	.L360:
 4106              		.align	2
 4107              	.L359:
 4108 000c 10E000E0 		.word	-536813552
 4109              		.cfi_endproc
 4110              	.LFE68:
 4111              		.size	CySysTickEnableInterrupt, .-CySysTickEnableInterrupt
 4112              		.section	.text.CySysTickEnable,"ax",%progbits
ARM GAS  C:\Users\jens-\AppData\Local\Temp\ccdWTNhT.s 			page 130


 4113              		.align	1
 4114              		.global	CySysTickEnable
 4115              		.syntax unified
 4116              		.thumb
 4117              		.thumb_func
 4118              		.fpu softvfp
 4119              		.type	CySysTickEnable, %function
 4120              	CySysTickEnable:
 4121              	.LFB66:
2616:Generated_Source\PSoC5/CyLib.c ****         CySysTickEnableInterrupt();
 4122              		.loc 1 2616 5 is_stmt 1 view -0
 4123              		.cfi_startproc
 4124              		@ args = 0, pretend = 0, frame = 0
 4125              		@ frame_needed = 0, uses_anonymous_args = 0
 4126 0000 08B5     		push	{r3, lr}
 4127              		.cfi_def_cfa_offset 8
 4128              		.cfi_offset 3, -8
 4129              		.cfi_offset 14, -4
2617:Generated_Source\PSoC5/CyLib.c ****         CY_SYS_SYST_CSR_REG |= CY_SYS_SYST_CSR_ENABLE;
 4130              		.loc 1 2617 9 view .LVU1005
 4131 0002 FFF7FEFF 		bl	CySysTickEnableInterrupt
 4132              	.LVL229:
2618:Generated_Source\PSoC5/CyLib.c ****     }
 4133              		.loc 1 2618 9 view .LVU1006
2618:Generated_Source\PSoC5/CyLib.c ****     }
 4134              		.loc 1 2618 29 is_stmt 0 view .LVU1007
 4135 0006 034A     		ldr	r2, .L363
 4136 0008 1368     		ldr	r3, [r2]
 4137 000a 43F00103 		orr	r3, r3, #1
 4138 000e 1360     		str	r3, [r2]
2619:Generated_Source\PSoC5/CyLib.c **** 
 4139              		.loc 1 2619 5 view .LVU1008
 4140 0010 08BD     		pop	{r3, pc}
 4141              	.L364:
 4142 0012 00BF     		.align	2
 4143              	.L363:
 4144 0014 10E000E0 		.word	-536813552
 4145              		.cfi_endproc
 4146              	.LFE66:
 4147              		.size	CySysTickEnable, .-CySysTickEnable
 4148              		.section	.text.CySysTickDisableInterrupt,"ax",%progbits
 4149              		.align	1
 4150              		.global	CySysTickDisableInterrupt
 4151              		.syntax unified
 4152              		.thumb
 4153              		.thumb_func
 4154              		.fpu softvfp
 4155              		.type	CySysTickDisableInterrupt, %function
 4156              	CySysTickDisableInterrupt:
 4157              	.LFB69:
2652:Generated_Source\PSoC5/CyLib.c **** 
2653:Generated_Source\PSoC5/CyLib.c **** 
2654:Generated_Source\PSoC5/CyLib.c ****     /*******************************************************************************
2655:Generated_Source\PSoC5/CyLib.c ****     * Function Name: CySysTickDisableInterrupt
2656:Generated_Source\PSoC5/CyLib.c ****     ****************************************************************************//**
2657:Generated_Source\PSoC5/CyLib.c ****     *
2658:Generated_Source\PSoC5/CyLib.c ****     *  Disables the SysTick interrupt.
ARM GAS  C:\Users\jens-\AppData\Local\Temp\ccdWTNhT.s 			page 131


2659:Generated_Source\PSoC5/CyLib.c ****     *
2660:Generated_Source\PSoC5/CyLib.c ****     * \sideeffect
2661:Generated_Source\PSoC5/CyLib.c ****     *  Clears SysTick count flag if it was set
2662:Generated_Source\PSoC5/CyLib.c ****     *
2663:Generated_Source\PSoC5/CyLib.c ****     *******************************************************************************/
2664:Generated_Source\PSoC5/CyLib.c ****     void CySysTickDisableInterrupt(void)
2665:Generated_Source\PSoC5/CyLib.c ****     {
 4158              		.loc 1 2665 5 is_stmt 1 view -0
 4159              		.cfi_startproc
 4160              		@ args = 0, pretend = 0, frame = 0
 4161              		@ frame_needed = 0, uses_anonymous_args = 0
 4162              		@ link register save eliminated.
2666:Generated_Source\PSoC5/CyLib.c ****         CY_SYS_SYST_CSR_REG &= ((uint32) ~(CY_SYS_SYST_CSR_ENABLE_INT));
 4163              		.loc 1 2666 9 view .LVU1010
 4164              		.loc 1 2666 29 is_stmt 0 view .LVU1011
 4165 0000 024A     		ldr	r2, .L366
 4166 0002 1368     		ldr	r3, [r2]
 4167 0004 23F00203 		bic	r3, r3, #2
 4168 0008 1360     		str	r3, [r2]
2667:Generated_Source\PSoC5/CyLib.c ****     }
 4169              		.loc 1 2667 5 view .LVU1012
 4170 000a 7047     		bx	lr
 4171              	.L367:
 4172              		.align	2
 4173              	.L366:
 4174 000c 10E000E0 		.word	-536813552
 4175              		.cfi_endproc
 4176              	.LFE69:
 4177              		.size	CySysTickDisableInterrupt, .-CySysTickDisableInterrupt
 4178              		.section	.text.CySysTickSetReload,"ax",%progbits
 4179              		.align	1
 4180              		.global	CySysTickSetReload
 4181              		.syntax unified
 4182              		.thumb
 4183              		.thumb_func
 4184              		.fpu softvfp
 4185              		.type	CySysTickSetReload, %function
 4186              	CySysTickSetReload:
 4187              	.LVL230:
 4188              	.LFB70:
2668:Generated_Source\PSoC5/CyLib.c **** 
2669:Generated_Source\PSoC5/CyLib.c **** 
2670:Generated_Source\PSoC5/CyLib.c ****     /*******************************************************************************
2671:Generated_Source\PSoC5/CyLib.c ****     * Function Name: CySysTickSetReload
2672:Generated_Source\PSoC5/CyLib.c ****     ****************************************************************************//**
2673:Generated_Source\PSoC5/CyLib.c ****     *
2674:Generated_Source\PSoC5/CyLib.c ****     *  Sets value the counter is set to on startup and after it reaches zero. This
2675:Generated_Source\PSoC5/CyLib.c ****     *  function do not change or reset current sysTick counter value, so it should
2676:Generated_Source\PSoC5/CyLib.c ****     *  be cleared using CySysTickClear() API.
2677:Generated_Source\PSoC5/CyLib.c ****     *
2678:Generated_Source\PSoC5/CyLib.c ****     *  \param value: Valid range [0x0-0x00FFFFFF]. Counter reset value.
2679:Generated_Source\PSoC5/CyLib.c ****     *
2680:Generated_Source\PSoC5/CyLib.c ****     *******************************************************************************/
2681:Generated_Source\PSoC5/CyLib.c ****     void CySysTickSetReload(uint32 value)
2682:Generated_Source\PSoC5/CyLib.c ****     {
 4189              		.loc 1 2682 5 is_stmt 1 view -0
 4190              		.cfi_startproc
ARM GAS  C:\Users\jens-\AppData\Local\Temp\ccdWTNhT.s 			page 132


 4191              		@ args = 0, pretend = 0, frame = 0
 4192              		@ frame_needed = 0, uses_anonymous_args = 0
 4193              		@ link register save eliminated.
2683:Generated_Source\PSoC5/CyLib.c ****         CY_SYS_SYST_RVR_REG = (value & CY_SYS_SYST_RVR_CNT_MASK);
 4194              		.loc 1 2683 9 view .LVU1014
 4195              		.loc 1 2683 38 is_stmt 0 view .LVU1015
 4196 0000 20F07F40 		bic	r0, r0, #-16777216
 4197              	.LVL231:
 4198              		.loc 1 2683 29 view .LVU1016
 4199 0004 014B     		ldr	r3, .L369
 4200 0006 1860     		str	r0, [r3]
2684:Generated_Source\PSoC5/CyLib.c ****     }
 4201              		.loc 1 2684 5 view .LVU1017
 4202 0008 7047     		bx	lr
 4203              	.L370:
 4204 000a 00BF     		.align	2
 4205              	.L369:
 4206 000c 14E000E0 		.word	-536813548
 4207              		.cfi_endproc
 4208              	.LFE70:
 4209              		.size	CySysTickSetReload, .-CySysTickSetReload
 4210              		.section	.text.CySysTickGetReload,"ax",%progbits
 4211              		.align	1
 4212              		.global	CySysTickGetReload
 4213              		.syntax unified
 4214              		.thumb
 4215              		.thumb_func
 4216              		.fpu softvfp
 4217              		.type	CySysTickGetReload, %function
 4218              	CySysTickGetReload:
 4219              	.LFB71:
2685:Generated_Source\PSoC5/CyLib.c **** 
2686:Generated_Source\PSoC5/CyLib.c **** 
2687:Generated_Source\PSoC5/CyLib.c ****     /*******************************************************************************
2688:Generated_Source\PSoC5/CyLib.c ****     * Function Name: CySysTickGetReload
2689:Generated_Source\PSoC5/CyLib.c ****     ****************************************************************************//**
2690:Generated_Source\PSoC5/CyLib.c ****     *
2691:Generated_Source\PSoC5/CyLib.c ****     *  Sets value the counter is set to on startup and after it reaches zero.
2692:Generated_Source\PSoC5/CyLib.c ****     *
2693:Generated_Source\PSoC5/CyLib.c ****     * \return
2694:Generated_Source\PSoC5/CyLib.c ****     *  Counter reset value
2695:Generated_Source\PSoC5/CyLib.c ****     *
2696:Generated_Source\PSoC5/CyLib.c ****     *******************************************************************************/
2697:Generated_Source\PSoC5/CyLib.c ****     uint32 CySysTickGetReload(void)
2698:Generated_Source\PSoC5/CyLib.c ****     {
 4220              		.loc 1 2698 5 is_stmt 1 view -0
 4221              		.cfi_startproc
 4222              		@ args = 0, pretend = 0, frame = 0
 4223              		@ frame_needed = 0, uses_anonymous_args = 0
 4224              		@ link register save eliminated.
2699:Generated_Source\PSoC5/CyLib.c ****         return(CY_SYS_SYST_RVR_REG & CY_SYS_SYST_RVR_CNT_MASK);
 4225              		.loc 1 2699 9 view .LVU1019
 4226              		.loc 1 2699 36 is_stmt 0 view .LVU1020
 4227 0000 024B     		ldr	r3, .L372
 4228 0002 1868     		ldr	r0, [r3]
2700:Generated_Source\PSoC5/CyLib.c ****     }
 4229              		.loc 1 2700 5 view .LVU1021
ARM GAS  C:\Users\jens-\AppData\Local\Temp\ccdWTNhT.s 			page 133


 4230 0004 20F07F40 		bic	r0, r0, #-16777216
 4231 0008 7047     		bx	lr
 4232              	.L373:
 4233 000a 00BF     		.align	2
 4234              	.L372:
 4235 000c 14E000E0 		.word	-536813548
 4236              		.cfi_endproc
 4237              	.LFE71:
 4238              		.size	CySysTickGetReload, .-CySysTickGetReload
 4239              		.section	.text.CySysTickGetValue,"ax",%progbits
 4240              		.align	1
 4241              		.global	CySysTickGetValue
 4242              		.syntax unified
 4243              		.thumb
 4244              		.thumb_func
 4245              		.fpu softvfp
 4246              		.type	CySysTickGetValue, %function
 4247              	CySysTickGetValue:
 4248              	.LFB72:
2701:Generated_Source\PSoC5/CyLib.c **** 
2702:Generated_Source\PSoC5/CyLib.c **** 
2703:Generated_Source\PSoC5/CyLib.c ****     /*******************************************************************************
2704:Generated_Source\PSoC5/CyLib.c ****     * Function Name: CySysTickGetValue
2705:Generated_Source\PSoC5/CyLib.c ****     ****************************************************************************//**
2706:Generated_Source\PSoC5/CyLib.c ****     *
2707:Generated_Source\PSoC5/CyLib.c ****     *  Gets current SysTick counter value.
2708:Generated_Source\PSoC5/CyLib.c ****     *
2709:Generated_Source\PSoC5/CyLib.c ****     * \return
2710:Generated_Source\PSoC5/CyLib.c ****     *  Current SysTick counter value
2711:Generated_Source\PSoC5/CyLib.c ****     *
2712:Generated_Source\PSoC5/CyLib.c ****     *******************************************************************************/
2713:Generated_Source\PSoC5/CyLib.c ****     uint32 CySysTickGetValue(void)
2714:Generated_Source\PSoC5/CyLib.c ****     {
 4249              		.loc 1 2714 5 is_stmt 1 view -0
 4250              		.cfi_startproc
 4251              		@ args = 0, pretend = 0, frame = 0
 4252              		@ frame_needed = 0, uses_anonymous_args = 0
 4253              		@ link register save eliminated.
2715:Generated_Source\PSoC5/CyLib.c ****         return(CY_SYS_SYST_CVR_REG & CY_SYS_SYST_CVR_CNT_MASK);
 4254              		.loc 1 2715 9 view .LVU1023
 4255              		.loc 1 2715 36 is_stmt 0 view .LVU1024
 4256 0000 024B     		ldr	r3, .L375
 4257 0002 1868     		ldr	r0, [r3]
2716:Generated_Source\PSoC5/CyLib.c ****     }
 4258              		.loc 1 2716 5 view .LVU1025
 4259 0004 20F07F40 		bic	r0, r0, #-16777216
 4260 0008 7047     		bx	lr
 4261              	.L376:
 4262 000a 00BF     		.align	2
 4263              	.L375:
 4264 000c 18E000E0 		.word	-536813544
 4265              		.cfi_endproc
 4266              	.LFE72:
 4267              		.size	CySysTickGetValue, .-CySysTickGetValue
 4268              		.section	.text.CySysTickSetClockSource,"ax",%progbits
 4269              		.align	1
 4270              		.global	CySysTickSetClockSource
ARM GAS  C:\Users\jens-\AppData\Local\Temp\ccdWTNhT.s 			page 134


 4271              		.syntax unified
 4272              		.thumb
 4273              		.thumb_func
 4274              		.fpu softvfp
 4275              		.type	CySysTickSetClockSource, %function
 4276              	CySysTickSetClockSource:
 4277              	.LVL232:
 4278              	.LFB73:
2717:Generated_Source\PSoC5/CyLib.c **** 
2718:Generated_Source\PSoC5/CyLib.c **** 
2719:Generated_Source\PSoC5/CyLib.c ****     /*******************************************************************************
2720:Generated_Source\PSoC5/CyLib.c ****     * Function Name: CySysTickSetClockSource
2721:Generated_Source\PSoC5/CyLib.c ****     ****************************************************************************//**
2722:Generated_Source\PSoC5/CyLib.c ****     *
2723:Generated_Source\PSoC5/CyLib.c ****     *  Sets the clock source for the SysTick counter.
2724:Generated_Source\PSoC5/CyLib.c ****     *
2725:Generated_Source\PSoC5/CyLib.c ****     *  \param clockSource: Clock source for SysTick counter
2726:Generated_Source\PSoC5/CyLib.c ****     *         Define                     Clock Source
2727:Generated_Source\PSoC5/CyLib.c ****     *   CY_SYS_SYST_CSR_CLK_SRC_SYSCLK     SysTick is clocked by CPU clock.
2728:Generated_Source\PSoC5/CyLib.c ****     *   CY_SYS_SYST_CSR_CLK_SRC_LFCLK      SysTick is clocked by the low frequency
2729:Generated_Source\PSoC5/CyLib.c ****     *                                      clock (ILO 100 KHz for PSoC 5LP, and
2730:Generated_Source\PSoC5/CyLib.c ****     *                                      LFCLK for PSoC 4).
2731:Generated_Source\PSoC5/CyLib.c ****     *
2732:Generated_Source\PSoC5/CyLib.c ****     * \sideeffect
2733:Generated_Source\PSoC5/CyLib.c ****     *  Clears SysTick count flag if it was set. If clock source is not ready this
2734:Generated_Source\PSoC5/CyLib.c ****     *  function call will have no effect. After changing clock source to the low
2735:Generated_Source\PSoC5/CyLib.c ****     *  frequency clock the counter and reload register values will remain unchanged
2736:Generated_Source\PSoC5/CyLib.c ****     *  so time to the interrupt will be significantly bigger and vice versa.
2737:Generated_Source\PSoC5/CyLib.c ****     *
2738:Generated_Source\PSoC5/CyLib.c ****     *******************************************************************************/
2739:Generated_Source\PSoC5/CyLib.c ****     void CySysTickSetClockSource(uint32 clockSource)
2740:Generated_Source\PSoC5/CyLib.c ****     {
 4279              		.loc 1 2740 5 is_stmt 1 view -0
 4280              		.cfi_startproc
 4281              		@ args = 0, pretend = 0, frame = 0
 4282              		@ frame_needed = 0, uses_anonymous_args = 0
 4283              		@ link register save eliminated.
2741:Generated_Source\PSoC5/CyLib.c ****         if (clockSource == CY_SYS_SYST_CSR_CLK_SRC_SYSCLK)
 4284              		.loc 1 2741 9 view .LVU1027
 4285              		.loc 1 2741 12 is_stmt 0 view .LVU1028
 4286 0000 0128     		cmp	r0, #1
 4287 0002 05D0     		beq	.L380
2742:Generated_Source\PSoC5/CyLib.c ****         {
2743:Generated_Source\PSoC5/CyLib.c ****             CY_SYS_SYST_CSR_REG |= (uint32)(CY_SYS_SYST_CSR_CLK_SRC_SYSCLK << CY_SYS_SYST_CSR_CLK_S
2744:Generated_Source\PSoC5/CyLib.c ****         }
2745:Generated_Source\PSoC5/CyLib.c ****         else
2746:Generated_Source\PSoC5/CyLib.c ****         {
2747:Generated_Source\PSoC5/CyLib.c ****             CY_SYS_SYST_CSR_REG &= ((uint32) ~((uint32)(CY_SYS_SYST_CSR_CLK_SRC_SYSCLK << CY_SYS_SY
 4288              		.loc 1 2747 13 is_stmt 1 view .LVU1029
 4289              		.loc 1 2747 33 is_stmt 0 view .LVU1030
 4290 0004 054A     		ldr	r2, .L381
 4291 0006 1368     		ldr	r3, [r2]
 4292 0008 23F00403 		bic	r3, r3, #4
 4293 000c 1360     		str	r3, [r2]
2748:Generated_Source\PSoC5/CyLib.c ****         }
2749:Generated_Source\PSoC5/CyLib.c ****     }
 4294              		.loc 1 2749 5 view .LVU1031
ARM GAS  C:\Users\jens-\AppData\Local\Temp\ccdWTNhT.s 			page 135


 4295 000e 7047     		bx	lr
 4296              	.L380:
2743:Generated_Source\PSoC5/CyLib.c ****         }
 4297              		.loc 1 2743 13 is_stmt 1 view .LVU1032
2743:Generated_Source\PSoC5/CyLib.c ****         }
 4298              		.loc 1 2743 33 is_stmt 0 view .LVU1033
 4299 0010 024A     		ldr	r2, .L381
 4300 0012 1368     		ldr	r3, [r2]
 4301 0014 43F00403 		orr	r3, r3, #4
 4302 0018 1360     		str	r3, [r2]
 4303 001a 7047     		bx	lr
 4304              	.L382:
 4305              		.align	2
 4306              	.L381:
 4307 001c 10E000E0 		.word	-536813552
 4308              		.cfi_endproc
 4309              	.LFE73:
 4310              		.size	CySysTickSetClockSource, .-CySysTickSetClockSource
 4311              		.section	.text.CySysTickGetClockSource,"ax",%progbits
 4312              		.align	1
 4313              		.global	CySysTickGetClockSource
 4314              		.syntax unified
 4315              		.thumb
 4316              		.thumb_func
 4317              		.fpu softvfp
 4318              		.type	CySysTickGetClockSource, %function
 4319              	CySysTickGetClockSource:
 4320              	.LFB74:
2750:Generated_Source\PSoC5/CyLib.c **** 
2751:Generated_Source\PSoC5/CyLib.c ****     
2752:Generated_Source\PSoC5/CyLib.c ****     /*******************************************************************************
2753:Generated_Source\PSoC5/CyLib.c ****     * Function Name: CySysTickGetClockSource
2754:Generated_Source\PSoC5/CyLib.c ****     ****************************************************************************//**
2755:Generated_Source\PSoC5/CyLib.c ****     *
2756:Generated_Source\PSoC5/CyLib.c ****     *  Returns the current clock source of the SysTick counter.
2757:Generated_Source\PSoC5/CyLib.c ****     *
2758:Generated_Source\PSoC5/CyLib.c ****     *  \return 
2759:Generated_Source\PSoC5/CyLib.c ****     *   CY_SYS_SYST_CSR_CLK_SRC_SYSCLK     SysTick is clocked by CPU clock.
2760:Generated_Source\PSoC5/CyLib.c ****     *   CY_SYS_SYST_CSR_CLK_SRC_LFCLK      SysTick is clocked by the low frequency
2761:Generated_Source\PSoC5/CyLib.c ****     *                                      clock. (ILO 100 KHz for PSoC 5LP, and
2762:Generated_Source\PSoC5/CyLib.c ****     *                                      LFCLK for PSoC 4).
2763:Generated_Source\PSoC5/CyLib.c ****     *******************************************************************************/
2764:Generated_Source\PSoC5/CyLib.c ****     uint32 CySysTickGetClockSource(void)
2765:Generated_Source\PSoC5/CyLib.c ****     {
 4321              		.loc 1 2765 5 is_stmt 1 view -0
 4322              		.cfi_startproc
 4323              		@ args = 0, pretend = 0, frame = 0
 4324              		@ frame_needed = 0, uses_anonymous_args = 0
 4325              		@ link register save eliminated.
2766:Generated_Source\PSoC5/CyLib.c ****         return ((CY_SYS_SYST_CSR_REG >> CY_SYS_SYST_CSR_CLK_SOURCE_SHIFT) & CY_SYS_SYST_CSR_CLK_SRC
 4326              		.loc 1 2766 9 view .LVU1035
 4327              		.loc 1 2766 18 is_stmt 0 view .LVU1036
 4328 0000 024B     		ldr	r3, .L384
 4329 0002 1868     		ldr	r0, [r3]
2767:Generated_Source\PSoC5/CyLib.c ****     }
 4330              		.loc 1 2767 5 view .LVU1037
 4331 0004 C0F38000 		ubfx	r0, r0, #2, #1
ARM GAS  C:\Users\jens-\AppData\Local\Temp\ccdWTNhT.s 			page 136


 4332 0008 7047     		bx	lr
 4333              	.L385:
 4334 000a 00BF     		.align	2
 4335              	.L384:
 4336 000c 10E000E0 		.word	-536813552
 4337              		.cfi_endproc
 4338              	.LFE74:
 4339              		.size	CySysTickGetClockSource, .-CySysTickGetClockSource
 4340              		.section	.text.CySysTickGetCountFlag,"ax",%progbits
 4341              		.align	1
 4342              		.global	CySysTickGetCountFlag
 4343              		.syntax unified
 4344              		.thumb
 4345              		.thumb_func
 4346              		.fpu softvfp
 4347              		.type	CySysTickGetCountFlag, %function
 4348              	CySysTickGetCountFlag:
 4349              	.LFB75:
2768:Generated_Source\PSoC5/CyLib.c **** 
2769:Generated_Source\PSoC5/CyLib.c ****     
2770:Generated_Source\PSoC5/CyLib.c ****     /*******************************************************************************
2771:Generated_Source\PSoC5/CyLib.c ****     * Function Name: CySysTickGetCountFlag
2772:Generated_Source\PSoC5/CyLib.c ****     ****************************************************************************//**
2773:Generated_Source\PSoC5/CyLib.c ****     *
2774:Generated_Source\PSoC5/CyLib.c ****     *  The count flag is set once SysTick counter reaches zero.
2775:Generated_Source\PSoC5/CyLib.c ****     *   The flag cleared on read.
2776:Generated_Source\PSoC5/CyLib.c ****     *
2777:Generated_Source\PSoC5/CyLib.c ****     * \return
2778:Generated_Source\PSoC5/CyLib.c ****     *  Returns non-zero value if flag is set, otherwise zero is returned.
2779:Generated_Source\PSoC5/CyLib.c ****     *
2780:Generated_Source\PSoC5/CyLib.c ****     *
2781:Generated_Source\PSoC5/CyLib.c ****     * \sideeffect
2782:Generated_Source\PSoC5/CyLib.c ****     *  Clears SysTick count flag if it was set.
2783:Generated_Source\PSoC5/CyLib.c ****     *
2784:Generated_Source\PSoC5/CyLib.c ****     *******************************************************************************/
2785:Generated_Source\PSoC5/CyLib.c ****     uint32 CySysTickGetCountFlag(void)
2786:Generated_Source\PSoC5/CyLib.c ****     {
 4350              		.loc 1 2786 5 is_stmt 1 view -0
 4351              		.cfi_startproc
 4352              		@ args = 0, pretend = 0, frame = 0
 4353              		@ frame_needed = 0, uses_anonymous_args = 0
 4354              		@ link register save eliminated.
2787:Generated_Source\PSoC5/CyLib.c ****         return ((CY_SYS_SYST_CSR_REG >> CY_SYS_SYST_CSR_COUNTFLAG_SHIFT) & 0x01u);
 4355              		.loc 1 2787 9 view .LVU1039
 4356              		.loc 1 2787 18 is_stmt 0 view .LVU1040
 4357 0000 024B     		ldr	r3, .L387
 4358 0002 1868     		ldr	r0, [r3]
2788:Generated_Source\PSoC5/CyLib.c ****     }
 4359              		.loc 1 2788 5 view .LVU1041
 4360 0004 C0F30040 		ubfx	r0, r0, #16, #1
 4361 0008 7047     		bx	lr
 4362              	.L388:
 4363 000a 00BF     		.align	2
 4364              	.L387:
 4365 000c 10E000E0 		.word	-536813552
 4366              		.cfi_endproc
 4367              	.LFE75:
ARM GAS  C:\Users\jens-\AppData\Local\Temp\ccdWTNhT.s 			page 137


 4368              		.size	CySysTickGetCountFlag, .-CySysTickGetCountFlag
 4369              		.section	.text.CySysTickServiceCallbacks,"ax",%progbits
 4370              		.align	1
 4371              		.syntax unified
 4372              		.thumb
 4373              		.thumb_func
 4374              		.fpu softvfp
 4375              		.type	CySysTickServiceCallbacks, %function
 4376              	CySysTickServiceCallbacks:
 4377              	.LFB79:
2789:Generated_Source\PSoC5/CyLib.c **** 
2790:Generated_Source\PSoC5/CyLib.c **** 
2791:Generated_Source\PSoC5/CyLib.c ****     /*******************************************************************************
2792:Generated_Source\PSoC5/CyLib.c ****     * Function Name: CySysTickClear
2793:Generated_Source\PSoC5/CyLib.c ****     ****************************************************************************//**
2794:Generated_Source\PSoC5/CyLib.c ****     *
2795:Generated_Source\PSoC5/CyLib.c ****     *  Clears the SysTick counter for well-defined startup.
2796:Generated_Source\PSoC5/CyLib.c ****     *
2797:Generated_Source\PSoC5/CyLib.c ****     *******************************************************************************/
2798:Generated_Source\PSoC5/CyLib.c ****     void CySysTickClear(void)
2799:Generated_Source\PSoC5/CyLib.c ****     {
2800:Generated_Source\PSoC5/CyLib.c ****         CY_SYS_SYST_CVR_REG = 0u;
2801:Generated_Source\PSoC5/CyLib.c ****     }
2802:Generated_Source\PSoC5/CyLib.c **** 
2803:Generated_Source\PSoC5/CyLib.c **** 
2804:Generated_Source\PSoC5/CyLib.c ****     /*******************************************************************************
2805:Generated_Source\PSoC5/CyLib.c ****     * Function Name: CySysTickSetCallback
2806:Generated_Source\PSoC5/CyLib.c ****     ****************************************************************************//**
2807:Generated_Source\PSoC5/CyLib.c ****     *
2808:Generated_Source\PSoC5/CyLib.c ****     *  This function allows up to five user-defined interrupt service routine
2809:Generated_Source\PSoC5/CyLib.c ****     *  functions to be associated with the SysTick interrupt. These are specified
2810:Generated_Source\PSoC5/CyLib.c ****     *  through the use of pointers to the function.
2811:Generated_Source\PSoC5/CyLib.c ****     *
2812:Generated_Source\PSoC5/CyLib.c ****     *  To set a custom callback function without the overhead of the system provided
2813:Generated_Source\PSoC5/CyLib.c ****     *  one, use CyIntSetSysVector(CY_INT_SYSTICK_IRQN, cyisraddress <address>),
2814:Generated_Source\PSoC5/CyLib.c ****     *  where <address> is address of the custom defined interrupt service routine.
2815:Generated_Source\PSoC5/CyLib.c ****     *  Note: a custom callback function overrides the system defined callback
2816:Generated_Source\PSoC5/CyLib.c ****     *  functions.
2817:Generated_Source\PSoC5/CyLib.c ****     *
2818:Generated_Source\PSoC5/CyLib.c ****     *  \param number: The number of the callback function addresses to be set. The valid
2819:Generated_Source\PSoC5/CyLib.c ****     *          range is from 0 to 4.
2820:Generated_Source\PSoC5/CyLib.c ****     *
2821:Generated_Source\PSoC5/CyLib.c ****     *  void(*CallbackFunction(void): A pointer to the function that will be
2822:Generated_Source\PSoC5/CyLib.c ****     *                                associated with the SysTick ISR for the
2823:Generated_Source\PSoC5/CyLib.c ****     *                                specified number.
2824:Generated_Source\PSoC5/CyLib.c ****     *
2825:Generated_Source\PSoC5/CyLib.c ****     * \return
2826:Generated_Source\PSoC5/CyLib.c ****     *  Returns the address of the previous callback function.
2827:Generated_Source\PSoC5/CyLib.c ****     *  The NULL is returned if the specified address in not set.
2828:Generated_Source\PSoC5/CyLib.c ****     *
2829:Generated_Source\PSoC5/CyLib.c ****     * \sideeffect
2830:Generated_Source\PSoC5/CyLib.c ****     *  The registered callback functions will be executed in the interrupt.
2831:Generated_Source\PSoC5/CyLib.c ****     *
2832:Generated_Source\PSoC5/CyLib.c ****     *******************************************************************************/
2833:Generated_Source\PSoC5/CyLib.c ****     cySysTickCallback CySysTickSetCallback(uint32 number, cySysTickCallback function)
2834:Generated_Source\PSoC5/CyLib.c ****     {
2835:Generated_Source\PSoC5/CyLib.c ****         cySysTickCallback retVal;
ARM GAS  C:\Users\jens-\AppData\Local\Temp\ccdWTNhT.s 			page 138


2836:Generated_Source\PSoC5/CyLib.c **** 
2837:Generated_Source\PSoC5/CyLib.c ****         retVal = CySysTickCallbacks[number];
2838:Generated_Source\PSoC5/CyLib.c ****         CySysTickCallbacks[number] = function;
2839:Generated_Source\PSoC5/CyLib.c ****         return (retVal);
2840:Generated_Source\PSoC5/CyLib.c ****     }
2841:Generated_Source\PSoC5/CyLib.c **** 
2842:Generated_Source\PSoC5/CyLib.c **** 
2843:Generated_Source\PSoC5/CyLib.c ****     /*******************************************************************************
2844:Generated_Source\PSoC5/CyLib.c ****     * Function Name: CySysTickGetCallback
2845:Generated_Source\PSoC5/CyLib.c ****     ****************************************************************************//**
2846:Generated_Source\PSoC5/CyLib.c ****     *
2847:Generated_Source\PSoC5/CyLib.c ****     *  The function get the specified callback pointer.
2848:Generated_Source\PSoC5/CyLib.c ****     *
2849:Generated_Source\PSoC5/CyLib.c ****     *  \param number: The number of callback function address to get. The valid
2850:Generated_Source\PSoC5/CyLib.c ****     *          range is from 0 to 4.
2851:Generated_Source\PSoC5/CyLib.c ****     *
2852:Generated_Source\PSoC5/CyLib.c ****     * \return
2853:Generated_Source\PSoC5/CyLib.c ****     *  Returns the address of the specified callback function.
2854:Generated_Source\PSoC5/CyLib.c ****     *  The NULL is returned if the specified address in not initialized.
2855:Generated_Source\PSoC5/CyLib.c ****     *
2856:Generated_Source\PSoC5/CyLib.c ****     *******************************************************************************/
2857:Generated_Source\PSoC5/CyLib.c ****     cySysTickCallback CySysTickGetCallback(uint32 number)
2858:Generated_Source\PSoC5/CyLib.c ****     {
2859:Generated_Source\PSoC5/CyLib.c ****         return ((cySysTickCallback) CySysTickCallbacks[number]);
2860:Generated_Source\PSoC5/CyLib.c ****     }
2861:Generated_Source\PSoC5/CyLib.c **** 
2862:Generated_Source\PSoC5/CyLib.c **** 
2863:Generated_Source\PSoC5/CyLib.c ****     /*******************************************************************************
2864:Generated_Source\PSoC5/CyLib.c ****     * Function Name: CySysTickServiceCallbacks
2865:Generated_Source\PSoC5/CyLib.c ****     ****************************************************************************//**
2866:Generated_Source\PSoC5/CyLib.c ****     *
2867:Generated_Source\PSoC5/CyLib.c ****     *  System Tick timer interrupt routine
2868:Generated_Source\PSoC5/CyLib.c ****     *
2869:Generated_Source\PSoC5/CyLib.c ****     *******************************************************************************/
2870:Generated_Source\PSoC5/CyLib.c ****     static void CySysTickServiceCallbacks(void)
2871:Generated_Source\PSoC5/CyLib.c ****     {
 4378              		.loc 1 2871 5 is_stmt 1 view -0
 4379              		.cfi_startproc
 4380              		@ args = 0, pretend = 0, frame = 0
 4381              		@ frame_needed = 0, uses_anonymous_args = 0
 4382 0000 10B5     		push	{r4, lr}
 4383              		.cfi_def_cfa_offset 8
 4384              		.cfi_offset 4, -8
 4385              		.cfi_offset 14, -4
2872:Generated_Source\PSoC5/CyLib.c ****         uint32 i;
 4386              		.loc 1 2872 9 view .LVU1043
2873:Generated_Source\PSoC5/CyLib.c **** 
2874:Generated_Source\PSoC5/CyLib.c ****         /* Verify that tick timer flag was set */
2875:Generated_Source\PSoC5/CyLib.c ****         if (1u == CySysTickGetCountFlag())
 4387              		.loc 1 2875 9 view .LVU1044
 4388              		.loc 1 2875 19 is_stmt 0 view .LVU1045
 4389 0002 FFF7FEFF 		bl	CySysTickGetCountFlag
 4390              	.LVL233:
 4391              		.loc 1 2875 12 view .LVU1046
 4392 0006 0128     		cmp	r0, #1
 4393 0008 0BD0     		beq	.L396
 4394              	.L389:
ARM GAS  C:\Users\jens-\AppData\Local\Temp\ccdWTNhT.s 			page 139


2876:Generated_Source\PSoC5/CyLib.c ****         {
2877:Generated_Source\PSoC5/CyLib.c ****             for (i=0u; i < CY_SYS_SYST_NUM_OF_CALLBACKS; i++)
2878:Generated_Source\PSoC5/CyLib.c ****             {
2879:Generated_Source\PSoC5/CyLib.c ****                 if (CySysTickCallbacks[i] != (void *) 0)
2880:Generated_Source\PSoC5/CyLib.c ****                 {
2881:Generated_Source\PSoC5/CyLib.c ****                     (void)(CySysTickCallbacks[i])();
2882:Generated_Source\PSoC5/CyLib.c ****                 }
2883:Generated_Source\PSoC5/CyLib.c ****             }
2884:Generated_Source\PSoC5/CyLib.c ****         }
2885:Generated_Source\PSoC5/CyLib.c ****     }
 4395              		.loc 1 2885 5 view .LVU1047
 4396 000a 10BD     		pop	{r4, pc}
 4397              	.LVL234:
 4398              	.L392:
2877:Generated_Source\PSoC5/CyLib.c ****             {
 4399              		.loc 1 2877 58 is_stmt 1 discriminator 2 view .LVU1048
2877:Generated_Source\PSoC5/CyLib.c ****             {
 4400              		.loc 1 2877 59 is_stmt 0 discriminator 2 view .LVU1049
 4401 000c 0134     		adds	r4, r4, #1
 4402              	.LVL235:
 4403              	.L390:
2877:Generated_Source\PSoC5/CyLib.c ****             {
 4404              		.loc 1 2877 24 is_stmt 1 discriminator 1 view .LVU1050
2877:Generated_Source\PSoC5/CyLib.c ****             {
 4405              		.loc 1 2877 13 is_stmt 0 discriminator 1 view .LVU1051
 4406 000e 042C     		cmp	r4, #4
 4407 0010 FBD8     		bhi	.L389
2879:Generated_Source\PSoC5/CyLib.c ****                 {
 4408              		.loc 1 2879 17 is_stmt 1 view .LVU1052
2879:Generated_Source\PSoC5/CyLib.c ****                 {
 4409              		.loc 1 2879 39 is_stmt 0 view .LVU1053
 4410 0012 054B     		ldr	r3, .L397
 4411 0014 03EB8403 		add	r3, r3, r4, lsl #2
 4412 0018 5B68     		ldr	r3, [r3, #4]
2879:Generated_Source\PSoC5/CyLib.c ****                 {
 4413              		.loc 1 2879 20 view .LVU1054
 4414 001a 002B     		cmp	r3, #0
 4415 001c F6D0     		beq	.L392
2881:Generated_Source\PSoC5/CyLib.c ****                 }
 4416              		.loc 1 2881 21 is_stmt 1 view .LVU1055
 4417 001e 9847     		blx	r3
 4418              	.LVL236:
 4419 0020 F4E7     		b	.L392
 4420              	.LVL237:
 4421              	.L396:
2877:Generated_Source\PSoC5/CyLib.c ****             {
 4422              		.loc 1 2877 19 is_stmt 0 view .LVU1056
 4423 0022 0024     		movs	r4, #0
 4424 0024 F3E7     		b	.L390
 4425              	.L398:
 4426 0026 00BF     		.align	2
 4427              	.L397:
 4428 0028 00000000 		.word	.LANCHOR1
 4429              		.cfi_endproc
 4430              	.LFE79:
 4431              		.size	CySysTickServiceCallbacks, .-CySysTickServiceCallbacks
 4432              		.section	.text.CySysTickClear,"ax",%progbits
ARM GAS  C:\Users\jens-\AppData\Local\Temp\ccdWTNhT.s 			page 140


 4433              		.align	1
 4434              		.global	CySysTickClear
 4435              		.syntax unified
 4436              		.thumb
 4437              		.thumb_func
 4438              		.fpu softvfp
 4439              		.type	CySysTickClear, %function
 4440              	CySysTickClear:
 4441              	.LFB76:
2799:Generated_Source\PSoC5/CyLib.c ****         CY_SYS_SYST_CVR_REG = 0u;
 4442              		.loc 1 2799 5 is_stmt 1 view -0
 4443              		.cfi_startproc
 4444              		@ args = 0, pretend = 0, frame = 0
 4445              		@ frame_needed = 0, uses_anonymous_args = 0
 4446              		@ link register save eliminated.
2800:Generated_Source\PSoC5/CyLib.c ****     }
 4447              		.loc 1 2800 9 view .LVU1058
2800:Generated_Source\PSoC5/CyLib.c ****     }
 4448              		.loc 1 2800 29 is_stmt 0 view .LVU1059
 4449 0000 014B     		ldr	r3, .L400
 4450 0002 0022     		movs	r2, #0
 4451 0004 1A60     		str	r2, [r3]
2801:Generated_Source\PSoC5/CyLib.c **** 
 4452              		.loc 1 2801 5 view .LVU1060
 4453 0006 7047     		bx	lr
 4454              	.L401:
 4455              		.align	2
 4456              	.L400:
 4457 0008 18E000E0 		.word	-536813544
 4458              		.cfi_endproc
 4459              	.LFE76:
 4460              		.size	CySysTickClear, .-CySysTickClear
 4461              		.section	.text.CySysTickInit,"ax",%progbits
 4462              		.align	1
 4463              		.global	CySysTickInit
 4464              		.syntax unified
 4465              		.thumb
 4466              		.thumb_func
 4467              		.fpu softvfp
 4468              		.type	CySysTickInit, %function
 4469              	CySysTickInit:
 4470              	.LFB65:
2589:Generated_Source\PSoC5/CyLib.c ****         uint32 i;
 4471              		.loc 1 2589 5 is_stmt 1 view -0
 4472              		.cfi_startproc
 4473              		@ args = 0, pretend = 0, frame = 0
 4474              		@ frame_needed = 0, uses_anonymous_args = 0
 4475 0000 08B5     		push	{r3, lr}
 4476              		.cfi_def_cfa_offset 8
 4477              		.cfi_offset 3, -8
 4478              		.cfi_offset 14, -4
2590:Generated_Source\PSoC5/CyLib.c **** 
 4479              		.loc 1 2590 9 view .LVU1062
2592:Generated_Source\PSoC5/CyLib.c ****         {
 4480              		.loc 1 2592 9 view .LVU1063
 4481              	.LVL238:
2592:Generated_Source\PSoC5/CyLib.c ****         {
ARM GAS  C:\Users\jens-\AppData\Local\Temp\ccdWTNhT.s 			page 141


 4482              		.loc 1 2592 16 is_stmt 0 view .LVU1064
 4483 0002 0023     		movs	r3, #0
 4484              	.LVL239:
 4485              	.L403:
2592:Generated_Source\PSoC5/CyLib.c ****         {
 4486              		.loc 1 2592 22 is_stmt 1 discriminator 1 view .LVU1065
2592:Generated_Source\PSoC5/CyLib.c ****         {
 4487              		.loc 1 2592 9 is_stmt 0 discriminator 1 view .LVU1066
 4488 0004 042B     		cmp	r3, #4
 4489 0006 06D8     		bhi	.L406
2594:Generated_Source\PSoC5/CyLib.c ****         }
 4490              		.loc 1 2594 13 is_stmt 1 discriminator 3 view .LVU1067
2594:Generated_Source\PSoC5/CyLib.c ****         }
 4491              		.loc 1 2594 35 is_stmt 0 discriminator 3 view .LVU1068
 4492 0008 0E4A     		ldr	r2, .L407
 4493 000a 02EB8302 		add	r2, r2, r3, lsl #2
 4494 000e 0021     		movs	r1, #0
 4495 0010 5160     		str	r1, [r2, #4]
2592:Generated_Source\PSoC5/CyLib.c ****         {
 4496              		.loc 1 2592 54 is_stmt 1 discriminator 3 view .LVU1069
2592:Generated_Source\PSoC5/CyLib.c ****         {
 4497              		.loc 1 2592 55 is_stmt 0 discriminator 3 view .LVU1070
 4498 0012 0133     		adds	r3, r3, #1
 4499              	.LVL240:
2592:Generated_Source\PSoC5/CyLib.c ****         {
 4500              		.loc 1 2592 55 discriminator 3 view .LVU1071
 4501 0014 F6E7     		b	.L403
 4502              	.L406:
2597:Generated_Source\PSoC5/CyLib.c ****         CySysTickSetClockSource(CY_SYS_SYST_CSR_CLK_SRC_SYSCLK);
 4503              		.loc 1 2597 9 is_stmt 1 view .LVU1072
2597:Generated_Source\PSoC5/CyLib.c ****         CySysTickSetClockSource(CY_SYS_SYST_CSR_CLK_SRC_SYSCLK);
 4504              		.loc 1 2597 16 is_stmt 0 view .LVU1073
 4505 0016 0C49     		ldr	r1, .L407+4
 4506 0018 0F20     		movs	r0, #15
 4507 001a FFF7FEFF 		bl	CyIntSetSysVector
 4508              	.LVL241:
2598:Generated_Source\PSoC5/CyLib.c ****         CySysTickSetReload(cydelay_freq_hz/1000u);
 4509              		.loc 1 2598 9 is_stmt 1 view .LVU1074
 4510 001e 0120     		movs	r0, #1
 4511 0020 FFF7FEFF 		bl	CySysTickSetClockSource
 4512              	.LVL242:
2599:Generated_Source\PSoC5/CyLib.c ****         CySysTickClear();
 4513              		.loc 1 2599 9 view .LVU1075
 4514 0024 094B     		ldr	r3, .L407+8
 4515 0026 D868     		ldr	r0, [r3, #12]
 4516 0028 094B     		ldr	r3, .L407+12
 4517 002a A3FB0030 		umull	r3, r0, r3, r0
 4518 002e 8009     		lsrs	r0, r0, #6
 4519 0030 FFF7FEFF 		bl	CySysTickSetReload
 4520              	.LVL243:
2600:Generated_Source\PSoC5/CyLib.c ****         CyIntEnable(CY_INT_SYSTICK_IRQN);
 4521              		.loc 1 2600 9 view .LVU1076
 4522 0034 FFF7FEFF 		bl	CySysTickClear
 4523              	.LVL244:
2601:Generated_Source\PSoC5/CyLib.c ****     }
 4524              		.loc 1 2601 9 view .LVU1077
 4525 0038 064B     		ldr	r3, .L407+16
ARM GAS  C:\Users\jens-\AppData\Local\Temp\ccdWTNhT.s 			page 142


 4526 003a 4FF40042 		mov	r2, #32768
 4527 003e 1A60     		str	r2, [r3]
2602:Generated_Source\PSoC5/CyLib.c **** 
 4528              		.loc 1 2602 5 is_stmt 0 view .LVU1078
 4529 0040 08BD     		pop	{r3, pc}
 4530              	.L408:
 4531 0042 00BF     		.align	2
 4532              	.L407:
 4533 0044 00000000 		.word	.LANCHOR1
 4534 0048 00000000 		.word	CySysTickServiceCallbacks
 4535 004c 00000000 		.word	.LANCHOR0
 4536 0050 D34D6210 		.word	274877907
 4537 0054 00E100E0 		.word	-536813312
 4538              		.cfi_endproc
 4539              	.LFE65:
 4540              		.size	CySysTickInit, .-CySysTickInit
 4541              		.section	.text.CySysTickStart,"ax",%progbits
 4542              		.align	1
 4543              		.global	CySysTickStart
 4544              		.syntax unified
 4545              		.thumb
 4546              		.thumb_func
 4547              		.fpu softvfp
 4548              		.type	CySysTickStart, %function
 4549              	CySysTickStart:
 4550              	.LFB64:
2560:Generated_Source\PSoC5/CyLib.c ****         if (0u == CySysTickInitVar)
 4551              		.loc 1 2560 5 is_stmt 1 view -0
 4552              		.cfi_startproc
 4553              		@ args = 0, pretend = 0, frame = 0
 4554              		@ frame_needed = 0, uses_anonymous_args = 0
 4555 0000 08B5     		push	{r3, lr}
 4556              		.cfi_def_cfa_offset 8
 4557              		.cfi_offset 3, -8
 4558              		.cfi_offset 14, -4
2561:Generated_Source\PSoC5/CyLib.c ****         {
 4559              		.loc 1 2561 9 view .LVU1080
2561:Generated_Source\PSoC5/CyLib.c ****         {
 4560              		.loc 1 2561 16 is_stmt 0 view .LVU1081
 4561 0002 064B     		ldr	r3, .L413
 4562 0004 9B69     		ldr	r3, [r3, #24]
2561:Generated_Source\PSoC5/CyLib.c ****         {
 4563              		.loc 1 2561 12 view .LVU1082
 4564 0006 13B1     		cbz	r3, .L412
 4565              	.L410:
2567:Generated_Source\PSoC5/CyLib.c ****     }
 4566              		.loc 1 2567 9 is_stmt 1 view .LVU1083
 4567 0008 FFF7FEFF 		bl	CySysTickEnable
 4568              	.LVL245:
2568:Generated_Source\PSoC5/CyLib.c **** 
 4569              		.loc 1 2568 5 is_stmt 0 view .LVU1084
 4570 000c 08BD     		pop	{r3, pc}
 4571              	.L412:
2563:Generated_Source\PSoC5/CyLib.c ****             CySysTickInitVar = 1u;
 4572              		.loc 1 2563 13 is_stmt 1 view .LVU1085
 4573 000e FFF7FEFF 		bl	CySysTickInit
 4574              	.LVL246:
ARM GAS  C:\Users\jens-\AppData\Local\Temp\ccdWTNhT.s 			page 143


2564:Generated_Source\PSoC5/CyLib.c ****         }
 4575              		.loc 1 2564 13 view .LVU1086
2564:Generated_Source\PSoC5/CyLib.c ****         }
 4576              		.loc 1 2564 30 is_stmt 0 view .LVU1087
 4577 0012 024B     		ldr	r3, .L413
 4578 0014 0122     		movs	r2, #1
 4579 0016 9A61     		str	r2, [r3, #24]
 4580 0018 F6E7     		b	.L410
 4581              	.L414:
 4582 001a 00BF     		.align	2
 4583              	.L413:
 4584 001c 00000000 		.word	.LANCHOR1
 4585              		.cfi_endproc
 4586              	.LFE64:
 4587              		.size	CySysTickStart, .-CySysTickStart
 4588              		.section	.text.CySysTickSetCallback,"ax",%progbits
 4589              		.align	1
 4590              		.global	CySysTickSetCallback
 4591              		.syntax unified
 4592              		.thumb
 4593              		.thumb_func
 4594              		.fpu softvfp
 4595              		.type	CySysTickSetCallback, %function
 4596              	CySysTickSetCallback:
 4597              	.LVL247:
 4598              	.LFB77:
2834:Generated_Source\PSoC5/CyLib.c ****         cySysTickCallback retVal;
 4599              		.loc 1 2834 5 is_stmt 1 view -0
 4600              		.cfi_startproc
 4601              		@ args = 0, pretend = 0, frame = 0
 4602              		@ frame_needed = 0, uses_anonymous_args = 0
 4603              		@ link register save eliminated.
2835:Generated_Source\PSoC5/CyLib.c **** 
 4604              		.loc 1 2835 9 view .LVU1089
2837:Generated_Source\PSoC5/CyLib.c ****         CySysTickCallbacks[number] = function;
 4605              		.loc 1 2837 9 view .LVU1090
2837:Generated_Source\PSoC5/CyLib.c ****         CySysTickCallbacks[number] = function;
 4606              		.loc 1 2837 16 is_stmt 0 view .LVU1091
 4607 0000 024B     		ldr	r3, .L416
 4608 0002 03EB8003 		add	r3, r3, r0, lsl #2
 4609 0006 5868     		ldr	r0, [r3, #4]
 4610              	.LVL248:
2838:Generated_Source\PSoC5/CyLib.c ****         return (retVal);
 4611              		.loc 1 2838 9 is_stmt 1 view .LVU1092
2838:Generated_Source\PSoC5/CyLib.c ****         return (retVal);
 4612              		.loc 1 2838 36 is_stmt 0 view .LVU1093
 4613 0008 5960     		str	r1, [r3, #4]
2839:Generated_Source\PSoC5/CyLib.c ****     }
 4614              		.loc 1 2839 9 is_stmt 1 view .LVU1094
2840:Generated_Source\PSoC5/CyLib.c **** 
 4615              		.loc 1 2840 5 is_stmt 0 view .LVU1095
 4616 000a 7047     		bx	lr
 4617              	.L417:
 4618              		.align	2
 4619              	.L416:
 4620 000c 00000000 		.word	.LANCHOR1
 4621              		.cfi_endproc
ARM GAS  C:\Users\jens-\AppData\Local\Temp\ccdWTNhT.s 			page 144


 4622              	.LFE77:
 4623              		.size	CySysTickSetCallback, .-CySysTickSetCallback
 4624              		.section	.text.CySysTickGetCallback,"ax",%progbits
 4625              		.align	1
 4626              		.global	CySysTickGetCallback
 4627              		.syntax unified
 4628              		.thumb
 4629              		.thumb_func
 4630              		.fpu softvfp
 4631              		.type	CySysTickGetCallback, %function
 4632              	CySysTickGetCallback:
 4633              	.LVL249:
 4634              	.LFB78:
2858:Generated_Source\PSoC5/CyLib.c ****         return ((cySysTickCallback) CySysTickCallbacks[number]);
 4635              		.loc 1 2858 5 is_stmt 1 view -0
 4636              		.cfi_startproc
 4637              		@ args = 0, pretend = 0, frame = 0
 4638              		@ frame_needed = 0, uses_anonymous_args = 0
 4639              		@ link register save eliminated.
2859:Generated_Source\PSoC5/CyLib.c ****     }
 4640              		.loc 1 2859 9 view .LVU1097
2859:Generated_Source\PSoC5/CyLib.c ****     }
 4641              		.loc 1 2859 17 is_stmt 0 view .LVU1098
 4642 0000 024B     		ldr	r3, .L419
 4643 0002 03EB8003 		add	r3, r3, r0, lsl #2
2860:Generated_Source\PSoC5/CyLib.c **** 
 4644              		.loc 1 2860 5 view .LVU1099
 4645 0006 5868     		ldr	r0, [r3, #4]
 4646              	.LVL250:
2860:Generated_Source\PSoC5/CyLib.c **** 
 4647              		.loc 1 2860 5 view .LVU1100
 4648 0008 7047     		bx	lr
 4649              	.L420:
 4650 000a 00BF     		.align	2
 4651              	.L419:
 4652 000c 00000000 		.word	.LANCHOR1
 4653              		.cfi_endproc
 4654              	.LFE78:
 4655              		.size	CySysTickGetCallback, .-CySysTickGetCallback
 4656              		.section	.text.CyGetUniqueId,"ax",%progbits
 4657              		.align	1
 4658              		.global	CyGetUniqueId
 4659              		.syntax unified
 4660              		.thumb
 4661              		.thumb_func
 4662              		.fpu softvfp
 4663              		.type	CyGetUniqueId, %function
 4664              	CyGetUniqueId:
 4665              	.LVL251:
 4666              	.LFB80:
2886:Generated_Source\PSoC5/CyLib.c **** #endif /* (CY_PSOC5) */
2887:Generated_Source\PSoC5/CyLib.c **** 
2888:Generated_Source\PSoC5/CyLib.c **** 
2889:Generated_Source\PSoC5/CyLib.c **** /*******************************************************************************
2890:Generated_Source\PSoC5/CyLib.c **** * Function Name: CyGetUniqueId
2891:Generated_Source\PSoC5/CyLib.c **** ****************************************************************************//**
2892:Generated_Source\PSoC5/CyLib.c **** *
ARM GAS  C:\Users\jens-\AppData\Local\Temp\ccdWTNhT.s 			page 145


2893:Generated_Source\PSoC5/CyLib.c **** *  Returns the 64-bit unique ID of the device. The uniqueness of the number is
2894:Generated_Source\PSoC5/CyLib.c **** *  guaranteed for 10 years due to the die lot number having a cycle life of 10
2895:Generated_Source\PSoC5/CyLib.c **** *  years and even after 10 years, the probability of getting two identical
2896:Generated_Source\PSoC5/CyLib.c **** *  numbers is very small.
2897:Generated_Source\PSoC5/CyLib.c **** *
2898:Generated_Source\PSoC5/CyLib.c **** *  \param uniqueId: The pointer to a two element 32-bit unsigned integer array. Returns
2899:Generated_Source\PSoC5/CyLib.c **** *  the 64-bit unique ID of the device by loading them into the integer array
2900:Generated_Source\PSoC5/CyLib.c **** *  pointed to by uniqueId.
2901:Generated_Source\PSoC5/CyLib.c **** *
2902:Generated_Source\PSoC5/CyLib.c **** *******************************************************************************/
2903:Generated_Source\PSoC5/CyLib.c **** void CyGetUniqueId(uint32* uniqueId)
2904:Generated_Source\PSoC5/CyLib.c **** {
 4667              		.loc 1 2904 1 is_stmt 1 view -0
 4668              		.cfi_startproc
 4669              		@ args = 0, pretend = 0, frame = 0
 4670              		@ frame_needed = 0, uses_anonymous_args = 0
 4671              		@ link register save eliminated.
2905:Generated_Source\PSoC5/CyLib.c **** #if(CY_PSOC4)
2906:Generated_Source\PSoC5/CyLib.c ****     uniqueId[0u]  =  (uint32)(* (reg8 *) CYREG_SFLASH_DIE_LOT0  );
2907:Generated_Source\PSoC5/CyLib.c ****     uniqueId[0u] |= ((uint32)(* (reg8 *) CYREG_SFLASH_DIE_LOT1  ) <<  8u);
2908:Generated_Source\PSoC5/CyLib.c ****     uniqueId[0u] |= ((uint32)(* (reg8 *) CYREG_SFLASH_DIE_LOT2  ) << 16u);
2909:Generated_Source\PSoC5/CyLib.c ****     uniqueId[0u] |= ((uint32)(* (reg8 *) CYREG_SFLASH_DIE_WAFER ) << 24u);
2910:Generated_Source\PSoC5/CyLib.c **** 
2911:Generated_Source\PSoC5/CyLib.c ****     uniqueId[1u]  =  (uint32)(* (reg8 *) CYREG_SFLASH_DIE_X     );
2912:Generated_Source\PSoC5/CyLib.c ****     uniqueId[1u] |= ((uint32)(* (reg8 *) CYREG_SFLASH_DIE_Y     ) <<  8u);
2913:Generated_Source\PSoC5/CyLib.c ****     uniqueId[1u] |= ((uint32)(* (reg8 *) CYREG_SFLASH_DIE_SORT  ) << 16u);
2914:Generated_Source\PSoC5/CyLib.c ****     uniqueId[1u] |= ((uint32)(* (reg8 *) CYREG_SFLASH_DIE_MINOR ) << 24u);
2915:Generated_Source\PSoC5/CyLib.c **** #else
2916:Generated_Source\PSoC5/CyLib.c ****     uniqueId[0u]  =  (uint32) CY_GET_XTND_REG8((void CYFAR *) (CYREG_FLSHID_CUST_TABLES_LOT_LSB   )
 4672              		.loc 1 2916 5 view .LVU1102
 4673              		.loc 1 2916 31 is_stmt 0 view .LVU1103
 4674 0000 134B     		ldr	r3, .L422
 4675 0002 1B78     		ldrb	r3, [r3]	@ zero_extendqisi2
 4676 0004 DBB2     		uxtb	r3, r3
 4677              		.loc 1 2916 19 view .LVU1104
 4678 0006 0360     		str	r3, [r0]
2917:Generated_Source\PSoC5/CyLib.c ****     uniqueId[0u] |= ((uint32) CY_GET_XTND_REG8((void CYFAR *) (CYREG_FLSHID_CUST_TABLES_LOT_MSB   )
 4679              		.loc 1 2917 5 is_stmt 1 view .LVU1105
 4680              		.loc 1 2917 31 is_stmt 0 view .LVU1106
 4681 0008 124A     		ldr	r2, .L422+4
 4682 000a 1278     		ldrb	r2, [r2]	@ zero_extendqisi2
 4683              		.loc 1 2917 18 view .LVU1107
 4684 000c 43EA0223 		orr	r3, r3, r2, lsl #8
 4685 0010 0360     		str	r3, [r0]
2918:Generated_Source\PSoC5/CyLib.c ****     uniqueId[0u] |= ((uint32) CY_GET_XTND_REG8((void CYFAR *) (CYREG_MLOGIC_REV_ID                )
 4686              		.loc 1 2918 5 is_stmt 1 view .LVU1108
 4687              		.loc 1 2918 31 is_stmt 0 view .LVU1109
 4688 0012 114A     		ldr	r2, .L422+8
 4689 0014 1278     		ldrb	r2, [r2]	@ zero_extendqisi2
 4690              		.loc 1 2918 18 view .LVU1110
 4691 0016 43EA0243 		orr	r3, r3, r2, lsl #16
 4692 001a 0360     		str	r3, [r0]
2919:Generated_Source\PSoC5/CyLib.c ****     uniqueId[0u] |= ((uint32) CY_GET_XTND_REG8((void CYFAR *) (CYREG_FLSHID_CUST_TABLES_WAFER_NUM )
 4693              		.loc 1 2919 5 is_stmt 1 view .LVU1111
 4694              		.loc 1 2919 31 is_stmt 0 view .LVU1112
 4695 001c 0F4A     		ldr	r2, .L422+12
 4696 001e 1278     		ldrb	r2, [r2]	@ zero_extendqisi2
ARM GAS  C:\Users\jens-\AppData\Local\Temp\ccdWTNhT.s 			page 146


 4697              		.loc 1 2919 18 view .LVU1113
 4698 0020 43EA0263 		orr	r3, r3, r2, lsl #24
 4699 0024 0360     		str	r3, [r0]
2920:Generated_Source\PSoC5/CyLib.c **** 
2921:Generated_Source\PSoC5/CyLib.c ****     uniqueId[1u]  =  (uint32) CY_GET_XTND_REG8((void CYFAR *) (CYREG_FLSHID_CUST_TABLES_X_LOC     )
 4700              		.loc 1 2921 5 is_stmt 1 view .LVU1114
 4701              		.loc 1 2921 31 is_stmt 0 view .LVU1115
 4702 0026 0E4B     		ldr	r3, .L422+16
 4703 0028 1B78     		ldrb	r3, [r3]	@ zero_extendqisi2
 4704 002a DBB2     		uxtb	r3, r3
 4705              		.loc 1 2921 19 view .LVU1116
 4706 002c 4360     		str	r3, [r0, #4]
2922:Generated_Source\PSoC5/CyLib.c ****     uniqueId[1u] |= ((uint32) CY_GET_XTND_REG8((void CYFAR *) (CYREG_FLSHID_CUST_TABLES_Y_LOC     )
 4707              		.loc 1 2922 5 is_stmt 1 view .LVU1117
 4708              		.loc 1 2922 31 is_stmt 0 view .LVU1118
 4709 002e 0D4A     		ldr	r2, .L422+20
 4710 0030 1278     		ldrb	r2, [r2]	@ zero_extendqisi2
 4711              		.loc 1 2922 18 view .LVU1119
 4712 0032 43EA0223 		orr	r3, r3, r2, lsl #8
 4713 0036 4360     		str	r3, [r0, #4]
2923:Generated_Source\PSoC5/CyLib.c ****     uniqueId[1u] |= ((uint32) CY_GET_XTND_REG8((void CYFAR *) (CYREG_FLSHID_CUST_TABLES_WRK_WK    )
 4714              		.loc 1 2923 5 is_stmt 1 view .LVU1120
 4715              		.loc 1 2923 31 is_stmt 0 view .LVU1121
 4716 0038 0B4A     		ldr	r2, .L422+24
 4717 003a 1278     		ldrb	r2, [r2]	@ zero_extendqisi2
 4718              		.loc 1 2923 18 view .LVU1122
 4719 003c 43EA0243 		orr	r3, r3, r2, lsl #16
 4720 0040 4360     		str	r3, [r0, #4]
2924:Generated_Source\PSoC5/CyLib.c ****     uniqueId[1u] |= ((uint32) CY_GET_XTND_REG8((void CYFAR *) (CYREG_FLSHID_CUST_TABLES_FAB_YR    )
 4721              		.loc 1 2924 5 is_stmt 1 view .LVU1123
 4722              		.loc 1 2924 31 is_stmt 0 view .LVU1124
 4723 0042 0A4A     		ldr	r2, .L422+28
 4724 0044 1278     		ldrb	r2, [r2]	@ zero_extendqisi2
 4725              		.loc 1 2924 18 view .LVU1125
 4726 0046 43EA0263 		orr	r3, r3, r2, lsl #24
 4727 004a 4360     		str	r3, [r0, #4]
2925:Generated_Source\PSoC5/CyLib.c **** #endif  /* (CY_PSOC4) */
2926:Generated_Source\PSoC5/CyLib.c **** }
 4728              		.loc 1 2926 1 view .LVU1126
 4729 004c 7047     		bx	lr
 4730              	.L423:
 4731 004e 00BF     		.align	2
 4732              	.L422:
 4733 0050 03010049 		.word	1224737027
 4734 0054 04010049 		.word	1224737028
 4735 0058 EC460040 		.word	1073759980
 4736 005c 02010049 		.word	1224737026
 4737 0060 01010049 		.word	1224737025
 4738 0064 00010049 		.word	1224737024
 4739 0068 05010049 		.word	1224737029
 4740 006c 06010049 		.word	1224737030
 4741              		.cfi_endproc
 4742              	.LFE80:
 4743              		.size	CyGetUniqueId, .-CyGetUniqueId
 4744              		.global	CySysTickInitVar
 4745              		.global	cydelay_32k_ms
 4746              		.global	cydelay_freq_mhz
ARM GAS  C:\Users\jens-\AppData\Local\Temp\ccdWTNhT.s 			page 147


 4747              		.global	cydelay_freq_khz
 4748              		.global	cydelay_freq_hz
 4749              		.global	CyResetStatus
 4750              		.data
 4751              		.align	2
 4752              		.set	.LANCHOR0,. + 0
 4753              		.type	cydelay_32k_ms, %object
 4754              		.size	cydelay_32k_ms, 4
 4755              	cydelay_32k_ms:
 4756 0000 0000E02E 		.word	786432000
 4757              		.type	cydelay_freq_khz, %object
 4758              		.size	cydelay_freq_khz, 4
 4759              	cydelay_freq_khz:
 4760 0004 C05D0000 		.word	24000
 4761              		.type	cydelay_freq_mhz, %object
 4762              		.size	cydelay_freq_mhz, 1
 4763              	cydelay_freq_mhz:
 4764 0008 18       		.byte	24
 4765 0009 000000   		.space	3
 4766              		.type	cydelay_freq_hz, %object
 4767              		.size	cydelay_freq_hz, 4
 4768              	cydelay_freq_hz:
 4769 000c 00366E01 		.word	24000000
 4770              		.bss
 4771              		.align	2
 4772              		.set	.LANCHOR1,. + 0
 4773              		.type	interruptStatus.5291, %object
 4774              		.size	interruptStatus.5291, 1
 4775              	interruptStatus.5291:
 4776 0000 00       		.space	1
 4777 0001 000000   		.space	3
 4778              		.type	CySysTickCallbacks, %object
 4779              		.size	CySysTickCallbacks, 20
 4780              	CySysTickCallbacks:
 4781 0004 00000000 		.space	20
 4781      00000000 
 4781      00000000 
 4781      00000000 
 4781      00000000 
 4782              		.type	CySysTickInitVar, %object
 4783              		.size	CySysTickInitVar, 4
 4784              	CySysTickInitVar:
 4785 0018 00000000 		.space	4
 4786              		.section	.noinit,"aw"
 4787              		.type	CyResetStatus, %object
 4788              		.size	CyResetStatus, 1
 4789              	CyResetStatus:
 4790 0000 00       		.space	1
 4791              		.text
 4792              	.Letext0:
 4793              		.file 2 "c:\\program files (x86)\\cypress\\psoc creator\\4.2\\psoc creator\\import\\gnu\\arm\\5.4.
 4794              		.file 3 "c:\\program files (x86)\\cypress\\psoc creator\\4.2\\psoc creator\\import\\gnu\\arm\\5.4.
 4795              		.file 4 "c:\\program files (x86)\\cypress\\psoc creator\\4.2\\psoc creator\\import\\gnu\\arm\\5.4.
 4796              		.file 5 "c:\\program files (x86)\\cypress\\psoc creator\\4.2\\psoc creator\\import\\gnu\\arm\\5.4.
 4797              		.file 6 "c:\\program files (x86)\\cypress\\psoc creator\\4.2\\psoc creator\\import\\gnu\\arm\\5.4.
 4798              		.file 7 "Generated_Source\\PSoC5\\cytypes.h"
 4799              		.file 8 "Generated_Source\\PSoC5\\CySpc.h"
ARM GAS  C:\Users\jens-\AppData\Local\Temp\ccdWTNhT.s 			page 148


 4800              		.file 9 "Generated_Source\\PSoC5\\CyFlash.h"
 4801              		.file 10 "Generated_Source\\PSoC5\\CyLib.h"
 4802              		.file 11 "Generated_Source\\PSoC5\\cyPm.h"
 4803              		.section	.debug_info,"",%progbits
 4804              	.Ldebug_info0:
 4805 0000 9C1E0000 		.4byte	0x1e9c
 4806 0004 0400     		.2byte	0x4
 4807 0006 00000000 		.4byte	.Ldebug_abbrev0
 4808 000a 04       		.byte	0x4
 4809 000b 01       		.uleb128 0x1
 4810 000c 170A0000 		.4byte	.LASF279
 4811 0010 0C       		.byte	0xc
 4812 0011 78000000 		.4byte	.LASF280
 4813 0015 65030000 		.4byte	.LASF281
 4814 0019 00000000 		.4byte	.Ldebug_ranges0+0
 4815 001d 00000000 		.4byte	0
 4816 0021 00000000 		.4byte	.Ldebug_line0
 4817 0025 02       		.uleb128 0x2
 4818 0026 04       		.byte	0x4
 4819 0027 05       		.byte	0x5
 4820 0028 696E7400 		.ascii	"int\000"
 4821 002c 03       		.uleb128 0x3
 4822 002d 04       		.byte	0x4
 4823 002e 07       		.byte	0x7
 4824 002f 49010000 		.4byte	.LASF0
 4825 0033 03       		.uleb128 0x3
 4826 0034 08       		.byte	0x8
 4827 0035 05       		.byte	0x5
 4828 0036 F0060000 		.4byte	.LASF1
 4829 003a 03       		.uleb128 0x3
 4830 003b 08       		.byte	0x8
 4831 003c 04       		.byte	0x4
 4832 003d E2080000 		.4byte	.LASF2
 4833 0041 03       		.uleb128 0x3
 4834 0042 01       		.byte	0x1
 4835 0043 06       		.byte	0x6
 4836 0044 3E0D0000 		.4byte	.LASF3
 4837 0048 03       		.uleb128 0x3
 4838 0049 01       		.byte	0x1
 4839 004a 08       		.byte	0x8
 4840 004b D50B0000 		.4byte	.LASF4
 4841 004f 03       		.uleb128 0x3
 4842 0050 02       		.byte	0x2
 4843 0051 05       		.byte	0x5
 4844 0052 72090000 		.4byte	.LASF5
 4845 0056 03       		.uleb128 0x3
 4846 0057 02       		.byte	0x2
 4847 0058 07       		.byte	0x7
 4848 0059 5F0D0000 		.4byte	.LASF6
 4849 005d 03       		.uleb128 0x3
 4850 005e 04       		.byte	0x4
 4851 005f 05       		.byte	0x5
 4852 0060 84090000 		.4byte	.LASF7
 4853 0064 03       		.uleb128 0x3
 4854 0065 04       		.byte	0x4
 4855 0066 07       		.byte	0x7
 4856 0067 540B0000 		.4byte	.LASF8
ARM GAS  C:\Users\jens-\AppData\Local\Temp\ccdWTNhT.s 			page 149


 4857 006b 03       		.uleb128 0x3
 4858 006c 08       		.byte	0x8
 4859 006d 07       		.byte	0x7
 4860 006e D5030000 		.4byte	.LASF9
 4861 0072 04       		.uleb128 0x4
 4862 0073 EE080000 		.4byte	.LASF10
 4863 0077 02       		.byte	0x2
 4864 0078 22       		.byte	0x22
 4865 0079 19       		.byte	0x19
 4866 007a 7E000000 		.4byte	0x7e
 4867 007e 05       		.uleb128 0x5
 4868 007f 04       		.byte	0x4
 4869 0080 84000000 		.4byte	0x84
 4870 0084 06       		.uleb128 0x6
 4871 0085 AD0B0000 		.4byte	.LASF117
 4872 0089 04       		.uleb128 0x4
 4873 008a C00D0000 		.4byte	.LASF11
 4874 008e 03       		.byte	0x3
 4875 008f 2C       		.byte	0x2c
 4876 0090 0E       		.byte	0xe
 4877 0091 5D000000 		.4byte	0x5d
 4878 0095 04       		.uleb128 0x4
 4879 0096 2D020000 		.4byte	.LASF12
 4880 009a 03       		.byte	0x3
 4881 009b 72       		.byte	0x72
 4882 009c 0E       		.byte	0xe
 4883 009d 5D000000 		.4byte	0x5d
 4884 00a1 07       		.uleb128 0x7
 4885 00a2 8A0B0000 		.4byte	.LASF13
 4886 00a6 04       		.byte	0x4
 4887 00a7 5E01     		.2byte	0x15e
 4888 00a9 17       		.byte	0x17
 4889 00aa 2C000000 		.4byte	0x2c
 4890 00ae 08       		.uleb128 0x8
 4891 00af 04       		.byte	0x4
 4892 00b0 03       		.byte	0x3
 4893 00b1 A6       		.byte	0xa6
 4894 00b2 03       		.byte	0x3
 4895 00b3 D0000000 		.4byte	0xd0
 4896 00b7 09       		.uleb128 0x9
 4897 00b8 90060000 		.4byte	.LASF14
 4898 00bc 03       		.byte	0x3
 4899 00bd A8       		.byte	0xa8
 4900 00be 0C       		.byte	0xc
 4901 00bf A1000000 		.4byte	0xa1
 4902 00c3 09       		.uleb128 0x9
 4903 00c4 28090000 		.4byte	.LASF15
 4904 00c8 03       		.byte	0x3
 4905 00c9 A9       		.byte	0xa9
 4906 00ca 13       		.byte	0x13
 4907 00cb D0000000 		.4byte	0xd0
 4908 00cf 00       		.byte	0
 4909 00d0 0A       		.uleb128 0xa
 4910 00d1 48000000 		.4byte	0x48
 4911 00d5 E0000000 		.4byte	0xe0
 4912 00d9 0B       		.uleb128 0xb
 4913 00da 2C000000 		.4byte	0x2c
ARM GAS  C:\Users\jens-\AppData\Local\Temp\ccdWTNhT.s 			page 150


 4914 00de 03       		.byte	0x3
 4915 00df 00       		.byte	0
 4916 00e0 0C       		.uleb128 0xc
 4917 00e1 08       		.byte	0x8
 4918 00e2 03       		.byte	0x3
 4919 00e3 A3       		.byte	0xa3
 4920 00e4 09       		.byte	0x9
 4921 00e5 04010000 		.4byte	0x104
 4922 00e9 0D       		.uleb128 0xd
 4923 00ea 00030000 		.4byte	.LASF16
 4924 00ee 03       		.byte	0x3
 4925 00ef A5       		.byte	0xa5
 4926 00f0 07       		.byte	0x7
 4927 00f1 25000000 		.4byte	0x25
 4928 00f5 00       		.byte	0
 4929 00f6 0D       		.uleb128 0xd
 4930 00f7 8A050000 		.4byte	.LASF17
 4931 00fb 03       		.byte	0x3
 4932 00fc AA       		.byte	0xaa
 4933 00fd 05       		.byte	0x5
 4934 00fe AE000000 		.4byte	0xae
 4935 0102 04       		.byte	0x4
 4936 0103 00       		.byte	0
 4937 0104 04       		.uleb128 0x4
 4938 0105 CA070000 		.4byte	.LASF18
 4939 0109 03       		.byte	0x3
 4940 010a AB       		.byte	0xab
 4941 010b 03       		.byte	0x3
 4942 010c E0000000 		.4byte	0xe0
 4943 0110 04       		.uleb128 0x4
 4944 0111 6E060000 		.4byte	.LASF19
 4945 0115 03       		.byte	0x3
 4946 0116 AF       		.byte	0xaf
 4947 0117 1B       		.byte	0x1b
 4948 0118 72000000 		.4byte	0x72
 4949 011c 0E       		.uleb128 0xe
 4950 011d 04       		.byte	0x4
 4951 011e 05       		.uleb128 0x5
 4952 011f 04       		.byte	0x4
 4953 0120 24010000 		.4byte	0x124
 4954 0124 03       		.uleb128 0x3
 4955 0125 01       		.byte	0x1
 4956 0126 08       		.byte	0x8
 4957 0127 F8050000 		.4byte	.LASF20
 4958 012b 0F       		.uleb128 0xf
 4959 012c 24010000 		.4byte	0x124
 4960 0130 04       		.uleb128 0x4
 4961 0131 14070000 		.4byte	.LASF21
 4962 0135 05       		.byte	0x5
 4963 0136 16       		.byte	0x16
 4964 0137 19       		.byte	0x19
 4965 0138 64000000 		.4byte	0x64
 4966 013c 10       		.uleb128 0x10
 4967 013d 98020000 		.4byte	.LASF26
 4968 0141 18       		.byte	0x18
 4969 0142 05       		.byte	0x5
 4970 0143 2F       		.byte	0x2f
ARM GAS  C:\Users\jens-\AppData\Local\Temp\ccdWTNhT.s 			page 151


 4971 0144 08       		.byte	0x8
 4972 0145 96010000 		.4byte	0x196
 4973 0149 0D       		.uleb128 0xd
 4974 014a 18050000 		.4byte	.LASF22
 4975 014e 05       		.byte	0x5
 4976 014f 31       		.byte	0x31
 4977 0150 13       		.byte	0x13
 4978 0151 96010000 		.4byte	0x196
 4979 0155 00       		.byte	0
 4980 0156 11       		.uleb128 0x11
 4981 0157 5F6B00   		.ascii	"_k\000"
 4982 015a 05       		.byte	0x5
 4983 015b 32       		.byte	0x32
 4984 015c 07       		.byte	0x7
 4985 015d 25000000 		.4byte	0x25
 4986 0161 04       		.byte	0x4
 4987 0162 0D       		.uleb128 0xd
 4988 0163 1A0B0000 		.4byte	.LASF23
 4989 0167 05       		.byte	0x5
 4990 0168 32       		.byte	0x32
 4991 0169 0B       		.byte	0xb
 4992 016a 25000000 		.4byte	0x25
 4993 016e 08       		.byte	0x8
 4994 016f 0D       		.uleb128 0xd
 4995 0170 D6090000 		.4byte	.LASF24
 4996 0174 05       		.byte	0x5
 4997 0175 32       		.byte	0x32
 4998 0176 14       		.byte	0x14
 4999 0177 25000000 		.4byte	0x25
 5000 017b 0C       		.byte	0xc
 5001 017c 0D       		.uleb128 0xd
 5002 017d 09040000 		.4byte	.LASF25
 5003 0181 05       		.byte	0x5
 5004 0182 32       		.byte	0x32
 5005 0183 1B       		.byte	0x1b
 5006 0184 25000000 		.4byte	0x25
 5007 0188 10       		.byte	0x10
 5008 0189 11       		.uleb128 0x11
 5009 018a 5F7800   		.ascii	"_x\000"
 5010 018d 05       		.byte	0x5
 5011 018e 33       		.byte	0x33
 5012 018f 0B       		.byte	0xb
 5013 0190 9C010000 		.4byte	0x19c
 5014 0194 14       		.byte	0x14
 5015 0195 00       		.byte	0
 5016 0196 05       		.uleb128 0x5
 5017 0197 04       		.byte	0x4
 5018 0198 3C010000 		.4byte	0x13c
 5019 019c 0A       		.uleb128 0xa
 5020 019d 30010000 		.4byte	0x130
 5021 01a1 AC010000 		.4byte	0x1ac
 5022 01a5 0B       		.uleb128 0xb
 5023 01a6 2C000000 		.4byte	0x2c
 5024 01aa 00       		.byte	0
 5025 01ab 00       		.byte	0
 5026 01ac 10       		.uleb128 0x10
 5027 01ad 490B0000 		.4byte	.LASF27
ARM GAS  C:\Users\jens-\AppData\Local\Temp\ccdWTNhT.s 			page 152


 5028 01b1 24       		.byte	0x24
 5029 01b2 05       		.byte	0x5
 5030 01b3 37       		.byte	0x37
 5031 01b4 08       		.byte	0x8
 5032 01b5 2F020000 		.4byte	0x22f
 5033 01b9 0D       		.uleb128 0xd
 5034 01ba C9040000 		.4byte	.LASF28
 5035 01be 05       		.byte	0x5
 5036 01bf 39       		.byte	0x39
 5037 01c0 09       		.byte	0x9
 5038 01c1 25000000 		.4byte	0x25
 5039 01c5 00       		.byte	0
 5040 01c6 0D       		.uleb128 0xd
 5041 01c7 25030000 		.4byte	.LASF29
 5042 01cb 05       		.byte	0x5
 5043 01cc 3A       		.byte	0x3a
 5044 01cd 09       		.byte	0x9
 5045 01ce 25000000 		.4byte	0x25
 5046 01d2 04       		.byte	0x4
 5047 01d3 0D       		.uleb128 0xd
 5048 01d4 DE020000 		.4byte	.LASF30
 5049 01d8 05       		.byte	0x5
 5050 01d9 3B       		.byte	0x3b
 5051 01da 09       		.byte	0x9
 5052 01db 25000000 		.4byte	0x25
 5053 01df 08       		.byte	0x8
 5054 01e0 0D       		.uleb128 0xd
 5055 01e1 FD050000 		.4byte	.LASF31
 5056 01e5 05       		.byte	0x5
 5057 01e6 3C       		.byte	0x3c
 5058 01e7 09       		.byte	0x9
 5059 01e8 25000000 		.4byte	0x25
 5060 01ec 0C       		.byte	0xc
 5061 01ed 0D       		.uleb128 0xd
 5062 01ee C9080000 		.4byte	.LASF32
 5063 01f2 05       		.byte	0x5
 5064 01f3 3D       		.byte	0x3d
 5065 01f4 09       		.byte	0x9
 5066 01f5 25000000 		.4byte	0x25
 5067 01f9 10       		.byte	0x10
 5068 01fa 0D       		.uleb128 0xd
 5069 01fb D30A0000 		.4byte	.LASF33
 5070 01ff 05       		.byte	0x5
 5071 0200 3E       		.byte	0x3e
 5072 0201 09       		.byte	0x9
 5073 0202 25000000 		.4byte	0x25
 5074 0206 14       		.byte	0x14
 5075 0207 0D       		.uleb128 0xd
 5076 0208 A6020000 		.4byte	.LASF34
 5077 020c 05       		.byte	0x5
 5078 020d 3F       		.byte	0x3f
 5079 020e 09       		.byte	0x9
 5080 020f 25000000 		.4byte	0x25
 5081 0213 18       		.byte	0x18
 5082 0214 0D       		.uleb128 0xd
 5083 0215 FA040000 		.4byte	.LASF35
 5084 0219 05       		.byte	0x5
ARM GAS  C:\Users\jens-\AppData\Local\Temp\ccdWTNhT.s 			page 153


 5085 021a 40       		.byte	0x40
 5086 021b 09       		.byte	0x9
 5087 021c 25000000 		.4byte	0x25
 5088 0220 1C       		.byte	0x1c
 5089 0221 0D       		.uleb128 0xd
 5090 0222 1E080000 		.4byte	.LASF36
 5091 0226 05       		.byte	0x5
 5092 0227 41       		.byte	0x41
 5093 0228 09       		.byte	0x9
 5094 0229 25000000 		.4byte	0x25
 5095 022d 20       		.byte	0x20
 5096 022e 00       		.byte	0
 5097 022f 12       		.uleb128 0x12
 5098 0230 D6000000 		.4byte	.LASF37
 5099 0234 0801     		.2byte	0x108
 5100 0236 05       		.byte	0x5
 5101 0237 4A       		.byte	0x4a
 5102 0238 08       		.byte	0x8
 5103 0239 74020000 		.4byte	0x274
 5104 023d 0D       		.uleb128 0xd
 5105 023e 360D0000 		.4byte	.LASF38
 5106 0242 05       		.byte	0x5
 5107 0243 4B       		.byte	0x4b
 5108 0244 0A       		.byte	0xa
 5109 0245 74020000 		.4byte	0x274
 5110 0249 00       		.byte	0
 5111 024a 0D       		.uleb128 0xd
 5112 024b A10B0000 		.4byte	.LASF39
 5113 024f 05       		.byte	0x5
 5114 0250 4C       		.byte	0x4c
 5115 0251 09       		.byte	0x9
 5116 0252 74020000 		.4byte	0x274
 5117 0256 80       		.byte	0x80
 5118 0257 13       		.uleb128 0x13
 5119 0258 920D0000 		.4byte	.LASF40
 5120 025c 05       		.byte	0x5
 5121 025d 4E       		.byte	0x4e
 5122 025e 0A       		.byte	0xa
 5123 025f 30010000 		.4byte	0x130
 5124 0263 0001     		.2byte	0x100
 5125 0265 13       		.uleb128 0x13
 5126 0266 0A0E0000 		.4byte	.LASF41
 5127 026a 05       		.byte	0x5
 5128 026b 51       		.byte	0x51
 5129 026c 0A       		.byte	0xa
 5130 026d 30010000 		.4byte	0x130
 5131 0271 0401     		.2byte	0x104
 5132 0273 00       		.byte	0
 5133 0274 0A       		.uleb128 0xa
 5134 0275 1C010000 		.4byte	0x11c
 5135 0279 84020000 		.4byte	0x284
 5136 027d 0B       		.uleb128 0xb
 5137 027e 2C000000 		.4byte	0x2c
 5138 0282 1F       		.byte	0x1f
 5139 0283 00       		.byte	0
 5140 0284 12       		.uleb128 0x12
 5141 0285 2F090000 		.4byte	.LASF42
ARM GAS  C:\Users\jens-\AppData\Local\Temp\ccdWTNhT.s 			page 154


 5142 0289 9001     		.2byte	0x190
 5143 028b 05       		.byte	0x5
 5144 028c 5D       		.byte	0x5d
 5145 028d 08       		.byte	0x8
 5146 028e C7020000 		.4byte	0x2c7
 5147 0292 0D       		.uleb128 0xd
 5148 0293 18050000 		.4byte	.LASF22
 5149 0297 05       		.byte	0x5
 5150 0298 5E       		.byte	0x5e
 5151 0299 12       		.byte	0x12
 5152 029a C7020000 		.4byte	0x2c7
 5153 029e 00       		.byte	0
 5154 029f 0D       		.uleb128 0xd
 5155 02a0 09050000 		.4byte	.LASF43
 5156 02a4 05       		.byte	0x5
 5157 02a5 5F       		.byte	0x5f
 5158 02a6 06       		.byte	0x6
 5159 02a7 25000000 		.4byte	0x25
 5160 02ab 04       		.byte	0x4
 5161 02ac 0D       		.uleb128 0xd
 5162 02ad 5F020000 		.4byte	.LASF44
 5163 02b1 05       		.byte	0x5
 5164 02b2 61       		.byte	0x61
 5165 02b3 09       		.byte	0x9
 5166 02b4 CD020000 		.4byte	0x2cd
 5167 02b8 08       		.byte	0x8
 5168 02b9 0D       		.uleb128 0xd
 5169 02ba D6000000 		.4byte	.LASF37
 5170 02be 05       		.byte	0x5
 5171 02bf 62       		.byte	0x62
 5172 02c0 1E       		.byte	0x1e
 5173 02c1 2F020000 		.4byte	0x22f
 5174 02c5 88       		.byte	0x88
 5175 02c6 00       		.byte	0
 5176 02c7 05       		.uleb128 0x5
 5177 02c8 04       		.byte	0x4
 5178 02c9 84020000 		.4byte	0x284
 5179 02cd 0A       		.uleb128 0xa
 5180 02ce DD020000 		.4byte	0x2dd
 5181 02d2 DD020000 		.4byte	0x2dd
 5182 02d6 0B       		.uleb128 0xb
 5183 02d7 2C000000 		.4byte	0x2c
 5184 02db 1F       		.byte	0x1f
 5185 02dc 00       		.byte	0
 5186 02dd 05       		.uleb128 0x5
 5187 02de 04       		.byte	0x4
 5188 02df E3020000 		.4byte	0x2e3
 5189 02e3 14       		.uleb128 0x14
 5190 02e4 10       		.uleb128 0x10
 5191 02e5 7A0C0000 		.4byte	.LASF45
 5192 02e9 08       		.byte	0x8
 5193 02ea 05       		.byte	0x5
 5194 02eb 75       		.byte	0x75
 5195 02ec 08       		.byte	0x8
 5196 02ed 0C030000 		.4byte	0x30c
 5197 02f1 0D       		.uleb128 0xd
 5198 02f2 FE060000 		.4byte	.LASF46
ARM GAS  C:\Users\jens-\AppData\Local\Temp\ccdWTNhT.s 			page 155


 5199 02f6 05       		.byte	0x5
 5200 02f7 76       		.byte	0x76
 5201 02f8 11       		.byte	0x11
 5202 02f9 0C030000 		.4byte	0x30c
 5203 02fd 00       		.byte	0
 5204 02fe 0D       		.uleb128 0xd
 5205 02ff 9B0D0000 		.4byte	.LASF47
 5206 0303 05       		.byte	0x5
 5207 0304 77       		.byte	0x77
 5208 0305 06       		.byte	0x6
 5209 0306 25000000 		.4byte	0x25
 5210 030a 04       		.byte	0x4
 5211 030b 00       		.byte	0
 5212 030c 05       		.uleb128 0x5
 5213 030d 04       		.byte	0x4
 5214 030e 48000000 		.4byte	0x48
 5215 0312 10       		.uleb128 0x10
 5216 0313 01040000 		.4byte	.LASF48
 5217 0317 68       		.byte	0x68
 5218 0318 05       		.byte	0x5
 5219 0319 B5       		.byte	0xb5
 5220 031a 08       		.byte	0x8
 5221 031b 55040000 		.4byte	0x455
 5222 031f 11       		.uleb128 0x11
 5223 0320 5F7000   		.ascii	"_p\000"
 5224 0323 05       		.byte	0x5
 5225 0324 B6       		.byte	0xb6
 5226 0325 12       		.byte	0x12
 5227 0326 0C030000 		.4byte	0x30c
 5228 032a 00       		.byte	0
 5229 032b 11       		.uleb128 0x11
 5230 032c 5F7200   		.ascii	"_r\000"
 5231 032f 05       		.byte	0x5
 5232 0330 B7       		.byte	0xb7
 5233 0331 07       		.byte	0x7
 5234 0332 25000000 		.4byte	0x25
 5235 0336 04       		.byte	0x4
 5236 0337 11       		.uleb128 0x11
 5237 0338 5F7700   		.ascii	"_w\000"
 5238 033b 05       		.byte	0x5
 5239 033c B8       		.byte	0xb8
 5240 033d 07       		.byte	0x7
 5241 033e 25000000 		.4byte	0x25
 5242 0342 08       		.byte	0x8
 5243 0343 0D       		.uleb128 0xd
 5244 0344 7D010000 		.4byte	.LASF49
 5245 0348 05       		.byte	0x5
 5246 0349 B9       		.byte	0xb9
 5247 034a 09       		.byte	0x9
 5248 034b 4F000000 		.4byte	0x4f
 5249 034f 0C       		.byte	0xc
 5250 0350 0D       		.uleb128 0xd
 5251 0351 5A070000 		.4byte	.LASF50
 5252 0355 05       		.byte	0x5
 5253 0356 BA       		.byte	0xba
 5254 0357 09       		.byte	0x9
 5255 0358 4F000000 		.4byte	0x4f
ARM GAS  C:\Users\jens-\AppData\Local\Temp\ccdWTNhT.s 			page 156


 5256 035c 0E       		.byte	0xe
 5257 035d 11       		.uleb128 0x11
 5258 035e 5F626600 		.ascii	"_bf\000"
 5259 0362 05       		.byte	0x5
 5260 0363 BB       		.byte	0xbb
 5261 0364 11       		.byte	0x11
 5262 0365 E4020000 		.4byte	0x2e4
 5263 0369 10       		.byte	0x10
 5264 036a 0D       		.uleb128 0xd
 5265 036b 74010000 		.4byte	.LASF51
 5266 036f 05       		.byte	0x5
 5267 0370 BC       		.byte	0xbc
 5268 0371 07       		.byte	0x7
 5269 0372 25000000 		.4byte	0x25
 5270 0376 18       		.byte	0x18
 5271 0377 0D       		.uleb128 0xd
 5272 0378 77020000 		.4byte	.LASF52
 5273 037c 05       		.byte	0x5
 5274 037d C3       		.byte	0xc3
 5275 037e 0A       		.byte	0xa
 5276 037f 1C010000 		.4byte	0x11c
 5277 0383 1C       		.byte	0x1c
 5278 0384 0D       		.uleb128 0xd
 5279 0385 E0010000 		.4byte	.LASF53
 5280 0389 05       		.byte	0x5
 5281 038a C5       		.byte	0xc5
 5282 038b 1D       		.byte	0x1d
 5283 038c C7050000 		.4byte	0x5c7
 5284 0390 20       		.byte	0x20
 5285 0391 0D       		.uleb128 0xd
 5286 0392 16090000 		.4byte	.LASF54
 5287 0396 05       		.byte	0x5
 5288 0397 C7       		.byte	0xc7
 5289 0398 1D       		.byte	0x1d
 5290 0399 F1050000 		.4byte	0x5f1
 5291 039d 24       		.byte	0x24
 5292 039e 0D       		.uleb128 0xd
 5293 039f 420E0000 		.4byte	.LASF55
 5294 03a3 05       		.byte	0x5
 5295 03a4 CA       		.byte	0xca
 5296 03a5 0D       		.byte	0xd
 5297 03a6 15060000 		.4byte	0x615
 5298 03aa 28       		.byte	0x28
 5299 03ab 0D       		.uleb128 0xd
 5300 03ac B5060000 		.4byte	.LASF56
 5301 03b0 05       		.byte	0x5
 5302 03b1 CB       		.byte	0xcb
 5303 03b2 09       		.byte	0x9
 5304 03b3 2F060000 		.4byte	0x62f
 5305 03b7 2C       		.byte	0x2c
 5306 03b8 11       		.uleb128 0x11
 5307 03b9 5F756200 		.ascii	"_ub\000"
 5308 03bd 05       		.byte	0x5
 5309 03be CE       		.byte	0xce
 5310 03bf 11       		.byte	0x11
 5311 03c0 E4020000 		.4byte	0x2e4
 5312 03c4 30       		.byte	0x30
ARM GAS  C:\Users\jens-\AppData\Local\Temp\ccdWTNhT.s 			page 157


 5313 03c5 11       		.uleb128 0x11
 5314 03c6 5F757000 		.ascii	"_up\000"
 5315 03ca 05       		.byte	0x5
 5316 03cb CF       		.byte	0xcf
 5317 03cc 12       		.byte	0x12
 5318 03cd 0C030000 		.4byte	0x30c
 5319 03d1 38       		.byte	0x38
 5320 03d2 11       		.uleb128 0x11
 5321 03d3 5F757200 		.ascii	"_ur\000"
 5322 03d7 05       		.byte	0x5
 5323 03d8 D0       		.byte	0xd0
 5324 03d9 07       		.byte	0x7
 5325 03da 25000000 		.4byte	0x25
 5326 03de 3C       		.byte	0x3c
 5327 03df 0D       		.uleb128 0xd
 5328 03e0 660E0000 		.4byte	.LASF57
 5329 03e4 05       		.byte	0x5
 5330 03e5 D3       		.byte	0xd3
 5331 03e6 11       		.byte	0x11
 5332 03e7 35060000 		.4byte	0x635
 5333 03eb 40       		.byte	0x40
 5334 03ec 0D       		.uleb128 0xd
 5335 03ed C70D0000 		.4byte	.LASF58
 5336 03f1 05       		.byte	0x5
 5337 03f2 D4       		.byte	0xd4
 5338 03f3 11       		.byte	0x11
 5339 03f4 45060000 		.4byte	0x645
 5340 03f8 43       		.byte	0x43
 5341 03f9 11       		.uleb128 0x11
 5342 03fa 5F6C6200 		.ascii	"_lb\000"
 5343 03fe 05       		.byte	0x5
 5344 03ff D7       		.byte	0xd7
 5345 0400 11       		.byte	0x11
 5346 0401 E4020000 		.4byte	0x2e4
 5347 0405 44       		.byte	0x44
 5348 0406 0D       		.uleb128 0xd
 5349 0407 400B0000 		.4byte	.LASF59
 5350 040b 05       		.byte	0x5
 5351 040c DA       		.byte	0xda
 5352 040d 07       		.byte	0x7
 5353 040e 25000000 		.4byte	0x25
 5354 0412 4C       		.byte	0x4c
 5355 0413 0D       		.uleb128 0xd
 5356 0414 50040000 		.4byte	.LASF60
 5357 0418 05       		.byte	0x5
 5358 0419 DB       		.byte	0xdb
 5359 041a 0A       		.byte	0xa
 5360 041b 89000000 		.4byte	0x89
 5361 041f 50       		.byte	0x50
 5362 0420 0D       		.uleb128 0xd
 5363 0421 110A0000 		.4byte	.LASF61
 5364 0425 05       		.byte	0x5
 5365 0426 DE       		.byte	0xde
 5366 0427 12       		.byte	0x12
 5367 0428 73040000 		.4byte	0x473
 5368 042c 54       		.byte	0x54
 5369 042d 0D       		.uleb128 0xd
ARM GAS  C:\Users\jens-\AppData\Local\Temp\ccdWTNhT.s 			page 158


 5370 042e 4E0B0000 		.4byte	.LASF62
 5371 0432 05       		.byte	0x5
 5372 0433 E2       		.byte	0xe2
 5373 0434 0C       		.byte	0xc
 5374 0435 10010000 		.4byte	0x110
 5375 0439 58       		.byte	0x58
 5376 043a 0D       		.uleb128 0xd
 5377 043b D7010000 		.4byte	.LASF63
 5378 043f 05       		.byte	0x5
 5379 0440 E4       		.byte	0xe4
 5380 0441 0E       		.byte	0xe
 5381 0442 04010000 		.4byte	0x104
 5382 0446 5C       		.byte	0x5c
 5383 0447 0D       		.uleb128 0xd
 5384 0448 020E0000 		.4byte	.LASF64
 5385 044c 05       		.byte	0x5
 5386 044d E5       		.byte	0xe5
 5387 044e 09       		.byte	0x9
 5388 044f 25000000 		.4byte	0x25
 5389 0453 64       		.byte	0x64
 5390 0454 00       		.byte	0
 5391 0455 15       		.uleb128 0x15
 5392 0456 25000000 		.4byte	0x25
 5393 045a 73040000 		.4byte	0x473
 5394 045e 16       		.uleb128 0x16
 5395 045f 73040000 		.4byte	0x473
 5396 0463 16       		.uleb128 0x16
 5397 0464 1C010000 		.4byte	0x11c
 5398 0468 16       		.uleb128 0x16
 5399 0469 1E010000 		.4byte	0x11e
 5400 046d 16       		.uleb128 0x16
 5401 046e 25000000 		.4byte	0x25
 5402 0472 00       		.byte	0
 5403 0473 05       		.uleb128 0x5
 5404 0474 04       		.byte	0x4
 5405 0475 7E040000 		.4byte	0x47e
 5406 0479 0F       		.uleb128 0xf
 5407 047a 73040000 		.4byte	0x473
 5408 047e 17       		.uleb128 0x17
 5409 047f 580D0000 		.4byte	.LASF65
 5410 0483 2804     		.2byte	0x428
 5411 0485 05       		.byte	0x5
 5412 0486 6002     		.2byte	0x260
 5413 0488 08       		.byte	0x8
 5414 0489 C7050000 		.4byte	0x5c7
 5415 048d 18       		.uleb128 0x18
 5416 048e 84010000 		.4byte	.LASF66
 5417 0492 05       		.byte	0x5
 5418 0493 6202     		.2byte	0x262
 5419 0495 07       		.byte	0x7
 5420 0496 25000000 		.4byte	0x25
 5421 049a 00       		.byte	0
 5422 049b 18       		.uleb128 0x18
 5423 049c DA060000 		.4byte	.LASF67
 5424 04a0 05       		.byte	0x5
 5425 04a1 6702     		.2byte	0x267
 5426 04a3 0B       		.byte	0xb
ARM GAS  C:\Users\jens-\AppData\Local\Temp\ccdWTNhT.s 			page 159


 5427 04a4 A1060000 		.4byte	0x6a1
 5428 04a8 04       		.byte	0x4
 5429 04a9 18       		.uleb128 0x18
 5430 04aa 20020000 		.4byte	.LASF68
 5431 04ae 05       		.byte	0x5
 5432 04af 6702     		.2byte	0x267
 5433 04b1 14       		.byte	0x14
 5434 04b2 A1060000 		.4byte	0x6a1
 5435 04b6 08       		.byte	0x8
 5436 04b7 18       		.uleb128 0x18
 5437 04b8 550E0000 		.4byte	.LASF69
 5438 04bc 05       		.byte	0x5
 5439 04bd 6702     		.2byte	0x267
 5440 04bf 1E       		.byte	0x1e
 5441 04c0 A1060000 		.4byte	0x6a1
 5442 04c4 0C       		.byte	0xc
 5443 04c5 18       		.uleb128 0x18
 5444 04c6 04050000 		.4byte	.LASF70
 5445 04ca 05       		.byte	0x5
 5446 04cb 6902     		.2byte	0x269
 5447 04cd 08       		.byte	0x8
 5448 04ce 25000000 		.4byte	0x25
 5449 04d2 10       		.byte	0x10
 5450 04d3 18       		.uleb128 0x18
 5451 04d4 66040000 		.4byte	.LASF71
 5452 04d8 05       		.byte	0x5
 5453 04d9 6A02     		.2byte	0x26a
 5454 04db 08       		.byte	0x8
 5455 04dc A1080000 		.4byte	0x8a1
 5456 04e0 14       		.byte	0x14
 5457 04e1 18       		.uleb128 0x18
 5458 04e2 E90D0000 		.4byte	.LASF72
 5459 04e6 05       		.byte	0x5
 5460 04e7 6D02     		.2byte	0x26d
 5461 04e9 07       		.byte	0x7
 5462 04ea 25000000 		.4byte	0x25
 5463 04ee 30       		.byte	0x30
 5464 04ef 18       		.uleb128 0x18
 5465 04f0 260D0000 		.4byte	.LASF73
 5466 04f4 05       		.byte	0x5
 5467 04f5 6E02     		.2byte	0x26e
 5468 04f7 16       		.byte	0x16
 5469 04f8 B6080000 		.4byte	0x8b6
 5470 04fc 34       		.byte	0x34
 5471 04fd 18       		.uleb128 0x18
 5472 04fe BC060000 		.4byte	.LASF74
 5473 0502 05       		.byte	0x5
 5474 0503 7002     		.2byte	0x270
 5475 0505 07       		.byte	0x7
 5476 0506 25000000 		.4byte	0x25
 5477 050a 38       		.byte	0x38
 5478 050b 18       		.uleb128 0x18
 5479 050c C0070000 		.4byte	.LASF75
 5480 0510 05       		.byte	0x5
 5481 0511 7202     		.2byte	0x272
 5482 0513 0A       		.byte	0xa
 5483 0514 C7080000 		.4byte	0x8c7
ARM GAS  C:\Users\jens-\AppData\Local\Temp\ccdWTNhT.s 			page 160


 5484 0518 3C       		.byte	0x3c
 5485 0519 18       		.uleb128 0x18
 5486 051a BE020000 		.4byte	.LASF76
 5487 051e 05       		.byte	0x5
 5488 051f 7502     		.2byte	0x275
 5489 0521 13       		.byte	0x13
 5490 0522 96010000 		.4byte	0x196
 5491 0526 40       		.byte	0x40
 5492 0527 18       		.uleb128 0x18
 5493 0528 CB030000 		.4byte	.LASF77
 5494 052c 05       		.byte	0x5
 5495 052d 7602     		.2byte	0x276
 5496 052f 07       		.byte	0x7
 5497 0530 25000000 		.4byte	0x25
 5498 0534 44       		.byte	0x44
 5499 0535 18       		.uleb128 0x18
 5500 0536 92050000 		.4byte	.LASF78
 5501 053a 05       		.byte	0x5
 5502 053b 7702     		.2byte	0x277
 5503 053d 13       		.byte	0x13
 5504 053e 96010000 		.4byte	0x196
 5505 0542 48       		.byte	0x48
 5506 0543 18       		.uleb128 0x18
 5507 0544 04070000 		.4byte	.LASF79
 5508 0548 05       		.byte	0x5
 5509 0549 7802     		.2byte	0x278
 5510 054b 14       		.byte	0x14
 5511 054c CD080000 		.4byte	0x8cd
 5512 0550 4C       		.byte	0x4c
 5513 0551 18       		.uleb128 0x18
 5514 0552 120B0000 		.4byte	.LASF80
 5515 0556 05       		.byte	0x5
 5516 0557 7B02     		.2byte	0x27b
 5517 0559 07       		.byte	0x7
 5518 055a 25000000 		.4byte	0x25
 5519 055e 50       		.byte	0x50
 5520 055f 18       		.uleb128 0x18
 5521 0560 CD0B0000 		.4byte	.LASF81
 5522 0564 05       		.byte	0x5
 5523 0565 7C02     		.2byte	0x27c
 5524 0567 09       		.byte	0x9
 5525 0568 1E010000 		.4byte	0x11e
 5526 056c 54       		.byte	0x54
 5527 056d 18       		.uleb128 0x18
 5528 056e 060B0000 		.4byte	.LASF82
 5529 0572 05       		.byte	0x5
 5530 0573 9F02     		.2byte	0x29f
 5531 0575 07       		.byte	0x7
 5532 0576 7C080000 		.4byte	0x87c
 5533 057a 58       		.byte	0x58
 5534 057b 19       		.uleb128 0x19
 5535 057c 2F090000 		.4byte	.LASF42
 5536 0580 05       		.byte	0x5
 5537 0581 A302     		.2byte	0x2a3
 5538 0583 13       		.byte	0x13
 5539 0584 C7020000 		.4byte	0x2c7
 5540 0588 4801     		.2byte	0x148
ARM GAS  C:\Users\jens-\AppData\Local\Temp\ccdWTNhT.s 			page 161


 5541 058a 19       		.uleb128 0x19
 5542 058b 36060000 		.4byte	.LASF83
 5543 058f 05       		.byte	0x5
 5544 0590 A402     		.2byte	0x2a4
 5545 0592 12       		.byte	0x12
 5546 0593 84020000 		.4byte	0x284
 5547 0597 4C01     		.2byte	0x14c
 5548 0599 19       		.uleb128 0x19
 5549 059a 1D060000 		.4byte	.LASF84
 5550 059e 05       		.byte	0x5
 5551 059f A802     		.2byte	0x2a8
 5552 05a1 0C       		.byte	0xc
 5553 05a2 DE080000 		.4byte	0x8de
 5554 05a6 DC02     		.2byte	0x2dc
 5555 05a8 19       		.uleb128 0x19
 5556 05a9 EC0C0000 		.4byte	.LASF85
 5557 05ad 05       		.byte	0x5
 5558 05ae AD02     		.2byte	0x2ad
 5559 05b0 10       		.byte	0x10
 5560 05b1 62060000 		.4byte	0x662
 5561 05b5 E002     		.2byte	0x2e0
 5562 05b7 19       		.uleb128 0x19
 5563 05b8 D1090000 		.4byte	.LASF86
 5564 05bc 05       		.byte	0x5
 5565 05bd AF02     		.2byte	0x2af
 5566 05bf 0A       		.byte	0xa
 5567 05c0 EA080000 		.4byte	0x8ea
 5568 05c4 EC02     		.2byte	0x2ec
 5569 05c6 00       		.byte	0
 5570 05c7 05       		.uleb128 0x5
 5571 05c8 04       		.byte	0x4
 5572 05c9 55040000 		.4byte	0x455
 5573 05cd 15       		.uleb128 0x15
 5574 05ce 25000000 		.4byte	0x25
 5575 05d2 EB050000 		.4byte	0x5eb
 5576 05d6 16       		.uleb128 0x16
 5577 05d7 73040000 		.4byte	0x473
 5578 05db 16       		.uleb128 0x16
 5579 05dc 1C010000 		.4byte	0x11c
 5580 05e0 16       		.uleb128 0x16
 5581 05e1 EB050000 		.4byte	0x5eb
 5582 05e5 16       		.uleb128 0x16
 5583 05e6 25000000 		.4byte	0x25
 5584 05ea 00       		.byte	0
 5585 05eb 05       		.uleb128 0x5
 5586 05ec 04       		.byte	0x4
 5587 05ed 2B010000 		.4byte	0x12b
 5588 05f1 05       		.uleb128 0x5
 5589 05f2 04       		.byte	0x4
 5590 05f3 CD050000 		.4byte	0x5cd
 5591 05f7 15       		.uleb128 0x15
 5592 05f8 95000000 		.4byte	0x95
 5593 05fc 15060000 		.4byte	0x615
 5594 0600 16       		.uleb128 0x16
 5595 0601 73040000 		.4byte	0x473
 5596 0605 16       		.uleb128 0x16
 5597 0606 1C010000 		.4byte	0x11c
ARM GAS  C:\Users\jens-\AppData\Local\Temp\ccdWTNhT.s 			page 162


 5598 060a 16       		.uleb128 0x16
 5599 060b 95000000 		.4byte	0x95
 5600 060f 16       		.uleb128 0x16
 5601 0610 25000000 		.4byte	0x25
 5602 0614 00       		.byte	0
 5603 0615 05       		.uleb128 0x5
 5604 0616 04       		.byte	0x4
 5605 0617 F7050000 		.4byte	0x5f7
 5606 061b 15       		.uleb128 0x15
 5607 061c 25000000 		.4byte	0x25
 5608 0620 2F060000 		.4byte	0x62f
 5609 0624 16       		.uleb128 0x16
 5610 0625 73040000 		.4byte	0x473
 5611 0629 16       		.uleb128 0x16
 5612 062a 1C010000 		.4byte	0x11c
 5613 062e 00       		.byte	0
 5614 062f 05       		.uleb128 0x5
 5615 0630 04       		.byte	0x4
 5616 0631 1B060000 		.4byte	0x61b
 5617 0635 0A       		.uleb128 0xa
 5618 0636 48000000 		.4byte	0x48
 5619 063a 45060000 		.4byte	0x645
 5620 063e 0B       		.uleb128 0xb
 5621 063f 2C000000 		.4byte	0x2c
 5622 0643 02       		.byte	0x2
 5623 0644 00       		.byte	0
 5624 0645 0A       		.uleb128 0xa
 5625 0646 48000000 		.4byte	0x48
 5626 064a 55060000 		.4byte	0x655
 5627 064e 0B       		.uleb128 0xb
 5628 064f 2C000000 		.4byte	0x2c
 5629 0653 00       		.byte	0
 5630 0654 00       		.byte	0
 5631 0655 07       		.uleb128 0x7
 5632 0656 49040000 		.4byte	.LASF87
 5633 065a 05       		.byte	0x5
 5634 065b 1F01     		.2byte	0x11f
 5635 065d 1A       		.byte	0x1a
 5636 065e 12030000 		.4byte	0x312
 5637 0662 1A       		.uleb128 0x1a
 5638 0663 AD0C0000 		.4byte	.LASF88
 5639 0667 0C       		.byte	0xc
 5640 0668 05       		.byte	0x5
 5641 0669 2301     		.2byte	0x123
 5642 066b 08       		.byte	0x8
 5643 066c 9B060000 		.4byte	0x69b
 5644 0670 18       		.uleb128 0x18
 5645 0671 18050000 		.4byte	.LASF22
 5646 0675 05       		.byte	0x5
 5647 0676 2501     		.2byte	0x125
 5648 0678 11       		.byte	0x11
 5649 0679 9B060000 		.4byte	0x69b
 5650 067d 00       		.byte	0
 5651 067e 18       		.uleb128 0x18
 5652 067f 830B0000 		.4byte	.LASF89
 5653 0683 05       		.byte	0x5
 5654 0684 2601     		.2byte	0x126
ARM GAS  C:\Users\jens-\AppData\Local\Temp\ccdWTNhT.s 			page 163


 5655 0686 07       		.byte	0x7
 5656 0687 25000000 		.4byte	0x25
 5657 068b 04       		.byte	0x4
 5658 068c 18       		.uleb128 0x18
 5659 068d 96060000 		.4byte	.LASF90
 5660 0691 05       		.byte	0x5
 5661 0692 2701     		.2byte	0x127
 5662 0694 0B       		.byte	0xb
 5663 0695 A1060000 		.4byte	0x6a1
 5664 0699 08       		.byte	0x8
 5665 069a 00       		.byte	0
 5666 069b 05       		.uleb128 0x5
 5667 069c 04       		.byte	0x4
 5668 069d 62060000 		.4byte	0x662
 5669 06a1 05       		.uleb128 0x5
 5670 06a2 04       		.byte	0x4
 5671 06a3 55060000 		.4byte	0x655
 5672 06a7 1A       		.uleb128 0x1a
 5673 06a8 F9030000 		.4byte	.LASF91
 5674 06ac 0E       		.byte	0xe
 5675 06ad 05       		.byte	0x5
 5676 06ae 3F01     		.2byte	0x13f
 5677 06b0 08       		.byte	0x8
 5678 06b1 E0060000 		.4byte	0x6e0
 5679 06b5 18       		.uleb128 0x18
 5680 06b6 120E0000 		.4byte	.LASF92
 5681 06ba 05       		.byte	0x5
 5682 06bb 4001     		.2byte	0x140
 5683 06bd 12       		.byte	0x12
 5684 06be E0060000 		.4byte	0x6e0
 5685 06c2 00       		.byte	0
 5686 06c3 18       		.uleb128 0x18
 5687 06c4 0E070000 		.4byte	.LASF93
 5688 06c8 05       		.byte	0x5
 5689 06c9 4101     		.2byte	0x141
 5690 06cb 12       		.byte	0x12
 5691 06cc E0060000 		.4byte	0x6e0
 5692 06d0 06       		.byte	0x6
 5693 06d1 18       		.uleb128 0x18
 5694 06d2 5C0C0000 		.4byte	.LASF94
 5695 06d6 05       		.byte	0x5
 5696 06d7 4201     		.2byte	0x142
 5697 06d9 12       		.byte	0x12
 5698 06da 56000000 		.4byte	0x56
 5699 06de 0C       		.byte	0xc
 5700 06df 00       		.byte	0
 5701 06e0 0A       		.uleb128 0xa
 5702 06e1 56000000 		.4byte	0x56
 5703 06e5 F0060000 		.4byte	0x6f0
 5704 06e9 0B       		.uleb128 0xb
 5705 06ea 2C000000 		.4byte	0x2c
 5706 06ee 02       		.byte	0x2
 5707 06ef 00       		.byte	0
 5708 06f0 1B       		.uleb128 0x1b
 5709 06f1 D0       		.byte	0xd0
 5710 06f2 05       		.byte	0x5
 5711 06f3 8002     		.2byte	0x280
ARM GAS  C:\Users\jens-\AppData\Local\Temp\ccdWTNhT.s 			page 164


 5712 06f5 07       		.byte	0x7
 5713 06f6 05080000 		.4byte	0x805
 5714 06fa 18       		.uleb128 0x18
 5715 06fb CD0D0000 		.4byte	.LASF95
 5716 06ff 05       		.byte	0x5
 5717 0700 8202     		.2byte	0x282
 5718 0702 18       		.byte	0x18
 5719 0703 2C000000 		.4byte	0x2c
 5720 0707 00       		.byte	0
 5721 0708 18       		.uleb128 0x18
 5722 0709 F40C0000 		.4byte	.LASF96
 5723 070d 05       		.byte	0x5
 5724 070e 8302     		.2byte	0x283
 5725 0710 12       		.byte	0x12
 5726 0711 1E010000 		.4byte	0x11e
 5727 0715 04       		.byte	0x4
 5728 0716 18       		.uleb128 0x18
 5729 0717 EC030000 		.4byte	.LASF97
 5730 071b 05       		.byte	0x5
 5731 071c 8402     		.2byte	0x284
 5732 071e 10       		.byte	0x10
 5733 071f 05080000 		.4byte	0x805
 5734 0723 08       		.byte	0x8
 5735 0724 18       		.uleb128 0x18
 5736 0725 E80A0000 		.4byte	.LASF98
 5737 0729 05       		.byte	0x5
 5738 072a 8502     		.2byte	0x285
 5739 072c 17       		.byte	0x17
 5740 072d AC010000 		.4byte	0x1ac
 5741 0731 24       		.byte	0x24
 5742 0732 18       		.uleb128 0x18
 5743 0733 E1060000 		.4byte	.LASF99
 5744 0737 05       		.byte	0x5
 5745 0738 8602     		.2byte	0x286
 5746 073a 0F       		.byte	0xf
 5747 073b 25000000 		.4byte	0x25
 5748 073f 48       		.byte	0x48
 5749 0740 18       		.uleb128 0x18
 5750 0741 180E0000 		.4byte	.LASF100
 5751 0745 05       		.byte	0x5
 5752 0746 8702     		.2byte	0x287
 5753 0748 2C       		.byte	0x2c
 5754 0749 6B000000 		.4byte	0x6b
 5755 074d 50       		.byte	0x50
 5756 074e 18       		.uleb128 0x18
 5757 074f 22010000 		.4byte	.LASF101
 5758 0753 05       		.byte	0x5
 5759 0754 8802     		.2byte	0x288
 5760 0756 1A       		.byte	0x1a
 5761 0757 A7060000 		.4byte	0x6a7
 5762 075b 58       		.byte	0x58
 5763 075c 18       		.uleb128 0x18
 5764 075d EB050000 		.4byte	.LASF102
 5765 0761 05       		.byte	0x5
 5766 0762 8902     		.2byte	0x289
 5767 0764 16       		.byte	0x16
 5768 0765 04010000 		.4byte	0x104
ARM GAS  C:\Users\jens-\AppData\Local\Temp\ccdWTNhT.s 			page 165


 5769 0769 68       		.byte	0x68
 5770 076a 18       		.uleb128 0x18
 5771 076b 010D0000 		.4byte	.LASF103
 5772 076f 05       		.byte	0x5
 5773 0770 8A02     		.2byte	0x28a
 5774 0772 16       		.byte	0x16
 5775 0773 04010000 		.4byte	0x104
 5776 0777 70       		.byte	0x70
 5777 0778 18       		.uleb128 0x18
 5778 0779 04010000 		.4byte	.LASF104
 5779 077d 05       		.byte	0x5
 5780 077e 8B02     		.2byte	0x28b
 5781 0780 16       		.byte	0x16
 5782 0781 04010000 		.4byte	0x104
 5783 0785 78       		.byte	0x78
 5784 0786 18       		.uleb128 0x18
 5785 0787 220B0000 		.4byte	.LASF105
 5786 078b 05       		.byte	0x5
 5787 078c 8C02     		.2byte	0x28c
 5788 078e 10       		.byte	0x10
 5789 078f 15080000 		.4byte	0x815
 5790 0793 80       		.byte	0x80
 5791 0794 18       		.uleb128 0x18
 5792 0795 3D010000 		.4byte	.LASF106
 5793 0799 05       		.byte	0x5
 5794 079a 8D02     		.2byte	0x28d
 5795 079c 10       		.byte	0x10
 5796 079d 25080000 		.4byte	0x825
 5797 07a1 88       		.byte	0x88
 5798 07a2 18       		.uleb128 0x18
 5799 07a3 260C0000 		.4byte	.LASF107
 5800 07a7 05       		.byte	0x5
 5801 07a8 8E02     		.2byte	0x28e
 5802 07aa 0F       		.byte	0xf
 5803 07ab 25000000 		.4byte	0x25
 5804 07af A0       		.byte	0xa0
 5805 07b0 18       		.uleb128 0x18
 5806 07b1 FE010000 		.4byte	.LASF108
 5807 07b5 05       		.byte	0x5
 5808 07b6 8F02     		.2byte	0x28f
 5809 07b8 16       		.byte	0x16
 5810 07b9 04010000 		.4byte	0x104
 5811 07bd A4       		.byte	0xa4
 5812 07be 18       		.uleb128 0x18
 5813 07bf 27060000 		.4byte	.LASF109
 5814 07c3 05       		.byte	0x5
 5815 07c4 9002     		.2byte	0x290
 5816 07c6 16       		.byte	0x16
 5817 07c7 04010000 		.4byte	0x104
 5818 07cb AC       		.byte	0xac
 5819 07cc 18       		.uleb128 0x18
 5820 07cd 27050000 		.4byte	.LASF110
 5821 07d1 05       		.byte	0x5
 5822 07d2 9102     		.2byte	0x291
 5823 07d4 16       		.byte	0x16
 5824 07d5 04010000 		.4byte	0x104
 5825 07d9 B4       		.byte	0xb4
ARM GAS  C:\Users\jens-\AppData\Local\Temp\ccdWTNhT.s 			page 166


 5826 07da 18       		.uleb128 0x18
 5827 07db 2C070000 		.4byte	.LASF111
 5828 07df 05       		.byte	0x5
 5829 07e0 9202     		.2byte	0x292
 5830 07e2 16       		.byte	0x16
 5831 07e3 04010000 		.4byte	0x104
 5832 07e7 BC       		.byte	0xbc
 5833 07e8 18       		.uleb128 0x18
 5834 07e9 DA050000 		.4byte	.LASF112
 5835 07ed 05       		.byte	0x5
 5836 07ee 9302     		.2byte	0x293
 5837 07f0 16       		.byte	0x16
 5838 07f1 04010000 		.4byte	0x104
 5839 07f5 C4       		.byte	0xc4
 5840 07f6 18       		.uleb128 0x18
 5841 07f7 7A080000 		.4byte	.LASF113
 5842 07fb 05       		.byte	0x5
 5843 07fc 9402     		.2byte	0x294
 5844 07fe 08       		.byte	0x8
 5845 07ff 25000000 		.4byte	0x25
 5846 0803 CC       		.byte	0xcc
 5847 0804 00       		.byte	0
 5848 0805 0A       		.uleb128 0xa
 5849 0806 24010000 		.4byte	0x124
 5850 080a 15080000 		.4byte	0x815
 5851 080e 0B       		.uleb128 0xb
 5852 080f 2C000000 		.4byte	0x2c
 5853 0813 19       		.byte	0x19
 5854 0814 00       		.byte	0
 5855 0815 0A       		.uleb128 0xa
 5856 0816 24010000 		.4byte	0x124
 5857 081a 25080000 		.4byte	0x825
 5858 081e 0B       		.uleb128 0xb
 5859 081f 2C000000 		.4byte	0x2c
 5860 0823 07       		.byte	0x7
 5861 0824 00       		.byte	0
 5862 0825 0A       		.uleb128 0xa
 5863 0826 24010000 		.4byte	0x124
 5864 082a 35080000 		.4byte	0x835
 5865 082e 0B       		.uleb128 0xb
 5866 082f 2C000000 		.4byte	0x2c
 5867 0833 17       		.byte	0x17
 5868 0834 00       		.byte	0
 5869 0835 1B       		.uleb128 0x1b
 5870 0836 F0       		.byte	0xf0
 5871 0837 05       		.byte	0x5
 5872 0838 9902     		.2byte	0x299
 5873 083a 07       		.byte	0x7
 5874 083b 5C080000 		.4byte	0x85c
 5875 083f 18       		.uleb128 0x18
 5876 0840 4D030000 		.4byte	.LASF114
 5877 0844 05       		.byte	0x5
 5878 0845 9C02     		.2byte	0x29c
 5879 0847 1B       		.byte	0x1b
 5880 0848 5C080000 		.4byte	0x85c
 5881 084c 00       		.byte	0
 5882 084d 18       		.uleb128 0x18
ARM GAS  C:\Users\jens-\AppData\Local\Temp\ccdWTNhT.s 			page 167


 5883 084e 5D0E0000 		.4byte	.LASF115
 5884 0852 05       		.byte	0x5
 5885 0853 9D02     		.2byte	0x29d
 5886 0855 18       		.byte	0x18
 5887 0856 6C080000 		.4byte	0x86c
 5888 085a 78       		.byte	0x78
 5889 085b 00       		.byte	0
 5890 085c 0A       		.uleb128 0xa
 5891 085d 0C030000 		.4byte	0x30c
 5892 0861 6C080000 		.4byte	0x86c
 5893 0865 0B       		.uleb128 0xb
 5894 0866 2C000000 		.4byte	0x2c
 5895 086a 1D       		.byte	0x1d
 5896 086b 00       		.byte	0
 5897 086c 0A       		.uleb128 0xa
 5898 086d 2C000000 		.4byte	0x2c
 5899 0871 7C080000 		.4byte	0x87c
 5900 0875 0B       		.uleb128 0xb
 5901 0876 2C000000 		.4byte	0x2c
 5902 087a 1D       		.byte	0x1d
 5903 087b 00       		.byte	0
 5904 087c 1C       		.uleb128 0x1c
 5905 087d F0       		.byte	0xf0
 5906 087e 05       		.byte	0x5
 5907 087f 7E02     		.2byte	0x27e
 5908 0881 03       		.byte	0x3
 5909 0882 A1080000 		.4byte	0x8a1
 5910 0886 1D       		.uleb128 0x1d
 5911 0887 580D0000 		.4byte	.LASF65
 5912 088b 05       		.byte	0x5
 5913 088c 9502     		.2byte	0x295
 5914 088e 0B       		.byte	0xb
 5915 088f F0060000 		.4byte	0x6f0
 5916 0893 1D       		.uleb128 0x1d
 5917 0894 F70A0000 		.4byte	.LASF116
 5918 0898 05       		.byte	0x5
 5919 0899 9E02     		.2byte	0x29e
 5920 089b 0B       		.byte	0xb
 5921 089c 35080000 		.4byte	0x835
 5922 08a0 00       		.byte	0
 5923 08a1 0A       		.uleb128 0xa
 5924 08a2 24010000 		.4byte	0x124
 5925 08a6 B1080000 		.4byte	0x8b1
 5926 08aa 0B       		.uleb128 0xb
 5927 08ab 2C000000 		.4byte	0x2c
 5928 08af 18       		.byte	0x18
 5929 08b0 00       		.byte	0
 5930 08b1 06       		.uleb128 0x6
 5931 08b2 230E0000 		.4byte	.LASF118
 5932 08b6 05       		.uleb128 0x5
 5933 08b7 04       		.byte	0x4
 5934 08b8 B1080000 		.4byte	0x8b1
 5935 08bc 1E       		.uleb128 0x1e
 5936 08bd C7080000 		.4byte	0x8c7
 5937 08c1 16       		.uleb128 0x16
 5938 08c2 73040000 		.4byte	0x473
 5939 08c6 00       		.byte	0
ARM GAS  C:\Users\jens-\AppData\Local\Temp\ccdWTNhT.s 			page 168


 5940 08c7 05       		.uleb128 0x5
 5941 08c8 04       		.byte	0x4
 5942 08c9 BC080000 		.4byte	0x8bc
 5943 08cd 05       		.uleb128 0x5
 5944 08ce 04       		.byte	0x4
 5945 08cf 96010000 		.4byte	0x196
 5946 08d3 1E       		.uleb128 0x1e
 5947 08d4 DE080000 		.4byte	0x8de
 5948 08d8 16       		.uleb128 0x16
 5949 08d9 25000000 		.4byte	0x25
 5950 08dd 00       		.byte	0
 5951 08de 05       		.uleb128 0x5
 5952 08df 04       		.byte	0x4
 5953 08e0 E4080000 		.4byte	0x8e4
 5954 08e4 05       		.uleb128 0x5
 5955 08e5 04       		.byte	0x4
 5956 08e6 D3080000 		.4byte	0x8d3
 5957 08ea 0A       		.uleb128 0xa
 5958 08eb 55060000 		.4byte	0x655
 5959 08ef FA080000 		.4byte	0x8fa
 5960 08f3 0B       		.uleb128 0xb
 5961 08f4 2C000000 		.4byte	0x2c
 5962 08f8 02       		.byte	0x2
 5963 08f9 00       		.byte	0
 5964 08fa 1F       		.uleb128 0x1f
 5965 08fb 2E030000 		.4byte	.LASF119
 5966 08ff 05       		.byte	0x5
 5967 0900 2E03     		.2byte	0x32e
 5968 0902 17       		.byte	0x17
 5969 0903 73040000 		.4byte	0x473
 5970 0907 1F       		.uleb128 0x1f
 5971 0908 C00A0000 		.4byte	.LASF120
 5972 090c 05       		.byte	0x5
 5973 090d 2F03     		.2byte	0x32f
 5974 090f 1D       		.byte	0x1d
 5975 0910 79040000 		.4byte	0x479
 5976 0914 0A       		.uleb128 0xa
 5977 0915 2B010000 		.4byte	0x12b
 5978 0919 1F090000 		.4byte	0x91f
 5979 091d 20       		.uleb128 0x20
 5980 091e 00       		.byte	0
 5981 091f 0F       		.uleb128 0xf
 5982 0920 14090000 		.4byte	0x914
 5983 0924 21       		.uleb128 0x21
 5984 0925 2E0D0000 		.4byte	.LASF121
 5985 0929 06       		.byte	0x6
 5986 092a AE       		.byte	0xae
 5987 092b 1C       		.byte	0x1c
 5988 092c 1F090000 		.4byte	0x91f
 5989 0930 07       		.uleb128 0x7
 5990 0931 A0020000 		.4byte	.LASF122
 5991 0935 07       		.byte	0x7
 5992 0936 E401     		.2byte	0x1e4
 5993 0938 19       		.byte	0x19
 5994 0939 48000000 		.4byte	0x48
 5995 093d 22       		.uleb128 0x22
 5996 093e 30090000 		.4byte	0x930
ARM GAS  C:\Users\jens-\AppData\Local\Temp\ccdWTNhT.s 			page 169


 5997 0942 07       		.uleb128 0x7
 5998 0943 67060000 		.4byte	.LASF123
 5999 0947 07       		.byte	0x7
 6000 0948 E501     		.2byte	0x1e5
 6001 094a 19       		.byte	0x19
 6002 094b 56000000 		.4byte	0x56
 6003 094f 22       		.uleb128 0x22
 6004 0950 42090000 		.4byte	0x942
 6005 0954 07       		.uleb128 0x7
 6006 0955 17080000 		.4byte	.LASF124
 6007 0959 07       		.byte	0x7
 6008 095a E601     		.2byte	0x1e6
 6009 095c 19       		.byte	0x19
 6010 095d 64000000 		.4byte	0x64
 6011 0961 22       		.uleb128 0x22
 6012 0962 54090000 		.4byte	0x954
 6013 0966 03       		.uleb128 0x3
 6014 0967 04       		.byte	0x4
 6015 0968 04       		.byte	0x4
 6016 0969 08030000 		.4byte	.LASF125
 6017 096d 03       		.uleb128 0x3
 6018 096e 08       		.byte	0x8
 6019 096f 04       		.byte	0x4
 6020 0970 A10D0000 		.4byte	.LASF126
 6021 0974 07       		.uleb128 0x7
 6022 0975 C40B0000 		.4byte	.LASF127
 6023 0979 07       		.byte	0x7
 6024 097a 8602     		.2byte	0x286
 6025 097c 1B       		.byte	0x1b
 6026 097d 64000000 		.4byte	0x64
 6027 0981 07       		.uleb128 0x7
 6028 0982 9A010000 		.4byte	.LASF128
 6029 0986 07       		.byte	0x7
 6030 0987 8E02     		.2byte	0x28e
 6031 0989 21       		.byte	0x21
 6032 098a 3D090000 		.4byte	0x93d
 6033 098e 07       		.uleb128 0x7
 6034 098f EA090000 		.4byte	.LASF129
 6035 0993 07       		.byte	0x7
 6036 0994 8F02     		.2byte	0x28f
 6037 0996 21       		.byte	0x21
 6038 0997 4F090000 		.4byte	0x94f
 6039 099b 07       		.uleb128 0x7
 6040 099c 04090000 		.4byte	.LASF130
 6041 09a0 07       		.byte	0x7
 6042 09a1 9002     		.2byte	0x290
 6043 09a3 21       		.byte	0x21
 6044 09a4 61090000 		.4byte	0x961
 6045 09a8 07       		.uleb128 0x7
 6046 09a9 EC070000 		.4byte	.LASF131
 6047 09ad 07       		.byte	0x7
 6048 09ae A002     		.2byte	0x2a0
 6049 09b0 15       		.byte	0x15
 6050 09b1 DD020000 		.4byte	0x2dd
 6051 09b5 21       		.uleb128 0x21
 6052 09b6 C4090000 		.4byte	.LASF132
 6053 09ba 08       		.byte	0x8
ARM GAS  C:\Users\jens-\AppData\Local\Temp\ccdWTNhT.s 			page 170


 6054 09bb 1C       		.byte	0x1c
 6055 09bc 0E       		.byte	0xe
 6056 09bd 30090000 		.4byte	0x930
 6057 09c1 0A       		.uleb128 0xa
 6058 09c2 30090000 		.4byte	0x930
 6059 09c6 D1090000 		.4byte	0x9d1
 6060 09ca 0B       		.uleb128 0xb
 6061 09cb 2C000000 		.4byte	0x2c
 6062 09cf 01       		.byte	0x1
 6063 09d0 00       		.byte	0
 6064 09d1 21       		.uleb128 0x21
 6065 09d2 B5090000 		.4byte	.LASF133
 6066 09d6 09       		.byte	0x9
 6067 09d7 1C       		.byte	0x1c
 6068 09d8 0E       		.byte	0xe
 6069 09d9 C1090000 		.4byte	0x9c1
 6070 09dd 21       		.uleb128 0x21
 6071 09de DC090000 		.4byte	.LASF134
 6072 09e2 0A       		.byte	0xa
 6073 09e3 2C       		.byte	0x2c
 6074 09e4 16       		.byte	0x16
 6075 09e5 30090000 		.4byte	0x930
 6076 09e9 21       		.uleb128 0x21
 6077 09ea 720D0000 		.4byte	.LASF135
 6078 09ee 0A       		.byte	0xa
 6079 09ef 38       		.byte	0x38
 6080 09f0 0F       		.byte	0xf
 6081 09f1 54090000 		.4byte	0x954
 6082 09f5 21       		.uleb128 0x21
 6083 09f6 54030000 		.4byte	.LASF136
 6084 09fa 0A       		.byte	0xa
 6085 09fb 39       		.byte	0x39
 6086 09fc 0F       		.byte	0xf
 6087 09fd 54090000 		.4byte	0x954
 6088 0a01 21       		.uleb128 0x21
 6089 0a02 97000000 		.4byte	.LASF137
 6090 0a06 0A       		.byte	0xa
 6091 0a07 3A       		.byte	0x3a
 6092 0a08 0F       		.byte	0xf
 6093 0a09 30090000 		.4byte	0x930
 6094 0a0d 21       		.uleb128 0x21
 6095 0a0e 97050000 		.4byte	.LASF138
 6096 0a12 0A       		.byte	0xa
 6097 0a13 3B       		.byte	0x3b
 6098 0a14 0F       		.byte	0xf
 6099 0a15 54090000 		.4byte	0x954
 6100 0a19 04       		.uleb128 0x4
 6101 0a1a AC050000 		.4byte	.LASF139
 6102 0a1e 0A       		.byte	0xa
 6103 0a1f AC       		.byte	0xac
 6104 0a20 14       		.byte	0x14
 6105 0a21 DD020000 		.4byte	0x2dd
 6106 0a25 23       		.uleb128 0x23
 6107 0a26 DD090000 		.4byte	0x9dd
 6108 0a2a 01       		.byte	0x1
 6109 0a2b 1C       		.byte	0x1c
 6110 0a2c 19       		.byte	0x19
ARM GAS  C:\Users\jens-\AppData\Local\Temp\ccdWTNhT.s 			page 171


 6111 0a2d 05       		.uleb128 0x5
 6112 0a2e 03       		.byte	0x3
 6113 0a2f 00000000 		.4byte	CyResetStatus
 6114 0a33 23       		.uleb128 0x23
 6115 0a34 E9090000 		.4byte	0x9e9
 6116 0a38 01       		.byte	0x1
 6117 0a39 28       		.byte	0x28
 6118 0a3a 08       		.byte	0x8
 6119 0a3b 05       		.uleb128 0x5
 6120 0a3c 03       		.byte	0x3
 6121 0a3d 00000000 		.4byte	cydelay_freq_hz
 6122 0a41 23       		.uleb128 0x23
 6123 0a42 F5090000 		.4byte	0x9f5
 6124 0a46 01       		.byte	0x1
 6125 0a47 29       		.byte	0x29
 6126 0a48 08       		.byte	0x8
 6127 0a49 05       		.uleb128 0x5
 6128 0a4a 03       		.byte	0x3
 6129 0a4b 00000000 		.4byte	cydelay_freq_khz
 6130 0a4f 23       		.uleb128 0x23
 6131 0a50 010A0000 		.4byte	0xa01
 6132 0a54 01       		.byte	0x1
 6133 0a55 2A       		.byte	0x2a
 6134 0a56 08       		.byte	0x8
 6135 0a57 05       		.uleb128 0x5
 6136 0a58 03       		.byte	0x3
 6137 0a59 00000000 		.4byte	cydelay_freq_mhz
 6138 0a5d 23       		.uleb128 0x23
 6139 0a5e 0D0A0000 		.4byte	0xa0d
 6140 0a62 01       		.byte	0x1
 6141 0a63 2B       		.byte	0x2b
 6142 0a64 08       		.byte	0x8
 6143 0a65 05       		.uleb128 0x5
 6144 0a66 03       		.byte	0x3
 6145 0a67 00000000 		.4byte	cydelay_32k_ms
 6146 0a6b 0A       		.uleb128 0xa
 6147 0a6c 190A0000 		.4byte	0xa19
 6148 0a70 7B0A0000 		.4byte	0xa7b
 6149 0a74 0B       		.uleb128 0xb
 6150 0a75 2C000000 		.4byte	0x2c
 6151 0a79 04       		.byte	0x4
 6152 0a7a 00       		.byte	0
 6153 0a7b 24       		.uleb128 0x24
 6154 0a7c 8D070000 		.4byte	.LASF184
 6155 0a80 01       		.byte	0x1
 6156 0a81 34       		.byte	0x34
 6157 0a82 1E       		.byte	0x1e
 6158 0a83 6B0A0000 		.4byte	0xa6b
 6159 0a87 05       		.uleb128 0x5
 6160 0a88 03       		.byte	0x3
 6161 0a89 04000000 		.4byte	CySysTickCallbacks
 6162 0a8d 25       		.uleb128 0x25
 6163 0a8e 60070000 		.4byte	.LASF140
 6164 0a92 01       		.byte	0x1
 6165 0a93 36       		.byte	0x36
 6166 0a94 0C       		.byte	0xc
 6167 0a95 54090000 		.4byte	0x954
ARM GAS  C:\Users\jens-\AppData\Local\Temp\ccdWTNhT.s 			page 172


 6168 0a99 05       		.uleb128 0x5
 6169 0a9a 03       		.byte	0x3
 6170 0a9b 00000000 		.4byte	CySysTickInitVar
 6171 0a9f 26       		.uleb128 0x26
 6172 0aa0 F20B0000 		.4byte	.LASF149
 6173 0aa4 01       		.byte	0x1
 6174 0aa5 570B     		.2byte	0xb57
 6175 0aa7 06       		.byte	0x6
 6176 0aa8 00000000 		.4byte	.LFB80
 6177 0aac 70000000 		.4byte	.LFE80-.LFB80
 6178 0ab0 01       		.uleb128 0x1
 6179 0ab1 9C       		.byte	0x9c
 6180 0ab2 C60A0000 		.4byte	0xac6
 6181 0ab6 27       		.uleb128 0x27
 6182 0ab7 400C0000 		.4byte	.LASF144
 6183 0abb 01       		.byte	0x1
 6184 0abc 570B     		.2byte	0xb57
 6185 0abe 1C       		.byte	0x1c
 6186 0abf C60A0000 		.4byte	0xac6
 6187 0ac3 01       		.uleb128 0x1
 6188 0ac4 50       		.byte	0x50
 6189 0ac5 00       		.byte	0
 6190 0ac6 05       		.uleb128 0x5
 6191 0ac7 04       		.byte	0x4
 6192 0ac8 54090000 		.4byte	0x954
 6193 0acc 28       		.uleb128 0x28
 6194 0acd 38080000 		.4byte	.LASF247
 6195 0ad1 01       		.byte	0x1
 6196 0ad2 360B     		.2byte	0xb36
 6197 0ad4 11       		.byte	0x11
 6198 0ad5 00000000 		.4byte	.LFB79
 6199 0ad9 2C000000 		.4byte	.LFE79-.LFB79
 6200 0add 01       		.uleb128 0x1
 6201 0ade 9C       		.byte	0x9c
 6202 0adf 000B0000 		.4byte	0xb00
 6203 0ae3 29       		.uleb128 0x29
 6204 0ae4 6900     		.ascii	"i\000"
 6205 0ae6 01       		.byte	0x1
 6206 0ae7 380B     		.2byte	0xb38
 6207 0ae9 10       		.byte	0x10
 6208 0aea 54090000 		.4byte	0x954
 6209 0aee 02000000 		.4byte	.LLST84
 6210 0af2 00000000 		.4byte	.LVUS84
 6211 0af6 2A       		.uleb128 0x2a
 6212 0af7 06000000 		.4byte	.LVL233
 6213 0afb 990B0000 		.4byte	0xb99
 6214 0aff 00       		.byte	0
 6215 0b00 2B       		.uleb128 0x2b
 6216 0b01 D2040000 		.4byte	.LASF141
 6217 0b05 01       		.byte	0x1
 6218 0b06 290B     		.2byte	0xb29
 6219 0b08 17       		.byte	0x17
 6220 0b09 190A0000 		.4byte	0xa19
 6221 0b0d 00000000 		.4byte	.LFB78
 6222 0b11 10000000 		.4byte	.LFE78-.LFB78
 6223 0b15 01       		.uleb128 0x1
 6224 0b16 9C       		.byte	0x9c
ARM GAS  C:\Users\jens-\AppData\Local\Temp\ccdWTNhT.s 			page 173


 6225 0b17 310B0000 		.4byte	0xb31
 6226 0b1b 2C       		.uleb128 0x2c
 6227 0b1c 0B0B0000 		.4byte	.LASF143
 6228 0b20 01       		.byte	0x1
 6229 0b21 290B     		.2byte	0xb29
 6230 0b23 33       		.byte	0x33
 6231 0b24 54090000 		.4byte	0x954
 6232 0b28 19000000 		.4byte	.LLST88
 6233 0b2c 15000000 		.4byte	.LVUS88
 6234 0b30 00       		.byte	0
 6235 0b31 2B       		.uleb128 0x2b
 6236 0b32 35020000 		.4byte	.LASF142
 6237 0b36 01       		.byte	0x1
 6238 0b37 110B     		.2byte	0xb11
 6239 0b39 17       		.byte	0x17
 6240 0b3a 190A0000 		.4byte	0xa19
 6241 0b3e 00000000 		.4byte	.LFB77
 6242 0b42 10000000 		.4byte	.LFE77-.LFB77
 6243 0b46 01       		.uleb128 0x1
 6244 0b47 9C       		.byte	0x9c
 6245 0b48 860B0000 		.4byte	0xb86
 6246 0b4c 2C       		.uleb128 0x2c
 6247 0b4d 0B0B0000 		.4byte	.LASF143
 6248 0b51 01       		.byte	0x1
 6249 0b52 110B     		.2byte	0xb11
 6250 0b54 33       		.byte	0x33
 6251 0b55 54090000 		.4byte	0x954
 6252 0b59 3E000000 		.4byte	.LLST86
 6253 0b5d 3A000000 		.4byte	.LVUS86
 6254 0b61 27       		.uleb128 0x27
 6255 0b62 000C0000 		.4byte	.LASF145
 6256 0b66 01       		.byte	0x1
 6257 0b67 110B     		.2byte	0xb11
 6258 0b69 4D       		.byte	0x4d
 6259 0b6a 190A0000 		.4byte	0xa19
 6260 0b6e 01       		.uleb128 0x1
 6261 0b6f 51       		.byte	0x51
 6262 0b70 2D       		.uleb128 0x2d
 6263 0b71 660B0000 		.4byte	.LASF146
 6264 0b75 01       		.byte	0x1
 6265 0b76 130B     		.2byte	0xb13
 6266 0b78 1B       		.byte	0x1b
 6267 0b79 190A0000 		.4byte	0xa19
 6268 0b7d 61000000 		.4byte	.LLST87
 6269 0b81 5F000000 		.4byte	.LVUS87
 6270 0b85 00       		.byte	0
 6271 0b86 2E       		.uleb128 0x2e
 6272 0b87 0F000000 		.4byte	.LASF156
 6273 0b8b 01       		.byte	0x1
 6274 0b8c EE0A     		.2byte	0xaee
 6275 0b8e 0A       		.byte	0xa
 6276 0b8f 00000000 		.4byte	.LFB76
 6277 0b93 0C000000 		.4byte	.LFE76-.LFB76
 6278 0b97 01       		.uleb128 0x1
 6279 0b98 9C       		.byte	0x9c
 6280 0b99 2F       		.uleb128 0x2f
 6281 0b9a 07060000 		.4byte	.LASF147
ARM GAS  C:\Users\jens-\AppData\Local\Temp\ccdWTNhT.s 			page 174


 6282 0b9e 01       		.byte	0x1
 6283 0b9f E10A     		.2byte	0xae1
 6284 0ba1 0C       		.byte	0xc
 6285 0ba2 54090000 		.4byte	0x954
 6286 0ba6 00000000 		.4byte	.LFB75
 6287 0baa 10000000 		.4byte	.LFE75-.LFB75
 6288 0bae 01       		.uleb128 0x1
 6289 0baf 9C       		.byte	0x9c
 6290 0bb0 2F       		.uleb128 0x2f
 6291 0bb1 A80D0000 		.4byte	.LASF148
 6292 0bb5 01       		.byte	0x1
 6293 0bb6 CC0A     		.2byte	0xacc
 6294 0bb8 0C       		.byte	0xc
 6295 0bb9 54090000 		.4byte	0x954
 6296 0bbd 00000000 		.4byte	.LFB74
 6297 0bc1 10000000 		.4byte	.LFE74-.LFB74
 6298 0bc5 01       		.uleb128 0x1
 6299 0bc6 9C       		.byte	0x9c
 6300 0bc7 26       		.uleb128 0x26
 6301 0bc8 57080000 		.4byte	.LASF150
 6302 0bcc 01       		.byte	0x1
 6303 0bcd B30A     		.2byte	0xab3
 6304 0bcf 0A       		.byte	0xa
 6305 0bd0 00000000 		.4byte	.LFB73
 6306 0bd4 20000000 		.4byte	.LFE73-.LFB73
 6307 0bd8 01       		.uleb128 0x1
 6308 0bd9 9C       		.byte	0x9c
 6309 0bda EE0B0000 		.4byte	0xbee
 6310 0bde 27       		.uleb128 0x27
 6311 0bdf 0A090000 		.4byte	.LASF151
 6312 0be3 01       		.byte	0x1
 6313 0be4 B30A     		.2byte	0xab3
 6314 0be6 29       		.byte	0x29
 6315 0be7 54090000 		.4byte	0x954
 6316 0beb 01       		.uleb128 0x1
 6317 0bec 50       		.byte	0x50
 6318 0bed 00       		.byte	0
 6319 0bee 2F       		.uleb128 0x2f
 6320 0bef A0070000 		.4byte	.LASF152
 6321 0bf3 01       		.byte	0x1
 6322 0bf4 990A     		.2byte	0xa99
 6323 0bf6 0C       		.byte	0xc
 6324 0bf7 54090000 		.4byte	0x954
 6325 0bfb 00000000 		.4byte	.LFB72
 6326 0bff 10000000 		.4byte	.LFE72-.LFB72
 6327 0c03 01       		.uleb128 0x1
 6328 0c04 9C       		.byte	0x9c
 6329 0c05 2F       		.uleb128 0x2f
 6330 0c06 3A030000 		.4byte	.LASF153
 6331 0c0a 01       		.byte	0x1
 6332 0c0b 890A     		.2byte	0xa89
 6333 0c0d 0C       		.byte	0xc
 6334 0c0e 54090000 		.4byte	0x954
 6335 0c12 00000000 		.4byte	.LFB71
 6336 0c16 10000000 		.4byte	.LFE71-.LFB71
 6337 0c1a 01       		.uleb128 0x1
 6338 0c1b 9C       		.byte	0x9c
ARM GAS  C:\Users\jens-\AppData\Local\Temp\ccdWTNhT.s 			page 175


 6339 0c1c 26       		.uleb128 0x26
 6340 0c1d 4B090000 		.4byte	.LASF154
 6341 0c21 01       		.byte	0x1
 6342 0c22 790A     		.2byte	0xa79
 6343 0c24 0A       		.byte	0xa
 6344 0c25 00000000 		.4byte	.LFB70
 6345 0c29 10000000 		.4byte	.LFE70-.LFB70
 6346 0c2d 01       		.uleb128 0x1
 6347 0c2e 9C       		.byte	0x9c
 6348 0c2f 490C0000 		.4byte	0xc49
 6349 0c33 2C       		.uleb128 0x2c
 6350 0c34 60040000 		.4byte	.LASF155
 6351 0c38 01       		.byte	0x1
 6352 0c39 790A     		.2byte	0xa79
 6353 0c3b 24       		.byte	0x24
 6354 0c3c 54090000 		.4byte	0x954
 6355 0c40 78000000 		.4byte	.LLST83
 6356 0c44 74000000 		.4byte	.LVUS83
 6357 0c48 00       		.byte	0
 6358 0c49 2E       		.uleb128 0x2e
 6359 0c4a F0090000 		.4byte	.LASF157
 6360 0c4e 01       		.byte	0x1
 6361 0c4f 680A     		.2byte	0xa68
 6362 0c51 0A       		.byte	0xa
 6363 0c52 00000000 		.4byte	.LFB69
 6364 0c56 10000000 		.4byte	.LFE69-.LFB69
 6365 0c5a 01       		.uleb128 0x1
 6366 0c5b 9C       		.byte	0x9c
 6367 0c5c 2E       		.uleb128 0x2e
 6368 0c5d 610C0000 		.4byte	.LASF158
 6369 0c61 01       		.byte	0x1
 6370 0c62 580A     		.2byte	0xa58
 6371 0c64 0A       		.byte	0xa
 6372 0c65 00000000 		.4byte	.LFB68
 6373 0c69 10000000 		.4byte	.LFE68-.LFB68
 6374 0c6d 01       		.uleb128 0x1
 6375 0c6e 9C       		.byte	0x9c
 6376 0c6f 2E       		.uleb128 0x2e
 6377 0c70 A2040000 		.4byte	.LASF159
 6378 0c74 01       		.byte	0x1
 6379 0c75 480A     		.2byte	0xa48
 6380 0c77 0A       		.byte	0xa
 6381 0c78 00000000 		.4byte	.LFB67
 6382 0c7c 10000000 		.4byte	.LFE67-.LFB67
 6383 0c80 01       		.uleb128 0x1
 6384 0c81 9C       		.byte	0x9c
 6385 0c82 26       		.uleb128 0x26
 6386 0c83 1C070000 		.4byte	.LASF160
 6387 0c87 01       		.byte	0x1
 6388 0c88 370A     		.2byte	0xa37
 6389 0c8a 0A       		.byte	0xa
 6390 0c8b 00000000 		.4byte	.LFB66
 6391 0c8f 18000000 		.4byte	.LFE66-.LFB66
 6392 0c93 01       		.uleb128 0x1
 6393 0c94 9C       		.byte	0x9c
 6394 0c95 A30C0000 		.4byte	0xca3
 6395 0c99 2A       		.uleb128 0x2a
ARM GAS  C:\Users\jens-\AppData\Local\Temp\ccdWTNhT.s 			page 176


 6396 0c9a 06000000 		.4byte	.LVL229
 6397 0c9e 5C0C0000 		.4byte	0xc5c
 6398 0ca2 00       		.byte	0
 6399 0ca3 26       		.uleb128 0x26
 6400 0ca4 320B0000 		.4byte	.LASF161
 6401 0ca8 01       		.byte	0x1
 6402 0ca9 1C0A     		.2byte	0xa1c
 6403 0cab 0A       		.byte	0xa
 6404 0cac 00000000 		.4byte	.LFB65
 6405 0cb0 58000000 		.4byte	.LFE65-.LFB65
 6406 0cb4 01       		.uleb128 0x1
 6407 0cb5 9C       		.byte	0x9c
 6408 0cb6 0F0D0000 		.4byte	0xd0f
 6409 0cba 29       		.uleb128 0x29
 6410 0cbb 6900     		.ascii	"i\000"
 6411 0cbd 01       		.byte	0x1
 6412 0cbe 1E0A     		.2byte	0xa1e
 6413 0cc0 10       		.byte	0x10
 6414 0cc1 54090000 		.4byte	0x954
 6415 0cc5 9D000000 		.4byte	.LLST85
 6416 0cc9 99000000 		.4byte	.LVUS85
 6417 0ccd 30       		.uleb128 0x30
 6418 0cce 1E000000 		.4byte	.LVL241
 6419 0cd2 7C0F0000 		.4byte	0xf7c
 6420 0cd6 E90C0000 		.4byte	0xce9
 6421 0cda 31       		.uleb128 0x31
 6422 0cdb 01       		.uleb128 0x1
 6423 0cdc 50       		.byte	0x50
 6424 0cdd 01       		.uleb128 0x1
 6425 0cde 3F       		.byte	0x3f
 6426 0cdf 31       		.uleb128 0x31
 6427 0ce0 01       		.uleb128 0x1
 6428 0ce1 51       		.byte	0x51
 6429 0ce2 05       		.uleb128 0x5
 6430 0ce3 03       		.byte	0x3
 6431 0ce4 00000000 		.4byte	CySysTickServiceCallbacks
 6432 0ce8 00       		.byte	0
 6433 0ce9 30       		.uleb128 0x30
 6434 0cea 24000000 		.4byte	.LVL242
 6435 0cee C70B0000 		.4byte	0xbc7
 6436 0cf2 FC0C0000 		.4byte	0xcfc
 6437 0cf6 31       		.uleb128 0x31
 6438 0cf7 01       		.uleb128 0x1
 6439 0cf8 50       		.byte	0x50
 6440 0cf9 01       		.uleb128 0x1
 6441 0cfa 31       		.byte	0x31
 6442 0cfb 00       		.byte	0
 6443 0cfc 2A       		.uleb128 0x2a
 6444 0cfd 34000000 		.4byte	.LVL243
 6445 0d01 1C0C0000 		.4byte	0xc1c
 6446 0d05 2A       		.uleb128 0x2a
 6447 0d06 38000000 		.4byte	.LVL244
 6448 0d0a 860B0000 		.4byte	0xb86
 6449 0d0e 00       		.byte	0
 6450 0d0f 26       		.uleb128 0x26
 6451 0d10 29080000 		.4byte	.LASF162
 6452 0d14 01       		.byte	0x1
ARM GAS  C:\Users\jens-\AppData\Local\Temp\ccdWTNhT.s 			page 177


 6453 0d15 FF09     		.2byte	0x9ff
 6454 0d17 0A       		.byte	0xa
 6455 0d18 00000000 		.4byte	.LFB64
 6456 0d1c 20000000 		.4byte	.LFE64-.LFB64
 6457 0d20 01       		.uleb128 0x1
 6458 0d21 9C       		.byte	0x9c
 6459 0d22 390D0000 		.4byte	0xd39
 6460 0d26 2A       		.uleb128 0x2a
 6461 0d27 0C000000 		.4byte	.LVL245
 6462 0d2b 820C0000 		.4byte	0xc82
 6463 0d2f 2A       		.uleb128 0x2a
 6464 0d30 12000000 		.4byte	.LVL246
 6465 0d34 A30C0000 		.4byte	0xca3
 6466 0d38 00       		.byte	0
 6467 0d39 2B       		.uleb128 0x2b
 6468 0d3a B0040000 		.4byte	.LASF163
 6469 0d3e 01       		.byte	0x1
 6470 0d3f E508     		.2byte	0x8e5
 6471 0d41 0B       		.byte	0xb
 6472 0d42 30090000 		.4byte	0x930
 6473 0d46 00000000 		.4byte	.LFB63
 6474 0d4a 24000000 		.4byte	.LFE63-.LFB63
 6475 0d4e 01       		.uleb128 0x1
 6476 0d4f 9C       		.byte	0x9c
 6477 0d50 8E0D0000 		.4byte	0xd8e
 6478 0d54 2C       		.uleb128 0x2c
 6479 0d55 0B0B0000 		.4byte	.LASF143
 6480 0d59 01       		.byte	0x1
 6481 0d5a E508     		.2byte	0x8e5
 6482 0d5c 1F       		.byte	0x1f
 6483 0d5d 30090000 		.4byte	0x930
 6484 0d61 C4000000 		.4byte	.LLST81
 6485 0d65 BC000000 		.4byte	.LVUS81
 6486 0d69 2D       		.uleb128 0x2d
 6487 0d6a 9A090000 		.4byte	.LASF164
 6488 0d6e 01       		.byte	0x1
 6489 0d6f E708     		.2byte	0x8e7
 6490 0d71 11       		.byte	0x11
 6491 0d72 8E0D0000 		.4byte	0xd8e
 6492 0d76 00010000 		.4byte	.LLST82
 6493 0d7a FE000000 		.4byte	.LVUS82
 6494 0d7e 32       		.uleb128 0x32
 6495 0d7f 1E000000 		.4byte	.LVL228
 6496 0d83 2A150000 		.4byte	0x152a
 6497 0d87 31       		.uleb128 0x31
 6498 0d88 01       		.uleb128 0x1
 6499 0d89 50       		.byte	0x50
 6500 0d8a 01       		.uleb128 0x1
 6501 0d8b 30       		.byte	0x30
 6502 0d8c 00       		.byte	0
 6503 0d8d 00       		.byte	0
 6504 0d8e 05       		.uleb128 0x5
 6505 0d8f 04       		.byte	0x4
 6506 0d90 9B090000 		.4byte	0x99b
 6507 0d94 2B       		.uleb128 0x2b
 6508 0d95 5C000000 		.4byte	.LASF165
 6509 0d99 01       		.byte	0x1
ARM GAS  C:\Users\jens-\AppData\Local\Temp\ccdWTNhT.s 			page 178


 6510 0d9a CD08     		.2byte	0x8cd
 6511 0d9c 0B       		.byte	0xb
 6512 0d9d 30090000 		.4byte	0x930
 6513 0da1 00000000 		.4byte	.LFB62
 6514 0da5 22000000 		.4byte	.LFE62-.LFB62
 6515 0da9 01       		.uleb128 0x1
 6516 0daa 9C       		.byte	0x9c
 6517 0dab E90D0000 		.4byte	0xde9
 6518 0daf 2C       		.uleb128 0x2c
 6519 0db0 0B0B0000 		.4byte	.LASF143
 6520 0db4 01       		.byte	0x1
 6521 0db5 CD08     		.2byte	0x8cd
 6522 0db7 22       		.byte	0x22
 6523 0db8 30090000 		.4byte	0x930
 6524 0dbc 20010000 		.4byte	.LLST79
 6525 0dc0 18010000 		.4byte	.LVUS79
 6526 0dc4 2D       		.uleb128 0x2d
 6527 0dc5 1E050000 		.4byte	.LASF166
 6528 0dc9 01       		.byte	0x1
 6529 0dca CF08     		.2byte	0x8cf
 6530 0dcc 0F       		.byte	0xf
 6531 0dcd 30090000 		.4byte	0x930
 6532 0dd1 5C010000 		.4byte	.LLST80
 6533 0dd5 5A010000 		.4byte	.LVUS80
 6534 0dd9 32       		.uleb128 0x32
 6535 0dda 20000000 		.4byte	.LVL223
 6536 0dde 2A150000 		.4byte	0x152a
 6537 0de2 31       		.uleb128 0x31
 6538 0de3 01       		.uleb128 0x1
 6539 0de4 50       		.byte	0x50
 6540 0de5 01       		.uleb128 0x1
 6541 0de6 30       		.byte	0x30
 6542 0de7 00       		.byte	0
 6543 0de8 00       		.byte	0
 6544 0de9 26       		.uleb128 0x26
 6545 0dea 26000000 		.4byte	.LASF167
 6546 0dee 01       		.byte	0x1
 6547 0def B908     		.2byte	0x8b9
 6548 0df1 0A       		.byte	0xa
 6549 0df2 00000000 		.4byte	.LFB61
 6550 0df6 32000000 		.4byte	.LFE61-.LFB61
 6551 0dfa 01       		.uleb128 0x1
 6552 0dfb 9C       		.byte	0x9c
 6553 0dfc 4D0E0000 		.4byte	0xe4d
 6554 0e00 2C       		.uleb128 0x2c
 6555 0e01 0B0B0000 		.4byte	.LASF143
 6556 0e05 01       		.byte	0x1
 6557 0e06 B908     		.2byte	0x8b9
 6558 0e08 21       		.byte	0x21
 6559 0e09 30090000 		.4byte	0x930
 6560 0e0d 7B010000 		.4byte	.LLST77
 6561 0e11 73010000 		.4byte	.LVUS77
 6562 0e15 2C       		.uleb128 0x2c
 6563 0e16 1E050000 		.4byte	.LASF166
 6564 0e1a 01       		.byte	0x1
 6565 0e1b B908     		.2byte	0x8b9
 6566 0e1d 2F       		.byte	0x2f
ARM GAS  C:\Users\jens-\AppData\Local\Temp\ccdWTNhT.s 			page 179


 6567 0e1e 30090000 		.4byte	0x930
 6568 0e22 BD010000 		.4byte	.LLST78
 6569 0e26 B5010000 		.4byte	.LVUS78
 6570 0e2a 30       		.uleb128 0x30
 6571 0e2b 28000000 		.4byte	.LVL215
 6572 0e2f 2A150000 		.4byte	0x152a
 6573 0e33 3D0E0000 		.4byte	0xe3d
 6574 0e37 31       		.uleb128 0x31
 6575 0e38 01       		.uleb128 0x1
 6576 0e39 50       		.byte	0x50
 6577 0e3a 01       		.uleb128 0x1
 6578 0e3b 30       		.byte	0x30
 6579 0e3c 00       		.byte	0
 6580 0e3d 32       		.uleb128 0x32
 6581 0e3e 30000000 		.4byte	.LVL216
 6582 0e42 2A150000 		.4byte	0x152a
 6583 0e46 31       		.uleb128 0x31
 6584 0e47 01       		.uleb128 0x1
 6585 0e48 50       		.byte	0x50
 6586 0e49 01       		.uleb128 0x1
 6587 0e4a 30       		.byte	0x30
 6588 0e4b 00       		.byte	0
 6589 0e4c 00       		.byte	0
 6590 0e4d 2B       		.uleb128 0x2b
 6591 0e4e 00000000 		.4byte	.LASF168
 6592 0e52 01       		.byte	0x1
 6593 0e53 A608     		.2byte	0x8a6
 6594 0e55 12       		.byte	0x12
 6595 0e56 A8090000 		.4byte	0x9a8
 6596 0e5a 00000000 		.4byte	.LFB60
 6597 0e5e 24000000 		.4byte	.LFE60-.LFB60
 6598 0e62 01       		.uleb128 0x1
 6599 0e63 9C       		.byte	0x9c
 6600 0e64 A20E0000 		.4byte	0xea2
 6601 0e68 2C       		.uleb128 0x2c
 6602 0e69 0B0B0000 		.4byte	.LASF143
 6603 0e6d 01       		.byte	0x1
 6604 0e6e A608     		.2byte	0x8a6
 6605 0e70 27       		.byte	0x27
 6606 0e71 30090000 		.4byte	0x930
 6607 0e75 FF010000 		.4byte	.LLST75
 6608 0e79 F7010000 		.4byte	.LVUS75
 6609 0e7d 2D       		.uleb128 0x2d
 6610 0e7e E30B0000 		.4byte	.LASF169
 6611 0e82 01       		.byte	0x1
 6612 0e83 A808     		.2byte	0x8a8
 6613 0e85 17       		.byte	0x17
 6614 0e86 A20E0000 		.4byte	0xea2
 6615 0e8a 3B020000 		.4byte	.LLST76
 6616 0e8e 39020000 		.4byte	.LVUS76
 6617 0e92 32       		.uleb128 0x32
 6618 0e93 1E000000 		.4byte	.LVL210
 6619 0e97 2A150000 		.4byte	0x152a
 6620 0e9b 31       		.uleb128 0x31
 6621 0e9c 01       		.uleb128 0x1
 6622 0e9d 50       		.byte	0x50
 6623 0e9e 01       		.uleb128 0x1
ARM GAS  C:\Users\jens-\AppData\Local\Temp\ccdWTNhT.s 			page 180


 6624 0e9f 30       		.byte	0x30
 6625 0ea0 00       		.byte	0
 6626 0ea1 00       		.byte	0
 6627 0ea2 05       		.uleb128 0x5
 6628 0ea3 04       		.byte	0x4
 6629 0ea4 A8090000 		.4byte	0x9a8
 6630 0ea8 2B       		.uleb128 0x2b
 6631 0ea9 81060000 		.4byte	.LASF170
 6632 0ead 01       		.byte	0x1
 6633 0eae 8908     		.2byte	0x889
 6634 0eb0 12       		.byte	0x12
 6635 0eb1 A8090000 		.4byte	0x9a8
 6636 0eb5 00000000 		.4byte	.LFB59
 6637 0eb9 2C000000 		.4byte	.LFE59-.LFB59
 6638 0ebd 01       		.uleb128 0x1
 6639 0ebe 9C       		.byte	0x9c
 6640 0ebf 270F0000 		.4byte	0xf27
 6641 0ec3 2C       		.uleb128 0x2c
 6642 0ec4 0B0B0000 		.4byte	.LASF143
 6643 0ec8 01       		.byte	0x1
 6644 0ec9 8908     		.2byte	0x889
 6645 0ecb 27       		.byte	0x27
 6646 0ecc 30090000 		.4byte	0x930
 6647 0ed0 56020000 		.4byte	.LLST71
 6648 0ed4 4E020000 		.4byte	.LVUS71
 6649 0ed8 2C       		.uleb128 0x2c
 6650 0ed9 6D0B0000 		.4byte	.LASF171
 6651 0edd 01       		.byte	0x1
 6652 0ede 8908     		.2byte	0x889
 6653 0ee0 3C       		.byte	0x3c
 6654 0ee1 A8090000 		.4byte	0x9a8
 6655 0ee5 98020000 		.4byte	.LLST72
 6656 0ee9 90020000 		.4byte	.LVUS72
 6657 0eed 2D       		.uleb128 0x2d
 6658 0eee 0A0A0000 		.4byte	.LASF172
 6659 0ef2 01       		.byte	0x1
 6660 0ef3 8B08     		.2byte	0x88b
 6661 0ef5 16       		.byte	0x16
 6662 0ef6 A8090000 		.4byte	0x9a8
 6663 0efa CE020000 		.4byte	.LLST73
 6664 0efe CC020000 		.4byte	.LVUS73
 6665 0f02 2D       		.uleb128 0x2d
 6666 0f03 E30B0000 		.4byte	.LASF169
 6667 0f07 01       		.byte	0x1
 6668 0f08 8C08     		.2byte	0x88c
 6669 0f0a 17       		.byte	0x17
 6670 0f0b A20E0000 		.4byte	0xea2
 6671 0f0f E3020000 		.4byte	.LLST74
 6672 0f13 E1020000 		.4byte	.LVUS74
 6673 0f17 32       		.uleb128 0x32
 6674 0f18 24000000 		.4byte	.LVL204
 6675 0f1c 2A150000 		.4byte	0x152a
 6676 0f20 31       		.uleb128 0x31
 6677 0f21 01       		.uleb128 0x1
 6678 0f22 50       		.byte	0x50
 6679 0f23 01       		.uleb128 0x1
 6680 0f24 30       		.byte	0x30
ARM GAS  C:\Users\jens-\AppData\Local\Temp\ccdWTNhT.s 			page 181


 6681 0f25 00       		.byte	0
 6682 0f26 00       		.byte	0
 6683 0f27 2B       		.uleb128 0x2b
 6684 0f28 71070000 		.4byte	.LASF173
 6685 0f2c 01       		.byte	0x1
 6686 0f2d 7308     		.2byte	0x873
 6687 0f2f 12       		.byte	0x12
 6688 0f30 A8090000 		.4byte	0x9a8
 6689 0f34 00000000 		.4byte	.LFB58
 6690 0f38 24000000 		.4byte	.LFE58-.LFB58
 6691 0f3c 01       		.uleb128 0x1
 6692 0f3d 9C       		.byte	0x9c
 6693 0f3e 7C0F0000 		.4byte	0xf7c
 6694 0f42 2C       		.uleb128 0x2c
 6695 0f43 0B0B0000 		.4byte	.LASF143
 6696 0f47 01       		.byte	0x1
 6697 0f48 7308     		.2byte	0x873
 6698 0f4a 2A       		.byte	0x2a
 6699 0f4b 30090000 		.4byte	0x930
 6700 0f4f FE020000 		.4byte	.LLST69
 6701 0f53 F6020000 		.4byte	.LVUS69
 6702 0f57 2D       		.uleb128 0x2d
 6703 0f58 E30B0000 		.4byte	.LASF169
 6704 0f5c 01       		.byte	0x1
 6705 0f5d 7508     		.2byte	0x875
 6706 0f5f 17       		.byte	0x17
 6707 0f60 A20E0000 		.4byte	0xea2
 6708 0f64 3A030000 		.4byte	.LLST70
 6709 0f68 38030000 		.4byte	.LVUS70
 6710 0f6c 32       		.uleb128 0x32
 6711 0f6d 1C000000 		.4byte	.LVL197
 6712 0f71 2A150000 		.4byte	0x152a
 6713 0f75 31       		.uleb128 0x31
 6714 0f76 01       		.uleb128 0x1
 6715 0f77 50       		.byte	0x50
 6716 0f78 01       		.uleb128 0x1
 6717 0f79 30       		.byte	0x30
 6718 0f7a 00       		.byte	0
 6719 0f7b 00       		.byte	0
 6720 0f7c 2B       		.uleb128 0x2b
 6721 0f7d A3090000 		.4byte	.LASF174
 6722 0f81 01       		.byte	0x1
 6723 0f82 4B08     		.2byte	0x84b
 6724 0f84 12       		.byte	0x12
 6725 0f85 A8090000 		.4byte	0x9a8
 6726 0f89 00000000 		.4byte	.LFB57
 6727 0f8d 28000000 		.4byte	.LFE57-.LFB57
 6728 0f91 01       		.uleb128 0x1
 6729 0f92 9C       		.byte	0x9c
 6730 0f93 FB0F0000 		.4byte	0xffb
 6731 0f97 2C       		.uleb128 0x2c
 6732 0f98 0B0B0000 		.4byte	.LASF143
 6733 0f9c 01       		.byte	0x1
 6734 0f9d 4B08     		.2byte	0x84b
 6735 0f9f 2A       		.byte	0x2a
 6736 0fa0 30090000 		.4byte	0x930
 6737 0fa4 55030000 		.4byte	.LLST65
ARM GAS  C:\Users\jens-\AppData\Local\Temp\ccdWTNhT.s 			page 182


 6738 0fa8 4D030000 		.4byte	.LVUS65
 6739 0fac 2C       		.uleb128 0x2c
 6740 0fad 6D0B0000 		.4byte	.LASF171
 6741 0fb1 01       		.byte	0x1
 6742 0fb2 4B08     		.2byte	0x84b
 6743 0fb4 3F       		.byte	0x3f
 6744 0fb5 A8090000 		.4byte	0x9a8
 6745 0fb9 97030000 		.4byte	.LLST66
 6746 0fbd 8F030000 		.4byte	.LVUS66
 6747 0fc1 2D       		.uleb128 0x2d
 6748 0fc2 0A0A0000 		.4byte	.LASF172
 6749 0fc6 01       		.byte	0x1
 6750 0fc7 4D08     		.2byte	0x84d
 6751 0fc9 16       		.byte	0x16
 6752 0fca A8090000 		.4byte	0x9a8
 6753 0fce CD030000 		.4byte	.LLST67
 6754 0fd2 CB030000 		.4byte	.LVUS67
 6755 0fd6 2D       		.uleb128 0x2d
 6756 0fd7 E30B0000 		.4byte	.LASF169
 6757 0fdb 01       		.byte	0x1
 6758 0fdc 4E08     		.2byte	0x84e
 6759 0fde 17       		.byte	0x17
 6760 0fdf A20E0000 		.4byte	0xea2
 6761 0fe3 E2030000 		.4byte	.LLST68
 6762 0fe7 E0030000 		.4byte	.LVUS68
 6763 0feb 32       		.uleb128 0x32
 6764 0fec 22000000 		.4byte	.LVL191
 6765 0ff0 2A150000 		.4byte	0x152a
 6766 0ff4 31       		.uleb128 0x31
 6767 0ff5 01       		.uleb128 0x1
 6768 0ff6 50       		.byte	0x50
 6769 0ff7 01       		.uleb128 0x1
 6770 0ff8 30       		.byte	0x30
 6771 0ff9 00       		.byte	0
 6772 0ffa 00       		.byte	0
 6773 0ffb 26       		.uleb128 0x26
 6774 0ffc 8D090000 		.4byte	.LASF175
 6775 1000 01       		.byte	0x1
 6776 1001 0C08     		.2byte	0x80c
 6777 1003 0A       		.byte	0xa
 6778 1004 00000000 		.4byte	.LFB56
 6779 1008 44000000 		.4byte	.LFE56-.LFB56
 6780 100c 01       		.uleb128 0x1
 6781 100d 9C       		.byte	0x9c
 6782 100e 3A100000 		.4byte	0x103a
 6783 1012 2D       		.uleb128 0x2d
 6784 1013 8B010000 		.4byte	.LASF176
 6785 1017 01       		.byte	0x1
 6786 1018 0E08     		.2byte	0x80e
 6787 101a 0F       		.byte	0xf
 6788 101b 30090000 		.4byte	0x930
 6789 101f F7030000 		.4byte	.LLST64
 6790 1023 F5030000 		.4byte	.LVUS64
 6791 1027 2A       		.uleb128 0x2a
 6792 1028 06000000 		.4byte	.LVL183
 6793 102c 631E0000 		.4byte	0x1e63
 6794 1030 2A       		.uleb128 0x2a
ARM GAS  C:\Users\jens-\AppData\Local\Temp\ccdWTNhT.s 			page 183


 6795 1031 3C000000 		.4byte	.LVL184
 6796 1035 6F1E0000 		.4byte	0x1e6f
 6797 1039 00       		.byte	0
 6798 103a 26       		.uleb128 0x26
 6799 103b 8B020000 		.4byte	.LASF177
 6800 103f 01       		.byte	0x1
 6801 1040 E307     		.2byte	0x7e3
 6802 1042 06       		.byte	0x6
 6803 1043 00000000 		.4byte	.LFB55
 6804 1047 18000000 		.4byte	.LFE55-.LFB55
 6805 104b 01       		.uleb128 0x1
 6806 104c 9C       		.byte	0x9c
 6807 104d 8E100000 		.4byte	0x108e
 6808 1051 2C       		.uleb128 0x2c
 6809 1052 52080000 		.4byte	.LASF178
 6810 1056 01       		.byte	0x1
 6811 1057 E307     		.2byte	0x7e3
 6812 1059 1A       		.byte	0x1a
 6813 105a 54090000 		.4byte	0x954
 6814 105e 10040000 		.4byte	.LLST62
 6815 1062 0A040000 		.4byte	.LVUS62
 6816 1066 2D       		.uleb128 0x2d
 6817 1067 8B010000 		.4byte	.LASF176
 6818 106b 01       		.byte	0x1
 6819 106c E607     		.2byte	0x7e6
 6820 106e 0B       		.byte	0xb
 6821 106f 30090000 		.4byte	0x930
 6822 1073 3E040000 		.4byte	.LLST63
 6823 1077 3C040000 		.4byte	.LVUS63
 6824 107b 2A       		.uleb128 0x2a
 6825 107c 08000000 		.4byte	.LVL180
 6826 1080 631E0000 		.4byte	0x1e63
 6827 1084 2A       		.uleb128 0x2a
 6828 1085 10000000 		.4byte	.LVL181
 6829 1089 6F1E0000 		.4byte	0x1e6f
 6830 108d 00       		.byte	0
 6831 108e 2B       		.uleb128 0x2b
 6832 108f F6080000 		.4byte	.LASF179
 6833 1093 01       		.byte	0x1
 6834 1094 B407     		.2byte	0x7b4
 6835 1096 08       		.byte	0x8
 6836 1097 54090000 		.4byte	0x954
 6837 109b 00000000 		.4byte	.LFB54
 6838 109f 1C000000 		.4byte	.LFE54-.LFB54
 6839 10a3 01       		.uleb128 0x1
 6840 10a4 9C       		.byte	0x9c
 6841 10a5 E6100000 		.4byte	0x10e6
 6842 10a9 2D       		.uleb128 0x2d
 6843 10aa 5E060000 		.4byte	.LASF180
 6844 10ae 01       		.byte	0x1
 6845 10af B607     		.2byte	0x7b6
 6846 10b1 0C       		.byte	0xc
 6847 10b2 54090000 		.4byte	0x954
 6848 10b6 55040000 		.4byte	.LLST60
 6849 10ba 51040000 		.4byte	.LVUS60
 6850 10be 2D       		.uleb128 0x2d
 6851 10bf 8B010000 		.4byte	.LASF176
ARM GAS  C:\Users\jens-\AppData\Local\Temp\ccdWTNhT.s 			page 184


 6852 10c3 01       		.byte	0x1
 6853 10c4 B707     		.2byte	0x7b7
 6854 10c6 0B       		.byte	0xb
 6855 10c7 30090000 		.4byte	0x930
 6856 10cb 75040000 		.4byte	.LLST61
 6857 10cf 73040000 		.4byte	.LVUS61
 6858 10d3 2A       		.uleb128 0x2a
 6859 10d4 06000000 		.4byte	.LVL175
 6860 10d8 631E0000 		.4byte	0x1e63
 6861 10dc 2A       		.uleb128 0x2a
 6862 10dd 14000000 		.4byte	.LVL177
 6863 10e1 6F1E0000 		.4byte	0x1e6f
 6864 10e5 00       		.byte	0
 6865 10e6 2B       		.uleb128 0x2b
 6866 10e7 810C0000 		.4byte	.LASF181
 6867 10eb 01       		.byte	0x1
 6868 10ec 9D07     		.2byte	0x79d
 6869 10ee 07       		.byte	0x7
 6870 10ef 30090000 		.4byte	0x930
 6871 10f3 00000000 		.4byte	.LFB53
 6872 10f7 1C000000 		.4byte	.LFE53-.LFB53
 6873 10fb 01       		.uleb128 0x1
 6874 10fc 9C       		.byte	0x9c
 6875 10fd 3E110000 		.4byte	0x113e
 6876 1101 2D       		.uleb128 0x2d
 6877 1102 8B010000 		.4byte	.LASF176
 6878 1106 01       		.byte	0x1
 6879 1107 9F07     		.2byte	0x79f
 6880 1109 0B       		.byte	0xb
 6881 110a 30090000 		.4byte	0x930
 6882 110e 8A040000 		.4byte	.LLST58
 6883 1112 88040000 		.4byte	.LVUS58
 6884 1116 2D       		.uleb128 0x2d
 6885 1117 38050000 		.4byte	.LASF182
 6886 111b 01       		.byte	0x1
 6887 111c A007     		.2byte	0x7a0
 6888 111e 0B       		.byte	0xb
 6889 111f 30090000 		.4byte	0x930
 6890 1123 A1040000 		.4byte	.LLST59
 6891 1127 9D040000 		.4byte	.LVUS59
 6892 112b 2A       		.uleb128 0x2a
 6893 112c 06000000 		.4byte	.LVL171
 6894 1130 631E0000 		.4byte	0x1e63
 6895 1134 2A       		.uleb128 0x2a
 6896 1135 12000000 		.4byte	.LVL173
 6897 1139 6F1E0000 		.4byte	0x1e6f
 6898 113d 00       		.byte	0
 6899 113e 2B       		.uleb128 0x2b
 6900 113f 63010000 		.4byte	.LASF183
 6901 1143 01       		.byte	0x1
 6902 1144 7507     		.2byte	0x775
 6903 1146 07       		.byte	0x7
 6904 1147 30090000 		.4byte	0x930
 6905 114b 00000000 		.4byte	.LFB52
 6906 114f 2C000000 		.4byte	.LFE52-.LFB52
 6907 1153 01       		.uleb128 0x1
 6908 1154 9C       		.byte	0x9c
ARM GAS  C:\Users\jens-\AppData\Local\Temp\ccdWTNhT.s 			page 185


 6909 1155 BE110000 		.4byte	0x11be
 6910 1159 2C       		.uleb128 0x2c
 6911 115a 52080000 		.4byte	.LASF178
 6912 115e 01       		.byte	0x1
 6913 115f 7507     		.2byte	0x775
 6914 1161 1E       		.byte	0x1e
 6915 1162 30090000 		.4byte	0x930
 6916 1166 C3040000 		.4byte	.LLST45
 6917 116a BF040000 		.4byte	.LVUS45
 6918 116e 33       		.uleb128 0x33
 6919 116f 7A050000 		.4byte	.LASF185
 6920 1173 01       		.byte	0x1
 6921 1174 7707     		.2byte	0x777
 6922 1176 12       		.byte	0x12
 6923 1177 30090000 		.4byte	0x930
 6924 117b 05       		.uleb128 0x5
 6925 117c 03       		.byte	0x3
 6926 117d 00000000 		.4byte	interruptStatus.5291
 6927 1181 2D       		.uleb128 0x2d
 6928 1182 8B010000 		.4byte	.LASF176
 6929 1186 01       		.byte	0x1
 6930 1187 7807     		.2byte	0x778
 6931 1189 0B       		.byte	0xb
 6932 118a 30090000 		.4byte	0x930
 6933 118e E6040000 		.4byte	.LLST46
 6934 1192 E4040000 		.4byte	.LVUS46
 6935 1196 2D       		.uleb128 0x2d
 6936 1197 940C0000 		.4byte	.LASF186
 6937 119b 01       		.byte	0x1
 6938 119c 7907     		.2byte	0x779
 6939 119e 0B       		.byte	0xb
 6940 119f 30090000 		.4byte	0x930
 6941 11a3 FD040000 		.4byte	.LLST47
 6942 11a7 F9040000 		.4byte	.LVUS47
 6943 11ab 2A       		.uleb128 0x2a
 6944 11ac 08000000 		.4byte	.LVL140
 6945 11b0 631E0000 		.4byte	0x1e63
 6946 11b4 2A       		.uleb128 0x2a
 6947 11b5 20000000 		.4byte	.LVL142
 6948 11b9 6F1E0000 		.4byte	0x1e6f
 6949 11bd 00       		.byte	0
 6950 11be 26       		.uleb128 0x26
 6951 11bf 2E0E0000 		.4byte	.LASF187
 6952 11c3 01       		.byte	0x1
 6953 11c4 5107     		.2byte	0x751
 6954 11c6 06       		.byte	0x6
 6955 11c7 00000000 		.4byte	.LFB51
 6956 11cb 20000000 		.4byte	.LFE51-.LFB51
 6957 11cf 01       		.uleb128 0x1
 6958 11d0 9C       		.byte	0x9c
 6959 11d1 E5110000 		.4byte	0x11e5
 6960 11d5 32       		.uleb128 0x32
 6961 11d6 12000000 		.4byte	.LVL170
 6962 11da 3E110000 		.4byte	0x113e
 6963 11de 31       		.uleb128 0x31
 6964 11df 01       		.uleb128 0x1
 6965 11e0 50       		.byte	0x50
ARM GAS  C:\Users\jens-\AppData\Local\Temp\ccdWTNhT.s 			page 186


 6966 11e1 01       		.uleb128 0x1
 6967 11e2 34       		.byte	0x34
 6968 11e3 00       		.byte	0
 6969 11e4 00       		.byte	0
 6970 11e5 26       		.uleb128 0x26
 6971 11e6 C7060000 		.4byte	.LASF188
 6972 11ea 01       		.byte	0x1
 6973 11eb 2507     		.2byte	0x725
 6974 11ed 06       		.byte	0x6
 6975 11ee 00000000 		.4byte	.LFB50
 6976 11f2 54000000 		.4byte	.LFE50-.LFB50
 6977 11f6 01       		.uleb128 0x1
 6978 11f7 9C       		.byte	0x9c
 6979 11f8 67120000 		.4byte	0x1267
 6980 11fc 2D       		.uleb128 0x2d
 6981 11fd 83070000 		.4byte	.LASF189
 6982 1201 01       		.byte	0x1
 6983 1202 2707     		.2byte	0x727
 6984 1204 0C       		.byte	0xc
 6985 1205 54090000 		.4byte	0x954
 6986 1209 1D050000 		.4byte	.LLST56
 6987 120d 1B050000 		.4byte	.LVUS56
 6988 1211 2D       		.uleb128 0x2d
 6989 1212 8B010000 		.4byte	.LASF176
 6990 1216 01       		.byte	0x1
 6991 1217 2807     		.2byte	0x728
 6992 1219 0B       		.byte	0xb
 6993 121a 30090000 		.4byte	0x930
 6994 121e 32050000 		.4byte	.LLST57
 6995 1222 30050000 		.4byte	.LVUS57
 6996 1226 2A       		.uleb128 0x2a
 6997 1227 06000000 		.4byte	.LVL163
 6998 122b 631E0000 		.4byte	0x1e63
 6999 122f 30       		.uleb128 0x30
 7000 1230 30000000 		.4byte	.LVL166
 7001 1234 A2140000 		.4byte	0x14a2
 7002 1238 43120000 		.4byte	0x1243
 7003 123c 31       		.uleb128 0x31
 7004 123d 01       		.uleb128 0x1
 7005 123e 50       		.byte	0x50
 7006 123f 02       		.uleb128 0x2
 7007 1240 76       		.byte	0x76
 7008 1241 00       		.sleb128 0
 7009 1242 00       		.byte	0
 7010 1243 30       		.uleb128 0x30
 7011 1244 36000000 		.4byte	.LVL167
 7012 1248 3E110000 		.4byte	0x113e
 7013 124c 56120000 		.4byte	0x1256
 7014 1250 31       		.uleb128 0x31
 7015 1251 01       		.uleb128 0x1
 7016 1252 50       		.byte	0x50
 7017 1253 01       		.uleb128 0x1
 7018 1254 34       		.byte	0x34
 7019 1255 00       		.byte	0
 7020 1256 32       		.uleb128 0x32
 7021 1257 42000000 		.4byte	.LVL168
 7022 125b 6F1E0000 		.4byte	0x1e6f
ARM GAS  C:\Users\jens-\AppData\Local\Temp\ccdWTNhT.s 			page 187


 7023 125f 31       		.uleb128 0x31
 7024 1260 01       		.uleb128 0x1
 7025 1261 50       		.byte	0x50
 7026 1262 02       		.uleb128 0x2
 7027 1263 74       		.byte	0x74
 7028 1264 00       		.sleb128 0
 7029 1265 00       		.byte	0
 7030 1266 00       		.byte	0
 7031 1267 26       		.uleb128 0x26
 7032 1268 5E090000 		.4byte	.LASF190
 7033 126c 01       		.byte	0x1
 7034 126d 0E07     		.2byte	0x70e
 7035 126f 06       		.byte	0x6
 7036 1270 00000000 		.4byte	.LFB49
 7037 1274 28000000 		.4byte	.LFE49-.LFB49
 7038 1278 01       		.uleb128 0x1
 7039 1279 9C       		.byte	0x9c
 7040 127a 8E120000 		.4byte	0x128e
 7041 127e 32       		.uleb128 0x32
 7042 127f 1C000000 		.4byte	.LVL162
 7043 1283 3E110000 		.4byte	0x113e
 7044 1287 31       		.uleb128 0x31
 7045 1288 01       		.uleb128 0x1
 7046 1289 50       		.byte	0x50
 7047 128a 01       		.uleb128 0x1
 7048 128b 32       		.byte	0x32
 7049 128c 00       		.byte	0
 7050 128d 00       		.byte	0
 7051 128e 26       		.uleb128 0x26
 7052 128f 64020000 		.4byte	.LASF191
 7053 1293 01       		.byte	0x1
 7054 1294 F506     		.2byte	0x6f5
 7055 1296 06       		.byte	0x6
 7056 1297 00000000 		.4byte	.LFB48
 7057 129b 30000000 		.4byte	.LFE48-.LFB48
 7058 129f 01       		.uleb128 0x1
 7059 12a0 9C       		.byte	0x9c
 7060 12a1 C8120000 		.4byte	0x12c8
 7061 12a5 30       		.uleb128 0x30
 7062 12a6 1C000000 		.4byte	.LVL160
 7063 12aa 3E110000 		.4byte	0x113e
 7064 12ae B8120000 		.4byte	0x12b8
 7065 12b2 31       		.uleb128 0x31
 7066 12b3 01       		.uleb128 0x1
 7067 12b4 50       		.byte	0x50
 7068 12b5 01       		.uleb128 0x1
 7069 12b6 31       		.byte	0x31
 7070 12b7 00       		.byte	0
 7071 12b8 32       		.uleb128 0x32
 7072 12b9 22000000 		.4byte	.LVL161
 7073 12bd 3E110000 		.4byte	0x113e
 7074 12c1 31       		.uleb128 0x31
 7075 12c2 01       		.uleb128 0x1
 7076 12c3 50       		.byte	0x50
 7077 12c4 01       		.uleb128 0x1
 7078 12c5 31       		.byte	0x31
 7079 12c6 00       		.byte	0
ARM GAS  C:\Users\jens-\AppData\Local\Temp\ccdWTNhT.s 			page 188


 7080 12c7 00       		.byte	0
 7081 12c8 26       		.uleb128 0x26
 7082 12c9 E7040000 		.4byte	.LASF192
 7083 12cd 01       		.byte	0x1
 7084 12ce BF06     		.2byte	0x6bf
 7085 12d0 06       		.byte	0x6
 7086 12d1 00000000 		.4byte	.LFB47
 7087 12d5 80000000 		.4byte	.LFE47-.LFB47
 7088 12d9 01       		.uleb128 0x1
 7089 12da 9C       		.byte	0x9c
 7090 12db 73130000 		.4byte	0x1373
 7091 12df 2C       		.uleb128 0x2c
 7092 12e0 E20A0000 		.4byte	.LASF193
 7093 12e4 01       		.byte	0x1
 7094 12e5 BF06     		.2byte	0x6bf
 7095 12e7 1F       		.byte	0x1f
 7096 12e8 30090000 		.4byte	0x930
 7097 12ec 49050000 		.4byte	.LLST52
 7098 12f0 45050000 		.4byte	.LVUS52
 7099 12f4 2C       		.uleb128 0x2c
 7100 12f5 E20C0000 		.4byte	.LASF194
 7101 12f9 01       		.byte	0x1
 7102 12fa BF06     		.2byte	0x6bf
 7103 12fc 2C       		.byte	0x2c
 7104 12fd 30090000 		.4byte	0x930
 7105 1301 6E050000 		.4byte	.LLST53
 7106 1305 6A050000 		.4byte	.LVUS53
 7107 1309 2D       		.uleb128 0x2d
 7108 130a 83070000 		.4byte	.LASF189
 7109 130e 01       		.byte	0x1
 7110 130f C106     		.2byte	0x6c1
 7111 1311 0C       		.byte	0xc
 7112 1312 54090000 		.4byte	0x954
 7113 1316 91050000 		.4byte	.LLST54
 7114 131a 8F050000 		.4byte	.LVUS54
 7115 131e 2D       		.uleb128 0x2d
 7116 131f 8B010000 		.4byte	.LASF176
 7117 1323 01       		.byte	0x1
 7118 1324 C206     		.2byte	0x6c2
 7119 1326 0B       		.byte	0xb
 7120 1327 30090000 		.4byte	0x930
 7121 132b A6050000 		.4byte	.LLST55
 7122 132f A4050000 		.4byte	.LVUS55
 7123 1333 2A       		.uleb128 0x2a
 7124 1334 0A000000 		.4byte	.LVL153
 7125 1338 631E0000 		.4byte	0x1e63
 7126 133c 30       		.uleb128 0x30
 7127 133d 42000000 		.4byte	.LVL156
 7128 1341 A2140000 		.4byte	0x14a2
 7129 1345 4F130000 		.4byte	0x134f
 7130 1349 31       		.uleb128 0x31
 7131 134a 01       		.uleb128 0x1
 7132 134b 50       		.byte	0x50
 7133 134c 01       		.uleb128 0x1
 7134 134d 31       		.byte	0x31
 7135 134e 00       		.byte	0
 7136 134f 30       		.uleb128 0x30
ARM GAS  C:\Users\jens-\AppData\Local\Temp\ccdWTNhT.s 			page 189


 7137 1350 48000000 		.4byte	.LVL157
 7138 1354 3E110000 		.4byte	0x113e
 7139 1358 62130000 		.4byte	0x1362
 7140 135c 31       		.uleb128 0x31
 7141 135d 01       		.uleb128 0x1
 7142 135e 50       		.byte	0x50
 7143 135f 01       		.uleb128 0x1
 7144 1360 32       		.byte	0x32
 7145 1361 00       		.byte	0
 7146 1362 32       		.uleb128 0x32
 7147 1363 66000000 		.4byte	.LVL158
 7148 1367 6F1E0000 		.4byte	0x1e6f
 7149 136b 31       		.uleb128 0x31
 7150 136c 01       		.uleb128 0x1
 7151 136d 50       		.byte	0x50
 7152 136e 02       		.uleb128 0x2
 7153 136f 75       		.byte	0x75
 7154 1370 00       		.sleb128 0
 7155 1371 00       		.byte	0
 7156 1372 00       		.byte	0
 7157 1373 26       		.uleb128 0x26
 7158 1374 A3060000 		.4byte	.LASF195
 7159 1378 01       		.byte	0x1
 7160 1379 6F06     		.2byte	0x66f
 7161 137b 06       		.byte	0x6
 7162 137c 00000000 		.4byte	.LFB46
 7163 1380 90000000 		.4byte	.LFE46-.LFB46
 7164 1384 01       		.uleb128 0x1
 7165 1385 9C       		.byte	0x9c
 7166 1386 20140000 		.4byte	0x1420
 7167 138a 2C       		.uleb128 0x2c
 7168 138b E20A0000 		.4byte	.LASF193
 7169 138f 01       		.byte	0x1
 7170 1390 6F06     		.2byte	0x66f
 7171 1392 1E       		.byte	0x1e
 7172 1393 30090000 		.4byte	0x930
 7173 1397 BD050000 		.4byte	.LLST48
 7174 139b B9050000 		.4byte	.LVUS48
 7175 139f 2C       		.uleb128 0x2c
 7176 13a0 E20C0000 		.4byte	.LASF194
 7177 13a4 01       		.byte	0x1
 7178 13a5 6F06     		.2byte	0x66f
 7179 13a7 2B       		.byte	0x2b
 7180 13a8 30090000 		.4byte	0x930
 7181 13ac E2050000 		.4byte	.LLST49
 7182 13b0 DE050000 		.4byte	.LVUS49
 7183 13b4 2D       		.uleb128 0x2d
 7184 13b5 83070000 		.4byte	.LASF189
 7185 13b9 01       		.byte	0x1
 7186 13ba 7106     		.2byte	0x671
 7187 13bc 0C       		.byte	0xc
 7188 13bd 54090000 		.4byte	0x954
 7189 13c1 05060000 		.4byte	.LLST50
 7190 13c5 03060000 		.4byte	.LVUS50
 7191 13c9 2D       		.uleb128 0x2d
 7192 13ca 8B010000 		.4byte	.LASF176
 7193 13ce 01       		.byte	0x1
ARM GAS  C:\Users\jens-\AppData\Local\Temp\ccdWTNhT.s 			page 190


 7194 13cf 7206     		.2byte	0x672
 7195 13d1 0B       		.byte	0xb
 7196 13d2 30090000 		.4byte	0x930
 7197 13d6 1A060000 		.4byte	.LLST51
 7198 13da 18060000 		.4byte	.LVUS51
 7199 13de 2A       		.uleb128 0x2a
 7200 13df 0C000000 		.4byte	.LVL145
 7201 13e3 631E0000 		.4byte	0x1e63
 7202 13e7 30       		.uleb128 0x30
 7203 13e8 4A000000 		.4byte	.LVL148
 7204 13ec A2140000 		.4byte	0x14a2
 7205 13f0 FB130000 		.4byte	0x13fb
 7206 13f4 31       		.uleb128 0x31
 7207 13f5 01       		.uleb128 0x1
 7208 13f6 50       		.byte	0x50
 7209 13f7 02       		.uleb128 0x2
 7210 13f8 78       		.byte	0x78
 7211 13f9 00       		.sleb128 0
 7212 13fa 00       		.byte	0
 7213 13fb 30       		.uleb128 0x30
 7214 13fc 50000000 		.4byte	.LVL149
 7215 1400 3E110000 		.4byte	0x113e
 7216 1404 0F140000 		.4byte	0x140f
 7217 1408 31       		.uleb128 0x31
 7218 1409 01       		.uleb128 0x1
 7219 140a 50       		.byte	0x50
 7220 140b 02       		.uleb128 0x2
 7221 140c 78       		.byte	0x78
 7222 140d 00       		.sleb128 0
 7223 140e 00       		.byte	0
 7224 140f 32       		.uleb128 0x32
 7225 1410 6E000000 		.4byte	.LVL150
 7226 1414 6F1E0000 		.4byte	0x1e6f
 7227 1418 31       		.uleb128 0x31
 7228 1419 01       		.uleb128 0x1
 7229 141a 50       		.byte	0x50
 7230 141b 02       		.uleb128 0x2
 7231 141c 75       		.byte	0x75
 7232 141d 00       		.sleb128 0
 7233 141e 00       		.byte	0
 7234 141f 00       		.byte	0
 7235 1420 2E       		.uleb128 0x2e
 7236 1421 6D000000 		.4byte	.LASF196
 7237 1425 01       		.byte	0x1
 7238 1426 4306     		.2byte	0x643
 7239 1428 06       		.byte	0x6
 7240 1429 00000000 		.4byte	.LFB45
 7241 142d 0C000000 		.4byte	.LFE45-.LFB45
 7242 1431 01       		.uleb128 0x1
 7243 1432 9C       		.byte	0x9c
 7244 1433 26       		.uleb128 0x26
 7245 1434 6F080000 		.4byte	.LASF197
 7246 1438 01       		.byte	0x1
 7247 1439 2A06     		.2byte	0x62a
 7248 143b 06       		.byte	0x6
 7249 143c 00000000 		.4byte	.LFB44
 7250 1440 40000000 		.4byte	.LFE44-.LFB44
ARM GAS  C:\Users\jens-\AppData\Local\Temp\ccdWTNhT.s 			page 191


 7251 1444 01       		.uleb128 0x1
 7252 1445 9C       		.byte	0x9c
 7253 1446 75140000 		.4byte	0x1475
 7254 144a 2C       		.uleb128 0x2c
 7255 144b A6050000 		.4byte	.LASF198
 7256 144f 01       		.byte	0x1
 7257 1450 2A06     		.2byte	0x62a
 7258 1452 17       		.byte	0x17
 7259 1453 30090000 		.4byte	0x930
 7260 1457 31060000 		.4byte	.LLST43
 7261 145b 2D060000 		.4byte	.LVUS43
 7262 145f 2C       		.uleb128 0x2c
 7263 1460 C4030000 		.4byte	.LASF199
 7264 1464 01       		.byte	0x1
 7265 1465 2A06     		.2byte	0x62a
 7266 1467 24       		.byte	0x24
 7267 1468 30090000 		.4byte	0x930
 7268 146c 56060000 		.4byte	.LLST44
 7269 1470 52060000 		.4byte	.LVUS44
 7270 1474 00       		.byte	0
 7271 1475 26       		.uleb128 0x26
 7272 1476 C6020000 		.4byte	.LASF200
 7273 147a 01       		.byte	0x1
 7274 147b F005     		.2byte	0x5f0
 7275 147d 06       		.byte	0x6
 7276 147e 00000000 		.4byte	.LFB43
 7277 1482 4C000000 		.4byte	.LFE43-.LFB43
 7278 1486 01       		.uleb128 0x1
 7279 1487 9C       		.byte	0x9c
 7280 1488 A2140000 		.4byte	0x14a2
 7281 148c 2C       		.uleb128 0x2c
 7282 148d 53050000 		.4byte	.LASF201
 7283 1491 01       		.byte	0x1
 7284 1492 F005     		.2byte	0x5f0
 7285 1494 19       		.byte	0x19
 7286 1495 54090000 		.4byte	0x954
 7287 1499 7D060000 		.4byte	.LLST42
 7288 149d 77060000 		.4byte	.LVUS42
 7289 14a1 00       		.byte	0
 7290 14a2 26       		.uleb128 0x26
 7291 14a3 BA030000 		.4byte	.LASF202
 7292 14a7 01       		.byte	0x1
 7293 14a8 DF05     		.2byte	0x5df
 7294 14aa 0A       		.byte	0xa
 7295 14ab 00000000 		.4byte	.LFB42
 7296 14af 14000000 		.4byte	.LFE42-.LFB42
 7297 14b3 01       		.uleb128 0x1
 7298 14b4 9C       		.byte	0x9c
 7299 14b5 D8140000 		.4byte	0x14d8
 7300 14b9 2C       		.uleb128 0x2c
 7301 14ba 330C0000 		.4byte	.LASF203
 7302 14be 01       		.byte	0x1
 7303 14bf DF05     		.2byte	0x5df
 7304 14c1 1B       		.byte	0x1b
 7305 14c2 42090000 		.4byte	0x942
 7306 14c6 AD060000 		.4byte	.LLST39
 7307 14ca A9060000 		.4byte	.LVUS39
ARM GAS  C:\Users\jens-\AppData\Local\Temp\ccdWTNhT.s 			page 192


 7308 14ce 2A       		.uleb128 0x2a
 7309 14cf 0E000000 		.4byte	.LVL121
 7310 14d3 7B1E0000 		.4byte	0x1e7b
 7311 14d7 00       		.byte	0
 7312 14d8 26       		.uleb128 0x26
 7313 14d9 1E000000 		.4byte	.LASF204
 7314 14dd 01       		.byte	0x1
 7315 14de B305     		.2byte	0x5b3
 7316 14e0 06       		.byte	0x6
 7317 14e1 00000000 		.4byte	.LFB41
 7318 14e5 2C000000 		.4byte	.LFE41-.LFB41
 7319 14e9 01       		.uleb128 0x1
 7320 14ea 9C       		.byte	0x9c
 7321 14eb 17150000 		.4byte	0x1517
 7322 14ef 2C       		.uleb128 0x2c
 7323 14f0 A8000000 		.4byte	.LASF205
 7324 14f4 01       		.byte	0x1
 7325 14f5 B305     		.2byte	0x5b3
 7326 14f7 15       		.byte	0x15
 7327 14f8 54090000 		.4byte	0x954
 7328 14fc D2060000 		.4byte	.LLST38
 7329 1500 CE060000 		.4byte	.LVUS38
 7330 1504 2A       		.uleb128 0x2a
 7331 1505 12000000 		.4byte	.LVL115
 7332 1509 7B1E0000 		.4byte	0x1e7b
 7333 150d 2A       		.uleb128 0x2a
 7334 150e 24000000 		.4byte	.LVL117
 7335 1512 7B1E0000 		.4byte	0x1e7b
 7336 1516 00       		.byte	0
 7337 1517 2E       		.uleb128 0x2e
 7338 1518 B40B0000 		.4byte	.LASF206
 7339 151c 01       		.byte	0x1
 7340 151d 9E05     		.2byte	0x59e
 7341 151f 06       		.byte	0x6
 7342 1520 00000000 		.4byte	.LFB40
 7343 1524 10000000 		.4byte	.LFE40-.LFB40
 7344 1528 01       		.uleb128 0x1
 7345 1529 9C       		.byte	0x9c
 7346 152a 26       		.uleb128 0x26
 7347 152b 28040000 		.4byte	.LASF207
 7348 152f 01       		.byte	0x1
 7349 1530 8605     		.2byte	0x586
 7350 1532 06       		.byte	0x6
 7351 1533 00000000 		.4byte	.LFB39
 7352 1537 04000000 		.4byte	.LFE39-.LFB39
 7353 153b 01       		.uleb128 0x1
 7354 153c 9C       		.byte	0x9c
 7355 153d 51150000 		.4byte	0x1551
 7356 1541 27       		.uleb128 0x27
 7357 1542 0E040000 		.4byte	.LASF208
 7358 1546 01       		.byte	0x1
 7359 1547 8605     		.2byte	0x586
 7360 1549 13       		.byte	0x13
 7361 154a 30090000 		.4byte	0x930
 7362 154e 01       		.uleb128 0x1
 7363 154f 50       		.byte	0x50
 7364 1550 00       		.byte	0
ARM GAS  C:\Users\jens-\AppData\Local\Temp\ccdWTNhT.s 			page 193


 7365 1551 26       		.uleb128 0x26
 7366 1552 71040000 		.4byte	.LASF209
 7367 1556 01       		.byte	0x1
 7368 1557 7605     		.2byte	0x576
 7369 1559 06       		.byte	0x6
 7370 155a 00000000 		.4byte	.LFB38
 7371 155e 18000000 		.4byte	.LFE38-.LFB38
 7372 1562 01       		.uleb128 0x1
 7373 1563 9C       		.byte	0x9c
 7374 1564 7E150000 		.4byte	0x157e
 7375 1568 2C       		.uleb128 0x2c
 7376 1569 58040000 		.4byte	.LASF210
 7377 156d 01       		.byte	0x1
 7378 156e 7605     		.2byte	0x576
 7379 1570 20       		.byte	0x20
 7380 1571 30090000 		.4byte	0x930
 7381 1575 F4060000 		.4byte	.LLST27
 7382 1579 F0060000 		.4byte	.LVUS27
 7383 157d 00       		.byte	0
 7384 157e 26       		.uleb128 0x26
 7385 157f CE0C0000 		.4byte	.LASF211
 7386 1583 01       		.byte	0x1
 7387 1584 6405     		.2byte	0x564
 7388 1586 06       		.byte	0x6
 7389 1587 00000000 		.4byte	.LFB37
 7390 158b 18000000 		.4byte	.LFE37-.LFB37
 7391 158f 01       		.uleb128 0x1
 7392 1590 9C       		.byte	0x9c
 7393 1591 AB150000 		.4byte	0x15ab
 7394 1595 2C       		.uleb128 0x2c
 7395 1596 58040000 		.4byte	.LASF210
 7396 159a 01       		.byte	0x1
 7397 159b 6405     		.2byte	0x564
 7398 159d 20       		.byte	0x20
 7399 159e 30090000 		.4byte	0x930
 7400 15a2 19070000 		.4byte	.LLST26
 7401 15a6 15070000 		.4byte	.LVUS26
 7402 15aa 00       		.byte	0
 7403 15ab 26       		.uleb128 0x26
 7404 15ac 9F010000 		.4byte	.LASF212
 7405 15b0 01       		.byte	0x1
 7406 15b1 5105     		.2byte	0x551
 7407 15b3 06       		.byte	0x6
 7408 15b4 00000000 		.4byte	.LFB36
 7409 15b8 18000000 		.4byte	.LFE36-.LFB36
 7410 15bc 01       		.uleb128 0x1
 7411 15bd 9C       		.byte	0x9c
 7412 15be D8150000 		.4byte	0x15d8
 7413 15c2 2C       		.uleb128 0x2c
 7414 15c3 58040000 		.4byte	.LASF210
 7415 15c7 01       		.byte	0x1
 7416 15c8 5105     		.2byte	0x551
 7417 15ca 1E       		.byte	0x1e
 7418 15cb 30090000 		.4byte	0x930
 7419 15cf 3E070000 		.4byte	.LLST25
 7420 15d3 3A070000 		.4byte	.LVUS25
 7421 15d7 00       		.byte	0
ARM GAS  C:\Users\jens-\AppData\Local\Temp\ccdWTNhT.s 			page 194


 7422 15d8 2E       		.uleb128 0x2e
 7423 15d9 BE050000 		.4byte	.LASF213
 7424 15dd 01       		.byte	0x1
 7425 15de 3C05     		.2byte	0x53c
 7426 15e0 06       		.byte	0x6
 7427 15e1 00000000 		.4byte	.LFB35
 7428 15e5 10000000 		.4byte	.LFE35-.LFB35
 7429 15e9 01       		.uleb128 0x1
 7430 15ea 9C       		.byte	0x9c
 7431 15eb 2E       		.uleb128 0x2e
 7432 15ec B30C0000 		.4byte	.LASF214
 7433 15f0 01       		.byte	0x1
 7434 15f1 2D05     		.2byte	0x52d
 7435 15f3 06       		.byte	0x6
 7436 15f4 00000000 		.4byte	.LFB34
 7437 15f8 10000000 		.4byte	.LFE34-.LFB34
 7438 15fc 01       		.uleb128 0x1
 7439 15fd 9C       		.byte	0x9c
 7440 15fe 2F       		.uleb128 0x2f
 7441 15ff 4A000000 		.4byte	.LASF215
 7442 1603 01       		.byte	0x1
 7443 1604 1905     		.2byte	0x519
 7444 1606 07       		.byte	0x7
 7445 1607 30090000 		.4byte	0x930
 7446 160b 00000000 		.4byte	.LFB33
 7447 160f 18000000 		.4byte	.LFE33-.LFB33
 7448 1613 01       		.uleb128 0x1
 7449 1614 9C       		.byte	0x9c
 7450 1615 2E       		.uleb128 0x2e
 7451 1616 F9070000 		.4byte	.LASF216
 7452 161a 01       		.byte	0x1
 7453 161b 0505     		.2byte	0x505
 7454 161d 06       		.byte	0x6
 7455 161e 00000000 		.4byte	.LFB32
 7456 1622 10000000 		.4byte	.LFE32-.LFB32
 7457 1626 01       		.uleb128 0x1
 7458 1627 9C       		.byte	0x9c
 7459 1628 2E       		.uleb128 0x2e
 7460 1629 D5070000 		.4byte	.LASF217
 7461 162d 01       		.byte	0x1
 7462 162e F604     		.2byte	0x4f6
 7463 1630 06       		.byte	0x6
 7464 1631 00000000 		.4byte	.LFB31
 7465 1635 10000000 		.4byte	.LFE31-.LFB31
 7466 1639 01       		.uleb128 0x1
 7467 163a 9C       		.byte	0x9c
 7468 163b 2E       		.uleb128 0x2e
 7469 163c 7F020000 		.4byte	.LASF218
 7470 1640 01       		.byte	0x1
 7471 1641 E704     		.2byte	0x4e7
 7472 1643 06       		.byte	0x6
 7473 1644 00000000 		.4byte	.LFB30
 7474 1648 10000000 		.4byte	.LFE30-.LFB30
 7475 164c 01       		.uleb128 0x1
 7476 164d 9C       		.byte	0x9c
 7477 164e 2B       		.uleb128 0x2b
 7478 164f 090C0000 		.4byte	.LASF219
ARM GAS  C:\Users\jens-\AppData\Local\Temp\ccdWTNhT.s 			page 195


 7479 1653 01       		.byte	0x1
 7480 1654 9E04     		.2byte	0x49e
 7481 1656 0A       		.byte	0xa
 7482 1657 74090000 		.4byte	0x974
 7483 165b 00000000 		.4byte	.LFB29
 7484 165f A8000000 		.4byte	.LFE29-.LFB29
 7485 1663 01       		.uleb128 0x1
 7486 1664 9C       		.byte	0x9c
 7487 1665 22170000 		.4byte	0x1722
 7488 1669 2C       		.uleb128 0x2c
 7489 166a 83080000 		.4byte	.LASF220
 7490 166e 01       		.byte	0x1
 7491 166f 9E04     		.2byte	0x49e
 7492 1671 1D       		.byte	0x1d
 7493 1672 30090000 		.4byte	0x930
 7494 1676 67070000 		.4byte	.LLST20
 7495 167a 5F070000 		.4byte	.LVUS20
 7496 167e 2D       		.uleb128 0x2d
 7497 167f 9C060000 		.4byte	.LASF221
 7498 1683 01       		.byte	0x1
 7499 1684 A004     		.2byte	0x4a0
 7500 1686 0E       		.byte	0xe
 7501 1687 74090000 		.4byte	0x974
 7502 168b AD070000 		.4byte	.LLST21
 7503 168f A1070000 		.4byte	.LVUS21
 7504 1693 33       		.uleb128 0x33
 7505 1694 1E0C0000 		.4byte	.LASF222
 7506 1698 01       		.byte	0x1
 7507 1699 A104     		.2byte	0x4a1
 7508 169b 15       		.byte	0x15
 7509 169c 3D090000 		.4byte	0x93d
 7510 16a0 02       		.uleb128 0x2
 7511 16a1 91       		.byte	0x91
 7512 16a2 67       		.sleb128 -25
 7513 16a3 33       		.uleb128 0x33
 7514 16a4 11080000 		.4byte	.LASF223
 7515 16a8 01       		.byte	0x1
 7516 16a9 A204     		.2byte	0x4a2
 7517 16ab 14       		.byte	0x14
 7518 16ac 3D090000 		.4byte	0x93d
 7519 16b0 02       		.uleb128 0x2
 7520 16b1 91       		.byte	0x91
 7521 16b2 66       		.sleb128 -26
 7522 16b3 2D       		.uleb128 0x2d
 7523 16b4 DA0D0000 		.4byte	.LASF224
 7524 16b8 01       		.byte	0x1
 7525 16b9 A304     		.2byte	0x4a3
 7526 16bb 0B       		.byte	0xb
 7527 16bc 30090000 		.4byte	0x930
 7528 16c0 FD070000 		.4byte	.LLST22
 7529 16c4 FB070000 		.4byte	.LVUS22
 7530 16c8 2D       		.uleb128 0x2d
 7531 16c9 E4000000 		.4byte	.LASF225
 7532 16cd 01       		.byte	0x1
 7533 16ce A404     		.2byte	0x4a4
 7534 16d0 0B       		.byte	0xb
 7535 16d1 30090000 		.4byte	0x930
ARM GAS  C:\Users\jens-\AppData\Local\Temp\ccdWTNhT.s 			page 196


 7536 16d5 12080000 		.4byte	.LLST23
 7537 16d9 10080000 		.4byte	.LVUS23
 7538 16dd 2D       		.uleb128 0x2d
 7539 16de D2020000 		.4byte	.LASF226
 7540 16e2 01       		.byte	0x1
 7541 16e3 A504     		.2byte	0x4a5
 7542 16e5 0B       		.byte	0xb
 7543 16e6 30090000 		.4byte	0x930
 7544 16ea 27080000 		.4byte	.LLST24
 7545 16ee 25080000 		.4byte	.LVUS24
 7546 16f2 30       		.uleb128 0x30
 7547 16f3 34000000 		.4byte	.LVL59
 7548 16f7 871E0000 		.4byte	0x1e87
 7549 16fb 05170000 		.4byte	0x1705
 7550 16ff 31       		.uleb128 0x31
 7551 1700 01       		.uleb128 0x1
 7552 1701 50       		.byte	0x50
 7553 1702 01       		.uleb128 0x1
 7554 1703 48       		.byte	0x48
 7555 1704 00       		.byte	0
 7556 1705 30       		.uleb128 0x30
 7557 1706 3C000000 		.4byte	.LVL60
 7558 170a 931E0000 		.4byte	0x1e93
 7559 170e 18170000 		.4byte	0x1718
 7560 1712 31       		.uleb128 0x31
 7561 1713 01       		.uleb128 0x1
 7562 1714 50       		.byte	0x50
 7563 1715 01       		.uleb128 0x1
 7564 1716 31       		.byte	0x31
 7565 1717 00       		.byte	0
 7566 1718 2A       		.uleb128 0x2a
 7567 1719 98000000 		.4byte	.LVL64
 7568 171d B1180000 		.4byte	0x18b1
 7569 1721 00       		.byte	0
 7570 1722 2B       		.uleb128 0x2b
 7571 1723 2F040000 		.4byte	.LASF227
 7572 1727 01       		.byte	0x1
 7573 1728 5E04     		.2byte	0x45e
 7574 172a 07       		.byte	0x7
 7575 172b 30090000 		.4byte	0x930
 7576 172f 00000000 		.4byte	.LFB28
 7577 1733 80000000 		.4byte	.LFE28-.LFB28
 7578 1737 01       		.uleb128 0x1
 7579 1738 9C       		.byte	0x9c
 7580 1739 9D170000 		.4byte	0x179d
 7581 173d 2C       		.uleb128 0x2c
 7582 173e F9010000 		.4byte	.LASF228
 7583 1742 01       		.byte	0x1
 7584 1743 5E04     		.2byte	0x45e
 7585 1745 27       		.byte	0x27
 7586 1746 30090000 		.4byte	0x930
 7587 174a 42080000 		.4byte	.LLST40
 7588 174e 3A080000 		.4byte	.LVUS40
 7589 1752 2D       		.uleb128 0x2d
 7590 1753 2C0B0000 		.4byte	.LASF229
 7591 1757 01       		.byte	0x1
 7592 1758 6004     		.2byte	0x460
ARM GAS  C:\Users\jens-\AppData\Local\Temp\ccdWTNhT.s 			page 197


 7593 175a 0B       		.byte	0xb
 7594 175b 30090000 		.4byte	0x930
 7595 175f 7E080000 		.4byte	.LLST41
 7596 1763 7C080000 		.4byte	.LVUS41
 7597 1767 30       		.uleb128 0x30
 7598 1768 24000000 		.4byte	.LVL125
 7599 176c A2140000 		.4byte	0x14a2
 7600 1770 7A170000 		.4byte	0x177a
 7601 1774 31       		.uleb128 0x31
 7602 1775 01       		.uleb128 0x1
 7603 1776 50       		.byte	0x50
 7604 1777 01       		.uleb128 0x1
 7605 1778 3A       		.byte	0x3a
 7606 1779 00       		.byte	0
 7607 177a 30       		.uleb128 0x30
 7608 177b 4E000000 		.4byte	.LVL128
 7609 177f A2140000 		.4byte	0x14a2
 7610 1783 8D170000 		.4byte	0x178d
 7611 1787 31       		.uleb128 0x31
 7612 1788 01       		.uleb128 0x1
 7613 1789 50       		.byte	0x50
 7614 178a 01       		.uleb128 0x1
 7615 178b 3A       		.byte	0x3a
 7616 178c 00       		.byte	0
 7617 178d 32       		.uleb128 0x32
 7618 178e 62000000 		.4byte	.LVL129
 7619 1792 A2140000 		.4byte	0x14a2
 7620 1796 31       		.uleb128 0x31
 7621 1797 01       		.uleb128 0x1
 7622 1798 50       		.byte	0x50
 7623 1799 01       		.uleb128 0x1
 7624 179a 44       		.byte	0x44
 7625 179b 00       		.byte	0
 7626 179c 00       		.byte	0
 7627 179d 2F       		.uleb128 0x2f
 7628 179e E8020000 		.4byte	.LASF230
 7629 17a2 01       		.byte	0x1
 7630 17a3 4804     		.2byte	0x448
 7631 17a5 07       		.byte	0x7
 7632 17a6 30090000 		.4byte	0x930
 7633 17aa 00000000 		.4byte	.LFB27
 7634 17ae 10000000 		.4byte	.LFE27-.LFB27
 7635 17b2 01       		.uleb128 0x1
 7636 17b3 9C       		.byte	0x9c
 7637 17b4 2E       		.uleb128 0x2e
 7638 17b5 88080000 		.4byte	.LASF231
 7639 17b9 01       		.byte	0x1
 7640 17ba 2D04     		.2byte	0x42d
 7641 17bc 06       		.byte	0x6
 7642 17bd 00000000 		.4byte	.LFB26
 7643 17c1 30000000 		.4byte	.LFE26-.LFB26
 7644 17c5 01       		.uleb128 0x1
 7645 17c6 9C       		.byte	0x9c
 7646 17c7 26       		.uleb128 0x26
 7647 17c8 15040000 		.4byte	.LASF232
 7648 17cc 01       		.byte	0x1
 7649 17cd 0804     		.2byte	0x408
ARM GAS  C:\Users\jens-\AppData\Local\Temp\ccdWTNhT.s 			page 198


 7650 17cf 06       		.byte	0x6
 7651 17d0 00000000 		.4byte	.LFB25
 7652 17d4 70000000 		.4byte	.LFE25-.LFB25
 7653 17d8 01       		.uleb128 0x1
 7654 17d9 9C       		.byte	0x9c
 7655 17da 18180000 		.4byte	0x1818
 7656 17de 34       		.uleb128 0x34
 7657 17df 6900     		.ascii	"i\000"
 7658 17e1 01       		.byte	0x1
 7659 17e2 0A04     		.2byte	0x40a
 7660 17e4 15       		.byte	0x15
 7661 17e5 4F090000 		.4byte	0x94f
 7662 17e9 02       		.uleb128 0x2
 7663 17ea 91       		.byte	0x91
 7664 17eb 76       		.sleb128 -10
 7665 17ec 2A       		.uleb128 0x2a
 7666 17ed 3E000000 		.4byte	.LVL130
 7667 17f1 9D170000 		.4byte	0x179d
 7668 17f5 30       		.uleb128 0x30
 7669 17f6 4A000000 		.4byte	.LVL131
 7670 17fa A2140000 		.4byte	0x14a2
 7671 17fe 08180000 		.4byte	0x1808
 7672 1802 31       		.uleb128 0x31
 7673 1803 01       		.uleb128 0x1
 7674 1804 50       		.byte	0x50
 7675 1805 01       		.uleb128 0x1
 7676 1806 31       		.byte	0x31
 7677 1807 00       		.byte	0
 7678 1808 32       		.uleb128 0x32
 7679 1809 60000000 		.4byte	.LVL132
 7680 180d 22170000 		.4byte	0x1722
 7681 1811 31       		.uleb128 0x31
 7682 1812 01       		.uleb128 0x1
 7683 1813 50       		.byte	0x50
 7684 1814 01       		.uleb128 0x1
 7685 1815 30       		.byte	0x30
 7686 1816 00       		.byte	0
 7687 1817 00       		.byte	0
 7688 1818 2B       		.uleb128 0x2b
 7689 1819 47070000 		.4byte	.LASF233
 7690 181d 01       		.byte	0x1
 7691 181e EB03     		.2byte	0x3eb
 7692 1820 07       		.byte	0x7
 7693 1821 30090000 		.4byte	0x930
 7694 1825 00000000 		.4byte	.LFB24
 7695 1829 24000000 		.4byte	.LFE24-.LFB24
 7696 182d 01       		.uleb128 0x1
 7697 182e 9C       		.byte	0x9c
 7698 182f 5E180000 		.4byte	0x185e
 7699 1833 2C       		.uleb128 0x2c
 7700 1834 F9010000 		.4byte	.LASF228
 7701 1838 01       		.byte	0x1
 7702 1839 EB03     		.2byte	0x3eb
 7703 183b 20       		.byte	0x20
 7704 183c 30090000 		.4byte	0x930
 7705 1840 97080000 		.4byte	.LLST18
 7706 1844 91080000 		.4byte	.LVUS18
ARM GAS  C:\Users\jens-\AppData\Local\Temp\ccdWTNhT.s 			page 199


 7707 1848 2D       		.uleb128 0x2d
 7708 1849 2C0B0000 		.4byte	.LASF229
 7709 184d 01       		.byte	0x1
 7710 184e ED03     		.2byte	0x3ed
 7711 1850 0B       		.byte	0xb
 7712 1851 30090000 		.4byte	0x930
 7713 1855 C5080000 		.4byte	.LLST19
 7714 1859 C3080000 		.4byte	.LVUS19
 7715 185d 00       		.byte	0
 7716 185e 26       		.uleb128 0x26
 7717 185f D2080000 		.4byte	.LASF234
 7718 1863 01       		.byte	0x1
 7719 1864 D603     		.2byte	0x3d6
 7720 1866 06       		.byte	0x6
 7721 1867 00000000 		.4byte	.LFB23
 7722 186b 16000000 		.4byte	.LFE23-.LFB23
 7723 186f 01       		.uleb128 0x1
 7724 1870 9C       		.byte	0x9c
 7725 1871 8B180000 		.4byte	0x188b
 7726 1875 2C       		.uleb128 0x2c
 7727 1876 FF0A0000 		.4byte	.LASF235
 7728 187a 01       		.byte	0x1
 7729 187b D603     		.2byte	0x3d6
 7730 187d 1C       		.byte	0x1c
 7731 187e 30090000 		.4byte	0x930
 7732 1882 DC080000 		.4byte	.LLST17
 7733 1886 D8080000 		.4byte	.LVUS17
 7734 188a 00       		.byte	0
 7735 188b 2E       		.uleb128 0x2e
 7736 188c B5000000 		.4byte	.LASF236
 7737 1890 01       		.byte	0x1
 7738 1891 C303     		.2byte	0x3c3
 7739 1893 06       		.byte	0x6
 7740 1894 00000000 		.4byte	.LFB22
 7741 1898 10000000 		.4byte	.LFE22-.LFB22
 7742 189c 01       		.uleb128 0x1
 7743 189d 9C       		.byte	0x9c
 7744 189e 2E       		.uleb128 0x2e
 7745 189f 820D0000 		.4byte	.LASF237
 7746 18a3 01       		.byte	0x1
 7747 18a4 B203     		.2byte	0x3b2
 7748 18a6 06       		.byte	0x6
 7749 18a7 00000000 		.4byte	.LFB21
 7750 18ab 10000000 		.4byte	.LFE21-.LFB21
 7751 18af 01       		.uleb128 0x1
 7752 18b0 9C       		.byte	0x9c
 7753 18b1 2E       		.uleb128 0x2e
 7754 18b2 9E0C0000 		.4byte	.LASF238
 7755 18b6 01       		.byte	0x1
 7756 18b7 A203     		.2byte	0x3a2
 7757 18b9 06       		.byte	0x6
 7758 18ba 00000000 		.4byte	.LFB20
 7759 18be 10000000 		.4byte	.LFE20-.LFB20
 7760 18c2 01       		.uleb128 0x1
 7761 18c3 9C       		.byte	0x9c
 7762 18c4 2E       		.uleb128 0x2e
 7763 18c5 B0080000 		.4byte	.LASF239
ARM GAS  C:\Users\jens-\AppData\Local\Temp\ccdWTNhT.s 			page 200


 7764 18c9 01       		.byte	0x1
 7765 18ca 9503     		.2byte	0x395
 7766 18cc 06       		.byte	0x6
 7767 18cd 00000000 		.4byte	.LFB19
 7768 18d1 10000000 		.4byte	.LFE19-.LFB19
 7769 18d5 01       		.uleb128 0x1
 7770 18d6 9C       		.byte	0x9c
 7771 18d7 2E       		.uleb128 0x2e
 7772 18d8 B1010000 		.4byte	.LASF240
 7773 18dc 01       		.byte	0x1
 7774 18dd 8703     		.2byte	0x387
 7775 18df 06       		.byte	0x6
 7776 18e0 00000000 		.4byte	.LFB18
 7777 18e4 10000000 		.4byte	.LFE18-.LFB18
 7778 18e8 01       		.uleb128 0x1
 7779 18e9 9C       		.byte	0x9c
 7780 18ea 2E       		.uleb128 0x2e
 7781 18eb 45050000 		.4byte	.LASF241
 7782 18ef 01       		.byte	0x1
 7783 18f0 7203     		.2byte	0x372
 7784 18f2 06       		.byte	0x6
 7785 18f3 00000000 		.4byte	.LFB17
 7786 18f7 10000000 		.4byte	.LFE17-.LFB17
 7787 18fb 01       		.uleb128 0x1
 7788 18fc 9C       		.byte	0x9c
 7789 18fd 26       		.uleb128 0x26
 7790 18fe 490C0000 		.4byte	.LASF242
 7791 1902 01       		.byte	0x1
 7792 1903 6003     		.2byte	0x360
 7793 1905 06       		.byte	0x6
 7794 1906 00000000 		.4byte	.LFB16
 7795 190a 18000000 		.4byte	.LFE16-.LFB16
 7796 190e 01       		.uleb128 0x1
 7797 190f 9C       		.byte	0x9c
 7798 1910 2A190000 		.4byte	0x192a
 7799 1914 2C       		.uleb128 0x2c
 7800 1915 FF0A0000 		.4byte	.LASF235
 7801 1919 01       		.byte	0x1
 7802 191a 6003     		.2byte	0x360
 7803 191c 1F       		.byte	0x1f
 7804 191d 30090000 		.4byte	0x930
 7805 1921 01090000 		.4byte	.LLST7
 7806 1925 FD080000 		.4byte	.LVUS7
 7807 1929 00       		.byte	0
 7808 192a 26       		.uleb128 0x26
 7809 192b F0000000 		.4byte	.LASF243
 7810 192f 01       		.byte	0x1
 7811 1930 0603     		.2byte	0x306
 7812 1932 06       		.byte	0x6
 7813 1933 00000000 		.4byte	.LFB15
 7814 1937 74000000 		.4byte	.LFE15-.LFB15
 7815 193b 01       		.uleb128 0x1
 7816 193c 9C       		.byte	0x9c
 7817 193d 121A0000 		.4byte	0x1a12
 7818 1941 2C       		.uleb128 0x2c
 7819 1942 7C090000 		.4byte	.LASF244
 7820 1946 01       		.byte	0x1
ARM GAS  C:\Users\jens-\AppData\Local\Temp\ccdWTNhT.s 			page 201


 7821 1947 0603     		.2byte	0x306
 7822 1949 21       		.byte	0x21
 7823 194a 42090000 		.4byte	0x942
 7824 194e 26090000 		.4byte	.LLST3
 7825 1952 22090000 		.4byte	.LVUS3
 7826 1956 2D       		.uleb128 0x2d
 7827 1957 56010000 		.4byte	.LASF245
 7828 195b 01       		.byte	0x1
 7829 195c 0803     		.2byte	0x308
 7830 195e 0C       		.byte	0xc
 7831 195f 30090000 		.4byte	0x930
 7832 1963 4B090000 		.4byte	.LLST4
 7833 1967 47090000 		.4byte	.LVUS4
 7834 196b 2D       		.uleb128 0x2d
 7835 196c 0E050000 		.4byte	.LASF246
 7836 1970 01       		.byte	0x1
 7837 1971 0903     		.2byte	0x309
 7838 1973 0C       		.byte	0xc
 7839 1974 42090000 		.4byte	0x942
 7840 1978 6F090000 		.4byte	.LLST5
 7841 197c 69090000 		.4byte	.LVUS5
 7842 1980 2D       		.uleb128 0x2d
 7843 1981 8B010000 		.4byte	.LASF176
 7844 1985 01       		.byte	0x1
 7845 1986 0A03     		.2byte	0x30a
 7846 1988 0B       		.byte	0xb
 7847 1989 30090000 		.4byte	0x930
 7848 198d 9E090000 		.4byte	.LLST6
 7849 1991 9C090000 		.4byte	.LVUS6
 7850 1995 2A       		.uleb128 0x2a
 7851 1996 08000000 		.4byte	.LVL8
 7852 199a 631E0000 		.4byte	0x1e63
 7853 199e 30       		.uleb128 0x30
 7854 199f 36000000 		.4byte	.LVL14
 7855 19a3 121A0000 		.4byte	0x1a12
 7856 19a7 B2190000 		.4byte	0x19b2
 7857 19ab 31       		.uleb128 0x31
 7858 19ac 01       		.uleb128 0x1
 7859 19ad 50       		.byte	0x50
 7860 19ae 02       		.uleb128 0x2
 7861 19af 74       		.byte	0x74
 7862 19b0 00       		.sleb128 0
 7863 19b1 00       		.byte	0
 7864 19b2 30       		.uleb128 0x30
 7865 19b3 3C000000 		.4byte	.LVL15
 7866 19b7 3F1A0000 		.4byte	0x1a3f
 7867 19bb C6190000 		.4byte	0x19c6
 7868 19bf 31       		.uleb128 0x31
 7869 19c0 01       		.uleb128 0x1
 7870 19c1 50       		.byte	0x50
 7871 19c2 02       		.uleb128 0x2
 7872 19c3 75       		.byte	0x75
 7873 19c4 00       		.sleb128 0
 7874 19c5 00       		.byte	0
 7875 19c6 30       		.uleb128 0x30
 7876 19c7 42000000 		.4byte	.LVL16
 7877 19cb 6F1E0000 		.4byte	0x1e6f
ARM GAS  C:\Users\jens-\AppData\Local\Temp\ccdWTNhT.s 			page 202


 7878 19cf DA190000 		.4byte	0x19da
 7879 19d3 31       		.uleb128 0x31
 7880 19d4 01       		.uleb128 0x1
 7881 19d5 50       		.byte	0x50
 7882 19d6 02       		.uleb128 0x2
 7883 19d7 76       		.byte	0x76
 7884 19d8 00       		.sleb128 0
 7885 19d9 00       		.byte	0
 7886 19da 30       		.uleb128 0x30
 7887 19db 4A000000 		.4byte	.LVL18
 7888 19df 3F1A0000 		.4byte	0x1a3f
 7889 19e3 ED190000 		.4byte	0x19ed
 7890 19e7 31       		.uleb128 0x31
 7891 19e8 01       		.uleb128 0x1
 7892 19e9 50       		.byte	0x50
 7893 19ea 01       		.uleb128 0x1
 7894 19eb 37       		.byte	0x37
 7895 19ec 00       		.byte	0
 7896 19ed 30       		.uleb128 0x30
 7897 19ee 52000000 		.4byte	.LVL19
 7898 19f2 121A0000 		.4byte	0x1a12
 7899 19f6 011A0000 		.4byte	0x1a01
 7900 19fa 31       		.uleb128 0x31
 7901 19fb 01       		.uleb128 0x1
 7902 19fc 50       		.byte	0x50
 7903 19fd 02       		.uleb128 0x2
 7904 19fe 74       		.byte	0x74
 7905 19ff 00       		.sleb128 0
 7906 1a00 00       		.byte	0
 7907 1a01 32       		.uleb128 0x32
 7908 1a02 64000000 		.4byte	.LVL21
 7909 1a06 121A0000 		.4byte	0x1a12
 7910 1a0a 31       		.uleb128 0x31
 7911 1a0b 01       		.uleb128 0x1
 7912 1a0c 50       		.byte	0x50
 7913 1a0d 02       		.uleb128 0x2
 7914 1a0e 74       		.byte	0x74
 7915 1a0f 00       		.sleb128 0
 7916 1a10 00       		.byte	0
 7917 1a11 00       		.byte	0
 7918 1a12 35       		.uleb128 0x35
 7919 1a13 85040000 		.4byte	.LASF248
 7920 1a17 01       		.byte	0x1
 7921 1a18 DC02     		.2byte	0x2dc
 7922 1a1a 0D       		.byte	0xd
 7923 1a1b 00000000 		.4byte	.LFB14
 7924 1a1f 48000000 		.4byte	.LFE14-.LFB14
 7925 1a23 01       		.uleb128 0x1
 7926 1a24 9C       		.byte	0x9c
 7927 1a25 3F1A0000 		.4byte	0x1a3f
 7928 1a29 2C       		.uleb128 0x2c
 7929 1a2a 7C090000 		.4byte	.LASF244
 7930 1a2e 01       		.byte	0x1
 7931 1a2f DC02     		.2byte	0x2dc
 7932 1a31 31       		.byte	0x31
 7933 1a32 42090000 		.4byte	0x942
 7934 1a36 B5090000 		.4byte	.LLST1
ARM GAS  C:\Users\jens-\AppData\Local\Temp\ccdWTNhT.s 			page 203


 7935 1a3a B1090000 		.4byte	.LVUS1
 7936 1a3e 00       		.byte	0
 7937 1a3f 26       		.uleb128 0x26
 7938 1a40 0E030000 		.4byte	.LASF249
 7939 1a44 01       		.byte	0x1
 7940 1a45 CB02     		.2byte	0x2cb
 7941 1a47 06       		.byte	0x6
 7942 1a48 00000000 		.4byte	.LFB13
 7943 1a4c 0C000000 		.4byte	.LFE13-.LFB13
 7944 1a50 01       		.uleb128 0x1
 7945 1a51 9C       		.byte	0x9c
 7946 1a52 661A0000 		.4byte	0x1a66
 7947 1a56 27       		.uleb128 0x27
 7948 1a57 7C090000 		.4byte	.LASF244
 7949 1a5b 01       		.byte	0x1
 7950 1a5c CB02     		.2byte	0x2cb
 7951 1a5e 23       		.byte	0x23
 7952 1a5f 30090000 		.4byte	0x930
 7953 1a63 01       		.uleb128 0x1
 7954 1a64 50       		.byte	0x50
 7955 1a65 00       		.byte	0
 7956 1a66 26       		.uleb128 0x26
 7957 1a67 9A080000 		.4byte	.LASF250
 7958 1a6b 01       		.byte	0x1
 7959 1a6c AD02     		.2byte	0x2ad
 7960 1a6e 06       		.byte	0x6
 7961 1a6f 00000000 		.4byte	.LFB12
 7962 1a73 18000000 		.4byte	.LFE12-.LFB12
 7963 1a77 01       		.uleb128 0x1
 7964 1a78 9C       		.byte	0x9c
 7965 1a79 931A0000 		.4byte	0x1a93
 7966 1a7d 2C       		.uleb128 0x2c
 7967 1a7e FF0A0000 		.4byte	.LASF235
 7968 1a82 01       		.byte	0x1
 7969 1a83 AD02     		.2byte	0x2ad
 7970 1a85 22       		.byte	0x22
 7971 1a86 30090000 		.4byte	0x930
 7972 1a8a DA090000 		.4byte	.LLST2
 7973 1a8e D6090000 		.4byte	.LVUS2
 7974 1a92 00       		.byte	0
 7975 1a93 2E       		.uleb128 0x2e
 7976 1a94 4A020000 		.4byte	.LASF251
 7977 1a98 01       		.byte	0x1
 7978 1a99 8F02     		.2byte	0x28f
 7979 1a9b 06       		.byte	0x6
 7980 1a9c 00000000 		.4byte	.LFB11
 7981 1aa0 10000000 		.4byte	.LFE11-.LFB11
 7982 1aa4 01       		.uleb128 0x1
 7983 1aa5 9C       		.byte	0x9c
 7984 1aa6 2E       		.uleb128 0x2e
 7985 1aa7 0C020000 		.4byte	.LASF252
 7986 1aab 01       		.byte	0x1
 7987 1aac 8102     		.2byte	0x281
 7988 1aae 06       		.byte	0x6
 7989 1aaf 00000000 		.4byte	.LFB10
 7990 1ab3 10000000 		.4byte	.LFE10-.LFB10
 7991 1ab7 01       		.uleb128 0x1
ARM GAS  C:\Users\jens-\AppData\Local\Temp\ccdWTNhT.s 			page 204


 7992 1ab8 9C       		.byte	0x9c
 7993 1ab9 26       		.uleb128 0x26
 7994 1aba 3F060000 		.4byte	.LASF253
 7995 1abe 01       		.byte	0x1
 7996 1abf 5F02     		.2byte	0x25f
 7997 1ac1 06       		.byte	0x6
 7998 1ac2 00000000 		.4byte	.LFB9
 7999 1ac6 58000000 		.4byte	.LFE9-.LFB9
 8000 1aca 01       		.uleb128 0x1
 8001 1acb 9C       		.byte	0x9c
 8002 1acc F51A0000 		.4byte	0x1af5
 8003 1ad0 2C       		.uleb128 0x2c
 8004 1ad1 FF0A0000 		.4byte	.LASF235
 8005 1ad5 01       		.byte	0x1
 8006 1ad6 5F02     		.2byte	0x25f
 8007 1ad8 1C       		.byte	0x1c
 8008 1ad9 30090000 		.4byte	0x930
 8009 1add 050A0000 		.4byte	.LLST37
 8010 1ae1 FB090000 		.4byte	.LVUS37
 8011 1ae5 32       		.uleb128 0x32
 8012 1ae6 12000000 		.4byte	.LVL109
 8013 1aea 2A150000 		.4byte	0x152a
 8014 1aee 31       		.uleb128 0x31
 8015 1aef 01       		.uleb128 0x1
 8016 1af0 50       		.byte	0x50
 8017 1af1 01       		.uleb128 0x1
 8018 1af2 30       		.byte	0x30
 8019 1af3 00       		.byte	0
 8020 1af4 00       		.byte	0
 8021 1af5 26       		.uleb128 0x26
 8022 1af6 B0020000 		.4byte	.LASF254
 8023 1afa 01       		.byte	0x1
 8024 1afb C901     		.2byte	0x1c9
 8025 1afd 06       		.byte	0x6
 8026 1afe 00000000 		.4byte	.LFB8
 8027 1b02 F8000000 		.4byte	.LFE8-.LFB8
 8028 1b06 01       		.uleb128 0x1
 8029 1b07 9C       		.byte	0x9c
 8030 1b08 A81B0000 		.4byte	0x1ba8
 8031 1b0c 2C       		.uleb128 0x2c
 8032 1b0d 53050000 		.4byte	.LASF201
 8033 1b11 01       		.byte	0x1
 8034 1b12 C901     		.2byte	0x1c9
 8035 1b14 1A       		.byte	0x1a
 8036 1b15 30090000 		.4byte	0x930
 8037 1b19 520A0000 		.4byte	.LLST34
 8038 1b1d 4A0A0000 		.4byte	.LVUS34
 8039 1b21 2D       		.uleb128 0x2d
 8040 1b22 CB010000 		.4byte	.LASF255
 8041 1b26 01       		.byte	0x1
 8042 1b27 CB01     		.2byte	0x1cb
 8043 1b29 0B       		.byte	0xb
 8044 1b2a 30090000 		.4byte	0x930
 8045 1b2e 960A0000 		.4byte	.LLST35
 8046 1b32 8C0A0000 		.4byte	.LVUS35
 8047 1b36 2D       		.uleb128 0x2d
 8048 1b37 C0080000 		.4byte	.LASF256
ARM GAS  C:\Users\jens-\AppData\Local\Temp\ccdWTNhT.s 			page 205


 8049 1b3b 01       		.byte	0x1
 8050 1b3c CC01     		.2byte	0x1cc
 8051 1b3e 0B       		.byte	0xb
 8052 1b3f 30090000 		.4byte	0x930
 8053 1b43 DB0A0000 		.4byte	.LLST36
 8054 1b47 D70A0000 		.4byte	.LVUS36
 8055 1b4b 30       		.uleb128 0x30
 8056 1b4c 4C000000 		.4byte	.LVL100
 8057 1b50 2A150000 		.4byte	0x152a
 8058 1b54 5E1B0000 		.4byte	0x1b5e
 8059 1b58 31       		.uleb128 0x31
 8060 1b59 01       		.uleb128 0x1
 8061 1b5a 50       		.byte	0x50
 8062 1b5b 01       		.uleb128 0x1
 8063 1b5c 30       		.byte	0x30
 8064 1b5d 00       		.byte	0
 8065 1b5e 30       		.uleb128 0x30
 8066 1b5f 54000000 		.4byte	.LVL101
 8067 1b63 A81B0000 		.4byte	0x1ba8
 8068 1b67 721B0000 		.4byte	0x1b72
 8069 1b6b 31       		.uleb128 0x31
 8070 1b6c 01       		.uleb128 0x1
 8071 1b6d 50       		.byte	0x50
 8072 1b6e 02       		.uleb128 0x2
 8073 1b6f 74       		.byte	0x74
 8074 1b70 00       		.sleb128 0
 8075 1b71 00       		.byte	0
 8076 1b72 2A       		.uleb128 0x2a
 8077 1b73 6C000000 		.4byte	.LVL102
 8078 1b77 931A0000 		.4byte	0x1a93
 8079 1b7b 30       		.uleb128 0x30
 8080 1b7c E4000000 		.4byte	.LVL104
 8081 1b80 2A150000 		.4byte	0x152a
 8082 1b84 8E1B0000 		.4byte	0x1b8e
 8083 1b88 31       		.uleb128 0x31
 8084 1b89 01       		.uleb128 0x1
 8085 1b8a 50       		.byte	0x50
 8086 1b8b 01       		.uleb128 0x1
 8087 1b8c 30       		.byte	0x30
 8088 1b8d 00       		.byte	0
 8089 1b8e 2A       		.uleb128 0x2a
 8090 1b8f EA000000 		.4byte	.LVL105
 8091 1b93 A61A0000 		.4byte	0x1aa6
 8092 1b97 32       		.uleb128 0x32
 8093 1b98 F2000000 		.4byte	.LVL106
 8094 1b9c A81B0000 		.4byte	0x1ba8
 8095 1ba0 31       		.uleb128 0x31
 8096 1ba1 01       		.uleb128 0x1
 8097 1ba2 50       		.byte	0x50
 8098 1ba3 02       		.uleb128 0x2
 8099 1ba4 74       		.byte	0x74
 8100 1ba5 00       		.sleb128 0
 8101 1ba6 00       		.byte	0
 8102 1ba7 00       		.byte	0
 8103 1ba8 35       		.uleb128 0x35
 8104 1ba9 37000000 		.4byte	.LASF257
 8105 1bad 01       		.byte	0x1
ARM GAS  C:\Users\jens-\AppData\Local\Temp\ccdWTNhT.s 			page 206


 8106 1bae 6F01     		.2byte	0x16f
 8107 1bb0 0D       		.byte	0xd
 8108 1bb1 00000000 		.4byte	.LFB7
 8109 1bb5 CC000000 		.4byte	.LFE7-.LFB7
 8110 1bb9 01       		.uleb128 0x1
 8111 1bba 9C       		.byte	0x9c
 8112 1bbb 021C0000 		.4byte	0x1c02
 8113 1bbf 2C       		.uleb128 0x2c
 8114 1bc0 53050000 		.4byte	.LASF201
 8115 1bc4 01       		.byte	0x1
 8116 1bc5 6F01     		.2byte	0x16f
 8117 1bc7 26       		.byte	0x26
 8118 1bc8 30090000 		.4byte	0x930
 8119 1bcc FD0A0000 		.4byte	.LLST32
 8120 1bd0 F90A0000 		.4byte	.LVUS32
 8121 1bd4 2D       		.uleb128 0x2d
 8122 1bd5 1D090000 		.4byte	.LASF258
 8123 1bd9 01       		.byte	0x1
 8124 1bda 7101     		.2byte	0x171
 8125 1bdc 0B       		.byte	0xb
 8126 1bdd 30090000 		.4byte	0x930
 8127 1be1 220B0000 		.4byte	.LLST33
 8128 1be5 1E0B0000 		.4byte	.LVUS33
 8129 1be9 2A       		.uleb128 0x2a
 8130 1bea 08000000 		.4byte	.LVL85
 8131 1bee 021C0000 		.4byte	0x1c02
 8132 1bf2 32       		.uleb128 0x32
 8133 1bf3 A2000000 		.4byte	.LVL89
 8134 1bf7 2A150000 		.4byte	0x152a
 8135 1bfb 31       		.uleb128 0x31
 8136 1bfc 01       		.uleb128 0x1
 8137 1bfd 50       		.byte	0x50
 8138 1bfe 01       		.uleb128 0x1
 8139 1bff 30       		.byte	0x30
 8140 1c00 00       		.byte	0
 8141 1c01 00       		.byte	0
 8142 1c02 36       		.uleb128 0x36
 8143 1c03 67050000 		.4byte	.LASF282
 8144 1c07 01       		.byte	0x1
 8145 1c08 5501     		.2byte	0x155
 8146 1c0a 0E       		.byte	0xe
 8147 1c0b 30090000 		.4byte	0x930
 8148 1c0f 00000000 		.4byte	.LFB6
 8149 1c13 44000000 		.4byte	.LFE6-.LFB6
 8150 1c17 01       		.uleb128 0x1
 8151 1c18 9C       		.byte	0x9c
 8152 1c19 331C0000 		.4byte	0x1c33
 8153 1c1d 2D       		.uleb128 0x2d
 8154 1c1e 77060000 		.4byte	.LASF259
 8155 1c22 01       		.byte	0x1
 8156 1c23 5701     		.2byte	0x157
 8157 1c25 0B       		.byte	0xb
 8158 1c26 30090000 		.4byte	0x930
 8159 1c2a 440B0000 		.4byte	.LLST0
 8160 1c2e 400B0000 		.4byte	.LVUS0
 8161 1c32 00       		.byte	0
 8162 1c33 2E       		.uleb128 0x2e
ARM GAS  C:\Users\jens-\AppData\Local\Temp\ccdWTNhT.s 			page 207


 8163 1c34 BE040000 		.4byte	.LASF260
 8164 1c38 01       		.byte	0x1
 8165 1c39 4401     		.2byte	0x144
 8166 1c3b 06       		.byte	0x6
 8167 1c3c 00000000 		.4byte	.LFB5
 8168 1c40 1C000000 		.4byte	.LFE5-.LFB5
 8169 1c44 01       		.uleb128 0x1
 8170 1c45 9C       		.byte	0x9c
 8171 1c46 26       		.uleb128 0x26
 8172 1c47 3B070000 		.4byte	.LASF261
 8173 1c4b 01       		.byte	0x1
 8174 1c4c 1A01     		.2byte	0x11a
 8175 1c4e 06       		.byte	0x6
 8176 1c4f 00000000 		.4byte	.LFB4
 8177 1c53 60000000 		.4byte	.LFE4-.LFB4
 8178 1c57 01       		.uleb128 0x1
 8179 1c58 9C       		.byte	0x9c
 8180 1c59 E11C0000 		.4byte	0x1ce1
 8181 1c5d 2C       		.uleb128 0x2c
 8182 1c5e 83080000 		.4byte	.LASF220
 8183 1c62 01       		.byte	0x1
 8184 1c63 1A01     		.2byte	0x11a
 8185 1c65 18       		.byte	0x18
 8186 1c66 30090000 		.4byte	0x930
 8187 1c6a 670B0000 		.4byte	.LLST13
 8188 1c6e 630B0000 		.4byte	.LVUS13
 8189 1c72 2D       		.uleb128 0x2d
 8190 1c73 480E0000 		.4byte	.LASF262
 8191 1c77 01       		.byte	0x1
 8192 1c78 1C01     		.2byte	0x11c
 8193 1c7a 0B       		.byte	0xb
 8194 1c7b 30090000 		.4byte	0x930
 8195 1c7f 8A0B0000 		.4byte	.LLST14
 8196 1c83 880B0000 		.4byte	.LVUS14
 8197 1c87 2D       		.uleb128 0x2d
 8198 1c88 BE010000 		.4byte	.LASF263
 8199 1c8c 01       		.byte	0x1
 8200 1c8d 1D01     		.2byte	0x11d
 8201 1c8f 0B       		.byte	0xb
 8202 1c90 30090000 		.4byte	0x930
 8203 1c94 9F0B0000 		.4byte	.LLST15
 8204 1c98 9D0B0000 		.4byte	.LVUS15
 8205 1c9c 2D       		.uleb128 0x2d
 8206 1c9d 910B0000 		.4byte	.LASF264
 8207 1ca1 01       		.byte	0x1
 8208 1ca2 1E01     		.2byte	0x11e
 8209 1ca4 0B       		.byte	0xb
 8210 1ca5 30090000 		.4byte	0x930
 8211 1ca9 B40B0000 		.4byte	.LLST16
 8212 1cad B20B0000 		.4byte	.LVUS16
 8213 1cb1 30       		.uleb128 0x30
 8214 1cb2 34000000 		.4byte	.LVL41
 8215 1cb6 871E0000 		.4byte	0x1e87
 8216 1cba C41C0000 		.4byte	0x1cc4
 8217 1cbe 31       		.uleb128 0x31
 8218 1cbf 01       		.uleb128 0x1
 8219 1cc0 50       		.byte	0x50
ARM GAS  C:\Users\jens-\AppData\Local\Temp\ccdWTNhT.s 			page 208


 8220 1cc1 01       		.uleb128 0x1
 8221 1cc2 30       		.byte	0x30
 8222 1cc3 00       		.byte	0
 8223 1cc4 30       		.uleb128 0x30
 8224 1cc5 3A000000 		.4byte	.LVL42
 8225 1cc9 931E0000 		.4byte	0x1e93
 8226 1ccd D71C0000 		.4byte	0x1cd7
 8227 1cd1 31       		.uleb128 0x31
 8228 1cd2 01       		.uleb128 0x1
 8229 1cd3 50       		.byte	0x50
 8230 1cd4 01       		.uleb128 0x1
 8231 1cd5 31       		.byte	0x31
 8232 1cd6 00       		.byte	0
 8233 1cd7 2A       		.uleb128 0x2a
 8234 1cd8 50000000 		.4byte	.LVL44
 8235 1cdc B1180000 		.4byte	0x18b1
 8236 1ce0 00       		.byte	0
 8237 1ce1 37       		.uleb128 0x37
 8238 1ce2 37090000 		.4byte	.LASF265
 8239 1ce6 01       		.byte	0x1
 8240 1ce7 ED       		.byte	0xed
 8241 1ce8 06       		.byte	0x6
 8242 1ce9 00000000 		.4byte	.LFB3
 8243 1ced 38000000 		.4byte	.LFE3-.LFB3
 8244 1cf1 01       		.uleb128 0x1
 8245 1cf2 9C       		.byte	0x9c
 8246 1cf3 2E1D0000 		.4byte	0x1d2e
 8247 1cf7 38       		.uleb128 0x38
 8248 1cf8 FF0A0000 		.4byte	.LASF235
 8249 1cfc 01       		.byte	0x1
 8250 1cfd ED       		.byte	0xed
 8251 1cfe 20       		.byte	0x20
 8252 1cff 30090000 		.4byte	0x930
 8253 1d03 CF0B0000 		.4byte	.LLST31
 8254 1d07 C70B0000 		.4byte	.LVUS31
 8255 1d0b 30       		.uleb128 0x30
 8256 1d0c 28000000 		.4byte	.LVL82
 8257 1d10 2A150000 		.4byte	0x152a
 8258 1d14 1E1D0000 		.4byte	0x1d1e
 8259 1d18 31       		.uleb128 0x31
 8260 1d19 01       		.uleb128 0x1
 8261 1d1a 50       		.byte	0x50
 8262 1d1b 01       		.uleb128 0x1
 8263 1d1c 30       		.byte	0x30
 8264 1d1d 00       		.byte	0
 8265 1d1e 32       		.uleb128 0x32
 8266 1d1f 30000000 		.4byte	.LVL83
 8267 1d23 2A150000 		.4byte	0x152a
 8268 1d27 31       		.uleb128 0x31
 8269 1d28 01       		.uleb128 0x1
 8270 1d29 50       		.byte	0x50
 8271 1d2a 01       		.uleb128 0x1
 8272 1d2b 30       		.byte	0x30
 8273 1d2c 00       		.byte	0
 8274 1d2d 00       		.byte	0
 8275 1d2e 37       		.uleb128 0x37
 8276 1d2f C6000000 		.4byte	.LASF266
ARM GAS  C:\Users\jens-\AppData\Local\Temp\ccdWTNhT.s 			page 209


 8277 1d33 01       		.byte	0x1
 8278 1d34 BB       		.byte	0xbb
 8279 1d35 06       		.byte	0x6
 8280 1d36 00000000 		.4byte	.LFB2
 8281 1d3a 60000000 		.4byte	.LFE2-.LFB2
 8282 1d3e 01       		.uleb128 0x1
 8283 1d3f 9C       		.byte	0x9c
 8284 1d40 A31D0000 		.4byte	0x1da3
 8285 1d44 38       		.uleb128 0x38
 8286 1d45 28020000 		.4byte	.LASF267
 8287 1d49 01       		.byte	0x1
 8288 1d4a BB       		.byte	0xbb
 8289 1d4b 1C       		.byte	0x1c
 8290 1d4c 30090000 		.4byte	0x930
 8291 1d50 110C0000 		.4byte	.LLST28
 8292 1d54 090C0000 		.4byte	.LVUS28
 8293 1d58 38       		.uleb128 0x38
 8294 1d59 DD0A0000 		.4byte	.LASF268
 8295 1d5d 01       		.byte	0x1
 8296 1d5e BB       		.byte	0xbb
 8297 1d5f 28       		.byte	0x28
 8298 1d60 30090000 		.4byte	0x930
 8299 1d64 530C0000 		.4byte	.LLST29
 8300 1d68 4B0C0000 		.4byte	.LVUS29
 8301 1d6c 38       		.uleb128 0x38
 8302 1d6d 160C0000 		.4byte	.LASF269
 8303 1d71 01       		.byte	0x1
 8304 1d72 BB       		.byte	0xbb
 8305 1d73 34       		.byte	0x34
 8306 1d74 30090000 		.4byte	0x930
 8307 1d78 950C0000 		.4byte	.LLST30
 8308 1d7c 8D0C0000 		.4byte	.LVUS30
 8309 1d80 30       		.uleb128 0x30
 8310 1d81 4A000000 		.4byte	.LVL76
 8311 1d85 2A150000 		.4byte	0x152a
 8312 1d89 931D0000 		.4byte	0x1d93
 8313 1d8d 31       		.uleb128 0x31
 8314 1d8e 01       		.uleb128 0x1
 8315 1d8f 50       		.byte	0x50
 8316 1d90 01       		.uleb128 0x1
 8317 1d91 30       		.byte	0x30
 8318 1d92 00       		.byte	0
 8319 1d93 32       		.uleb128 0x32
 8320 1d94 52000000 		.4byte	.LVL77
 8321 1d98 2A150000 		.4byte	0x152a
 8322 1d9c 31       		.uleb128 0x31
 8323 1d9d 01       		.uleb128 0x1
 8324 1d9e 50       		.byte	0x50
 8325 1d9f 01       		.uleb128 0x1
 8326 1da0 30       		.byte	0x30
 8327 1da1 00       		.byte	0
 8328 1da2 00       		.byte	0
 8329 1da3 39       		.uleb128 0x39
 8330 1da4 58050000 		.4byte	.LASF270
 8331 1da8 01       		.byte	0x1
 8332 1da9 9A       		.byte	0x9a
 8333 1daa 06       		.byte	0x6
ARM GAS  C:\Users\jens-\AppData\Local\Temp\ccdWTNhT.s 			page 210


 8334 1dab 00000000 		.4byte	.LFB1
 8335 1daf 10000000 		.4byte	.LFE1-.LFB1
 8336 1db3 01       		.uleb128 0x1
 8337 1db4 9C       		.byte	0x9c
 8338 1db5 3A       		.uleb128 0x3a
 8339 1db6 12010000 		.4byte	.LASF271
 8340 1dba 01       		.byte	0x1
 8341 1dbb 61       		.byte	0x61
 8342 1dbc 0A       		.byte	0xa
 8343 1dbd 74090000 		.4byte	0x974
 8344 1dc1 00000000 		.4byte	.LFB0
 8345 1dc5 78000000 		.4byte	.LFE0-.LFB0
 8346 1dc9 01       		.uleb128 0x1
 8347 1dca 9C       		.byte	0x9c
 8348 1dcb 631E0000 		.4byte	0x1e63
 8349 1dcf 38       		.uleb128 0x38
 8350 1dd0 83080000 		.4byte	.LASF220
 8351 1dd4 01       		.byte	0x1
 8352 1dd5 61       		.byte	0x61
 8353 1dd6 20       		.byte	0x20
 8354 1dd7 30090000 		.4byte	0x930
 8355 1ddb D70C0000 		.4byte	.LLST8
 8356 1ddf CF0C0000 		.4byte	.LVUS8
 8357 1de3 3B       		.uleb128 0x3b
 8358 1de4 9C060000 		.4byte	.LASF221
 8359 1de8 01       		.byte	0x1
 8360 1de9 63       		.byte	0x63
 8361 1dea 0E       		.byte	0xe
 8362 1deb 74090000 		.4byte	0x974
 8363 1def 190D0000 		.4byte	.LLST9
 8364 1df3 110D0000 		.4byte	.LVUS9
 8365 1df7 3B       		.uleb128 0x3b
 8366 1df8 DA0D0000 		.4byte	.LASF224
 8367 1dfc 01       		.byte	0x1
 8368 1dfd 65       		.byte	0x65
 8369 1dfe 0B       		.byte	0xb
 8370 1dff 30090000 		.4byte	0x930
 8371 1e03 520D0000 		.4byte	.LLST10
 8372 1e07 500D0000 		.4byte	.LVUS10
 8373 1e0b 3B       		.uleb128 0x3b
 8374 1e0c B2070000 		.4byte	.LASF272
 8375 1e10 01       		.byte	0x1
 8376 1e11 66       		.byte	0x66
 8377 1e12 0B       		.byte	0xb
 8378 1e13 30090000 		.4byte	0x930
 8379 1e17 670D0000 		.4byte	.LLST11
 8380 1e1b 650D0000 		.4byte	.LVUS11
 8381 1e1f 3B       		.uleb128 0x3b
 8382 1e20 750B0000 		.4byte	.LASF273
 8383 1e24 01       		.byte	0x1
 8384 1e25 67       		.byte	0x67
 8385 1e26 0B       		.byte	0xb
 8386 1e27 30090000 		.4byte	0x930
 8387 1e2b 7C0D0000 		.4byte	.LLST12
 8388 1e2f 7A0D0000 		.4byte	.LVUS12
 8389 1e33 30       		.uleb128 0x30
 8390 1e34 2E000000 		.4byte	.LVL32
ARM GAS  C:\Users\jens-\AppData\Local\Temp\ccdWTNhT.s 			page 211


 8391 1e38 871E0000 		.4byte	0x1e87
 8392 1e3c 461E0000 		.4byte	0x1e46
 8393 1e40 31       		.uleb128 0x31
 8394 1e41 01       		.uleb128 0x1
 8395 1e42 50       		.byte	0x50
 8396 1e43 01       		.uleb128 0x1
 8397 1e44 48       		.byte	0x48
 8398 1e45 00       		.byte	0
 8399 1e46 30       		.uleb128 0x30
 8400 1e47 34000000 		.4byte	.LVL33
 8401 1e4b 931E0000 		.4byte	0x1e93
 8402 1e4f 591E0000 		.4byte	0x1e59
 8403 1e53 31       		.uleb128 0x31
 8404 1e54 01       		.uleb128 0x1
 8405 1e55 50       		.byte	0x50
 8406 1e56 01       		.uleb128 0x1
 8407 1e57 31       		.byte	0x31
 8408 1e58 00       		.byte	0
 8409 1e59 2A       		.uleb128 0x2a
 8410 1e5a 64000000 		.4byte	.LVL35
 8411 1e5e B1180000 		.4byte	0x18b1
 8412 1e62 00       		.byte	0
 8413 1e63 3C       		.uleb128 0x3c
 8414 1e64 0F0D0000 		.4byte	.LASF274
 8415 1e68 0F0D0000 		.4byte	.LASF274
 8416 1e6c 0A       		.byte	0xa
 8417 1e6d 7D       		.byte	0x7d
 8418 1e6e 07       		.byte	0x7
 8419 1e6f 3C       		.uleb128 0x3c
 8420 1e70 27010000 		.4byte	.LASF275
 8421 1e74 27010000 		.4byte	.LASF275
 8422 1e78 0A       		.byte	0xa
 8423 1e79 7E       		.byte	0x7e
 8424 1e7a 06       		.byte	0x6
 8425 1e7b 3C       		.uleb128 0x3c
 8426 1e7c 4A0D0000 		.4byte	.LASF276
 8427 1e80 4A0D0000 		.4byte	.LASF276
 8428 1e84 0A       		.byte	0xa
 8429 1e85 79       		.byte	0x79
 8430 1e86 06       		.byte	0x6
 8431 1e87 3C       		.uleb128 0x3c
 8432 1e88 E6010000 		.4byte	.LASF277
 8433 1e8c E6010000 		.4byte	.LASF277
 8434 1e90 0B       		.byte	0xb
 8435 1e91 2A       		.byte	0x2a
 8436 1e92 06       		.byte	0x6
 8437 1e93 3C       		.uleb128 0x3c
 8438 1e94 4F060000 		.4byte	.LASF278
 8439 1e98 4F060000 		.4byte	.LASF278
 8440 1e9c 0B       		.byte	0xb
 8441 1e9d 26       		.byte	0x26
 8442 1e9e 07       		.byte	0x7
 8443 1e9f 00       		.byte	0
 8444              		.section	.debug_abbrev,"",%progbits
 8445              	.Ldebug_abbrev0:
 8446 0000 01       		.uleb128 0x1
 8447 0001 11       		.uleb128 0x11
ARM GAS  C:\Users\jens-\AppData\Local\Temp\ccdWTNhT.s 			page 212


 8448 0002 01       		.byte	0x1
 8449 0003 25       		.uleb128 0x25
 8450 0004 0E       		.uleb128 0xe
 8451 0005 13       		.uleb128 0x13
 8452 0006 0B       		.uleb128 0xb
 8453 0007 03       		.uleb128 0x3
 8454 0008 0E       		.uleb128 0xe
 8455 0009 1B       		.uleb128 0x1b
 8456 000a 0E       		.uleb128 0xe
 8457 000b 55       		.uleb128 0x55
 8458 000c 17       		.uleb128 0x17
 8459 000d 11       		.uleb128 0x11
 8460 000e 01       		.uleb128 0x1
 8461 000f 10       		.uleb128 0x10
 8462 0010 17       		.uleb128 0x17
 8463 0011 00       		.byte	0
 8464 0012 00       		.byte	0
 8465 0013 02       		.uleb128 0x2
 8466 0014 24       		.uleb128 0x24
 8467 0015 00       		.byte	0
 8468 0016 0B       		.uleb128 0xb
 8469 0017 0B       		.uleb128 0xb
 8470 0018 3E       		.uleb128 0x3e
 8471 0019 0B       		.uleb128 0xb
 8472 001a 03       		.uleb128 0x3
 8473 001b 08       		.uleb128 0x8
 8474 001c 00       		.byte	0
 8475 001d 00       		.byte	0
 8476 001e 03       		.uleb128 0x3
 8477 001f 24       		.uleb128 0x24
 8478 0020 00       		.byte	0
 8479 0021 0B       		.uleb128 0xb
 8480 0022 0B       		.uleb128 0xb
 8481 0023 3E       		.uleb128 0x3e
 8482 0024 0B       		.uleb128 0xb
 8483 0025 03       		.uleb128 0x3
 8484 0026 0E       		.uleb128 0xe
 8485 0027 00       		.byte	0
 8486 0028 00       		.byte	0
 8487 0029 04       		.uleb128 0x4
 8488 002a 16       		.uleb128 0x16
 8489 002b 00       		.byte	0
 8490 002c 03       		.uleb128 0x3
 8491 002d 0E       		.uleb128 0xe
 8492 002e 3A       		.uleb128 0x3a
 8493 002f 0B       		.uleb128 0xb
 8494 0030 3B       		.uleb128 0x3b
 8495 0031 0B       		.uleb128 0xb
 8496 0032 39       		.uleb128 0x39
 8497 0033 0B       		.uleb128 0xb
 8498 0034 49       		.uleb128 0x49
 8499 0035 13       		.uleb128 0x13
 8500 0036 00       		.byte	0
 8501 0037 00       		.byte	0
 8502 0038 05       		.uleb128 0x5
 8503 0039 0F       		.uleb128 0xf
 8504 003a 00       		.byte	0
ARM GAS  C:\Users\jens-\AppData\Local\Temp\ccdWTNhT.s 			page 213


 8505 003b 0B       		.uleb128 0xb
 8506 003c 0B       		.uleb128 0xb
 8507 003d 49       		.uleb128 0x49
 8508 003e 13       		.uleb128 0x13
 8509 003f 00       		.byte	0
 8510 0040 00       		.byte	0
 8511 0041 06       		.uleb128 0x6
 8512 0042 13       		.uleb128 0x13
 8513 0043 00       		.byte	0
 8514 0044 03       		.uleb128 0x3
 8515 0045 0E       		.uleb128 0xe
 8516 0046 3C       		.uleb128 0x3c
 8517 0047 19       		.uleb128 0x19
 8518 0048 00       		.byte	0
 8519 0049 00       		.byte	0
 8520 004a 07       		.uleb128 0x7
 8521 004b 16       		.uleb128 0x16
 8522 004c 00       		.byte	0
 8523 004d 03       		.uleb128 0x3
 8524 004e 0E       		.uleb128 0xe
 8525 004f 3A       		.uleb128 0x3a
 8526 0050 0B       		.uleb128 0xb
 8527 0051 3B       		.uleb128 0x3b
 8528 0052 05       		.uleb128 0x5
 8529 0053 39       		.uleb128 0x39
 8530 0054 0B       		.uleb128 0xb
 8531 0055 49       		.uleb128 0x49
 8532 0056 13       		.uleb128 0x13
 8533 0057 00       		.byte	0
 8534 0058 00       		.byte	0
 8535 0059 08       		.uleb128 0x8
 8536 005a 17       		.uleb128 0x17
 8537 005b 01       		.byte	0x1
 8538 005c 0B       		.uleb128 0xb
 8539 005d 0B       		.uleb128 0xb
 8540 005e 3A       		.uleb128 0x3a
 8541 005f 0B       		.uleb128 0xb
 8542 0060 3B       		.uleb128 0x3b
 8543 0061 0B       		.uleb128 0xb
 8544 0062 39       		.uleb128 0x39
 8545 0063 0B       		.uleb128 0xb
 8546 0064 01       		.uleb128 0x1
 8547 0065 13       		.uleb128 0x13
 8548 0066 00       		.byte	0
 8549 0067 00       		.byte	0
 8550 0068 09       		.uleb128 0x9
 8551 0069 0D       		.uleb128 0xd
 8552 006a 00       		.byte	0
 8553 006b 03       		.uleb128 0x3
 8554 006c 0E       		.uleb128 0xe
 8555 006d 3A       		.uleb128 0x3a
 8556 006e 0B       		.uleb128 0xb
 8557 006f 3B       		.uleb128 0x3b
 8558 0070 0B       		.uleb128 0xb
 8559 0071 39       		.uleb128 0x39
 8560 0072 0B       		.uleb128 0xb
 8561 0073 49       		.uleb128 0x49
ARM GAS  C:\Users\jens-\AppData\Local\Temp\ccdWTNhT.s 			page 214


 8562 0074 13       		.uleb128 0x13
 8563 0075 00       		.byte	0
 8564 0076 00       		.byte	0
 8565 0077 0A       		.uleb128 0xa
 8566 0078 01       		.uleb128 0x1
 8567 0079 01       		.byte	0x1
 8568 007a 49       		.uleb128 0x49
 8569 007b 13       		.uleb128 0x13
 8570 007c 01       		.uleb128 0x1
 8571 007d 13       		.uleb128 0x13
 8572 007e 00       		.byte	0
 8573 007f 00       		.byte	0
 8574 0080 0B       		.uleb128 0xb
 8575 0081 21       		.uleb128 0x21
 8576 0082 00       		.byte	0
 8577 0083 49       		.uleb128 0x49
 8578 0084 13       		.uleb128 0x13
 8579 0085 2F       		.uleb128 0x2f
 8580 0086 0B       		.uleb128 0xb
 8581 0087 00       		.byte	0
 8582 0088 00       		.byte	0
 8583 0089 0C       		.uleb128 0xc
 8584 008a 13       		.uleb128 0x13
 8585 008b 01       		.byte	0x1
 8586 008c 0B       		.uleb128 0xb
 8587 008d 0B       		.uleb128 0xb
 8588 008e 3A       		.uleb128 0x3a
 8589 008f 0B       		.uleb128 0xb
 8590 0090 3B       		.uleb128 0x3b
 8591 0091 0B       		.uleb128 0xb
 8592 0092 39       		.uleb128 0x39
 8593 0093 0B       		.uleb128 0xb
 8594 0094 01       		.uleb128 0x1
 8595 0095 13       		.uleb128 0x13
 8596 0096 00       		.byte	0
 8597 0097 00       		.byte	0
 8598 0098 0D       		.uleb128 0xd
 8599 0099 0D       		.uleb128 0xd
 8600 009a 00       		.byte	0
 8601 009b 03       		.uleb128 0x3
 8602 009c 0E       		.uleb128 0xe
 8603 009d 3A       		.uleb128 0x3a
 8604 009e 0B       		.uleb128 0xb
 8605 009f 3B       		.uleb128 0x3b
 8606 00a0 0B       		.uleb128 0xb
 8607 00a1 39       		.uleb128 0x39
 8608 00a2 0B       		.uleb128 0xb
 8609 00a3 49       		.uleb128 0x49
 8610 00a4 13       		.uleb128 0x13
 8611 00a5 38       		.uleb128 0x38
 8612 00a6 0B       		.uleb128 0xb
 8613 00a7 00       		.byte	0
 8614 00a8 00       		.byte	0
 8615 00a9 0E       		.uleb128 0xe
 8616 00aa 0F       		.uleb128 0xf
 8617 00ab 00       		.byte	0
 8618 00ac 0B       		.uleb128 0xb
ARM GAS  C:\Users\jens-\AppData\Local\Temp\ccdWTNhT.s 			page 215


 8619 00ad 0B       		.uleb128 0xb
 8620 00ae 00       		.byte	0
 8621 00af 00       		.byte	0
 8622 00b0 0F       		.uleb128 0xf
 8623 00b1 26       		.uleb128 0x26
 8624 00b2 00       		.byte	0
 8625 00b3 49       		.uleb128 0x49
 8626 00b4 13       		.uleb128 0x13
 8627 00b5 00       		.byte	0
 8628 00b6 00       		.byte	0
 8629 00b7 10       		.uleb128 0x10
 8630 00b8 13       		.uleb128 0x13
 8631 00b9 01       		.byte	0x1
 8632 00ba 03       		.uleb128 0x3
 8633 00bb 0E       		.uleb128 0xe
 8634 00bc 0B       		.uleb128 0xb
 8635 00bd 0B       		.uleb128 0xb
 8636 00be 3A       		.uleb128 0x3a
 8637 00bf 0B       		.uleb128 0xb
 8638 00c0 3B       		.uleb128 0x3b
 8639 00c1 0B       		.uleb128 0xb
 8640 00c2 39       		.uleb128 0x39
 8641 00c3 0B       		.uleb128 0xb
 8642 00c4 01       		.uleb128 0x1
 8643 00c5 13       		.uleb128 0x13
 8644 00c6 00       		.byte	0
 8645 00c7 00       		.byte	0
 8646 00c8 11       		.uleb128 0x11
 8647 00c9 0D       		.uleb128 0xd
 8648 00ca 00       		.byte	0
 8649 00cb 03       		.uleb128 0x3
 8650 00cc 08       		.uleb128 0x8
 8651 00cd 3A       		.uleb128 0x3a
 8652 00ce 0B       		.uleb128 0xb
 8653 00cf 3B       		.uleb128 0x3b
 8654 00d0 0B       		.uleb128 0xb
 8655 00d1 39       		.uleb128 0x39
 8656 00d2 0B       		.uleb128 0xb
 8657 00d3 49       		.uleb128 0x49
 8658 00d4 13       		.uleb128 0x13
 8659 00d5 38       		.uleb128 0x38
 8660 00d6 0B       		.uleb128 0xb
 8661 00d7 00       		.byte	0
 8662 00d8 00       		.byte	0
 8663 00d9 12       		.uleb128 0x12
 8664 00da 13       		.uleb128 0x13
 8665 00db 01       		.byte	0x1
 8666 00dc 03       		.uleb128 0x3
 8667 00dd 0E       		.uleb128 0xe
 8668 00de 0B       		.uleb128 0xb
 8669 00df 05       		.uleb128 0x5
 8670 00e0 3A       		.uleb128 0x3a
 8671 00e1 0B       		.uleb128 0xb
 8672 00e2 3B       		.uleb128 0x3b
 8673 00e3 0B       		.uleb128 0xb
 8674 00e4 39       		.uleb128 0x39
 8675 00e5 0B       		.uleb128 0xb
ARM GAS  C:\Users\jens-\AppData\Local\Temp\ccdWTNhT.s 			page 216


 8676 00e6 01       		.uleb128 0x1
 8677 00e7 13       		.uleb128 0x13
 8678 00e8 00       		.byte	0
 8679 00e9 00       		.byte	0
 8680 00ea 13       		.uleb128 0x13
 8681 00eb 0D       		.uleb128 0xd
 8682 00ec 00       		.byte	0
 8683 00ed 03       		.uleb128 0x3
 8684 00ee 0E       		.uleb128 0xe
 8685 00ef 3A       		.uleb128 0x3a
 8686 00f0 0B       		.uleb128 0xb
 8687 00f1 3B       		.uleb128 0x3b
 8688 00f2 0B       		.uleb128 0xb
 8689 00f3 39       		.uleb128 0x39
 8690 00f4 0B       		.uleb128 0xb
 8691 00f5 49       		.uleb128 0x49
 8692 00f6 13       		.uleb128 0x13
 8693 00f7 38       		.uleb128 0x38
 8694 00f8 05       		.uleb128 0x5
 8695 00f9 00       		.byte	0
 8696 00fa 00       		.byte	0
 8697 00fb 14       		.uleb128 0x14
 8698 00fc 15       		.uleb128 0x15
 8699 00fd 00       		.byte	0
 8700 00fe 27       		.uleb128 0x27
 8701 00ff 19       		.uleb128 0x19
 8702 0100 00       		.byte	0
 8703 0101 00       		.byte	0
 8704 0102 15       		.uleb128 0x15
 8705 0103 15       		.uleb128 0x15
 8706 0104 01       		.byte	0x1
 8707 0105 27       		.uleb128 0x27
 8708 0106 19       		.uleb128 0x19
 8709 0107 49       		.uleb128 0x49
 8710 0108 13       		.uleb128 0x13
 8711 0109 01       		.uleb128 0x1
 8712 010a 13       		.uleb128 0x13
 8713 010b 00       		.byte	0
 8714 010c 00       		.byte	0
 8715 010d 16       		.uleb128 0x16
 8716 010e 05       		.uleb128 0x5
 8717 010f 00       		.byte	0
 8718 0110 49       		.uleb128 0x49
 8719 0111 13       		.uleb128 0x13
 8720 0112 00       		.byte	0
 8721 0113 00       		.byte	0
 8722 0114 17       		.uleb128 0x17
 8723 0115 13       		.uleb128 0x13
 8724 0116 01       		.byte	0x1
 8725 0117 03       		.uleb128 0x3
 8726 0118 0E       		.uleb128 0xe
 8727 0119 0B       		.uleb128 0xb
 8728 011a 05       		.uleb128 0x5
 8729 011b 3A       		.uleb128 0x3a
 8730 011c 0B       		.uleb128 0xb
 8731 011d 3B       		.uleb128 0x3b
 8732 011e 05       		.uleb128 0x5
ARM GAS  C:\Users\jens-\AppData\Local\Temp\ccdWTNhT.s 			page 217


 8733 011f 39       		.uleb128 0x39
 8734 0120 0B       		.uleb128 0xb
 8735 0121 01       		.uleb128 0x1
 8736 0122 13       		.uleb128 0x13
 8737 0123 00       		.byte	0
 8738 0124 00       		.byte	0
 8739 0125 18       		.uleb128 0x18
 8740 0126 0D       		.uleb128 0xd
 8741 0127 00       		.byte	0
 8742 0128 03       		.uleb128 0x3
 8743 0129 0E       		.uleb128 0xe
 8744 012a 3A       		.uleb128 0x3a
 8745 012b 0B       		.uleb128 0xb
 8746 012c 3B       		.uleb128 0x3b
 8747 012d 05       		.uleb128 0x5
 8748 012e 39       		.uleb128 0x39
 8749 012f 0B       		.uleb128 0xb
 8750 0130 49       		.uleb128 0x49
 8751 0131 13       		.uleb128 0x13
 8752 0132 38       		.uleb128 0x38
 8753 0133 0B       		.uleb128 0xb
 8754 0134 00       		.byte	0
 8755 0135 00       		.byte	0
 8756 0136 19       		.uleb128 0x19
 8757 0137 0D       		.uleb128 0xd
 8758 0138 00       		.byte	0
 8759 0139 03       		.uleb128 0x3
 8760 013a 0E       		.uleb128 0xe
 8761 013b 3A       		.uleb128 0x3a
 8762 013c 0B       		.uleb128 0xb
 8763 013d 3B       		.uleb128 0x3b
 8764 013e 05       		.uleb128 0x5
 8765 013f 39       		.uleb128 0x39
 8766 0140 0B       		.uleb128 0xb
 8767 0141 49       		.uleb128 0x49
 8768 0142 13       		.uleb128 0x13
 8769 0143 38       		.uleb128 0x38
 8770 0144 05       		.uleb128 0x5
 8771 0145 00       		.byte	0
 8772 0146 00       		.byte	0
 8773 0147 1A       		.uleb128 0x1a
 8774 0148 13       		.uleb128 0x13
 8775 0149 01       		.byte	0x1
 8776 014a 03       		.uleb128 0x3
 8777 014b 0E       		.uleb128 0xe
 8778 014c 0B       		.uleb128 0xb
 8779 014d 0B       		.uleb128 0xb
 8780 014e 3A       		.uleb128 0x3a
 8781 014f 0B       		.uleb128 0xb
 8782 0150 3B       		.uleb128 0x3b
 8783 0151 05       		.uleb128 0x5
 8784 0152 39       		.uleb128 0x39
 8785 0153 0B       		.uleb128 0xb
 8786 0154 01       		.uleb128 0x1
 8787 0155 13       		.uleb128 0x13
 8788 0156 00       		.byte	0
 8789 0157 00       		.byte	0
ARM GAS  C:\Users\jens-\AppData\Local\Temp\ccdWTNhT.s 			page 218


 8790 0158 1B       		.uleb128 0x1b
 8791 0159 13       		.uleb128 0x13
 8792 015a 01       		.byte	0x1
 8793 015b 0B       		.uleb128 0xb
 8794 015c 0B       		.uleb128 0xb
 8795 015d 3A       		.uleb128 0x3a
 8796 015e 0B       		.uleb128 0xb
 8797 015f 3B       		.uleb128 0x3b
 8798 0160 05       		.uleb128 0x5
 8799 0161 39       		.uleb128 0x39
 8800 0162 0B       		.uleb128 0xb
 8801 0163 01       		.uleb128 0x1
 8802 0164 13       		.uleb128 0x13
 8803 0165 00       		.byte	0
 8804 0166 00       		.byte	0
 8805 0167 1C       		.uleb128 0x1c
 8806 0168 17       		.uleb128 0x17
 8807 0169 01       		.byte	0x1
 8808 016a 0B       		.uleb128 0xb
 8809 016b 0B       		.uleb128 0xb
 8810 016c 3A       		.uleb128 0x3a
 8811 016d 0B       		.uleb128 0xb
 8812 016e 3B       		.uleb128 0x3b
 8813 016f 05       		.uleb128 0x5
 8814 0170 39       		.uleb128 0x39
 8815 0171 0B       		.uleb128 0xb
 8816 0172 01       		.uleb128 0x1
 8817 0173 13       		.uleb128 0x13
 8818 0174 00       		.byte	0
 8819 0175 00       		.byte	0
 8820 0176 1D       		.uleb128 0x1d
 8821 0177 0D       		.uleb128 0xd
 8822 0178 00       		.byte	0
 8823 0179 03       		.uleb128 0x3
 8824 017a 0E       		.uleb128 0xe
 8825 017b 3A       		.uleb128 0x3a
 8826 017c 0B       		.uleb128 0xb
 8827 017d 3B       		.uleb128 0x3b
 8828 017e 05       		.uleb128 0x5
 8829 017f 39       		.uleb128 0x39
 8830 0180 0B       		.uleb128 0xb
 8831 0181 49       		.uleb128 0x49
 8832 0182 13       		.uleb128 0x13
 8833 0183 00       		.byte	0
 8834 0184 00       		.byte	0
 8835 0185 1E       		.uleb128 0x1e
 8836 0186 15       		.uleb128 0x15
 8837 0187 01       		.byte	0x1
 8838 0188 27       		.uleb128 0x27
 8839 0189 19       		.uleb128 0x19
 8840 018a 01       		.uleb128 0x1
 8841 018b 13       		.uleb128 0x13
 8842 018c 00       		.byte	0
 8843 018d 00       		.byte	0
 8844 018e 1F       		.uleb128 0x1f
 8845 018f 34       		.uleb128 0x34
 8846 0190 00       		.byte	0
ARM GAS  C:\Users\jens-\AppData\Local\Temp\ccdWTNhT.s 			page 219


 8847 0191 03       		.uleb128 0x3
 8848 0192 0E       		.uleb128 0xe
 8849 0193 3A       		.uleb128 0x3a
 8850 0194 0B       		.uleb128 0xb
 8851 0195 3B       		.uleb128 0x3b
 8852 0196 05       		.uleb128 0x5
 8853 0197 39       		.uleb128 0x39
 8854 0198 0B       		.uleb128 0xb
 8855 0199 49       		.uleb128 0x49
 8856 019a 13       		.uleb128 0x13
 8857 019b 3F       		.uleb128 0x3f
 8858 019c 19       		.uleb128 0x19
 8859 019d 3C       		.uleb128 0x3c
 8860 019e 19       		.uleb128 0x19
 8861 019f 00       		.byte	0
 8862 01a0 00       		.byte	0
 8863 01a1 20       		.uleb128 0x20
 8864 01a2 21       		.uleb128 0x21
 8865 01a3 00       		.byte	0
 8866 01a4 00       		.byte	0
 8867 01a5 00       		.byte	0
 8868 01a6 21       		.uleb128 0x21
 8869 01a7 34       		.uleb128 0x34
 8870 01a8 00       		.byte	0
 8871 01a9 03       		.uleb128 0x3
 8872 01aa 0E       		.uleb128 0xe
 8873 01ab 3A       		.uleb128 0x3a
 8874 01ac 0B       		.uleb128 0xb
 8875 01ad 3B       		.uleb128 0x3b
 8876 01ae 0B       		.uleb128 0xb
 8877 01af 39       		.uleb128 0x39
 8878 01b0 0B       		.uleb128 0xb
 8879 01b1 49       		.uleb128 0x49
 8880 01b2 13       		.uleb128 0x13
 8881 01b3 3F       		.uleb128 0x3f
 8882 01b4 19       		.uleb128 0x19
 8883 01b5 3C       		.uleb128 0x3c
 8884 01b6 19       		.uleb128 0x19
 8885 01b7 00       		.byte	0
 8886 01b8 00       		.byte	0
 8887 01b9 22       		.uleb128 0x22
 8888 01ba 35       		.uleb128 0x35
 8889 01bb 00       		.byte	0
 8890 01bc 49       		.uleb128 0x49
 8891 01bd 13       		.uleb128 0x13
 8892 01be 00       		.byte	0
 8893 01bf 00       		.byte	0
 8894 01c0 23       		.uleb128 0x23
 8895 01c1 34       		.uleb128 0x34
 8896 01c2 00       		.byte	0
 8897 01c3 47       		.uleb128 0x47
 8898 01c4 13       		.uleb128 0x13
 8899 01c5 3A       		.uleb128 0x3a
 8900 01c6 0B       		.uleb128 0xb
 8901 01c7 3B       		.uleb128 0x3b
 8902 01c8 0B       		.uleb128 0xb
 8903 01c9 39       		.uleb128 0x39
ARM GAS  C:\Users\jens-\AppData\Local\Temp\ccdWTNhT.s 			page 220


 8904 01ca 0B       		.uleb128 0xb
 8905 01cb 02       		.uleb128 0x2
 8906 01cc 18       		.uleb128 0x18
 8907 01cd 00       		.byte	0
 8908 01ce 00       		.byte	0
 8909 01cf 24       		.uleb128 0x24
 8910 01d0 34       		.uleb128 0x34
 8911 01d1 00       		.byte	0
 8912 01d2 03       		.uleb128 0x3
 8913 01d3 0E       		.uleb128 0xe
 8914 01d4 3A       		.uleb128 0x3a
 8915 01d5 0B       		.uleb128 0xb
 8916 01d6 3B       		.uleb128 0x3b
 8917 01d7 0B       		.uleb128 0xb
 8918 01d8 39       		.uleb128 0x39
 8919 01d9 0B       		.uleb128 0xb
 8920 01da 49       		.uleb128 0x49
 8921 01db 13       		.uleb128 0x13
 8922 01dc 02       		.uleb128 0x2
 8923 01dd 18       		.uleb128 0x18
 8924 01de 00       		.byte	0
 8925 01df 00       		.byte	0
 8926 01e0 25       		.uleb128 0x25
 8927 01e1 34       		.uleb128 0x34
 8928 01e2 00       		.byte	0
 8929 01e3 03       		.uleb128 0x3
 8930 01e4 0E       		.uleb128 0xe
 8931 01e5 3A       		.uleb128 0x3a
 8932 01e6 0B       		.uleb128 0xb
 8933 01e7 3B       		.uleb128 0x3b
 8934 01e8 0B       		.uleb128 0xb
 8935 01e9 39       		.uleb128 0x39
 8936 01ea 0B       		.uleb128 0xb
 8937 01eb 49       		.uleb128 0x49
 8938 01ec 13       		.uleb128 0x13
 8939 01ed 3F       		.uleb128 0x3f
 8940 01ee 19       		.uleb128 0x19
 8941 01ef 02       		.uleb128 0x2
 8942 01f0 18       		.uleb128 0x18
 8943 01f1 00       		.byte	0
 8944 01f2 00       		.byte	0
 8945 01f3 26       		.uleb128 0x26
 8946 01f4 2E       		.uleb128 0x2e
 8947 01f5 01       		.byte	0x1
 8948 01f6 3F       		.uleb128 0x3f
 8949 01f7 19       		.uleb128 0x19
 8950 01f8 03       		.uleb128 0x3
 8951 01f9 0E       		.uleb128 0xe
 8952 01fa 3A       		.uleb128 0x3a
 8953 01fb 0B       		.uleb128 0xb
 8954 01fc 3B       		.uleb128 0x3b
 8955 01fd 05       		.uleb128 0x5
 8956 01fe 39       		.uleb128 0x39
 8957 01ff 0B       		.uleb128 0xb
 8958 0200 27       		.uleb128 0x27
 8959 0201 19       		.uleb128 0x19
 8960 0202 11       		.uleb128 0x11
ARM GAS  C:\Users\jens-\AppData\Local\Temp\ccdWTNhT.s 			page 221


 8961 0203 01       		.uleb128 0x1
 8962 0204 12       		.uleb128 0x12
 8963 0205 06       		.uleb128 0x6
 8964 0206 40       		.uleb128 0x40
 8965 0207 18       		.uleb128 0x18
 8966 0208 9742     		.uleb128 0x2117
 8967 020a 19       		.uleb128 0x19
 8968 020b 01       		.uleb128 0x1
 8969 020c 13       		.uleb128 0x13
 8970 020d 00       		.byte	0
 8971 020e 00       		.byte	0
 8972 020f 27       		.uleb128 0x27
 8973 0210 05       		.uleb128 0x5
 8974 0211 00       		.byte	0
 8975 0212 03       		.uleb128 0x3
 8976 0213 0E       		.uleb128 0xe
 8977 0214 3A       		.uleb128 0x3a
 8978 0215 0B       		.uleb128 0xb
 8979 0216 3B       		.uleb128 0x3b
 8980 0217 05       		.uleb128 0x5
 8981 0218 39       		.uleb128 0x39
 8982 0219 0B       		.uleb128 0xb
 8983 021a 49       		.uleb128 0x49
 8984 021b 13       		.uleb128 0x13
 8985 021c 02       		.uleb128 0x2
 8986 021d 18       		.uleb128 0x18
 8987 021e 00       		.byte	0
 8988 021f 00       		.byte	0
 8989 0220 28       		.uleb128 0x28
 8990 0221 2E       		.uleb128 0x2e
 8991 0222 01       		.byte	0x1
 8992 0223 03       		.uleb128 0x3
 8993 0224 0E       		.uleb128 0xe
 8994 0225 3A       		.uleb128 0x3a
 8995 0226 0B       		.uleb128 0xb
 8996 0227 3B       		.uleb128 0x3b
 8997 0228 05       		.uleb128 0x5
 8998 0229 39       		.uleb128 0x39
 8999 022a 0B       		.uleb128 0xb
 9000 022b 27       		.uleb128 0x27
 9001 022c 19       		.uleb128 0x19
 9002 022d 11       		.uleb128 0x11
 9003 022e 01       		.uleb128 0x1
 9004 022f 12       		.uleb128 0x12
 9005 0230 06       		.uleb128 0x6
 9006 0231 40       		.uleb128 0x40
 9007 0232 18       		.uleb128 0x18
 9008 0233 9642     		.uleb128 0x2116
 9009 0235 19       		.uleb128 0x19
 9010 0236 01       		.uleb128 0x1
 9011 0237 13       		.uleb128 0x13
 9012 0238 00       		.byte	0
 9013 0239 00       		.byte	0
 9014 023a 29       		.uleb128 0x29
 9015 023b 34       		.uleb128 0x34
 9016 023c 00       		.byte	0
 9017 023d 03       		.uleb128 0x3
ARM GAS  C:\Users\jens-\AppData\Local\Temp\ccdWTNhT.s 			page 222


 9018 023e 08       		.uleb128 0x8
 9019 023f 3A       		.uleb128 0x3a
 9020 0240 0B       		.uleb128 0xb
 9021 0241 3B       		.uleb128 0x3b
 9022 0242 05       		.uleb128 0x5
 9023 0243 39       		.uleb128 0x39
 9024 0244 0B       		.uleb128 0xb
 9025 0245 49       		.uleb128 0x49
 9026 0246 13       		.uleb128 0x13
 9027 0247 02       		.uleb128 0x2
 9028 0248 17       		.uleb128 0x17
 9029 0249 B742     		.uleb128 0x2137
 9030 024b 17       		.uleb128 0x17
 9031 024c 00       		.byte	0
 9032 024d 00       		.byte	0
 9033 024e 2A       		.uleb128 0x2a
 9034 024f 898201   		.uleb128 0x4109
 9035 0252 00       		.byte	0
 9036 0253 11       		.uleb128 0x11
 9037 0254 01       		.uleb128 0x1
 9038 0255 31       		.uleb128 0x31
 9039 0256 13       		.uleb128 0x13
 9040 0257 00       		.byte	0
 9041 0258 00       		.byte	0
 9042 0259 2B       		.uleb128 0x2b
 9043 025a 2E       		.uleb128 0x2e
 9044 025b 01       		.byte	0x1
 9045 025c 3F       		.uleb128 0x3f
 9046 025d 19       		.uleb128 0x19
 9047 025e 03       		.uleb128 0x3
 9048 025f 0E       		.uleb128 0xe
 9049 0260 3A       		.uleb128 0x3a
 9050 0261 0B       		.uleb128 0xb
 9051 0262 3B       		.uleb128 0x3b
 9052 0263 05       		.uleb128 0x5
 9053 0264 39       		.uleb128 0x39
 9054 0265 0B       		.uleb128 0xb
 9055 0266 27       		.uleb128 0x27
 9056 0267 19       		.uleb128 0x19
 9057 0268 49       		.uleb128 0x49
 9058 0269 13       		.uleb128 0x13
 9059 026a 11       		.uleb128 0x11
 9060 026b 01       		.uleb128 0x1
 9061 026c 12       		.uleb128 0x12
 9062 026d 06       		.uleb128 0x6
 9063 026e 40       		.uleb128 0x40
 9064 026f 18       		.uleb128 0x18
 9065 0270 9742     		.uleb128 0x2117
 9066 0272 19       		.uleb128 0x19
 9067 0273 01       		.uleb128 0x1
 9068 0274 13       		.uleb128 0x13
 9069 0275 00       		.byte	0
 9070 0276 00       		.byte	0
 9071 0277 2C       		.uleb128 0x2c
 9072 0278 05       		.uleb128 0x5
 9073 0279 00       		.byte	0
 9074 027a 03       		.uleb128 0x3
ARM GAS  C:\Users\jens-\AppData\Local\Temp\ccdWTNhT.s 			page 223


 9075 027b 0E       		.uleb128 0xe
 9076 027c 3A       		.uleb128 0x3a
 9077 027d 0B       		.uleb128 0xb
 9078 027e 3B       		.uleb128 0x3b
 9079 027f 05       		.uleb128 0x5
 9080 0280 39       		.uleb128 0x39
 9081 0281 0B       		.uleb128 0xb
 9082 0282 49       		.uleb128 0x49
 9083 0283 13       		.uleb128 0x13
 9084 0284 02       		.uleb128 0x2
 9085 0285 17       		.uleb128 0x17
 9086 0286 B742     		.uleb128 0x2137
 9087 0288 17       		.uleb128 0x17
 9088 0289 00       		.byte	0
 9089 028a 00       		.byte	0
 9090 028b 2D       		.uleb128 0x2d
 9091 028c 34       		.uleb128 0x34
 9092 028d 00       		.byte	0
 9093 028e 03       		.uleb128 0x3
 9094 028f 0E       		.uleb128 0xe
 9095 0290 3A       		.uleb128 0x3a
 9096 0291 0B       		.uleb128 0xb
 9097 0292 3B       		.uleb128 0x3b
 9098 0293 05       		.uleb128 0x5
 9099 0294 39       		.uleb128 0x39
 9100 0295 0B       		.uleb128 0xb
 9101 0296 49       		.uleb128 0x49
 9102 0297 13       		.uleb128 0x13
 9103 0298 02       		.uleb128 0x2
 9104 0299 17       		.uleb128 0x17
 9105 029a B742     		.uleb128 0x2137
 9106 029c 17       		.uleb128 0x17
 9107 029d 00       		.byte	0
 9108 029e 00       		.byte	0
 9109 029f 2E       		.uleb128 0x2e
 9110 02a0 2E       		.uleb128 0x2e
 9111 02a1 00       		.byte	0
 9112 02a2 3F       		.uleb128 0x3f
 9113 02a3 19       		.uleb128 0x19
 9114 02a4 03       		.uleb128 0x3
 9115 02a5 0E       		.uleb128 0xe
 9116 02a6 3A       		.uleb128 0x3a
 9117 02a7 0B       		.uleb128 0xb
 9118 02a8 3B       		.uleb128 0x3b
 9119 02a9 05       		.uleb128 0x5
 9120 02aa 39       		.uleb128 0x39
 9121 02ab 0B       		.uleb128 0xb
 9122 02ac 27       		.uleb128 0x27
 9123 02ad 19       		.uleb128 0x19
 9124 02ae 11       		.uleb128 0x11
 9125 02af 01       		.uleb128 0x1
 9126 02b0 12       		.uleb128 0x12
 9127 02b1 06       		.uleb128 0x6
 9128 02b2 40       		.uleb128 0x40
 9129 02b3 18       		.uleb128 0x18
 9130 02b4 9742     		.uleb128 0x2117
 9131 02b6 19       		.uleb128 0x19
ARM GAS  C:\Users\jens-\AppData\Local\Temp\ccdWTNhT.s 			page 224


 9132 02b7 00       		.byte	0
 9133 02b8 00       		.byte	0
 9134 02b9 2F       		.uleb128 0x2f
 9135 02ba 2E       		.uleb128 0x2e
 9136 02bb 00       		.byte	0
 9137 02bc 3F       		.uleb128 0x3f
 9138 02bd 19       		.uleb128 0x19
 9139 02be 03       		.uleb128 0x3
 9140 02bf 0E       		.uleb128 0xe
 9141 02c0 3A       		.uleb128 0x3a
 9142 02c1 0B       		.uleb128 0xb
 9143 02c2 3B       		.uleb128 0x3b
 9144 02c3 05       		.uleb128 0x5
 9145 02c4 39       		.uleb128 0x39
 9146 02c5 0B       		.uleb128 0xb
 9147 02c6 27       		.uleb128 0x27
 9148 02c7 19       		.uleb128 0x19
 9149 02c8 49       		.uleb128 0x49
 9150 02c9 13       		.uleb128 0x13
 9151 02ca 11       		.uleb128 0x11
 9152 02cb 01       		.uleb128 0x1
 9153 02cc 12       		.uleb128 0x12
 9154 02cd 06       		.uleb128 0x6
 9155 02ce 40       		.uleb128 0x40
 9156 02cf 18       		.uleb128 0x18
 9157 02d0 9742     		.uleb128 0x2117
 9158 02d2 19       		.uleb128 0x19
 9159 02d3 00       		.byte	0
 9160 02d4 00       		.byte	0
 9161 02d5 30       		.uleb128 0x30
 9162 02d6 898201   		.uleb128 0x4109
 9163 02d9 01       		.byte	0x1
 9164 02da 11       		.uleb128 0x11
 9165 02db 01       		.uleb128 0x1
 9166 02dc 31       		.uleb128 0x31
 9167 02dd 13       		.uleb128 0x13
 9168 02de 01       		.uleb128 0x1
 9169 02df 13       		.uleb128 0x13
 9170 02e0 00       		.byte	0
 9171 02e1 00       		.byte	0
 9172 02e2 31       		.uleb128 0x31
 9173 02e3 8A8201   		.uleb128 0x410a
 9174 02e6 00       		.byte	0
 9175 02e7 02       		.uleb128 0x2
 9176 02e8 18       		.uleb128 0x18
 9177 02e9 9142     		.uleb128 0x2111
 9178 02eb 18       		.uleb128 0x18
 9179 02ec 00       		.byte	0
 9180 02ed 00       		.byte	0
 9181 02ee 32       		.uleb128 0x32
 9182 02ef 898201   		.uleb128 0x4109
 9183 02f2 01       		.byte	0x1
 9184 02f3 11       		.uleb128 0x11
 9185 02f4 01       		.uleb128 0x1
 9186 02f5 31       		.uleb128 0x31
 9187 02f6 13       		.uleb128 0x13
 9188 02f7 00       		.byte	0
ARM GAS  C:\Users\jens-\AppData\Local\Temp\ccdWTNhT.s 			page 225


 9189 02f8 00       		.byte	0
 9190 02f9 33       		.uleb128 0x33
 9191 02fa 34       		.uleb128 0x34
 9192 02fb 00       		.byte	0
 9193 02fc 03       		.uleb128 0x3
 9194 02fd 0E       		.uleb128 0xe
 9195 02fe 3A       		.uleb128 0x3a
 9196 02ff 0B       		.uleb128 0xb
 9197 0300 3B       		.uleb128 0x3b
 9198 0301 05       		.uleb128 0x5
 9199 0302 39       		.uleb128 0x39
 9200 0303 0B       		.uleb128 0xb
 9201 0304 49       		.uleb128 0x49
 9202 0305 13       		.uleb128 0x13
 9203 0306 02       		.uleb128 0x2
 9204 0307 18       		.uleb128 0x18
 9205 0308 00       		.byte	0
 9206 0309 00       		.byte	0
 9207 030a 34       		.uleb128 0x34
 9208 030b 34       		.uleb128 0x34
 9209 030c 00       		.byte	0
 9210 030d 03       		.uleb128 0x3
 9211 030e 08       		.uleb128 0x8
 9212 030f 3A       		.uleb128 0x3a
 9213 0310 0B       		.uleb128 0xb
 9214 0311 3B       		.uleb128 0x3b
 9215 0312 05       		.uleb128 0x5
 9216 0313 39       		.uleb128 0x39
 9217 0314 0B       		.uleb128 0xb
 9218 0315 49       		.uleb128 0x49
 9219 0316 13       		.uleb128 0x13
 9220 0317 02       		.uleb128 0x2
 9221 0318 18       		.uleb128 0x18
 9222 0319 00       		.byte	0
 9223 031a 00       		.byte	0
 9224 031b 35       		.uleb128 0x35
 9225 031c 2E       		.uleb128 0x2e
 9226 031d 01       		.byte	0x1
 9227 031e 03       		.uleb128 0x3
 9228 031f 0E       		.uleb128 0xe
 9229 0320 3A       		.uleb128 0x3a
 9230 0321 0B       		.uleb128 0xb
 9231 0322 3B       		.uleb128 0x3b
 9232 0323 05       		.uleb128 0x5
 9233 0324 39       		.uleb128 0x39
 9234 0325 0B       		.uleb128 0xb
 9235 0326 27       		.uleb128 0x27
 9236 0327 19       		.uleb128 0x19
 9237 0328 11       		.uleb128 0x11
 9238 0329 01       		.uleb128 0x1
 9239 032a 12       		.uleb128 0x12
 9240 032b 06       		.uleb128 0x6
 9241 032c 40       		.uleb128 0x40
 9242 032d 18       		.uleb128 0x18
 9243 032e 9742     		.uleb128 0x2117
 9244 0330 19       		.uleb128 0x19
 9245 0331 01       		.uleb128 0x1
ARM GAS  C:\Users\jens-\AppData\Local\Temp\ccdWTNhT.s 			page 226


 9246 0332 13       		.uleb128 0x13
 9247 0333 00       		.byte	0
 9248 0334 00       		.byte	0
 9249 0335 36       		.uleb128 0x36
 9250 0336 2E       		.uleb128 0x2e
 9251 0337 01       		.byte	0x1
 9252 0338 03       		.uleb128 0x3
 9253 0339 0E       		.uleb128 0xe
 9254 033a 3A       		.uleb128 0x3a
 9255 033b 0B       		.uleb128 0xb
 9256 033c 3B       		.uleb128 0x3b
 9257 033d 05       		.uleb128 0x5
 9258 033e 39       		.uleb128 0x39
 9259 033f 0B       		.uleb128 0xb
 9260 0340 27       		.uleb128 0x27
 9261 0341 19       		.uleb128 0x19
 9262 0342 49       		.uleb128 0x49
 9263 0343 13       		.uleb128 0x13
 9264 0344 11       		.uleb128 0x11
 9265 0345 01       		.uleb128 0x1
 9266 0346 12       		.uleb128 0x12
 9267 0347 06       		.uleb128 0x6
 9268 0348 40       		.uleb128 0x40
 9269 0349 18       		.uleb128 0x18
 9270 034a 9742     		.uleb128 0x2117
 9271 034c 19       		.uleb128 0x19
 9272 034d 01       		.uleb128 0x1
 9273 034e 13       		.uleb128 0x13
 9274 034f 00       		.byte	0
 9275 0350 00       		.byte	0
 9276 0351 37       		.uleb128 0x37
 9277 0352 2E       		.uleb128 0x2e
 9278 0353 01       		.byte	0x1
 9279 0354 3F       		.uleb128 0x3f
 9280 0355 19       		.uleb128 0x19
 9281 0356 03       		.uleb128 0x3
 9282 0357 0E       		.uleb128 0xe
 9283 0358 3A       		.uleb128 0x3a
 9284 0359 0B       		.uleb128 0xb
 9285 035a 3B       		.uleb128 0x3b
 9286 035b 0B       		.uleb128 0xb
 9287 035c 39       		.uleb128 0x39
 9288 035d 0B       		.uleb128 0xb
 9289 035e 27       		.uleb128 0x27
 9290 035f 19       		.uleb128 0x19
 9291 0360 11       		.uleb128 0x11
 9292 0361 01       		.uleb128 0x1
 9293 0362 12       		.uleb128 0x12
 9294 0363 06       		.uleb128 0x6
 9295 0364 40       		.uleb128 0x40
 9296 0365 18       		.uleb128 0x18
 9297 0366 9742     		.uleb128 0x2117
 9298 0368 19       		.uleb128 0x19
 9299 0369 01       		.uleb128 0x1
 9300 036a 13       		.uleb128 0x13
 9301 036b 00       		.byte	0
 9302 036c 00       		.byte	0
ARM GAS  C:\Users\jens-\AppData\Local\Temp\ccdWTNhT.s 			page 227


 9303 036d 38       		.uleb128 0x38
 9304 036e 05       		.uleb128 0x5
 9305 036f 00       		.byte	0
 9306 0370 03       		.uleb128 0x3
 9307 0371 0E       		.uleb128 0xe
 9308 0372 3A       		.uleb128 0x3a
 9309 0373 0B       		.uleb128 0xb
 9310 0374 3B       		.uleb128 0x3b
 9311 0375 0B       		.uleb128 0xb
 9312 0376 39       		.uleb128 0x39
 9313 0377 0B       		.uleb128 0xb
 9314 0378 49       		.uleb128 0x49
 9315 0379 13       		.uleb128 0x13
 9316 037a 02       		.uleb128 0x2
 9317 037b 17       		.uleb128 0x17
 9318 037c B742     		.uleb128 0x2137
 9319 037e 17       		.uleb128 0x17
 9320 037f 00       		.byte	0
 9321 0380 00       		.byte	0
 9322 0381 39       		.uleb128 0x39
 9323 0382 2E       		.uleb128 0x2e
 9324 0383 00       		.byte	0
 9325 0384 3F       		.uleb128 0x3f
 9326 0385 19       		.uleb128 0x19
 9327 0386 03       		.uleb128 0x3
 9328 0387 0E       		.uleb128 0xe
 9329 0388 3A       		.uleb128 0x3a
 9330 0389 0B       		.uleb128 0xb
 9331 038a 3B       		.uleb128 0x3b
 9332 038b 0B       		.uleb128 0xb
 9333 038c 39       		.uleb128 0x39
 9334 038d 0B       		.uleb128 0xb
 9335 038e 27       		.uleb128 0x27
 9336 038f 19       		.uleb128 0x19
 9337 0390 11       		.uleb128 0x11
 9338 0391 01       		.uleb128 0x1
 9339 0392 12       		.uleb128 0x12
 9340 0393 06       		.uleb128 0x6
 9341 0394 40       		.uleb128 0x40
 9342 0395 18       		.uleb128 0x18
 9343 0396 9742     		.uleb128 0x2117
 9344 0398 19       		.uleb128 0x19
 9345 0399 00       		.byte	0
 9346 039a 00       		.byte	0
 9347 039b 3A       		.uleb128 0x3a
 9348 039c 2E       		.uleb128 0x2e
 9349 039d 01       		.byte	0x1
 9350 039e 3F       		.uleb128 0x3f
 9351 039f 19       		.uleb128 0x19
 9352 03a0 03       		.uleb128 0x3
 9353 03a1 0E       		.uleb128 0xe
 9354 03a2 3A       		.uleb128 0x3a
 9355 03a3 0B       		.uleb128 0xb
 9356 03a4 3B       		.uleb128 0x3b
 9357 03a5 0B       		.uleb128 0xb
 9358 03a6 39       		.uleb128 0x39
 9359 03a7 0B       		.uleb128 0xb
ARM GAS  C:\Users\jens-\AppData\Local\Temp\ccdWTNhT.s 			page 228


 9360 03a8 27       		.uleb128 0x27
 9361 03a9 19       		.uleb128 0x19
 9362 03aa 49       		.uleb128 0x49
 9363 03ab 13       		.uleb128 0x13
 9364 03ac 11       		.uleb128 0x11
 9365 03ad 01       		.uleb128 0x1
 9366 03ae 12       		.uleb128 0x12
 9367 03af 06       		.uleb128 0x6
 9368 03b0 40       		.uleb128 0x40
 9369 03b1 18       		.uleb128 0x18
 9370 03b2 9742     		.uleb128 0x2117
 9371 03b4 19       		.uleb128 0x19
 9372 03b5 01       		.uleb128 0x1
 9373 03b6 13       		.uleb128 0x13
 9374 03b7 00       		.byte	0
 9375 03b8 00       		.byte	0
 9376 03b9 3B       		.uleb128 0x3b
 9377 03ba 34       		.uleb128 0x34
 9378 03bb 00       		.byte	0
 9379 03bc 03       		.uleb128 0x3
 9380 03bd 0E       		.uleb128 0xe
 9381 03be 3A       		.uleb128 0x3a
 9382 03bf 0B       		.uleb128 0xb
 9383 03c0 3B       		.uleb128 0x3b
 9384 03c1 0B       		.uleb128 0xb
 9385 03c2 39       		.uleb128 0x39
 9386 03c3 0B       		.uleb128 0xb
 9387 03c4 49       		.uleb128 0x49
 9388 03c5 13       		.uleb128 0x13
 9389 03c6 02       		.uleb128 0x2
 9390 03c7 17       		.uleb128 0x17
 9391 03c8 B742     		.uleb128 0x2137
 9392 03ca 17       		.uleb128 0x17
 9393 03cb 00       		.byte	0
 9394 03cc 00       		.byte	0
 9395 03cd 3C       		.uleb128 0x3c
 9396 03ce 2E       		.uleb128 0x2e
 9397 03cf 00       		.byte	0
 9398 03d0 3F       		.uleb128 0x3f
 9399 03d1 19       		.uleb128 0x19
 9400 03d2 3C       		.uleb128 0x3c
 9401 03d3 19       		.uleb128 0x19
 9402 03d4 6E       		.uleb128 0x6e
 9403 03d5 0E       		.uleb128 0xe
 9404 03d6 03       		.uleb128 0x3
 9405 03d7 0E       		.uleb128 0xe
 9406 03d8 3A       		.uleb128 0x3a
 9407 03d9 0B       		.uleb128 0xb
 9408 03da 3B       		.uleb128 0x3b
 9409 03db 0B       		.uleb128 0xb
 9410 03dc 39       		.uleb128 0x39
 9411 03dd 0B       		.uleb128 0xb
 9412 03de 00       		.byte	0
 9413 03df 00       		.byte	0
 9414 03e0 00       		.byte	0
 9415              		.section	.debug_loc,"",%progbits
 9416              	.Ldebug_loc0:
ARM GAS  C:\Users\jens-\AppData\Local\Temp\ccdWTNhT.s 			page 229


 9417              	.LVUS84:
 9418 0000 00       		.uleb128 .LVU1048
 9419 0001 00       		.uleb128 .LVU1056
 9420              	.LLST84:
 9421 0002 0C000000 		.4byte	.LVL234
 9422 0006 22000000 		.4byte	.LVL237
 9423 000a 0100     		.2byte	0x1
 9424 000c 54       		.byte	0x54
 9425 000d 00000000 		.4byte	0
 9426 0011 00000000 		.4byte	0
 9427              	.LVUS88:
 9428 0015 00       		.uleb128 0
 9429 0016 00       		.uleb128 .LVU1100
 9430 0017 00       		.uleb128 .LVU1100
 9431 0018 00       		.uleb128 0
 9432              	.LLST88:
 9433 0019 00000000 		.4byte	.LVL249
 9434 001d 08000000 		.4byte	.LVL250
 9435 0021 0100     		.2byte	0x1
 9436 0023 50       		.byte	0x50
 9437 0024 08000000 		.4byte	.LVL250
 9438 0028 10000000 		.4byte	.LFE78
 9439 002c 0400     		.2byte	0x4
 9440 002e F3       		.byte	0xf3
 9441 002f 01       		.uleb128 0x1
 9442 0030 50       		.byte	0x50
 9443 0031 9F       		.byte	0x9f
 9444 0032 00000000 		.4byte	0
 9445 0036 00000000 		.4byte	0
 9446              	.LVUS86:
 9447 003a 00       		.uleb128 0
 9448 003b 00       		.uleb128 .LVU1092
 9449 003c 00       		.uleb128 .LVU1092
 9450 003d 00       		.uleb128 0
 9451              	.LLST86:
 9452 003e 00000000 		.4byte	.LVL247
 9453 0042 08000000 		.4byte	.LVL248
 9454 0046 0100     		.2byte	0x1
 9455 0048 50       		.byte	0x50
 9456 0049 08000000 		.4byte	.LVL248
 9457 004d 10000000 		.4byte	.LFE77
 9458 0051 0400     		.2byte	0x4
 9459 0053 F3       		.byte	0xf3
 9460 0054 01       		.uleb128 0x1
 9461 0055 50       		.byte	0x50
 9462 0056 9F       		.byte	0x9f
 9463 0057 00000000 		.4byte	0
 9464 005b 00000000 		.4byte	0
 9465              	.LVUS87:
 9466 005f 00       		.uleb128 .LVU1092
 9467 0060 00       		.uleb128 0
 9468              	.LLST87:
 9469 0061 08000000 		.4byte	.LVL248
 9470 0065 10000000 		.4byte	.LFE77
 9471 0069 0100     		.2byte	0x1
 9472 006b 50       		.byte	0x50
 9473 006c 00000000 		.4byte	0
ARM GAS  C:\Users\jens-\AppData\Local\Temp\ccdWTNhT.s 			page 230


 9474 0070 00000000 		.4byte	0
 9475              	.LVUS83:
 9476 0074 00       		.uleb128 0
 9477 0075 00       		.uleb128 .LVU1016
 9478 0076 00       		.uleb128 .LVU1016
 9479 0077 00       		.uleb128 0
 9480              	.LLST83:
 9481 0078 00000000 		.4byte	.LVL230
 9482 007c 04000000 		.4byte	.LVL231
 9483 0080 0100     		.2byte	0x1
 9484 0082 50       		.byte	0x50
 9485 0083 04000000 		.4byte	.LVL231
 9486 0087 10000000 		.4byte	.LFE70
 9487 008b 0400     		.2byte	0x4
 9488 008d F3       		.byte	0xf3
 9489 008e 01       		.uleb128 0x1
 9490 008f 50       		.byte	0x50
 9491 0090 9F       		.byte	0x9f
 9492 0091 00000000 		.4byte	0
 9493 0095 00000000 		.4byte	0
 9494              	.LVUS85:
 9495 0099 02       		.uleb128 .LVU1064
 9496 009a 00       		.uleb128 .LVU1065
 9497 009b 00       		.uleb128 .LVU1065
 9498 009c 00       		.uleb128 .LVU1074
 9499              	.LLST85:
 9500 009d 02000000 		.4byte	.LVL238
 9501 00a1 04000000 		.4byte	.LVL239
 9502 00a5 0200     		.2byte	0x2
 9503 00a7 30       		.byte	0x30
 9504 00a8 9F       		.byte	0x9f
 9505 00a9 04000000 		.4byte	.LVL239
 9506 00ad 1D000000 		.4byte	.LVL241-1
 9507 00b1 0100     		.2byte	0x1
 9508 00b3 53       		.byte	0x53
 9509 00b4 00000000 		.4byte	0
 9510 00b8 00000000 		.4byte	0
 9511              	.LVUS81:
 9512 00bc 00       		.uleb128 0
 9513 00bd 00       		.uleb128 .LVU987
 9514 00be 00       		.uleb128 .LVU987
 9515 00bf 00       		.uleb128 .LVU994
 9516 00c0 00       		.uleb128 .LVU994
 9517 00c1 00       		.uleb128 .LVU995
 9518 00c2 00       		.uleb128 .LVU995
 9519 00c3 00       		.uleb128 0
 9520              	.LLST81:
 9521 00c4 00000000 		.4byte	.LVL224
 9522 00c8 08000000 		.4byte	.LVL225
 9523 00cc 0100     		.2byte	0x1
 9524 00ce 50       		.byte	0x50
 9525 00cf 08000000 		.4byte	.LVL225
 9526 00d3 18000000 		.4byte	.LVL226
 9527 00d7 0400     		.2byte	0x4
 9528 00d9 F3       		.byte	0xf3
 9529 00da 01       		.uleb128 0x1
 9530 00db 50       		.byte	0x50
ARM GAS  C:\Users\jens-\AppData\Local\Temp\ccdWTNhT.s 			page 231


 9531 00dc 9F       		.byte	0x9f
 9532 00dd 18000000 		.4byte	.LVL226
 9533 00e1 1A000000 		.4byte	.LVL227
 9534 00e5 0100     		.2byte	0x1
 9535 00e7 50       		.byte	0x50
 9536 00e8 1A000000 		.4byte	.LVL227
 9537 00ec 24000000 		.4byte	.LFE63
 9538 00f0 0400     		.2byte	0x4
 9539 00f2 F3       		.byte	0xf3
 9540 00f3 01       		.uleb128 0x1
 9541 00f4 50       		.byte	0x50
 9542 00f5 9F       		.byte	0x9f
 9543 00f6 00000000 		.4byte	0
 9544 00fa 00000000 		.4byte	0
 9545              	.LVUS82:
 9546 00fe 02       		.uleb128 .LVU989
 9547 00ff 00       		.uleb128 .LVU994
 9548              	.LLST82:
 9549 0100 08000000 		.4byte	.LVL225
 9550 0104 18000000 		.4byte	.LVL226
 9551 0108 0600     		.2byte	0x6
 9552 010a 9E       		.byte	0x9e
 9553 010b 04       		.uleb128 0x4
 9554 010c 00E100E0 		.4byte	0xe000e100
 9555 0110 00000000 		.4byte	0
 9556 0114 00000000 		.4byte	0
 9557              	.LVUS79:
 9558 0118 00       		.uleb128 0
 9559 0119 00       		.uleb128 .LVU974
 9560 011a 00       		.uleb128 .LVU974
 9561 011b 00       		.uleb128 .LVU981
 9562 011c 00       		.uleb128 .LVU981
 9563 011d 00       		.uleb128 .LVU982
 9564 011e 00       		.uleb128 .LVU982
 9565 011f 00       		.uleb128 0
 9566              	.LLST79:
 9567 0120 00000000 		.4byte	.LVL217
 9568 0124 08000000 		.4byte	.LVL218
 9569 0128 0100     		.2byte	0x1
 9570 012a 50       		.byte	0x50
 9571 012b 08000000 		.4byte	.LVL218
 9572 012f 1A000000 		.4byte	.LVL221
 9573 0133 0400     		.2byte	0x4
 9574 0135 F3       		.byte	0xf3
 9575 0136 01       		.uleb128 0x1
 9576 0137 50       		.byte	0x50
 9577 0138 9F       		.byte	0x9f
 9578 0139 1A000000 		.4byte	.LVL221
 9579 013d 1C000000 		.4byte	.LVL222
 9580 0141 0100     		.2byte	0x1
 9581 0143 50       		.byte	0x50
 9582 0144 1C000000 		.4byte	.LVL222
 9583 0148 22000000 		.4byte	.LFE62
 9584 014c 0400     		.2byte	0x4
 9585 014e F3       		.byte	0xf3
 9586 014f 01       		.uleb128 0x1
 9587 0150 50       		.byte	0x50
ARM GAS  C:\Users\jens-\AppData\Local\Temp\ccdWTNhT.s 			page 232


 9588 0151 9F       		.byte	0x9f
 9589 0152 00000000 		.4byte	0
 9590 0156 00000000 		.4byte	0
 9591              	.LVUS80:
 9592 015a 00       		.uleb128 .LVU978
 9593 015b 00       		.uleb128 .LVU980
 9594              	.LLST80:
 9595 015c 16000000 		.4byte	.LVL219
 9596 0160 18000000 		.4byte	.LVL220
 9597 0164 0500     		.2byte	0x5
 9598 0166 70       		.byte	0x70
 9599 0167 00       		.sleb128 0
 9600 0168 35       		.byte	0x35
 9601 0169 25       		.byte	0x25
 9602 016a 9F       		.byte	0x9f
 9603 016b 00000000 		.4byte	0
 9604 016f 00000000 		.4byte	0
 9605              	.LVUS77:
 9606 0173 00       		.uleb128 0
 9607 0174 00       		.uleb128 .LVU957
 9608 0175 00       		.uleb128 .LVU957
 9609 0176 00       		.uleb128 .LVU966
 9610 0177 00       		.uleb128 .LVU966
 9611 0178 00       		.uleb128 .LVU967
 9612 0179 00       		.uleb128 .LVU967
 9613 017a 00       		.uleb128 0
 9614              	.LLST77:
 9615 017b 00000000 		.4byte	.LVL211
 9616 017f 0A000000 		.4byte	.LVL212
 9617 0183 0100     		.2byte	0x1
 9618 0185 50       		.byte	0x50
 9619 0186 0A000000 		.4byte	.LVL212
 9620 018a 22000000 		.4byte	.LVL213
 9621 018e 0400     		.2byte	0x4
 9622 0190 F3       		.byte	0xf3
 9623 0191 01       		.uleb128 0x1
 9624 0192 50       		.byte	0x50
 9625 0193 9F       		.byte	0x9f
 9626 0194 22000000 		.4byte	.LVL213
 9627 0198 24000000 		.4byte	.LVL214
 9628 019c 0100     		.2byte	0x1
 9629 019e 50       		.byte	0x50
 9630 019f 24000000 		.4byte	.LVL214
 9631 01a3 32000000 		.4byte	.LFE61
 9632 01a7 0400     		.2byte	0x4
 9633 01a9 F3       		.byte	0xf3
 9634 01aa 01       		.uleb128 0x1
 9635 01ab 50       		.byte	0x50
 9636 01ac 9F       		.byte	0x9f
 9637 01ad 00000000 		.4byte	0
 9638 01b1 00000000 		.4byte	0
 9639              	.LVUS78:
 9640 01b5 00       		.uleb128 0
 9641 01b6 00       		.uleb128 .LVU957
 9642 01b7 00       		.uleb128 .LVU957
 9643 01b8 00       		.uleb128 .LVU966
 9644 01b9 00       		.uleb128 .LVU966
ARM GAS  C:\Users\jens-\AppData\Local\Temp\ccdWTNhT.s 			page 233


 9645 01ba 00       		.uleb128 .LVU968
 9646 01bb 00       		.uleb128 .LVU968
 9647 01bc 00       		.uleb128 0
 9648              	.LLST78:
 9649 01bd 00000000 		.4byte	.LVL211
 9650 01c1 0A000000 		.4byte	.LVL212
 9651 01c5 0100     		.2byte	0x1
 9652 01c7 51       		.byte	0x51
 9653 01c8 0A000000 		.4byte	.LVL212
 9654 01cc 22000000 		.4byte	.LVL213
 9655 01d0 0400     		.2byte	0x4
 9656 01d2 F3       		.byte	0xf3
 9657 01d3 01       		.uleb128 0x1
 9658 01d4 51       		.byte	0x51
 9659 01d5 9F       		.byte	0x9f
 9660 01d6 22000000 		.4byte	.LVL213
 9661 01da 27000000 		.4byte	.LVL215-1
 9662 01de 0100     		.2byte	0x1
 9663 01e0 51       		.byte	0x51
 9664 01e1 27000000 		.4byte	.LVL215-1
 9665 01e5 32000000 		.4byte	.LFE61
 9666 01e9 0400     		.2byte	0x4
 9667 01eb F3       		.byte	0xf3
 9668 01ec 01       		.uleb128 0x1
 9669 01ed 51       		.byte	0x51
 9670 01ee 9F       		.byte	0x9f
 9671 01ef 00000000 		.4byte	0
 9672 01f3 00000000 		.4byte	0
 9673              	.LVUS75:
 9674 01f7 00       		.uleb128 0
 9675 01f8 00       		.uleb128 .LVU947
 9676 01f9 00       		.uleb128 .LVU947
 9677 01fa 00       		.uleb128 .LVU952
 9678 01fb 00       		.uleb128 .LVU952
 9679 01fc 00       		.uleb128 .LVU953
 9680 01fd 00       		.uleb128 .LVU953
 9681 01fe 00       		.uleb128 0
 9682              	.LLST75:
 9683 01ff 00000000 		.4byte	.LVL205
 9684 0203 0C000000 		.4byte	.LVL207
 9685 0207 0100     		.2byte	0x1
 9686 0209 50       		.byte	0x50
 9687 020a 0C000000 		.4byte	.LVL207
 9688 020e 18000000 		.4byte	.LVL208
 9689 0212 0400     		.2byte	0x4
 9690 0214 F3       		.byte	0xf3
 9691 0215 01       		.uleb128 0x1
 9692 0216 50       		.byte	0x50
 9693 0217 9F       		.byte	0x9f
 9694 0218 18000000 		.4byte	.LVL208
 9695 021c 1A000000 		.4byte	.LVL209
 9696 0220 0100     		.2byte	0x1
 9697 0222 50       		.byte	0x50
 9698 0223 1A000000 		.4byte	.LVL209
 9699 0227 24000000 		.4byte	.LFE60
 9700 022b 0400     		.2byte	0x4
 9701 022d F3       		.byte	0xf3
ARM GAS  C:\Users\jens-\AppData\Local\Temp\ccdWTNhT.s 			page 234


 9702 022e 01       		.uleb128 0x1
 9703 022f 50       		.byte	0x50
 9704 0230 9F       		.byte	0x9f
 9705 0231 00000000 		.4byte	0
 9706 0235 00000000 		.4byte	0
 9707              	.LVUS76:
 9708 0239 00       		.uleb128 .LVU946
 9709 023a 00       		.uleb128 0
 9710              	.LLST76:
 9711 023b 08000000 		.4byte	.LVL206
 9712 023f 24000000 		.4byte	.LFE60
 9713 0243 0100     		.2byte	0x1
 9714 0245 55       		.byte	0x55
 9715 0246 00000000 		.4byte	0
 9716 024a 00000000 		.4byte	0
 9717              	.LVUS71:
 9718 024e 00       		.uleb128 0
 9719 024f 00       		.uleb128 .LVU930
 9720 0250 00       		.uleb128 .LVU930
 9721 0251 00       		.uleb128 .LVU939
 9722 0252 00       		.uleb128 .LVU939
 9723 0253 00       		.uleb128 .LVU940
 9724 0254 00       		.uleb128 .LVU940
 9725 0255 00       		.uleb128 0
 9726              	.LLST71:
 9727 0256 00000000 		.4byte	.LVL198
 9728 025a 0E000000 		.4byte	.LVL200
 9729 025e 0100     		.2byte	0x1
 9730 0260 50       		.byte	0x50
 9731 0261 0E000000 		.4byte	.LVL200
 9732 0265 1E000000 		.4byte	.LVL202
 9733 0269 0400     		.2byte	0x4
 9734 026b F3       		.byte	0xf3
 9735 026c 01       		.uleb128 0x1
 9736 026d 50       		.byte	0x50
 9737 026e 9F       		.byte	0x9f
 9738 026f 1E000000 		.4byte	.LVL202
 9739 0273 20000000 		.4byte	.LVL203
 9740 0277 0100     		.2byte	0x1
 9741 0279 50       		.byte	0x50
 9742 027a 20000000 		.4byte	.LVL203
 9743 027e 2C000000 		.4byte	.LFE59
 9744 0282 0400     		.2byte	0x4
 9745 0284 F3       		.byte	0xf3
 9746 0285 01       		.uleb128 0x1
 9747 0286 50       		.byte	0x50
 9748 0287 9F       		.byte	0x9f
 9749 0288 00000000 		.4byte	0
 9750 028c 00000000 		.4byte	0
 9751              	.LVUS72:
 9752 0290 00       		.uleb128 0
 9753 0291 00       		.uleb128 .LVU930
 9754 0292 00       		.uleb128 .LVU930
 9755 0293 00       		.uleb128 .LVU939
 9756 0294 00       		.uleb128 .LVU939
 9757 0295 00       		.uleb128 .LVU941
 9758 0296 00       		.uleb128 .LVU941
ARM GAS  C:\Users\jens-\AppData\Local\Temp\ccdWTNhT.s 			page 235


 9759 0297 00       		.uleb128 0
 9760              	.LLST72:
 9761 0298 00000000 		.4byte	.LVL198
 9762 029c 0E000000 		.4byte	.LVL200
 9763 02a0 0100     		.2byte	0x1
 9764 02a2 51       		.byte	0x51
 9765 02a3 0E000000 		.4byte	.LVL200
 9766 02a7 1E000000 		.4byte	.LVL202
 9767 02ab 0100     		.2byte	0x1
 9768 02ad 55       		.byte	0x55
 9769 02ae 1E000000 		.4byte	.LVL202
 9770 02b2 23000000 		.4byte	.LVL204-1
 9771 02b6 0100     		.2byte	0x1
 9772 02b8 51       		.byte	0x51
 9773 02b9 23000000 		.4byte	.LVL204-1
 9774 02bd 2C000000 		.4byte	.LFE59
 9775 02c1 0100     		.2byte	0x1
 9776 02c3 55       		.byte	0x55
 9777 02c4 00000000 		.4byte	0
 9778 02c8 00000000 		.4byte	0
 9779              	.LVUS73:
 9780 02cc 00       		.uleb128 .LVU935
 9781 02cd 00       		.uleb128 .LVU939
 9782              	.LLST73:
 9783 02ce 18000000 		.4byte	.LVL201
 9784 02d2 1E000000 		.4byte	.LVL202
 9785 02d6 0100     		.2byte	0x1
 9786 02d8 50       		.byte	0x50
 9787 02d9 00000000 		.4byte	0
 9788 02dd 00000000 		.4byte	0
 9789              	.LVUS74:
 9790 02e1 00       		.uleb128 .LVU929
 9791 02e2 00       		.uleb128 0
 9792              	.LLST74:
 9793 02e3 0A000000 		.4byte	.LVL199
 9794 02e7 2C000000 		.4byte	.LFE59
 9795 02eb 0100     		.2byte	0x1
 9796 02ed 56       		.byte	0x56
 9797 02ee 00000000 		.4byte	0
 9798 02f2 00000000 		.4byte	0
 9799              	.LVUS69:
 9800 02f6 00       		.uleb128 0
 9801 02f7 00       		.uleb128 .LVU918
 9802 02f8 00       		.uleb128 .LVU918
 9803 02f9 00       		.uleb128 .LVU922
 9804 02fa 00       		.uleb128 .LVU922
 9805 02fb 00       		.uleb128 .LVU923
 9806 02fc 00       		.uleb128 .LVU923
 9807 02fd 00       		.uleb128 0
 9808              	.LLST69:
 9809 02fe 00000000 		.4byte	.LVL192
 9810 0302 0C000000 		.4byte	.LVL194
 9811 0306 0100     		.2byte	0x1
 9812 0308 50       		.byte	0x50
 9813 0309 0C000000 		.4byte	.LVL194
 9814 030d 16000000 		.4byte	.LVL195
 9815 0311 0400     		.2byte	0x4
ARM GAS  C:\Users\jens-\AppData\Local\Temp\ccdWTNhT.s 			page 236


 9816 0313 F3       		.byte	0xf3
 9817 0314 01       		.uleb128 0x1
 9818 0315 50       		.byte	0x50
 9819 0316 9F       		.byte	0x9f
 9820 0317 16000000 		.4byte	.LVL195
 9821 031b 18000000 		.4byte	.LVL196
 9822 031f 0100     		.2byte	0x1
 9823 0321 50       		.byte	0x50
 9824 0322 18000000 		.4byte	.LVL196
 9825 0326 24000000 		.4byte	.LFE58
 9826 032a 0400     		.2byte	0x4
 9827 032c F3       		.byte	0xf3
 9828 032d 01       		.uleb128 0x1
 9829 032e 50       		.byte	0x50
 9830 032f 9F       		.byte	0x9f
 9831 0330 00000000 		.4byte	0
 9832 0334 00000000 		.4byte	0
 9833              	.LVUS70:
 9834 0338 00       		.uleb128 .LVU917
 9835 0339 00       		.uleb128 0
 9836              	.LLST70:
 9837 033a 08000000 		.4byte	.LVL193
 9838 033e 24000000 		.4byte	.LFE58
 9839 0342 0100     		.2byte	0x1
 9840 0344 55       		.byte	0x55
 9841 0345 00000000 		.4byte	0
 9842 0349 00000000 		.4byte	0
 9843              	.LVUS65:
 9844 034d 00       		.uleb128 0
 9845 034e 00       		.uleb128 .LVU902
 9846 034f 00       		.uleb128 .LVU902
 9847 0350 00       		.uleb128 .LVU910
 9848 0351 00       		.uleb128 .LVU910
 9849 0352 00       		.uleb128 .LVU911
 9850 0353 00       		.uleb128 .LVU911
 9851 0354 00       		.uleb128 0
 9852              	.LLST65:
 9853 0355 00000000 		.4byte	.LVL185
 9854 0359 0E000000 		.4byte	.LVL187
 9855 035d 0100     		.2byte	0x1
 9856 035f 50       		.byte	0x50
 9857 0360 0E000000 		.4byte	.LVL187
 9858 0364 1C000000 		.4byte	.LVL189
 9859 0368 0400     		.2byte	0x4
 9860 036a F3       		.byte	0xf3
 9861 036b 01       		.uleb128 0x1
 9862 036c 50       		.byte	0x50
 9863 036d 9F       		.byte	0x9f
 9864 036e 1C000000 		.4byte	.LVL189
 9865 0372 1E000000 		.4byte	.LVL190
 9866 0376 0100     		.2byte	0x1
 9867 0378 50       		.byte	0x50
 9868 0379 1E000000 		.4byte	.LVL190
 9869 037d 28000000 		.4byte	.LFE57
 9870 0381 0400     		.2byte	0x4
 9871 0383 F3       		.byte	0xf3
 9872 0384 01       		.uleb128 0x1
ARM GAS  C:\Users\jens-\AppData\Local\Temp\ccdWTNhT.s 			page 237


 9873 0385 50       		.byte	0x50
 9874 0386 9F       		.byte	0x9f
 9875 0387 00000000 		.4byte	0
 9876 038b 00000000 		.4byte	0
 9877              	.LVUS66:
 9878 038f 00       		.uleb128 0
 9879 0390 00       		.uleb128 .LVU902
 9880 0391 00       		.uleb128 .LVU902
 9881 0392 00       		.uleb128 .LVU910
 9882 0393 00       		.uleb128 .LVU910
 9883 0394 00       		.uleb128 .LVU912
 9884 0395 00       		.uleb128 .LVU912
 9885 0396 00       		.uleb128 0
 9886              	.LLST66:
 9887 0397 00000000 		.4byte	.LVL185
 9888 039b 0E000000 		.4byte	.LVL187
 9889 039f 0100     		.2byte	0x1
 9890 03a1 51       		.byte	0x51
 9891 03a2 0E000000 		.4byte	.LVL187
 9892 03a6 1C000000 		.4byte	.LVL189
 9893 03aa 0100     		.2byte	0x1
 9894 03ac 55       		.byte	0x55
 9895 03ad 1C000000 		.4byte	.LVL189
 9896 03b1 21000000 		.4byte	.LVL191-1
 9897 03b5 0100     		.2byte	0x1
 9898 03b7 51       		.byte	0x51
 9899 03b8 21000000 		.4byte	.LVL191-1
 9900 03bc 28000000 		.4byte	.LFE57
 9901 03c0 0100     		.2byte	0x1
 9902 03c2 55       		.byte	0x55
 9903 03c3 00000000 		.4byte	0
 9904 03c7 00000000 		.4byte	0
 9905              	.LVUS67:
 9906 03cb 00       		.uleb128 .LVU906
 9907 03cc 00       		.uleb128 .LVU910
 9908              	.LLST67:
 9909 03cd 16000000 		.4byte	.LVL188
 9910 03d1 1C000000 		.4byte	.LVL189
 9911 03d5 0100     		.2byte	0x1
 9912 03d7 50       		.byte	0x50
 9913 03d8 00000000 		.4byte	0
 9914 03dc 00000000 		.4byte	0
 9915              	.LVUS68:
 9916 03e0 00       		.uleb128 .LVU901
 9917 03e1 00       		.uleb128 0
 9918              	.LLST68:
 9919 03e2 0A000000 		.4byte	.LVL186
 9920 03e6 28000000 		.4byte	.LFE57
 9921 03ea 0100     		.2byte	0x1
 9922 03ec 56       		.byte	0x56
 9923 03ed 00000000 		.4byte	0
 9924 03f1 00000000 		.4byte	0
 9925              	.LVUS64:
 9926 03f5 00       		.uleb128 .LVU874
 9927 03f6 00       		.uleb128 .LVU895
 9928              	.LLST64:
 9929 03f7 06000000 		.4byte	.LVL183
ARM GAS  C:\Users\jens-\AppData\Local\Temp\ccdWTNhT.s 			page 238


 9930 03fb 3B000000 		.4byte	.LVL184-1
 9931 03ff 0100     		.2byte	0x1
 9932 0401 50       		.byte	0x50
 9933 0402 00000000 		.4byte	0
 9934 0406 00000000 		.4byte	0
 9935              	.LVUS62:
 9936 040a 00       		.uleb128 0
 9937 040b 00       		.uleb128 .LVU866
 9938 040c 00       		.uleb128 .LVU866
 9939 040d 00       		.uleb128 .LVU869
 9940 040e 00       		.uleb128 .LVU869
 9941 040f 00       		.uleb128 0
 9942              	.LLST62:
 9943 0410 00000000 		.4byte	.LVL179
 9944 0414 07000000 		.4byte	.LVL180-1
 9945 0418 0100     		.2byte	0x1
 9946 041a 50       		.byte	0x50
 9947 041b 07000000 		.4byte	.LVL180-1
 9948 041f 12000000 		.4byte	.LVL182
 9949 0423 0100     		.2byte	0x1
 9950 0425 54       		.byte	0x54
 9951 0426 12000000 		.4byte	.LVL182
 9952 042a 18000000 		.4byte	.LFE55
 9953 042e 0400     		.2byte	0x4
 9954 0430 F3       		.byte	0xf3
 9955 0431 01       		.uleb128 0x1
 9956 0432 50       		.byte	0x50
 9957 0433 9F       		.byte	0x9f
 9958 0434 00000000 		.4byte	0
 9959 0438 00000000 		.4byte	0
 9960              	.LVUS63:
 9961 043c 00       		.uleb128 .LVU866
 9962 043d 00       		.uleb128 .LVU868
 9963              	.LLST63:
 9964 043e 08000000 		.4byte	.LVL180
 9965 0442 0F000000 		.4byte	.LVL181-1
 9966 0446 0100     		.2byte	0x1
 9967 0448 50       		.byte	0x50
 9968 0449 00000000 		.4byte	0
 9969 044d 00000000 		.4byte	0
 9970              	.LVUS60:
 9971 0451 00       		.uleb128 .LVU856
 9972 0452 00       		.uleb128 .LVU860
 9973 0453 00       		.uleb128 .LVU860
 9974 0454 00       		.uleb128 0
 9975              	.LLST60:
 9976 0455 0A000000 		.4byte	.LVL176
 9977 0459 18000000 		.4byte	.LVL178
 9978 045d 0100     		.2byte	0x1
 9979 045f 54       		.byte	0x54
 9980 0460 18000000 		.4byte	.LVL178
 9981 0464 1C000000 		.4byte	.LFE54
 9982 0468 0100     		.2byte	0x1
 9983 046a 50       		.byte	0x50
 9984 046b 00000000 		.4byte	0
 9985 046f 00000000 		.4byte	0
 9986              	.LVUS61:
ARM GAS  C:\Users\jens-\AppData\Local\Temp\ccdWTNhT.s 			page 239


 9987 0473 00       		.uleb128 .LVU854
 9988 0474 00       		.uleb128 .LVU858
 9989              	.LLST61:
 9990 0475 06000000 		.4byte	.LVL175
 9991 0479 13000000 		.4byte	.LVL177-1
 9992 047d 0100     		.2byte	0x1
 9993 047f 50       		.byte	0x50
 9994 0480 00000000 		.4byte	0
 9995 0484 00000000 		.4byte	0
 9996              	.LVUS58:
 9997 0488 00       		.uleb128 .LVU842
 9998 0489 00       		.uleb128 .LVU846
 9999              	.LLST58:
 10000 048a 06000000 		.4byte	.LVL171
 10001 048e 11000000 		.4byte	.LVL173-1
 10002 0492 0100     		.2byte	0x1
 10003 0494 50       		.byte	0x50
 10004 0495 00000000 		.4byte	0
 10005 0499 00000000 		.4byte	0
 10006              	.LVUS59:
 10007 049d 00       		.uleb128 .LVU845
 10008 049e 00       		.uleb128 .LVU848
 10009 049f 00       		.uleb128 .LVU848
 10010 04a0 00       		.uleb128 0
 10011              	.LLST59:
 10012 04a1 0E000000 		.4byte	.LVL172
 10013 04a5 16000000 		.4byte	.LVL174
 10014 04a9 0100     		.2byte	0x1
 10015 04ab 54       		.byte	0x54
 10016 04ac 16000000 		.4byte	.LVL174
 10017 04b0 1C000000 		.4byte	.LFE53
 10018 04b4 0100     		.2byte	0x1
 10019 04b6 50       		.byte	0x50
 10020 04b7 00000000 		.4byte	0
 10021 04bb 00000000 		.4byte	0
 10022              	.LVUS45:
 10023 04bf 00       		.uleb128 0
 10024 04c0 00       		.uleb128 .LVU695
 10025 04c1 00       		.uleb128 .LVU695
 10026 04c2 00       		.uleb128 0
 10027              	.LLST45:
 10028 04c3 00000000 		.4byte	.LVL139
 10029 04c7 07000000 		.4byte	.LVL140-1
 10030 04cb 0100     		.2byte	0x1
 10031 04cd 50       		.byte	0x50
 10032 04ce 07000000 		.4byte	.LVL140-1
 10033 04d2 2C000000 		.4byte	.LFE52
 10034 04d6 0400     		.2byte	0x4
 10035 04d8 F3       		.byte	0xf3
 10036 04d9 01       		.uleb128 0x1
 10037 04da 50       		.byte	0x50
 10038 04db 9F       		.byte	0x9f
 10039 04dc 00000000 		.4byte	0
 10040 04e0 00000000 		.4byte	0
 10041              	.LVUS46:
 10042 04e4 00       		.uleb128 .LVU695
 10043 04e5 00       		.uleb128 .LVU703
ARM GAS  C:\Users\jens-\AppData\Local\Temp\ccdWTNhT.s 			page 240


 10044              	.LLST46:
 10045 04e6 08000000 		.4byte	.LVL140
 10046 04ea 1F000000 		.4byte	.LVL142-1
 10047 04ee 0100     		.2byte	0x1
 10048 04f0 50       		.byte	0x50
 10049 04f1 00000000 		.4byte	0
 10050 04f5 00000000 		.4byte	0
 10051              	.LVUS47:
 10052 04f9 00       		.uleb128 .LVU700
 10053 04fa 00       		.uleb128 .LVU705
 10054 04fb 00       		.uleb128 .LVU705
 10055 04fc 00       		.uleb128 0
 10056              	.LLST47:
 10057 04fd 16000000 		.4byte	.LVL141
 10058 0501 24000000 		.4byte	.LVL143
 10059 0505 0100     		.2byte	0x1
 10060 0507 55       		.byte	0x55
 10061 0508 24000000 		.4byte	.LVL143
 10062 050c 2C000000 		.4byte	.LFE52
 10063 0510 0100     		.2byte	0x1
 10064 0512 50       		.byte	0x50
 10065 0513 00000000 		.4byte	0
 10066 0517 00000000 		.4byte	0
 10067              	.LVUS56:
 10068 051b 00       		.uleb128 .LVU812
 10069 051c 00       		.uleb128 .LVU827
 10070              	.LLST56:
 10071 051d 10000000 		.4byte	.LVL165
 10072 0521 44000000 		.4byte	.LVL169
 10073 0525 0100     		.2byte	0x1
 10074 0527 55       		.byte	0x55
 10075 0528 00000000 		.4byte	0
 10076 052c 00000000 		.4byte	0
 10077              	.LVUS57:
 10078 0530 00       		.uleb128 .LVU809
 10079 0531 00       		.uleb128 .LVU827
 10080              	.LLST57:
 10081 0532 08000000 		.4byte	.LVL164
 10082 0536 44000000 		.4byte	.LVL169
 10083 053a 0100     		.2byte	0x1
 10084 053c 54       		.byte	0x54
 10085 053d 00000000 		.4byte	0
 10086 0541 00000000 		.4byte	0
 10087              	.LVUS52:
 10088 0545 00       		.uleb128 0
 10089 0546 00       		.uleb128 .LVU749
 10090 0547 00       		.uleb128 .LVU749
 10091 0548 00       		.uleb128 0
 10092              	.LLST52:
 10093 0549 00000000 		.4byte	.LVL152
 10094 054d 09000000 		.4byte	.LVL153-1
 10095 0551 0100     		.2byte	0x1
 10096 0553 50       		.byte	0x50
 10097 0554 09000000 		.4byte	.LVL153-1
 10098 0558 80000000 		.4byte	.LFE47
 10099 055c 0400     		.2byte	0x4
 10100 055e F3       		.byte	0xf3
ARM GAS  C:\Users\jens-\AppData\Local\Temp\ccdWTNhT.s 			page 241


 10101 055f 01       		.uleb128 0x1
 10102 0560 50       		.byte	0x50
 10103 0561 9F       		.byte	0x9f
 10104 0562 00000000 		.4byte	0
 10105 0566 00000000 		.4byte	0
 10106              	.LVUS53:
 10107 056a 00       		.uleb128 0
 10108 056b 00       		.uleb128 .LVU749
 10109 056c 00       		.uleb128 .LVU749
 10110 056d 00       		.uleb128 0
 10111              	.LLST53:
 10112 056e 00000000 		.4byte	.LVL152
 10113 0572 09000000 		.4byte	.LVL153-1
 10114 0576 0100     		.2byte	0x1
 10115 0578 51       		.byte	0x51
 10116 0579 09000000 		.4byte	.LVL153-1
 10117 057d 80000000 		.4byte	.LFE47
 10118 0581 0400     		.2byte	0x4
 10119 0583 F3       		.byte	0xf3
 10120 0584 01       		.uleb128 0x1
 10121 0585 51       		.byte	0x51
 10122 0586 9F       		.byte	0x9f
 10123 0587 00000000 		.4byte	0
 10124 058b 00000000 		.4byte	0
 10125              	.LVUS54:
 10126 058f 00       		.uleb128 .LVU753
 10127 0590 00       		.uleb128 0
 10128              	.LLST54:
 10129 0591 14000000 		.4byte	.LVL155
 10130 0595 80000000 		.4byte	.LFE47
 10131 0599 0100     		.2byte	0x1
 10132 059b 56       		.byte	0x56
 10133 059c 00000000 		.4byte	0
 10134 05a0 00000000 		.4byte	0
 10135              	.LVUS55:
 10136 05a4 00       		.uleb128 .LVU750
 10137 05a5 00       		.uleb128 0
 10138              	.LLST55:
 10139 05a6 0C000000 		.4byte	.LVL154
 10140 05aa 80000000 		.4byte	.LFE47
 10141 05ae 0100     		.2byte	0x1
 10142 05b0 55       		.byte	0x55
 10143 05b1 00000000 		.4byte	0
 10144 05b5 00000000 		.4byte	0
 10145              	.LVUS48:
 10146 05b9 00       		.uleb128 0
 10147 05ba 00       		.uleb128 .LVU712
 10148 05bb 00       		.uleb128 .LVU712
 10149 05bc 00       		.uleb128 0
 10150              	.LLST48:
 10151 05bd 00000000 		.4byte	.LVL144
 10152 05c1 0B000000 		.4byte	.LVL145-1
 10153 05c5 0100     		.2byte	0x1
 10154 05c7 50       		.byte	0x50
 10155 05c8 0B000000 		.4byte	.LVL145-1
 10156 05cc 90000000 		.4byte	.LFE46
 10157 05d0 0400     		.2byte	0x4
ARM GAS  C:\Users\jens-\AppData\Local\Temp\ccdWTNhT.s 			page 242


 10158 05d2 F3       		.byte	0xf3
 10159 05d3 01       		.uleb128 0x1
 10160 05d4 50       		.byte	0x50
 10161 05d5 9F       		.byte	0x9f
 10162 05d6 00000000 		.4byte	0
 10163 05da 00000000 		.4byte	0
 10164              	.LVUS49:
 10165 05de 00       		.uleb128 0
 10166 05df 00       		.uleb128 .LVU712
 10167 05e0 00       		.uleb128 .LVU712
 10168 05e1 00       		.uleb128 0
 10169              	.LLST49:
 10170 05e2 00000000 		.4byte	.LVL144
 10171 05e6 0B000000 		.4byte	.LVL145-1
 10172 05ea 0100     		.2byte	0x1
 10173 05ec 51       		.byte	0x51
 10174 05ed 0B000000 		.4byte	.LVL145-1
 10175 05f1 90000000 		.4byte	.LFE46
 10176 05f5 0400     		.2byte	0x4
 10177 05f7 F3       		.byte	0xf3
 10178 05f8 01       		.uleb128 0x1
 10179 05f9 51       		.byte	0x51
 10180 05fa 9F       		.byte	0x9f
 10181 05fb 00000000 		.4byte	0
 10182 05ff 00000000 		.4byte	0
 10183              	.LVUS50:
 10184 0603 00       		.uleb128 .LVU716
 10185 0604 00       		.uleb128 0
 10186              	.LLST50:
 10187 0605 16000000 		.4byte	.LVL147
 10188 0609 90000000 		.4byte	.LFE46
 10189 060d 0100     		.2byte	0x1
 10190 060f 56       		.byte	0x56
 10191 0610 00000000 		.4byte	0
 10192 0614 00000000 		.4byte	0
 10193              	.LVUS51:
 10194 0618 00       		.uleb128 .LVU713
 10195 0619 00       		.uleb128 0
 10196              	.LLST51:
 10197 061a 0E000000 		.4byte	.LVL146
 10198 061e 90000000 		.4byte	.LFE46
 10199 0622 0100     		.2byte	0x1
 10200 0624 55       		.byte	0x55
 10201 0625 00000000 		.4byte	0
 10202 0629 00000000 		.4byte	0
 10203              	.LVUS43:
 10204 062d 00       		.uleb128 0
 10205 062e 00       		.uleb128 .LVU668
 10206 062f 00       		.uleb128 .LVU668
 10207 0630 00       		.uleb128 0
 10208              	.LLST43:
 10209 0631 00000000 		.4byte	.LVL136
 10210 0635 0C000000 		.4byte	.LVL137
 10211 0639 0100     		.2byte	0x1
 10212 063b 50       		.byte	0x50
 10213 063c 0C000000 		.4byte	.LVL137
 10214 0640 40000000 		.4byte	.LFE44
ARM GAS  C:\Users\jens-\AppData\Local\Temp\ccdWTNhT.s 			page 243


 10215 0644 0400     		.2byte	0x4
 10216 0646 F3       		.byte	0xf3
 10217 0647 01       		.uleb128 0x1
 10218 0648 50       		.byte	0x50
 10219 0649 9F       		.byte	0x9f
 10220 064a 00000000 		.4byte	0
 10221 064e 00000000 		.4byte	0
 10222              	.LVUS44:
 10223 0652 00       		.uleb128 0
 10224 0653 00       		.uleb128 .LVU676
 10225 0654 00       		.uleb128 .LVU676
 10226 0655 00       		.uleb128 0
 10227              	.LLST44:
 10228 0656 00000000 		.4byte	.LVL136
 10229 065a 22000000 		.4byte	.LVL138
 10230 065e 0100     		.2byte	0x1
 10231 0660 51       		.byte	0x51
 10232 0661 22000000 		.4byte	.LVL138
 10233 0665 40000000 		.4byte	.LFE44
 10234 0669 0400     		.2byte	0x4
 10235 066b F3       		.byte	0xf3
 10236 066c 01       		.uleb128 0x1
 10237 066d 51       		.byte	0x51
 10238 066e 9F       		.byte	0x9f
 10239 066f 00000000 		.4byte	0
 10240 0673 00000000 		.4byte	0
 10241              	.LVUS42:
 10242 0677 00       		.uleb128 0
 10243 0678 00       		.uleb128 .LVU650
 10244 0679 00       		.uleb128 .LVU650
 10245 067a 00       		.uleb128 .LVU661
 10246 067b 00       		.uleb128 .LVU661
 10247 067c 00       		.uleb128 0
 10248              	.LLST42:
 10249 067d 00000000 		.4byte	.LVL133
 10250 0681 14000000 		.4byte	.LVL134
 10251 0685 0100     		.2byte	0x1
 10252 0687 50       		.byte	0x50
 10253 0688 14000000 		.4byte	.LVL134
 10254 068c 32000000 		.4byte	.LVL135
 10255 0690 0400     		.2byte	0x4
 10256 0692 F3       		.byte	0xf3
 10257 0693 01       		.uleb128 0x1
 10258 0694 50       		.byte	0x50
 10259 0695 9F       		.byte	0x9f
 10260 0696 32000000 		.4byte	.LVL135
 10261 069a 4C000000 		.4byte	.LFE43
 10262 069e 0100     		.2byte	0x1
 10263 06a0 50       		.byte	0x50
 10264 06a1 00000000 		.4byte	0
 10265 06a5 00000000 		.4byte	0
 10266              	.LVUS39:
 10267 06a9 00       		.uleb128 0
 10268 06aa 00       		.uleb128 .LVU578
 10269 06ab 00       		.uleb128 .LVU578
 10270 06ac 00       		.uleb128 0
 10271              	.LLST39:
ARM GAS  C:\Users\jens-\AppData\Local\Temp\ccdWTNhT.s 			page 244


 10272 06ad 00000000 		.4byte	.LVL119
 10273 06b1 0A000000 		.4byte	.LVL120
 10274 06b5 0100     		.2byte	0x1
 10275 06b7 50       		.byte	0x50
 10276 06b8 0A000000 		.4byte	.LVL120
 10277 06bc 14000000 		.4byte	.LFE42
 10278 06c0 0400     		.2byte	0x4
 10279 06c2 F3       		.byte	0xf3
 10280 06c3 01       		.uleb128 0x1
 10281 06c4 50       		.byte	0x50
 10282 06c5 9F       		.byte	0x9f
 10283 06c6 00000000 		.4byte	0
 10284 06ca 00000000 		.4byte	0
 10285              	.LVUS38:
 10286 06ce 00       		.uleb128 0
 10287 06cf 01       		.uleb128 .LVU567
 10288 06d0 01       		.uleb128 .LVU567
 10289 06d1 00       		.uleb128 .LVU574
 10290              	.LLST38:
 10291 06d2 00000000 		.4byte	.LVL113
 10292 06d6 04000000 		.4byte	.LVL114
 10293 06da 0100     		.2byte	0x1
 10294 06dc 50       		.byte	0x50
 10295 06dd 04000000 		.4byte	.LVL114
 10296 06e1 26000000 		.4byte	.LVL118
 10297 06e5 0100     		.2byte	0x1
 10298 06e7 54       		.byte	0x54
 10299 06e8 00000000 		.4byte	0
 10300 06ec 00000000 		.4byte	0
 10301              	.LVUS27:
 10302 06f0 00       		.uleb128 0
 10303 06f1 00       		.uleb128 .LVU347
 10304 06f2 00       		.uleb128 .LVU347
 10305 06f3 00       		.uleb128 0
 10306              	.LLST27:
 10307 06f4 00000000 		.4byte	.LVL69
 10308 06f8 0A000000 		.4byte	.LVL70
 10309 06fc 0100     		.2byte	0x1
 10310 06fe 50       		.byte	0x50
 10311 06ff 0A000000 		.4byte	.LVL70
 10312 0703 18000000 		.4byte	.LFE38
 10313 0707 0400     		.2byte	0x4
 10314 0709 F3       		.byte	0xf3
 10315 070a 01       		.uleb128 0x1
 10316 070b 50       		.byte	0x50
 10317 070c 9F       		.byte	0x9f
 10318 070d 00000000 		.4byte	0
 10319 0711 00000000 		.4byte	0
 10320              	.LVUS26:
 10321 0715 00       		.uleb128 0
 10322 0716 00       		.uleb128 .LVU339
 10323 0717 00       		.uleb128 .LVU339
 10324 0718 00       		.uleb128 0
 10325              	.LLST26:
 10326 0719 00000000 		.4byte	.LVL67
 10327 071d 0C000000 		.4byte	.LVL68
 10328 0721 0100     		.2byte	0x1
ARM GAS  C:\Users\jens-\AppData\Local\Temp\ccdWTNhT.s 			page 245


 10329 0723 50       		.byte	0x50
 10330 0724 0C000000 		.4byte	.LVL68
 10331 0728 18000000 		.4byte	.LFE37
 10332 072c 0400     		.2byte	0x4
 10333 072e F3       		.byte	0xf3
 10334 072f 01       		.uleb128 0x1
 10335 0730 50       		.byte	0x50
 10336 0731 9F       		.byte	0x9f
 10337 0732 00000000 		.4byte	0
 10338 0736 00000000 		.4byte	0
 10339              	.LVUS25:
 10340 073a 00       		.uleb128 0
 10341 073b 00       		.uleb128 .LVU331
 10342 073c 00       		.uleb128 .LVU331
 10343 073d 00       		.uleb128 0
 10344              	.LLST25:
 10345 073e 00000000 		.4byte	.LVL65
 10346 0742 0C000000 		.4byte	.LVL66
 10347 0746 0100     		.2byte	0x1
 10348 0748 50       		.byte	0x50
 10349 0749 0C000000 		.4byte	.LVL66
 10350 074d 18000000 		.4byte	.LFE36
 10351 0751 0400     		.2byte	0x4
 10352 0753 F3       		.byte	0xf3
 10353 0754 01       		.uleb128 0x1
 10354 0755 50       		.byte	0x50
 10355 0756 9F       		.byte	0x9f
 10356 0757 00000000 		.4byte	0
 10357 075b 00000000 		.4byte	0
 10358              	.LVUS20:
 10359 075f 00       		.uleb128 0
 10360 0760 01       		.uleb128 .LVU259
 10361 0761 01       		.uleb128 .LVU259
 10362 0762 00       		.uleb128 .LVU260
 10363 0763 00       		.uleb128 .LVU260
 10364 0764 00       		.uleb128 .LVU267
 10365 0765 00       		.uleb128 .LVU267
 10366 0766 00       		.uleb128 0
 10367              	.LLST20:
 10368 0767 00000000 		.4byte	.LVL51
 10369 076b 16000000 		.4byte	.LVL53
 10370 076f 0100     		.2byte	0x1
 10371 0771 50       		.byte	0x50
 10372 0772 16000000 		.4byte	.LVL53
 10373 0776 1C000000 		.4byte	.LVL54
 10374 077a 0400     		.2byte	0x4
 10375 077c F3       		.byte	0xf3
 10376 077d 01       		.uleb128 0x1
 10377 077e 50       		.byte	0x50
 10378 077f 9F       		.byte	0x9f
 10379 0780 1C000000 		.4byte	.LVL54
 10380 0784 30000000 		.4byte	.LVL58
 10381 0788 0100     		.2byte	0x1
 10382 078a 50       		.byte	0x50
 10383 078b 30000000 		.4byte	.LVL58
 10384 078f A8000000 		.4byte	.LFE29
 10385 0793 0400     		.2byte	0x4
ARM GAS  C:\Users\jens-\AppData\Local\Temp\ccdWTNhT.s 			page 246


 10386 0795 F3       		.byte	0xf3
 10387 0796 01       		.uleb128 0x1
 10388 0797 50       		.byte	0x50
 10389 0798 9F       		.byte	0x9f
 10390 0799 00000000 		.4byte	0
 10391 079d 00000000 		.4byte	0
 10392              	.LVUS21:
 10393 07a1 01       		.uleb128 .LVU247
 10394 07a2 01       		.uleb128 .LVU259
 10395 07a3 00       		.uleb128 .LVU260
 10396 07a4 01       		.uleb128 .LVU269
 10397 07a5 01       		.uleb128 .LVU269
 10398 07a6 00       		.uleb128 .LVU292
 10399 07a7 00       		.uleb128 .LVU292
 10400 07a8 00       		.uleb128 .LVU298
 10401 07a9 00       		.uleb128 .LVU298
 10402 07aa 00       		.uleb128 .LVU299
 10403 07ab 00       		.uleb128 .LVU299
 10404 07ac 00       		.uleb128 0
 10405              	.LLST21:
 10406 07ad 04000000 		.4byte	.LVL52
 10407 07b1 16000000 		.4byte	.LVL53
 10408 07b5 0200     		.2byte	0x2
 10409 07b7 30       		.byte	0x30
 10410 07b8 9F       		.byte	0x9f
 10411 07b9 1C000000 		.4byte	.LVL54
 10412 07bd 34000000 		.4byte	.LVL59
 10413 07c1 0200     		.2byte	0x2
 10414 07c3 30       		.byte	0x30
 10415 07c4 9F       		.byte	0x9f
 10416 07c5 34000000 		.4byte	.LVL59
 10417 07c9 80000000 		.4byte	.LVL61
 10418 07cd 0200     		.2byte	0x2
 10419 07cf 40       		.byte	0x40
 10420 07d0 9F       		.byte	0x9f
 10421 07d1 80000000 		.4byte	.LVL61
 10422 07d5 90000000 		.4byte	.LVL62
 10423 07d9 0100     		.2byte	0x1
 10424 07db 57       		.byte	0x57
 10425 07dc 90000000 		.4byte	.LVL62
 10426 07e0 94000000 		.4byte	.LVL63
 10427 07e4 0200     		.2byte	0x2
 10428 07e6 40       		.byte	0x40
 10429 07e7 9F       		.byte	0x9f
 10430 07e8 94000000 		.4byte	.LVL63
 10431 07ec A8000000 		.4byte	.LFE29
 10432 07f0 0100     		.2byte	0x1
 10433 07f2 57       		.byte	0x57
 10434 07f3 00000000 		.4byte	0
 10435 07f7 00000000 		.4byte	0
 10436              	.LVUS22:
 10437 07fb 00       		.uleb128 .LVU262
 10438 07fc 00       		.uleb128 0
 10439              	.LLST22:
 10440 07fd 22000000 		.4byte	.LVL55
 10441 0801 A8000000 		.4byte	.LFE29
 10442 0805 0100     		.2byte	0x1
ARM GAS  C:\Users\jens-\AppData\Local\Temp\ccdWTNhT.s 			page 247


 10443 0807 56       		.byte	0x56
 10444 0808 00000000 		.4byte	0
 10445 080c 00000000 		.4byte	0
 10446              	.LVUS23:
 10447 0810 00       		.uleb128 .LVU264
 10448 0811 00       		.uleb128 0
 10449              	.LLST23:
 10450 0812 28000000 		.4byte	.LVL56
 10451 0816 A8000000 		.4byte	.LFE29
 10452 081a 0100     		.2byte	0x1
 10453 081c 55       		.byte	0x55
 10454 081d 00000000 		.4byte	0
 10455 0821 00000000 		.4byte	0
 10456              	.LVUS24:
 10457 0825 00       		.uleb128 .LVU266
 10458 0826 00       		.uleb128 0
 10459              	.LLST24:
 10460 0827 2E000000 		.4byte	.LVL57
 10461 082b A8000000 		.4byte	.LFE29
 10462 082f 0100     		.2byte	0x1
 10463 0831 54       		.byte	0x54
 10464 0832 00000000 		.4byte	0
 10465 0836 00000000 		.4byte	0
 10466              	.LVUS40:
 10467 083a 00       		.uleb128 0
 10468 083b 00       		.uleb128 .LVU592
 10469 083c 00       		.uleb128 .LVU592
 10470 083d 00       		.uleb128 .LVU602
 10471 083e 00       		.uleb128 .LVU602
 10472 083f 00       		.uleb128 .LVU605
 10473 0840 00       		.uleb128 .LVU605
 10474 0841 00       		.uleb128 0
 10475              	.LLST40:
 10476 0842 00000000 		.4byte	.LVL122
 10477 0846 20000000 		.4byte	.LVL124
 10478 084a 0100     		.2byte	0x1
 10479 084c 50       		.byte	0x50
 10480 084d 20000000 		.4byte	.LVL124
 10481 0851 40000000 		.4byte	.LVL126
 10482 0855 0400     		.2byte	0x4
 10483 0857 F3       		.byte	0xf3
 10484 0858 01       		.uleb128 0x1
 10485 0859 50       		.byte	0x50
 10486 085a 9F       		.byte	0x9f
 10487 085b 40000000 		.4byte	.LVL126
 10488 085f 4A000000 		.4byte	.LVL127
 10489 0863 0100     		.2byte	0x1
 10490 0865 50       		.byte	0x50
 10491 0866 4A000000 		.4byte	.LVL127
 10492 086a 80000000 		.4byte	.LFE28
 10493 086e 0400     		.2byte	0x4
 10494 0870 F3       		.byte	0xf3
 10495 0871 01       		.uleb128 0x1
 10496 0872 50       		.byte	0x50
 10497 0873 9F       		.byte	0x9f
 10498 0874 00000000 		.4byte	0
 10499 0878 00000000 		.4byte	0
ARM GAS  C:\Users\jens-\AppData\Local\Temp\ccdWTNhT.s 			page 248


 10500              	.LVUS41:
 10501 087c 00       		.uleb128 .LVU585
 10502 087d 00       		.uleb128 0
 10503              	.LLST41:
 10504 087e 0E000000 		.4byte	.LVL123
 10505 0882 80000000 		.4byte	.LFE28
 10506 0886 0100     		.2byte	0x1
 10507 0888 54       		.byte	0x54
 10508 0889 00000000 		.4byte	0
 10509 088d 00000000 		.4byte	0
 10510              	.LVUS18:
 10511 0891 00       		.uleb128 0
 10512 0892 00       		.uleb128 .LVU223
 10513 0893 00       		.uleb128 .LVU223
 10514 0894 00       		.uleb128 .LVU224
 10515 0895 00       		.uleb128 .LVU224
 10516 0896 00       		.uleb128 0
 10517              	.LLST18:
 10518 0897 00000000 		.4byte	.LVL47
 10519 089b 14000000 		.4byte	.LVL49
 10520 089f 0100     		.2byte	0x1
 10521 08a1 50       		.byte	0x50
 10522 08a2 14000000 		.4byte	.LVL49
 10523 08a6 16000000 		.4byte	.LVL50
 10524 08aa 0400     		.2byte	0x4
 10525 08ac F3       		.byte	0xf3
 10526 08ad 01       		.uleb128 0x1
 10527 08ae 50       		.byte	0x50
 10528 08af 9F       		.byte	0x9f
 10529 08b0 16000000 		.4byte	.LVL50
 10530 08b4 24000000 		.4byte	.LFE24
 10531 08b8 0100     		.2byte	0x1
 10532 08ba 50       		.byte	0x50
 10533 08bb 00000000 		.4byte	0
 10534 08bf 00000000 		.4byte	0
 10535              	.LVUS19:
 10536 08c3 00       		.uleb128 .LVU217
 10537 08c4 00       		.uleb128 0
 10538              	.LLST19:
 10539 08c5 06000000 		.4byte	.LVL48
 10540 08c9 24000000 		.4byte	.LFE24
 10541 08cd 0100     		.2byte	0x1
 10542 08cf 53       		.byte	0x53
 10543 08d0 00000000 		.4byte	0
 10544 08d4 00000000 		.4byte	0
 10545              	.LVUS17:
 10546 08d8 00       		.uleb128 0
 10547 08d9 00       		.uleb128 .LVU209
 10548 08da 00       		.uleb128 .LVU209
 10549 08db 00       		.uleb128 0
 10550              	.LLST17:
 10551 08dc 00000000 		.4byte	.LVL45
 10552 08e0 0C000000 		.4byte	.LVL46
 10553 08e4 0100     		.2byte	0x1
 10554 08e6 50       		.byte	0x50
 10555 08e7 0C000000 		.4byte	.LVL46
 10556 08eb 16000000 		.4byte	.LFE23
ARM GAS  C:\Users\jens-\AppData\Local\Temp\ccdWTNhT.s 			page 249


 10557 08ef 0400     		.2byte	0x4
 10558 08f1 F3       		.byte	0xf3
 10559 08f2 01       		.uleb128 0x1
 10560 08f3 50       		.byte	0x50
 10561 08f4 9F       		.byte	0x9f
 10562 08f5 00000000 		.4byte	0
 10563 08f9 00000000 		.4byte	0
 10564              	.LVUS7:
 10565 08fd 00       		.uleb128 0
 10566 08fe 00       		.uleb128 .LVU102
 10567 08ff 00       		.uleb128 .LVU102
 10568 0900 00       		.uleb128 0
 10569              	.LLST7:
 10570 0901 00000000 		.4byte	.LVL22
 10571 0905 0C000000 		.4byte	.LVL23
 10572 0909 0100     		.2byte	0x1
 10573 090b 50       		.byte	0x50
 10574 090c 0C000000 		.4byte	.LVL23
 10575 0910 18000000 		.4byte	.LFE16
 10576 0914 0400     		.2byte	0x4
 10577 0916 F3       		.byte	0xf3
 10578 0917 01       		.uleb128 0x1
 10579 0918 50       		.byte	0x50
 10580 0919 9F       		.byte	0x9f
 10581 091a 00000000 		.4byte	0
 10582 091e 00000000 		.4byte	0
 10583              	.LVUS3:
 10584 0922 00       		.uleb128 0
 10585 0923 00       		.uleb128 .LVU68
 10586 0924 00       		.uleb128 .LVU68
 10587 0925 00       		.uleb128 0
 10588              	.LLST3:
 10589 0926 00000000 		.4byte	.LVL7
 10590 092a 07000000 		.4byte	.LVL8-1
 10591 092e 0100     		.2byte	0x1
 10592 0930 50       		.byte	0x50
 10593 0931 07000000 		.4byte	.LVL8-1
 10594 0935 74000000 		.4byte	.LFE15
 10595 0939 0400     		.2byte	0x4
 10596 093b F3       		.byte	0xf3
 10597 093c 01       		.uleb128 0x1
 10598 093d 50       		.byte	0x50
 10599 093e 9F       		.byte	0x9f
 10600 093f 00000000 		.4byte	0
 10601 0943 00000000 		.4byte	0
 10602              	.LVUS4:
 10603 0947 00       		.uleb128 .LVU80
 10604 0948 00       		.uleb128 .LVU88
 10605 0949 00       		.uleb128 .LVU90
 10606 094a 00       		.uleb128 .LVU95
 10607              	.LLST4:
 10608 094b 20000000 		.4byte	.LVL13
 10609 094f 3C000000 		.4byte	.LVL15
 10610 0953 0100     		.2byte	0x1
 10611 0955 55       		.byte	0x55
 10612 0956 44000000 		.4byte	.LVL17
 10613 095a 5E000000 		.4byte	.LVL20
ARM GAS  C:\Users\jens-\AppData\Local\Temp\ccdWTNhT.s 			page 250


 10614 095e 0100     		.2byte	0x1
 10615 0960 55       		.byte	0x55
 10616 0961 00000000 		.4byte	0
 10617 0965 00000000 		.4byte	0
 10618              	.LVUS5:
 10619 0969 00       		.uleb128 .LVU71
 10620 096a 00       		.uleb128 .LVU74
 10621 096b 00       		.uleb128 .LVU74
 10622 096c 00       		.uleb128 .LVU79
 10623 096d 00       		.uleb128 .LVU95
 10624 096e 00       		.uleb128 .LVU96
 10625              	.LLST5:
 10626 096f 0E000000 		.4byte	.LVL10
 10627 0973 16000000 		.4byte	.LVL11
 10628 0977 0500     		.2byte	0x5
 10629 0979 72       		.byte	0x72
 10630 097a 00       		.sleb128 0
 10631 097b 38       		.byte	0x38
 10632 097c 24       		.byte	0x24
 10633 097d 9F       		.byte	0x9f
 10634 097e 16000000 		.4byte	.LVL11
 10635 0982 1C000000 		.4byte	.LVL12
 10636 0986 0100     		.2byte	0x1
 10637 0988 53       		.byte	0x53
 10638 0989 5E000000 		.4byte	.LVL20
 10639 098d 63000000 		.4byte	.LVL21-1
 10640 0991 0100     		.2byte	0x1
 10641 0993 53       		.byte	0x53
 10642 0994 00000000 		.4byte	0
 10643 0998 00000000 		.4byte	0
 10644              	.LVUS6:
 10645 099c 00       		.uleb128 .LVU69
 10646 099d 00       		.uleb128 0
 10647              	.LLST6:
 10648 099e 0A000000 		.4byte	.LVL9
 10649 09a2 74000000 		.4byte	.LFE15
 10650 09a6 0100     		.2byte	0x1
 10651 09a8 56       		.byte	0x56
 10652 09a9 00000000 		.4byte	0
 10653 09ad 00000000 		.4byte	0
 10654              	.LVUS1:
 10655 09b1 00       		.uleb128 0
 10656 09b2 00       		.uleb128 .LVU27
 10657 09b3 00       		.uleb128 .LVU27
 10658 09b4 00       		.uleb128 0
 10659              	.LLST1:
 10660 09b5 00000000 		.4byte	.LVL2
 10661 09b9 22000000 		.4byte	.LVL3
 10662 09bd 0100     		.2byte	0x1
 10663 09bf 50       		.byte	0x50
 10664 09c0 22000000 		.4byte	.LVL3
 10665 09c4 48000000 		.4byte	.LFE14
 10666 09c8 0400     		.2byte	0x4
 10667 09ca F3       		.byte	0xf3
 10668 09cb 01       		.uleb128 0x1
 10669 09cc 50       		.byte	0x50
 10670 09cd 9F       		.byte	0x9f
ARM GAS  C:\Users\jens-\AppData\Local\Temp\ccdWTNhT.s 			page 251


 10671 09ce 00000000 		.4byte	0
 10672 09d2 00000000 		.4byte	0
 10673              	.LVUS2:
 10674 09d6 00       		.uleb128 0
 10675 09d7 00       		.uleb128 .LVU54
 10676 09d8 00       		.uleb128 .LVU54
 10677 09d9 00       		.uleb128 0
 10678              	.LLST2:
 10679 09da 00000000 		.4byte	.LVL4
 10680 09de 0C000000 		.4byte	.LVL5
 10681 09e2 0100     		.2byte	0x1
 10682 09e4 50       		.byte	0x50
 10683 09e5 0C000000 		.4byte	.LVL5
 10684 09e9 18000000 		.4byte	.LFE12
 10685 09ed 0400     		.2byte	0x4
 10686 09ef F3       		.byte	0xf3
 10687 09f0 01       		.uleb128 0x1
 10688 09f1 50       		.byte	0x50
 10689 09f2 9F       		.byte	0x9f
 10690 09f3 00000000 		.4byte	0
 10691 09f7 00000000 		.4byte	0
 10692              	.LVUS37:
 10693 09fb 00       		.uleb128 0
 10694 09fc 00       		.uleb128 .LVU542
 10695 09fd 00       		.uleb128 .LVU542
 10696 09fe 00       		.uleb128 .LVU546
 10697 09ff 00       		.uleb128 .LVU546
 10698 0a00 01       		.uleb128 .LVU551
 10699 0a01 01       		.uleb128 .LVU551
 10700 0a02 00       		.uleb128 .LVU552
 10701 0a03 00       		.uleb128 .LVU552
 10702 0a04 00       		.uleb128 0
 10703              	.LLST37:
 10704 0a05 00000000 		.4byte	.LVL107
 10705 0a09 0E000000 		.4byte	.LVL108
 10706 0a0d 0100     		.2byte	0x1
 10707 0a0f 50       		.byte	0x50
 10708 0a10 0E000000 		.4byte	.LVL108
 10709 0a14 14000000 		.4byte	.LVL110
 10710 0a18 0400     		.2byte	0x4
 10711 0a1a F3       		.byte	0xf3
 10712 0a1b 01       		.uleb128 0x1
 10713 0a1c 50       		.byte	0x50
 10714 0a1d 9F       		.byte	0x9f
 10715 0a1e 14000000 		.4byte	.LVL110
 10716 0a22 2C000000 		.4byte	.LVL111
 10717 0a26 0100     		.2byte	0x1
 10718 0a28 50       		.byte	0x50
 10719 0a29 2C000000 		.4byte	.LVL111
 10720 0a2d 2E000000 		.4byte	.LVL112
 10721 0a31 0400     		.2byte	0x4
 10722 0a33 F3       		.byte	0xf3
 10723 0a34 01       		.uleb128 0x1
 10724 0a35 50       		.byte	0x50
 10725 0a36 9F       		.byte	0x9f
 10726 0a37 2E000000 		.4byte	.LVL112
 10727 0a3b 58000000 		.4byte	.LFE9
ARM GAS  C:\Users\jens-\AppData\Local\Temp\ccdWTNhT.s 			page 252


 10728 0a3f 0100     		.2byte	0x1
 10729 0a41 50       		.byte	0x50
 10730 0a42 00000000 		.4byte	0
 10731 0a46 00000000 		.4byte	0
 10732              	.LVUS34:
 10733 0a4a 00       		.uleb128 0
 10734 0a4b 00       		.uleb128 .LVU467
 10735 0a4c 00       		.uleb128 .LVU467
 10736 0a4d 00       		.uleb128 .LVU470
 10737 0a4e 00       		.uleb128 .LVU470
 10738 0a4f 00       		.uleb128 .LVU480
 10739 0a50 00       		.uleb128 .LVU480
 10740 0a51 00       		.uleb128 0
 10741              	.LLST34:
 10742 0a52 00000000 		.4byte	.LVL90
 10743 0a56 28000000 		.4byte	.LVL95
 10744 0a5a 0100     		.2byte	0x1
 10745 0a5c 50       		.byte	0x50
 10746 0a5d 28000000 		.4byte	.LVL95
 10747 0a61 3D000000 		.4byte	.LVL96
 10748 0a65 0400     		.2byte	0x4
 10749 0a67 F3       		.byte	0xf3
 10750 0a68 01       		.uleb128 0x1
 10751 0a69 50       		.byte	0x50
 10752 0a6a 9F       		.byte	0x9f
 10753 0a6b 3D000000 		.4byte	.LVL96
 10754 0a6f 48000000 		.4byte	.LVL99
 10755 0a73 0100     		.2byte	0x1
 10756 0a75 50       		.byte	0x50
 10757 0a76 48000000 		.4byte	.LVL99
 10758 0a7a F8000000 		.4byte	.LFE8
 10759 0a7e 0400     		.2byte	0x4
 10760 0a80 F3       		.byte	0xf3
 10761 0a81 01       		.uleb128 0x1
 10762 0a82 50       		.byte	0x50
 10763 0a83 9F       		.byte	0x9f
 10764 0a84 00000000 		.4byte	0
 10765 0a88 00000000 		.4byte	0
 10766              	.LVUS35:
 10767 0a8c 00       		.uleb128 .LVU462
 10768 0a8d 01       		.uleb128 .LVU471
 10769 0a8e 01       		.uleb128 .LVU471
 10770 0a8f 00       		.uleb128 .LVU474
 10771 0a90 00       		.uleb128 .LVU474
 10772 0a91 01       		.uleb128 .LVU475
 10773 0a92 01       		.uleb128 .LVU475
 10774 0a93 00       		.uleb128 .LVU478
 10775 0a94 00       		.uleb128 .LVU478
 10776 0a95 00       		.uleb128 0
 10777              	.LLST35:
 10778 0a96 0C000000 		.4byte	.LVL91
 10779 0a9a 3D000000 		.4byte	.LVL96
 10780 0a9e 0100     		.2byte	0x1
 10781 0aa0 55       		.byte	0x55
 10782 0aa1 3D000000 		.4byte	.LVL96
 10783 0aa5 42000000 		.4byte	.LVL97
 10784 0aa9 0200     		.2byte	0x2
ARM GAS  C:\Users\jens-\AppData\Local\Temp\ccdWTNhT.s 			page 253


 10785 0aab 33       		.byte	0x33
 10786 0aac 9F       		.byte	0x9f
 10787 0aad 42000000 		.4byte	.LVL97
 10788 0ab1 42000000 		.4byte	.LVL97
 10789 0ab5 0100     		.2byte	0x1
 10790 0ab7 55       		.byte	0x55
 10791 0ab8 42000000 		.4byte	.LVL97
 10792 0abc 46000000 		.4byte	.LVL98
 10793 0ac0 0200     		.2byte	0x2
 10794 0ac2 30       		.byte	0x30
 10795 0ac3 9F       		.byte	0x9f
 10796 0ac4 46000000 		.4byte	.LVL98
 10797 0ac8 F8000000 		.4byte	.LFE8
 10798 0acc 0100     		.2byte	0x1
 10799 0ace 55       		.byte	0x55
 10800 0acf 00000000 		.4byte	0
 10801 0ad3 00000000 		.4byte	0
 10802              	.LVUS36:
 10803 0ad7 00       		.uleb128 .LVU464
 10804 0ad8 00       		.uleb128 .LVU465
 10805 0ad9 00       		.uleb128 .LVU466
 10806 0ada 00       		.uleb128 0
 10807              	.LLST36:
 10808 0adb 12000000 		.4byte	.LVL92
 10809 0adf 21000000 		.4byte	.LVL93
 10810 0ae3 0100     		.2byte	0x1
 10811 0ae5 56       		.byte	0x56
 10812 0ae6 26000000 		.4byte	.LVL94
 10813 0aea F8000000 		.4byte	.LFE8
 10814 0aee 0100     		.2byte	0x1
 10815 0af0 56       		.byte	0x56
 10816 0af1 00000000 		.4byte	0
 10817 0af5 00000000 		.4byte	0
 10818              	.LVUS32:
 10819 0af9 00       		.uleb128 0
 10820 0afa 00       		.uleb128 .LVU408
 10821 0afb 00       		.uleb128 .LVU408
 10822 0afc 00       		.uleb128 0
 10823              	.LLST32:
 10824 0afd 00000000 		.4byte	.LVL84
 10825 0b01 07000000 		.4byte	.LVL85-1
 10826 0b05 0100     		.2byte	0x1
 10827 0b07 50       		.byte	0x50
 10828 0b08 07000000 		.4byte	.LVL85-1
 10829 0b0c CC000000 		.4byte	.LFE7
 10830 0b10 0400     		.2byte	0x4
 10831 0b12 F3       		.byte	0xf3
 10832 0b13 01       		.uleb128 0x1
 10833 0b14 50       		.byte	0x50
 10834 0b15 9F       		.byte	0x9f
 10835 0b16 00000000 		.4byte	0
 10836 0b1a 00000000 		.4byte	0
 10837              	.LVUS33:
 10838 0b1e 00       		.uleb128 .LVU408
 10839 0b1f 01       		.uleb128 .LVU417
 10840 0b20 00       		.uleb128 .LVU418
 10841 0b21 00       		.uleb128 .LVU451
ARM GAS  C:\Users\jens-\AppData\Local\Temp\ccdWTNhT.s 			page 254


 10842              	.LLST33:
 10843 0b22 08000000 		.4byte	.LVL85
 10844 0b26 34000000 		.4byte	.LVL86
 10845 0b2a 0100     		.2byte	0x1
 10846 0b2c 50       		.byte	0x50
 10847 0b2d 36000000 		.4byte	.LVL87
 10848 0b31 9E000000 		.4byte	.LVL88
 10849 0b35 0100     		.2byte	0x1
 10850 0b37 50       		.byte	0x50
 10851 0b38 00000000 		.4byte	0
 10852 0b3c 00000000 		.4byte	0
 10853              	.LVUS0:
 10854 0b40 02       		.uleb128 .LVU2
 10855 0b41 00       		.uleb128 .LVU13
 10856 0b42 00       		.uleb128 .LVU13
 10857 0b43 00       		.uleb128 0
 10858              	.LLST0:
 10859 0b44 00000000 		.4byte	.LVL0
 10860 0b48 36000000 		.4byte	.LVL1
 10861 0b4c 0200     		.2byte	0x2
 10862 0b4e 30       		.byte	0x30
 10863 0b4f 9F       		.byte	0x9f
 10864 0b50 36000000 		.4byte	.LVL1
 10865 0b54 44000000 		.4byte	.LFE6
 10866 0b58 0100     		.2byte	0x1
 10867 0b5a 50       		.byte	0x50
 10868 0b5b 00000000 		.4byte	0
 10869 0b5f 00000000 		.4byte	0
 10870              	.LVUS13:
 10871 0b63 00       		.uleb128 0
 10872 0b64 00       		.uleb128 .LVU182
 10873 0b65 00       		.uleb128 .LVU182
 10874 0b66 00       		.uleb128 0
 10875              	.LLST13:
 10876 0b67 00000000 		.4byte	.LVL36
 10877 0b6b 30000000 		.4byte	.LVL40
 10878 0b6f 0100     		.2byte	0x1
 10879 0b71 50       		.byte	0x50
 10880 0b72 30000000 		.4byte	.LVL40
 10881 0b76 60000000 		.4byte	.LFE4
 10882 0b7a 0400     		.2byte	0x4
 10883 0b7c F3       		.byte	0xf3
 10884 0b7d 01       		.uleb128 0x1
 10885 0b7e 50       		.byte	0x50
 10886 0b7f 9F       		.byte	0x9f
 10887 0b80 00000000 		.4byte	0
 10888 0b84 00000000 		.4byte	0
 10889              	.LVUS14:
 10890 0b88 00       		.uleb128 .LVU181
 10891 0b89 00       		.uleb128 0
 10892              	.LLST14:
 10893 0b8a 2E000000 		.4byte	.LVL39
 10894 0b8e 60000000 		.4byte	.LFE4
 10895 0b92 0100     		.2byte	0x1
 10896 0b94 54       		.byte	0x54
 10897 0b95 00000000 		.4byte	0
 10898 0b99 00000000 		.4byte	0
ARM GAS  C:\Users\jens-\AppData\Local\Temp\ccdWTNhT.s 			page 255


 10899              	.LVUS15:
 10900 0b9d 00       		.uleb128 .LVU179
 10901 0b9e 00       		.uleb128 0
 10902              	.LLST15:
 10903 0b9f 28000000 		.4byte	.LVL38
 10904 0ba3 60000000 		.4byte	.LFE4
 10905 0ba7 0100     		.2byte	0x1
 10906 0ba9 55       		.byte	0x55
 10907 0baa 00000000 		.4byte	0
 10908 0bae 00000000 		.4byte	0
 10909              	.LVUS16:
 10910 0bb2 00       		.uleb128 .LVU177
 10911 0bb3 00       		.uleb128 0
 10912              	.LLST16:
 10913 0bb4 22000000 		.4byte	.LVL37
 10914 0bb8 60000000 		.4byte	.LFE4
 10915 0bbc 0100     		.2byte	0x1
 10916 0bbe 56       		.byte	0x56
 10917 0bbf 00000000 		.4byte	0
 10918 0bc3 00000000 		.4byte	0
 10919              	.LVUS31:
 10920 0bc7 00       		.uleb128 0
 10921 0bc8 00       		.uleb128 .LVU388
 10922 0bc9 00       		.uleb128 .LVU388
 10923 0bca 00       		.uleb128 .LVU397
 10924 0bcb 00       		.uleb128 .LVU397
 10925 0bcc 00       		.uleb128 .LVU398
 10926 0bcd 00       		.uleb128 .LVU398
 10927 0bce 00       		.uleb128 0
 10928              	.LLST31:
 10929 0bcf 00000000 		.4byte	.LVL78
 10930 0bd3 0E000000 		.4byte	.LVL79
 10931 0bd7 0100     		.2byte	0x1
 10932 0bd9 50       		.byte	0x50
 10933 0bda 0E000000 		.4byte	.LVL79
 10934 0bde 22000000 		.4byte	.LVL80
 10935 0be2 0400     		.2byte	0x4
 10936 0be4 F3       		.byte	0xf3
 10937 0be5 01       		.uleb128 0x1
 10938 0be6 50       		.byte	0x50
 10939 0be7 9F       		.byte	0x9f
 10940 0be8 22000000 		.4byte	.LVL80
 10941 0bec 24000000 		.4byte	.LVL81
 10942 0bf0 0100     		.2byte	0x1
 10943 0bf2 50       		.byte	0x50
 10944 0bf3 24000000 		.4byte	.LVL81
 10945 0bf7 38000000 		.4byte	.LFE3
 10946 0bfb 0400     		.2byte	0x4
 10947 0bfd F3       		.byte	0xf3
 10948 0bfe 01       		.uleb128 0x1
 10949 0bff 50       		.byte	0x50
 10950 0c00 9F       		.byte	0x9f
 10951 0c01 00000000 		.4byte	0
 10952 0c05 00000000 		.4byte	0
 10953              	.LVUS28:
 10954 0c09 00       		.uleb128 0
 10955 0c0a 00       		.uleb128 .LVU359
ARM GAS  C:\Users\jens-\AppData\Local\Temp\ccdWTNhT.s 			page 256


 10956 0c0b 00       		.uleb128 .LVU359
 10957 0c0c 00       		.uleb128 .LVU378
 10958 0c0d 00       		.uleb128 .LVU378
 10959 0c0e 00       		.uleb128 .LVU379
 10960 0c0f 00       		.uleb128 .LVU379
 10961 0c10 00       		.uleb128 0
 10962              	.LLST28:
 10963 0c11 00000000 		.4byte	.LVL72
 10964 0c15 12000000 		.4byte	.LVL73
 10965 0c19 0100     		.2byte	0x1
 10966 0c1b 50       		.byte	0x50
 10967 0c1c 12000000 		.4byte	.LVL73
 10968 0c20 44000000 		.4byte	.LVL74
 10969 0c24 0400     		.2byte	0x4
 10970 0c26 F3       		.byte	0xf3
 10971 0c27 01       		.uleb128 0x1
 10972 0c28 50       		.byte	0x50
 10973 0c29 9F       		.byte	0x9f
 10974 0c2a 44000000 		.4byte	.LVL74
 10975 0c2e 46000000 		.4byte	.LVL75
 10976 0c32 0100     		.2byte	0x1
 10977 0c34 50       		.byte	0x50
 10978 0c35 46000000 		.4byte	.LVL75
 10979 0c39 60000000 		.4byte	.LFE2
 10980 0c3d 0400     		.2byte	0x4
 10981 0c3f F3       		.byte	0xf3
 10982 0c40 01       		.uleb128 0x1
 10983 0c41 50       		.byte	0x50
 10984 0c42 9F       		.byte	0x9f
 10985 0c43 00000000 		.4byte	0
 10986 0c47 00000000 		.4byte	0
 10987              	.LVUS29:
 10988 0c4b 00       		.uleb128 0
 10989 0c4c 00       		.uleb128 .LVU359
 10990 0c4d 00       		.uleb128 .LVU359
 10991 0c4e 00       		.uleb128 .LVU378
 10992 0c4f 00       		.uleb128 .LVU378
 10993 0c50 00       		.uleb128 .LVU380
 10994 0c51 00       		.uleb128 .LVU380
 10995 0c52 00       		.uleb128 0
 10996              	.LLST29:
 10997 0c53 00000000 		.4byte	.LVL72
 10998 0c57 12000000 		.4byte	.LVL73
 10999 0c5b 0100     		.2byte	0x1
 11000 0c5d 51       		.byte	0x51
 11001 0c5e 12000000 		.4byte	.LVL73
 11002 0c62 44000000 		.4byte	.LVL74
 11003 0c66 0400     		.2byte	0x4
 11004 0c68 F3       		.byte	0xf3
 11005 0c69 01       		.uleb128 0x1
 11006 0c6a 51       		.byte	0x51
 11007 0c6b 9F       		.byte	0x9f
 11008 0c6c 44000000 		.4byte	.LVL74
 11009 0c70 49000000 		.4byte	.LVL76-1
 11010 0c74 0100     		.2byte	0x1
 11011 0c76 51       		.byte	0x51
 11012 0c77 49000000 		.4byte	.LVL76-1
ARM GAS  C:\Users\jens-\AppData\Local\Temp\ccdWTNhT.s 			page 257


 11013 0c7b 60000000 		.4byte	.LFE2
 11014 0c7f 0400     		.2byte	0x4
 11015 0c81 F3       		.byte	0xf3
 11016 0c82 01       		.uleb128 0x1
 11017 0c83 51       		.byte	0x51
 11018 0c84 9F       		.byte	0x9f
 11019 0c85 00000000 		.4byte	0
 11020 0c89 00000000 		.4byte	0
 11021              	.LVUS30:
 11022 0c8d 00       		.uleb128 0
 11023 0c8e 00       		.uleb128 .LVU359
 11024 0c8f 00       		.uleb128 .LVU359
 11025 0c90 00       		.uleb128 .LVU378
 11026 0c91 00       		.uleb128 .LVU378
 11027 0c92 00       		.uleb128 .LVU380
 11028 0c93 00       		.uleb128 .LVU380
 11029 0c94 00       		.uleb128 0
 11030              	.LLST30:
 11031 0c95 00000000 		.4byte	.LVL72
 11032 0c99 12000000 		.4byte	.LVL73
 11033 0c9d 0100     		.2byte	0x1
 11034 0c9f 52       		.byte	0x52
 11035 0ca0 12000000 		.4byte	.LVL73
 11036 0ca4 44000000 		.4byte	.LVL74
 11037 0ca8 0400     		.2byte	0x4
 11038 0caa F3       		.byte	0xf3
 11039 0cab 01       		.uleb128 0x1
 11040 0cac 52       		.byte	0x52
 11041 0cad 9F       		.byte	0x9f
 11042 0cae 44000000 		.4byte	.LVL74
 11043 0cb2 49000000 		.4byte	.LVL76-1
 11044 0cb6 0100     		.2byte	0x1
 11045 0cb8 52       		.byte	0x52
 11046 0cb9 49000000 		.4byte	.LVL76-1
 11047 0cbd 60000000 		.4byte	.LFE2
 11048 0cc1 0400     		.2byte	0x4
 11049 0cc3 F3       		.byte	0xf3
 11050 0cc4 01       		.uleb128 0x1
 11051 0cc5 52       		.byte	0x52
 11052 0cc6 9F       		.byte	0x9f
 11053 0cc7 00000000 		.4byte	0
 11054 0ccb 00000000 		.4byte	0
 11055              	.LVUS8:
 11056 0ccf 00       		.uleb128 0
 11057 0cd0 01       		.uleb128 .LVU133
 11058 0cd1 01       		.uleb128 .LVU133
 11059 0cd2 00       		.uleb128 .LVU134
 11060 0cd3 00       		.uleb128 .LVU134
 11061 0cd4 00       		.uleb128 .LVU142
 11062 0cd5 00       		.uleb128 .LVU142
 11063 0cd6 00       		.uleb128 0
 11064              	.LLST8:
 11065 0cd7 00000000 		.4byte	.LVL24
 11066 0cdb 10000000 		.4byte	.LVL26
 11067 0cdf 0100     		.2byte	0x1
 11068 0ce1 50       		.byte	0x50
 11069 0ce2 10000000 		.4byte	.LVL26
ARM GAS  C:\Users\jens-\AppData\Local\Temp\ccdWTNhT.s 			page 258


 11070 0ce6 14000000 		.4byte	.LVL27
 11071 0cea 0400     		.2byte	0x4
 11072 0cec F3       		.byte	0xf3
 11073 0ced 01       		.uleb128 0x1
 11074 0cee 50       		.byte	0x50
 11075 0cef 9F       		.byte	0x9f
 11076 0cf0 14000000 		.4byte	.LVL27
 11077 0cf4 2A000000 		.4byte	.LVL31
 11078 0cf8 0100     		.2byte	0x1
 11079 0cfa 50       		.byte	0x50
 11080 0cfb 2A000000 		.4byte	.LVL31
 11081 0cff 78000000 		.4byte	.LFE0
 11082 0d03 0400     		.2byte	0x4
 11083 0d05 F3       		.byte	0xf3
 11084 0d06 01       		.uleb128 0x1
 11085 0d07 50       		.byte	0x50
 11086 0d08 9F       		.byte	0x9f
 11087 0d09 00000000 		.4byte	0
 11088 0d0d 00000000 		.4byte	0
 11089              	.LVUS9:
 11090 0d11 01       		.uleb128 .LVU124
 11091 0d12 01       		.uleb128 .LVU133
 11092 0d13 00       		.uleb128 .LVU134
 11093 0d14 01       		.uleb128 .LVU144
 11094 0d15 01       		.uleb128 .LVU144
 11095 0d16 00       		.uleb128 .LVU156
 11096 0d17 00       		.uleb128 .LVU156
 11097 0d18 00       		.uleb128 0
 11098              	.LLST9:
 11099 0d19 02000000 		.4byte	.LVL25
 11100 0d1d 10000000 		.4byte	.LVL26
 11101 0d21 0200     		.2byte	0x2
 11102 0d23 30       		.byte	0x30
 11103 0d24 9F       		.byte	0x9f
 11104 0d25 14000000 		.4byte	.LVL27
 11105 0d29 2E000000 		.4byte	.LVL32
 11106 0d2d 0200     		.2byte	0x2
 11107 0d2f 30       		.byte	0x30
 11108 0d30 9F       		.byte	0x9f
 11109 0d31 2E000000 		.4byte	.LVL32
 11110 0d35 54000000 		.4byte	.LVL34
 11111 0d39 0200     		.2byte	0x2
 11112 0d3b 40       		.byte	0x40
 11113 0d3c 9F       		.byte	0x9f
 11114 0d3d 54000000 		.4byte	.LVL34
 11115 0d41 78000000 		.4byte	.LFE0
 11116 0d45 0100     		.2byte	0x1
 11117 0d47 57       		.byte	0x57
 11118 0d48 00000000 		.4byte	0
 11119 0d4c 00000000 		.4byte	0
 11120              	.LVUS10:
 11121 0d50 00       		.uleb128 .LVU137
 11122 0d51 00       		.uleb128 0
 11123              	.LLST10:
 11124 0d52 1C000000 		.4byte	.LVL28
 11125 0d56 78000000 		.4byte	.LFE0
 11126 0d5a 0100     		.2byte	0x1
ARM GAS  C:\Users\jens-\AppData\Local\Temp\ccdWTNhT.s 			page 259


 11127 0d5c 56       		.byte	0x56
 11128 0d5d 00000000 		.4byte	0
 11129 0d61 00000000 		.4byte	0
 11130              	.LVUS11:
 11131 0d65 00       		.uleb128 .LVU139
 11132 0d66 00       		.uleb128 0
 11133              	.LLST11:
 11134 0d67 22000000 		.4byte	.LVL29
 11135 0d6b 78000000 		.4byte	.LFE0
 11136 0d6f 0100     		.2byte	0x1
 11137 0d71 55       		.byte	0x55
 11138 0d72 00000000 		.4byte	0
 11139 0d76 00000000 		.4byte	0
 11140              	.LVUS12:
 11141 0d7a 00       		.uleb128 .LVU141
 11142 0d7b 00       		.uleb128 0
 11143              	.LLST12:
 11144 0d7c 28000000 		.4byte	.LVL30
 11145 0d80 78000000 		.4byte	.LFE0
 11146 0d84 0100     		.2byte	0x1
 11147 0d86 54       		.byte	0x54
 11148 0d87 00000000 		.4byte	0
 11149 0d8b 00000000 		.4byte	0
 11150              		.section	.debug_aranges,"",%progbits
 11151 0000 9C020000 		.4byte	0x29c
 11152 0004 0200     		.2byte	0x2
 11153 0006 00000000 		.4byte	.Ldebug_info0
 11154 000a 04       		.byte	0x4
 11155 000b 00       		.byte	0
 11156 000c 0000     		.2byte	0
 11157 000e 0000     		.2byte	0
 11158 0010 00000000 		.4byte	.LFB6
 11159 0014 44000000 		.4byte	.LFE6-.LFB6
 11160 0018 00000000 		.4byte	.LFB14
 11161 001c 48000000 		.4byte	.LFE14-.LFB14
 11162 0020 00000000 		.4byte	.LFB1
 11163 0024 10000000 		.4byte	.LFE1-.LFB1
 11164 0028 00000000 		.4byte	.LFB5
 11165 002c 1C000000 		.4byte	.LFE5-.LFB5
 11166 0030 00000000 		.4byte	.LFB10
 11167 0034 10000000 		.4byte	.LFE10-.LFB10
 11168 0038 00000000 		.4byte	.LFB11
 11169 003c 10000000 		.4byte	.LFE11-.LFB11
 11170 0040 00000000 		.4byte	.LFB12
 11171 0044 18000000 		.4byte	.LFE12-.LFB12
 11172 0048 00000000 		.4byte	.LFB13
 11173 004c 0C000000 		.4byte	.LFE13-.LFB13
 11174 0050 00000000 		.4byte	.LFB15
 11175 0054 74000000 		.4byte	.LFE15-.LFB15
 11176 0058 00000000 		.4byte	.LFB16
 11177 005c 18000000 		.4byte	.LFE16-.LFB16
 11178 0060 00000000 		.4byte	.LFB17
 11179 0064 10000000 		.4byte	.LFE17-.LFB17
 11180 0068 00000000 		.4byte	.LFB18
 11181 006c 10000000 		.4byte	.LFE18-.LFB18
 11182 0070 00000000 		.4byte	.LFB19
 11183 0074 10000000 		.4byte	.LFE19-.LFB19
ARM GAS  C:\Users\jens-\AppData\Local\Temp\ccdWTNhT.s 			page 260


 11184 0078 00000000 		.4byte	.LFB20
 11185 007c 10000000 		.4byte	.LFE20-.LFB20
 11186 0080 00000000 		.4byte	.LFB0
 11187 0084 78000000 		.4byte	.LFE0-.LFB0
 11188 0088 00000000 		.4byte	.LFB4
 11189 008c 60000000 		.4byte	.LFE4-.LFB4
 11190 0090 00000000 		.4byte	.LFB21
 11191 0094 10000000 		.4byte	.LFE21-.LFB21
 11192 0098 00000000 		.4byte	.LFB22
 11193 009c 10000000 		.4byte	.LFE22-.LFB22
 11194 00a0 00000000 		.4byte	.LFB23
 11195 00a4 16000000 		.4byte	.LFE23-.LFB23
 11196 00a8 00000000 		.4byte	.LFB24
 11197 00ac 24000000 		.4byte	.LFE24-.LFB24
 11198 00b0 00000000 		.4byte	.LFB26
 11199 00b4 30000000 		.4byte	.LFE26-.LFB26
 11200 00b8 00000000 		.4byte	.LFB27
 11201 00bc 10000000 		.4byte	.LFE27-.LFB27
 11202 00c0 00000000 		.4byte	.LFB29
 11203 00c4 A8000000 		.4byte	.LFE29-.LFB29
 11204 00c8 00000000 		.4byte	.LFB30
 11205 00cc 10000000 		.4byte	.LFE30-.LFB30
 11206 00d0 00000000 		.4byte	.LFB31
 11207 00d4 10000000 		.4byte	.LFE31-.LFB31
 11208 00d8 00000000 		.4byte	.LFB32
 11209 00dc 10000000 		.4byte	.LFE32-.LFB32
 11210 00e0 00000000 		.4byte	.LFB33
 11211 00e4 18000000 		.4byte	.LFE33-.LFB33
 11212 00e8 00000000 		.4byte	.LFB34
 11213 00ec 10000000 		.4byte	.LFE34-.LFB34
 11214 00f0 00000000 		.4byte	.LFB35
 11215 00f4 10000000 		.4byte	.LFE35-.LFB35
 11216 00f8 00000000 		.4byte	.LFB36
 11217 00fc 18000000 		.4byte	.LFE36-.LFB36
 11218 0100 00000000 		.4byte	.LFB37
 11219 0104 18000000 		.4byte	.LFE37-.LFB37
 11220 0108 00000000 		.4byte	.LFB38
 11221 010c 18000000 		.4byte	.LFE38-.LFB38
 11222 0110 00000000 		.4byte	.LFB39
 11223 0114 04000000 		.4byte	.LFE39-.LFB39
 11224 0118 00000000 		.4byte	.LFB2
 11225 011c 60000000 		.4byte	.LFE2-.LFB2
 11226 0120 00000000 		.4byte	.LFB3
 11227 0124 38000000 		.4byte	.LFE3-.LFB3
 11228 0128 00000000 		.4byte	.LFB7
 11229 012c CC000000 		.4byte	.LFE7-.LFB7
 11230 0130 00000000 		.4byte	.LFB8
 11231 0134 F8000000 		.4byte	.LFE8-.LFB8
 11232 0138 00000000 		.4byte	.LFB9
 11233 013c 58000000 		.4byte	.LFE9-.LFB9
 11234 0140 00000000 		.4byte	.LFB40
 11235 0144 10000000 		.4byte	.LFE40-.LFB40
 11236 0148 00000000 		.4byte	.LFB41
 11237 014c 2C000000 		.4byte	.LFE41-.LFB41
 11238 0150 00000000 		.4byte	.LFB42
 11239 0154 14000000 		.4byte	.LFE42-.LFB42
 11240 0158 00000000 		.4byte	.LFB28
ARM GAS  C:\Users\jens-\AppData\Local\Temp\ccdWTNhT.s 			page 261


 11241 015c 80000000 		.4byte	.LFE28-.LFB28
 11242 0160 00000000 		.4byte	.LFB25
 11243 0164 70000000 		.4byte	.LFE25-.LFB25
 11244 0168 00000000 		.4byte	.LFB43
 11245 016c 4C000000 		.4byte	.LFE43-.LFB43
 11246 0170 00000000 		.4byte	.LFB44
 11247 0174 40000000 		.4byte	.LFE44-.LFB44
 11248 0178 00000000 		.4byte	.LFB45
 11249 017c 0C000000 		.4byte	.LFE45-.LFB45
 11250 0180 00000000 		.4byte	.LFB52
 11251 0184 2C000000 		.4byte	.LFE52-.LFB52
 11252 0188 00000000 		.4byte	.LFB46
 11253 018c 90000000 		.4byte	.LFE46-.LFB46
 11254 0190 00000000 		.4byte	.LFB47
 11255 0194 80000000 		.4byte	.LFE47-.LFB47
 11256 0198 00000000 		.4byte	.LFB48
 11257 019c 30000000 		.4byte	.LFE48-.LFB48
 11258 01a0 00000000 		.4byte	.LFB49
 11259 01a4 28000000 		.4byte	.LFE49-.LFB49
 11260 01a8 00000000 		.4byte	.LFB50
 11261 01ac 54000000 		.4byte	.LFE50-.LFB50
 11262 01b0 00000000 		.4byte	.LFB51
 11263 01b4 20000000 		.4byte	.LFE51-.LFB51
 11264 01b8 00000000 		.4byte	.LFB53
 11265 01bc 1C000000 		.4byte	.LFE53-.LFB53
 11266 01c0 00000000 		.4byte	.LFB54
 11267 01c4 1C000000 		.4byte	.LFE54-.LFB54
 11268 01c8 00000000 		.4byte	.LFB55
 11269 01cc 18000000 		.4byte	.LFE55-.LFB55
 11270 01d0 00000000 		.4byte	.LFB56
 11271 01d4 44000000 		.4byte	.LFE56-.LFB56
 11272 01d8 00000000 		.4byte	.LFB57
 11273 01dc 28000000 		.4byte	.LFE57-.LFB57
 11274 01e0 00000000 		.4byte	.LFB58
 11275 01e4 24000000 		.4byte	.LFE58-.LFB58
 11276 01e8 00000000 		.4byte	.LFB59
 11277 01ec 2C000000 		.4byte	.LFE59-.LFB59
 11278 01f0 00000000 		.4byte	.LFB60
 11279 01f4 24000000 		.4byte	.LFE60-.LFB60
 11280 01f8 00000000 		.4byte	.LFB61
 11281 01fc 32000000 		.4byte	.LFE61-.LFB61
 11282 0200 00000000 		.4byte	.LFB62
 11283 0204 22000000 		.4byte	.LFE62-.LFB62
 11284 0208 00000000 		.4byte	.LFB63
 11285 020c 24000000 		.4byte	.LFE63-.LFB63
 11286 0210 00000000 		.4byte	.LFB67
 11287 0214 10000000 		.4byte	.LFE67-.LFB67
 11288 0218 00000000 		.4byte	.LFB68
 11289 021c 10000000 		.4byte	.LFE68-.LFB68
 11290 0220 00000000 		.4byte	.LFB66
 11291 0224 18000000 		.4byte	.LFE66-.LFB66
 11292 0228 00000000 		.4byte	.LFB69
 11293 022c 10000000 		.4byte	.LFE69-.LFB69
 11294 0230 00000000 		.4byte	.LFB70
 11295 0234 10000000 		.4byte	.LFE70-.LFB70
 11296 0238 00000000 		.4byte	.LFB71
 11297 023c 10000000 		.4byte	.LFE71-.LFB71
ARM GAS  C:\Users\jens-\AppData\Local\Temp\ccdWTNhT.s 			page 262


 11298 0240 00000000 		.4byte	.LFB72
 11299 0244 10000000 		.4byte	.LFE72-.LFB72
 11300 0248 00000000 		.4byte	.LFB73
 11301 024c 20000000 		.4byte	.LFE73-.LFB73
 11302 0250 00000000 		.4byte	.LFB74
 11303 0254 10000000 		.4byte	.LFE74-.LFB74
 11304 0258 00000000 		.4byte	.LFB75
 11305 025c 10000000 		.4byte	.LFE75-.LFB75
 11306 0260 00000000 		.4byte	.LFB79
 11307 0264 2C000000 		.4byte	.LFE79-.LFB79
 11308 0268 00000000 		.4byte	.LFB76
 11309 026c 0C000000 		.4byte	.LFE76-.LFB76
 11310 0270 00000000 		.4byte	.LFB65
 11311 0274 58000000 		.4byte	.LFE65-.LFB65
 11312 0278 00000000 		.4byte	.LFB64
 11313 027c 20000000 		.4byte	.LFE64-.LFB64
 11314 0280 00000000 		.4byte	.LFB77
 11315 0284 10000000 		.4byte	.LFE77-.LFB77
 11316 0288 00000000 		.4byte	.LFB78
 11317 028c 10000000 		.4byte	.LFE78-.LFB78
 11318 0290 00000000 		.4byte	.LFB80
 11319 0294 70000000 		.4byte	.LFE80-.LFB80
 11320 0298 00000000 		.4byte	0
 11321 029c 00000000 		.4byte	0
 11322              		.section	.debug_ranges,"",%progbits
 11323              	.Ldebug_ranges0:
 11324 0000 00000000 		.4byte	.LFB6
 11325 0004 44000000 		.4byte	.LFE6
 11326 0008 00000000 		.4byte	.LFB14
 11327 000c 48000000 		.4byte	.LFE14
 11328 0010 00000000 		.4byte	.LFB1
 11329 0014 10000000 		.4byte	.LFE1
 11330 0018 00000000 		.4byte	.LFB5
 11331 001c 1C000000 		.4byte	.LFE5
 11332 0020 00000000 		.4byte	.LFB10
 11333 0024 10000000 		.4byte	.LFE10
 11334 0028 00000000 		.4byte	.LFB11
 11335 002c 10000000 		.4byte	.LFE11
 11336 0030 00000000 		.4byte	.LFB12
 11337 0034 18000000 		.4byte	.LFE12
 11338 0038 00000000 		.4byte	.LFB13
 11339 003c 0C000000 		.4byte	.LFE13
 11340 0040 00000000 		.4byte	.LFB15
 11341 0044 74000000 		.4byte	.LFE15
 11342 0048 00000000 		.4byte	.LFB16
 11343 004c 18000000 		.4byte	.LFE16
 11344 0050 00000000 		.4byte	.LFB17
 11345 0054 10000000 		.4byte	.LFE17
 11346 0058 00000000 		.4byte	.LFB18
 11347 005c 10000000 		.4byte	.LFE18
 11348 0060 00000000 		.4byte	.LFB19
 11349 0064 10000000 		.4byte	.LFE19
 11350 0068 00000000 		.4byte	.LFB20
 11351 006c 10000000 		.4byte	.LFE20
 11352 0070 00000000 		.4byte	.LFB0
 11353 0074 78000000 		.4byte	.LFE0
 11354 0078 00000000 		.4byte	.LFB4
ARM GAS  C:\Users\jens-\AppData\Local\Temp\ccdWTNhT.s 			page 263


 11355 007c 60000000 		.4byte	.LFE4
 11356 0080 00000000 		.4byte	.LFB21
 11357 0084 10000000 		.4byte	.LFE21
 11358 0088 00000000 		.4byte	.LFB22
 11359 008c 10000000 		.4byte	.LFE22
 11360 0090 00000000 		.4byte	.LFB23
 11361 0094 16000000 		.4byte	.LFE23
 11362 0098 00000000 		.4byte	.LFB24
 11363 009c 24000000 		.4byte	.LFE24
 11364 00a0 00000000 		.4byte	.LFB26
 11365 00a4 30000000 		.4byte	.LFE26
 11366 00a8 00000000 		.4byte	.LFB27
 11367 00ac 10000000 		.4byte	.LFE27
 11368 00b0 00000000 		.4byte	.LFB29
 11369 00b4 A8000000 		.4byte	.LFE29
 11370 00b8 00000000 		.4byte	.LFB30
 11371 00bc 10000000 		.4byte	.LFE30
 11372 00c0 00000000 		.4byte	.LFB31
 11373 00c4 10000000 		.4byte	.LFE31
 11374 00c8 00000000 		.4byte	.LFB32
 11375 00cc 10000000 		.4byte	.LFE32
 11376 00d0 00000000 		.4byte	.LFB33
 11377 00d4 18000000 		.4byte	.LFE33
 11378 00d8 00000000 		.4byte	.LFB34
 11379 00dc 10000000 		.4byte	.LFE34
 11380 00e0 00000000 		.4byte	.LFB35
 11381 00e4 10000000 		.4byte	.LFE35
 11382 00e8 00000000 		.4byte	.LFB36
 11383 00ec 18000000 		.4byte	.LFE36
 11384 00f0 00000000 		.4byte	.LFB37
 11385 00f4 18000000 		.4byte	.LFE37
 11386 00f8 00000000 		.4byte	.LFB38
 11387 00fc 18000000 		.4byte	.LFE38
 11388 0100 00000000 		.4byte	.LFB39
 11389 0104 04000000 		.4byte	.LFE39
 11390 0108 00000000 		.4byte	.LFB2
 11391 010c 60000000 		.4byte	.LFE2
 11392 0110 00000000 		.4byte	.LFB3
 11393 0114 38000000 		.4byte	.LFE3
 11394 0118 00000000 		.4byte	.LFB7
 11395 011c CC000000 		.4byte	.LFE7
 11396 0120 00000000 		.4byte	.LFB8
 11397 0124 F8000000 		.4byte	.LFE8
 11398 0128 00000000 		.4byte	.LFB9
 11399 012c 58000000 		.4byte	.LFE9
 11400 0130 00000000 		.4byte	.LFB40
 11401 0134 10000000 		.4byte	.LFE40
 11402 0138 00000000 		.4byte	.LFB41
 11403 013c 2C000000 		.4byte	.LFE41
 11404 0140 00000000 		.4byte	.LFB42
 11405 0144 14000000 		.4byte	.LFE42
 11406 0148 00000000 		.4byte	.LFB28
 11407 014c 80000000 		.4byte	.LFE28
 11408 0150 00000000 		.4byte	.LFB25
 11409 0154 70000000 		.4byte	.LFE25
 11410 0158 00000000 		.4byte	.LFB43
 11411 015c 4C000000 		.4byte	.LFE43
ARM GAS  C:\Users\jens-\AppData\Local\Temp\ccdWTNhT.s 			page 264


 11412 0160 00000000 		.4byte	.LFB44
 11413 0164 40000000 		.4byte	.LFE44
 11414 0168 00000000 		.4byte	.LFB45
 11415 016c 0C000000 		.4byte	.LFE45
 11416 0170 00000000 		.4byte	.LFB52
 11417 0174 2C000000 		.4byte	.LFE52
 11418 0178 00000000 		.4byte	.LFB46
 11419 017c 90000000 		.4byte	.LFE46
 11420 0180 00000000 		.4byte	.LFB47
 11421 0184 80000000 		.4byte	.LFE47
 11422 0188 00000000 		.4byte	.LFB48
 11423 018c 30000000 		.4byte	.LFE48
 11424 0190 00000000 		.4byte	.LFB49
 11425 0194 28000000 		.4byte	.LFE49
 11426 0198 00000000 		.4byte	.LFB50
 11427 019c 54000000 		.4byte	.LFE50
 11428 01a0 00000000 		.4byte	.LFB51
 11429 01a4 20000000 		.4byte	.LFE51
 11430 01a8 00000000 		.4byte	.LFB53
 11431 01ac 1C000000 		.4byte	.LFE53
 11432 01b0 00000000 		.4byte	.LFB54
 11433 01b4 1C000000 		.4byte	.LFE54
 11434 01b8 00000000 		.4byte	.LFB55
 11435 01bc 18000000 		.4byte	.LFE55
 11436 01c0 00000000 		.4byte	.LFB56
 11437 01c4 44000000 		.4byte	.LFE56
 11438 01c8 00000000 		.4byte	.LFB57
 11439 01cc 28000000 		.4byte	.LFE57
 11440 01d0 00000000 		.4byte	.LFB58
 11441 01d4 24000000 		.4byte	.LFE58
 11442 01d8 00000000 		.4byte	.LFB59
 11443 01dc 2C000000 		.4byte	.LFE59
 11444 01e0 00000000 		.4byte	.LFB60
 11445 01e4 24000000 		.4byte	.LFE60
 11446 01e8 00000000 		.4byte	.LFB61
 11447 01ec 32000000 		.4byte	.LFE61
 11448 01f0 00000000 		.4byte	.LFB62
 11449 01f4 22000000 		.4byte	.LFE62
 11450 01f8 00000000 		.4byte	.LFB63
 11451 01fc 24000000 		.4byte	.LFE63
 11452 0200 00000000 		.4byte	.LFB67
 11453 0204 10000000 		.4byte	.LFE67
 11454 0208 00000000 		.4byte	.LFB68
 11455 020c 10000000 		.4byte	.LFE68
 11456 0210 00000000 		.4byte	.LFB66
 11457 0214 18000000 		.4byte	.LFE66
 11458 0218 00000000 		.4byte	.LFB69
 11459 021c 10000000 		.4byte	.LFE69
 11460 0220 00000000 		.4byte	.LFB70
 11461 0224 10000000 		.4byte	.LFE70
 11462 0228 00000000 		.4byte	.LFB71
 11463 022c 10000000 		.4byte	.LFE71
 11464 0230 00000000 		.4byte	.LFB72
 11465 0234 10000000 		.4byte	.LFE72
 11466 0238 00000000 		.4byte	.LFB73
 11467 023c 20000000 		.4byte	.LFE73
 11468 0240 00000000 		.4byte	.LFB74
ARM GAS  C:\Users\jens-\AppData\Local\Temp\ccdWTNhT.s 			page 265


 11469 0244 10000000 		.4byte	.LFE74
 11470 0248 00000000 		.4byte	.LFB75
 11471 024c 10000000 		.4byte	.LFE75
 11472 0250 00000000 		.4byte	.LFB79
 11473 0254 2C000000 		.4byte	.LFE79
 11474 0258 00000000 		.4byte	.LFB76
 11475 025c 0C000000 		.4byte	.LFE76
 11476 0260 00000000 		.4byte	.LFB65
 11477 0264 58000000 		.4byte	.LFE65
 11478 0268 00000000 		.4byte	.LFB64
 11479 026c 20000000 		.4byte	.LFE64
 11480 0270 00000000 		.4byte	.LFB77
 11481 0274 10000000 		.4byte	.LFE77
 11482 0278 00000000 		.4byte	.LFB78
 11483 027c 10000000 		.4byte	.LFE78
 11484 0280 00000000 		.4byte	.LFB80
 11485 0284 70000000 		.4byte	.LFE80
 11486 0288 00000000 		.4byte	0
 11487 028c 00000000 		.4byte	0
 11488              		.section	.debug_line,"",%progbits
 11489              	.Ldebug_line0:
 11490 0000 BB170000 		.section	.debug_str,"MS",%progbits,1
 11490      0300F101 
 11490      00000201 
 11490      FB0E0D00 
 11490      01010101 
 11491              	.LASF168:
 11492 0000 4379496E 		.ascii	"CyIntGetVector\000"
 11492      74476574 
 11492      56656374 
 11492      6F7200
 11493              	.LASF156:
 11494 000f 43795379 		.ascii	"CySysTickClear\000"
 11494      73546963 
 11494      6B436C65 
 11494      617200
 11495              	.LASF204:
 11496 001e 43794465 		.ascii	"CyDelay\000"
 11496      6C617900 
 11497              	.LASF167:
 11498 0026 4379496E 		.ascii	"CyIntSetPriority\000"
 11498      74536574 
 11498      5072696F 
 11498      72697479 
 11498      00
 11499              	.LASF257:
 11500 0037 4379494D 		.ascii	"CyIMO_SetTrimValue\000"
 11500      4F5F5365 
 11500      74547269 
 11500      6D56616C 
 11500      756500
 11501              	.LASF215:
 11502 004a 43795854 		.ascii	"CyXTAL_ReadStatus\000"
 11502      414C5F52 
 11502      65616453 
 11502      74617475 
 11502      7300
ARM GAS  C:\Users\jens-\AppData\Local\Temp\ccdWTNhT.s 			page 266


 11503              	.LASF165:
 11504 005c 4379496E 		.ascii	"CyIntGetPriority\000"
 11504      74476574 
 11504      5072696F 
 11504      72697479 
 11504      00
 11505              	.LASF196:
 11506 006d 43795764 		.ascii	"CyWdtClear\000"
 11506      74436C65 
 11506      617200
 11507              	.LASF280:
 11508 0078 47656E65 		.ascii	"Generated_Source\\PSoC5\\CyLib.c\000"
 11508      72617465 
 11508      645F536F 
 11508      75726365 
 11508      5C50536F 
 11509              	.LASF137:
 11510 0097 63796465 		.ascii	"cydelay_freq_mhz\000"
 11510      6C61795F 
 11510      66726571 
 11510      5F6D687A 
 11510      00
 11511              	.LASF205:
 11512 00a8 6D696C6C 		.ascii	"milliseconds\000"
 11512      69736563 
 11512      6F6E6473 
 11512      00
 11513              	.LASF236:
 11514 00b5 4379494C 		.ascii	"CyILO_Disable33K\000"
 11514      4F5F4469 
 11514      7361626C 
 11514      6533334B 
 11514      00
 11515              	.LASF266:
 11516 00c6 4379504C 		.ascii	"CyPLL_OUT_SetPQ\000"
 11516      4C5F4F55 
 11516      545F5365 
 11516      74505100 
 11517              	.LASF37:
 11518 00d6 5F6F6E5F 		.ascii	"_on_exit_args\000"
 11518      65786974 
 11518      5F617267 
 11518      7300
 11519              	.LASF225:
 11520 00e4 706D5477 		.ascii	"pmTwCfg0Tmp\000"
 11520      43666730 
 11520      546D7000 
 11521              	.LASF243:
 11522 00f0 43794275 		.ascii	"CyBusClk_SetDivider\000"
 11522      73436C6B 
 11522      5F536574 
 11522      44697669 
 11522      64657200 
 11523              	.LASF104:
 11524 0104 5F776374 		.ascii	"_wctomb_state\000"
 11524      6F6D625F 
 11524      73746174 
ARM GAS  C:\Users\jens-\AppData\Local\Temp\ccdWTNhT.s 			page 267


 11524      6500
 11525              	.LASF271:
 11526 0112 4379504C 		.ascii	"CyPLL_OUT_Start\000"
 11526      4C5F4F55 
 11526      545F5374 
 11526      61727400 
 11527              	.LASF101:
 11528 0122 5F723438 		.ascii	"_r48\000"
 11528      00
 11529              	.LASF275:
 11530 0127 43794578 		.ascii	"CyExitCriticalSection\000"
 11530      69744372 
 11530      69746963 
 11530      616C5365 
 11530      6374696F 
 11531              	.LASF106:
 11532 013d 5F736967 		.ascii	"_signal_buf\000"
 11532      6E616C5F 
 11532      62756600 
 11533              	.LASF0:
 11534 0149 756E7369 		.ascii	"unsigned int\000"
 11534      676E6564 
 11534      20696E74 
 11534      00
 11535              	.LASF245:
 11536 0156 6D617374 		.ascii	"masterClkDiv\000"
 11536      6572436C 
 11536      6B446976 
 11536      00
 11537              	.LASF183:
 11538 0163 43795664 		.ascii	"CyVdStickyStatus\000"
 11538      53746963 
 11538      6B795374 
 11538      61747573 
 11538      00
 11539              	.LASF51:
 11540 0174 5F6C6266 		.ascii	"_lbfsize\000"
 11540      73697A65 
 11540      00
 11541              	.LASF49:
 11542 017d 5F666C61 		.ascii	"_flags\000"
 11542      677300
 11543              	.LASF66:
 11544 0184 5F657272 		.ascii	"_errno\000"
 11544      6E6F00
 11545              	.LASF176:
 11546 018b 696E7465 		.ascii	"interruptState\000"
 11546      72727570 
 11546      74537461 
 11546      746500
 11547              	.LASF128:
 11548 019a 72656738 		.ascii	"reg8\000"
 11548      00
 11549              	.LASF212:
 11550 019f 43795854 		.ascii	"CyXTAL_SetStartup\000"
 11550      414C5F53 
 11550      65745374 
ARM GAS  C:\Users\jens-\AppData\Local\Temp\ccdWTNhT.s 			page 268


 11550      61727475 
 11550      7000
 11551              	.LASF240:
 11552 01b1 4379494C 		.ascii	"CyILO_Stop1K\000"
 11552      4F5F5374 
 11552      6F70314B 
 11552      00
 11553              	.LASF263:
 11554 01be 706D4674 		.ascii	"pmFtwCfg0Reg\000"
 11554      77436667 
 11554      30526567 
 11554      00
 11555              	.LASF255:
 11556 01cb 63757272 		.ascii	"currentFreq\000"
 11556      656E7446 
 11556      72657100 
 11557              	.LASF63:
 11558 01d7 5F6D6273 		.ascii	"_mbstate\000"
 11558      74617465 
 11558      00
 11559              	.LASF53:
 11560 01e0 5F726561 		.ascii	"_read\000"
 11560      6400
 11561              	.LASF277:
 11562 01e6 4379506D 		.ascii	"CyPmFtwSetInterval\000"
 11562      46747753 
 11562      6574496E 
 11562      74657276 
 11562      616C00
 11563              	.LASF228:
 11564 01f9 6D6F6465 		.ascii	"mode\000"
 11564      00
 11565              	.LASF108:
 11566 01fe 5F6D6272 		.ascii	"_mbrlen_state\000"
 11566      6C656E5F 
 11566      73746174 
 11566      6500
 11567              	.LASF252:
 11568 020c 4379494D 		.ascii	"CyIMO_EnableDoubler\000"
 11568      4F5F456E 
 11568      61626C65 
 11568      446F7562 
 11568      6C657200 
 11569              	.LASF68:
 11570 0220 5F737464 		.ascii	"_stdout\000"
 11570      6F757400 
 11571              	.LASF267:
 11572 0228 70446976 		.ascii	"pDiv\000"
 11572      00
 11573              	.LASF12:
 11574 022d 5F66706F 		.ascii	"_fpos_t\000"
 11574      735F7400 
 11575              	.LASF142:
 11576 0235 43795379 		.ascii	"CySysTickSetCallback\000"
 11576      73546963 
 11576      6B536574 
 11576      43616C6C 
ARM GAS  C:\Users\jens-\AppData\Local\Temp\ccdWTNhT.s 			page 269


 11576      6261636B 
 11577              	.LASF251:
 11578 024a 4379494D 		.ascii	"CyIMO_DisableDoubler\000"
 11578      4F5F4469 
 11578      7361626C 
 11578      65446F75 
 11578      626C6572 
 11579              	.LASF44:
 11580 025f 5F666E73 		.ascii	"_fns\000"
 11580      00
 11581              	.LASF191:
 11582 0264 43795664 		.ascii	"CyVdLvDigitDisable\000"
 11582      4C764469 
 11582      67697444 
 11582      69736162 
 11582      6C6500
 11583              	.LASF52:
 11584 0277 5F636F6F 		.ascii	"_cookie\000"
 11584      6B696500 
 11585              	.LASF218:
 11586 027f 43795854 		.ascii	"CyXTAL_Stop\000"
 11586      414C5F53 
 11586      746F7000 
 11587              	.LASF177:
 11588 028b 4379456E 		.ascii	"CyEnableInts\000"
 11588      61626C65 
 11588      496E7473 
 11588      00
 11589              	.LASF26:
 11590 0298 5F426967 		.ascii	"_Bigint\000"
 11590      696E7400 
 11591              	.LASF122:
 11592 02a0 75696E74 		.ascii	"uint8\000"
 11592      3800
 11593              	.LASF34:
 11594 02a6 5F5F746D 		.ascii	"__tm_wday\000"
 11594      5F776461 
 11594      7900
 11595              	.LASF254:
 11596 02b0 4379494D 		.ascii	"CyIMO_SetFreq\000"
 11596      4F5F5365 
 11596      74467265 
 11596      7100
 11597              	.LASF76:
 11598 02be 5F726573 		.ascii	"_result\000"
 11598      756C7400 
 11599              	.LASF200:
 11600 02c6 43794465 		.ascii	"CyDelayFreq\000"
 11600      6C617946 
 11600      72657100 
 11601              	.LASF226:
 11602 02d2 706D5477 		.ascii	"pmTwCfg2Tmp\000"
 11602      43666732 
 11602      546D7000 
 11603              	.LASF30:
 11604 02de 5F5F746D 		.ascii	"__tm_hour\000"
 11604      5F686F75 
ARM GAS  C:\Users\jens-\AppData\Local\Temp\ccdWTNhT.s 			page 270


 11604      7200
 11605              	.LASF230:
 11606 02e8 43795854 		.ascii	"CyXTAL_32KHZ_ReadStatus\000"
 11606      414C5F33 
 11606      324B485A 
 11606      5F526561 
 11606      64537461 
 11607              	.LASF16:
 11608 0300 5F5F636F 		.ascii	"__count\000"
 11608      756E7400 
 11609              	.LASF125:
 11610 0308 666C6F61 		.ascii	"float\000"
 11610      7400
 11611              	.LASF249:
 11612 030e 43794D61 		.ascii	"CyMasterClk_SetDivider\000"
 11612      73746572 
 11612      436C6B5F 
 11612      53657444 
 11612      69766964 
 11613              	.LASF29:
 11614 0325 5F5F746D 		.ascii	"__tm_min\000"
 11614      5F6D696E 
 11614      00
 11615              	.LASF119:
 11616 032e 5F696D70 		.ascii	"_impure_ptr\000"
 11616      7572655F 
 11616      70747200 
 11617              	.LASF153:
 11618 033a 43795379 		.ascii	"CySysTickGetReload\000"
 11618      73546963 
 11618      6B476574 
 11618      52656C6F 
 11618      616400
 11619              	.LASF114:
 11620 034d 5F6E6578 		.ascii	"_nextf\000"
 11620      746600
 11621              	.LASF136:
 11622 0354 63796465 		.ascii	"cydelay_freq_khz\000"
 11622      6C61795F 
 11622      66726571 
 11622      5F6B687A 
 11622      00
 11623              	.LASF281:
 11624 0365 433A5C55 		.ascii	"C:\\Users\\jens-\\Documents\\PSoC Creator\\Projekt3"
 11624      73657273 
 11624      5C6A656E 
 11624      732D5C44 
 11624      6F63756D 
 11625 0393 5C50726F 		.ascii	"\\Projekt3_PSOC\\Projekt3_PSOC_I2C.cydsn\000"
 11625      6A656B74 
 11625      335F5053 
 11625      4F435C50 
 11625      726F6A65 
 11626              	.LASF202:
 11627 03ba 43794465 		.ascii	"CyDelayUs\000"
 11627      6C617955 
 11627      7300
ARM GAS  C:\Users\jens-\AppData\Local\Temp\ccdWTNhT.s 			page 271


 11628              	.LASF199:
 11629 03c4 6C704D6F 		.ascii	"lpMode\000"
 11629      646500
 11630              	.LASF77:
 11631 03cb 5F726573 		.ascii	"_result_k\000"
 11631      756C745F 
 11631      6B00
 11632              	.LASF9:
 11633 03d5 6C6F6E67 		.ascii	"long long unsigned int\000"
 11633      206C6F6E 
 11633      6720756E 
 11633      7369676E 
 11633      65642069 
 11634              	.LASF97:
 11635 03ec 5F617363 		.ascii	"_asctime_buf\000"
 11635      74696D65 
 11635      5F627566 
 11635      00
 11636              	.LASF91:
 11637 03f9 5F72616E 		.ascii	"_rand48\000"
 11637      64343800 
 11638              	.LASF48:
 11639 0401 5F5F7346 		.ascii	"__sFILE\000"
 11639      494C4500 
 11640              	.LASF25:
 11641 0409 5F776473 		.ascii	"_wds\000"
 11641      00
 11642              	.LASF208:
 11643 040e 72656173 		.ascii	"reason\000"
 11643      6F6E00
 11644              	.LASF232:
 11645 0415 43795854 		.ascii	"CyXTAL_32KHZ_Start\000"
 11645      414C5F33 
 11645      324B485A 
 11645      5F537461 
 11645      727400
 11646              	.LASF207:
 11647 0428 43794861 		.ascii	"CyHalt\000"
 11647      6C7400
 11648              	.LASF227:
 11649 042f 43795854 		.ascii	"CyXTAL_32KHZ_SetPowerMode\000"
 11649      414C5F33 
 11649      324B485A 
 11649      5F536574 
 11649      506F7765 
 11650              	.LASF87:
 11651 0449 5F5F4649 		.ascii	"__FILE\000"
 11651      4C4500
 11652              	.LASF60:
 11653 0450 5F6F6666 		.ascii	"_offset\000"
 11653      73657400 
 11654              	.LASF210:
 11655 0458 73657474 		.ascii	"setting\000"
 11655      696E6700 
 11656              	.LASF155:
 11657 0460 76616C75 		.ascii	"value\000"
 11657      6500
ARM GAS  C:\Users\jens-\AppData\Local\Temp\ccdWTNhT.s 			page 272


 11658              	.LASF71:
 11659 0466 5F656D65 		.ascii	"_emergency\000"
 11659      7267656E 
 11659      637900
 11660              	.LASF209:
 11661 0471 43795854 		.ascii	"CyXTAL_SetWdVoltage\000"
 11661      414C5F53 
 11661      65745764 
 11661      566F6C74 
 11661      61676500 
 11662              	.LASF248:
 11663 0485 43794275 		.ascii	"CyBusClk_Internal_SetDivider\000"
 11663      73436C6B 
 11663      5F496E74 
 11663      65726E61 
 11663      6C5F5365 
 11664              	.LASF159:
 11665 04a2 43795379 		.ascii	"CySysTickStop\000"
 11665      73546963 
 11665      6B53746F 
 11665      7000
 11666              	.LASF163:
 11667 04b0 4379496E 		.ascii	"CyIntGetState\000"
 11667      74476574 
 11667      53746174 
 11667      6500
 11668              	.LASF260:
 11669 04be 4379494D 		.ascii	"CyIMO_Stop\000"
 11669      4F5F5374 
 11669      6F7000
 11670              	.LASF28:
 11671 04c9 5F5F746D 		.ascii	"__tm_sec\000"
 11671      5F736563 
 11671      00
 11672              	.LASF141:
 11673 04d2 43795379 		.ascii	"CySysTickGetCallback\000"
 11673      73546963 
 11673      6B476574 
 11673      43616C6C 
 11673      6261636B 
 11674              	.LASF192:
 11675 04e7 43795664 		.ascii	"CyVdLvAnalogEnable\000"
 11675      4C76416E 
 11675      616C6F67 
 11675      456E6162 
 11675      6C6500
 11676              	.LASF35:
 11677 04fa 5F5F746D 		.ascii	"__tm_yday\000"
 11677      5F796461 
 11677      7900
 11678              	.LASF70:
 11679 0504 5F696E63 		.ascii	"_inc\000"
 11679      00
 11680              	.LASF43:
 11681 0509 5F696E64 		.ascii	"_ind\000"
 11681      00
 11682              	.LASF246:
ARM GAS  C:\Users\jens-\AppData\Local\Temp\ccdWTNhT.s 			page 273


 11683 050e 62757343 		.ascii	"busClkDiv\000"
 11683      6C6B4469 
 11683      7600
 11684              	.LASF22:
 11685 0518 5F6E6578 		.ascii	"_next\000"
 11685      7400
 11686              	.LASF166:
 11687 051e 7072696F 		.ascii	"priority\000"
 11687      72697479 
 11687      00
 11688              	.LASF110:
 11689 0527 5F6D6273 		.ascii	"_mbsrtowcs_state\000"
 11689      72746F77 
 11689      63735F73 
 11689      74617465 
 11689      00
 11690              	.LASF182:
 11691 0538 7664466C 		.ascii	"vdFlagsState\000"
 11691      61677353 
 11691      74617465 
 11691      00
 11692              	.LASF241:
 11693 0545 4379494C 		.ascii	"CyILO_Start1K\000"
 11693      4F5F5374 
 11693      61727431 
 11693      4B00
 11694              	.LASF201:
 11695 0553 66726571 		.ascii	"freq\000"
 11695      00
 11696              	.LASF270:
 11697 0558 4379504C 		.ascii	"CyPLL_OUT_Stop\000"
 11697      4C5F4F55 
 11697      545F5374 
 11697      6F7000
 11698              	.LASF282:
 11699 0567 43795553 		.ascii	"CyUSB_PowerOnCheck\000"
 11699      425F506F 
 11699      7765724F 
 11699      6E436865 
 11699      636B00
 11700              	.LASF185:
 11701 057a 696E7465 		.ascii	"interruptStatus\000"
 11701      72727570 
 11701      74537461 
 11701      74757300 
 11702              	.LASF17:
 11703 058a 5F5F7661 		.ascii	"__value\000"
 11703      6C756500 
 11704              	.LASF78:
 11705 0592 5F703573 		.ascii	"_p5s\000"
 11705      00
 11706              	.LASF138:
 11707 0597 63796465 		.ascii	"cydelay_32k_ms\000"
 11707      6C61795F 
 11707      33326B5F 
 11707      6D7300
 11708              	.LASF198:
ARM GAS  C:\Users\jens-\AppData\Local\Temp\ccdWTNhT.s 			page 274


 11709 05a6 7469636B 		.ascii	"ticks\000"
 11709      7300
 11710              	.LASF139:
 11711 05ac 63795379 		.ascii	"cySysTickCallback\000"
 11711      73546963 
 11711      6B43616C 
 11711      6C626163 
 11711      6B00
 11712              	.LASF213:
 11713 05be 43795854 		.ascii	"CyXTAL_DisableFaultRecovery\000"
 11713      414C5F44 
 11713      69736162 
 11713      6C654661 
 11713      756C7452 
 11714              	.LASF112:
 11715 05da 5F776373 		.ascii	"_wcsrtombs_state\000"
 11715      72746F6D 
 11715      62735F73 
 11715      74617465 
 11715      00
 11716              	.LASF102:
 11717 05eb 5F6D626C 		.ascii	"_mblen_state\000"
 11717      656E5F73 
 11717      74617465 
 11717      00
 11718              	.LASF20:
 11719 05f8 63686172 		.ascii	"char\000"
 11719      00
 11720              	.LASF31:
 11721 05fd 5F5F746D 		.ascii	"__tm_mday\000"
 11721      5F6D6461 
 11721      7900
 11722              	.LASF147:
 11723 0607 43795379 		.ascii	"CySysTickGetCountFlag\000"
 11723      73546963 
 11723      6B476574 
 11723      436F756E 
 11723      74466C61 
 11724              	.LASF84:
 11725 061d 5F736967 		.ascii	"_sig_func\000"
 11725      5F66756E 
 11725      6300
 11726              	.LASF109:
 11727 0627 5F6D6272 		.ascii	"_mbrtowc_state\000"
 11727      746F7763 
 11727      5F737461 
 11727      746500
 11728              	.LASF83:
 11729 0636 5F617465 		.ascii	"_atexit0\000"
 11729      78697430 
 11729      00
 11730              	.LASF253:
 11731 063f 4379494D 		.ascii	"CyIMO_SetSource\000"
 11731      4F5F5365 
 11731      74536F75 
 11731      72636500 
 11732              	.LASF278:
ARM GAS  C:\Users\jens-\AppData\Local\Temp\ccdWTNhT.s 			page 275


 11733 064f 4379506D 		.ascii	"CyPmReadStatus\000"
 11733      52656164 
 11733      53746174 
 11733      757300
 11734              	.LASF180:
 11735 065e 696E7453 		.ascii	"intState\000"
 11735      74617465 
 11735      00
 11736              	.LASF123:
 11737 0667 75696E74 		.ascii	"uint16\000"
 11737      313600
 11738              	.LASF19:
 11739 066e 5F666C6F 		.ascii	"_flock_t\000"
 11739      636B5F74 
 11739      00
 11740              	.LASF259:
 11741 0677 706F7765 		.ascii	"poweredOn\000"
 11741      7265644F 
 11741      6E00
 11742              	.LASF170:
 11743 0681 4379496E 		.ascii	"CyIntSetVector\000"
 11743      74536574 
 11743      56656374 
 11743      6F7200
 11744              	.LASF14:
 11745 0690 5F5F7763 		.ascii	"__wch\000"
 11745      6800
 11746              	.LASF90:
 11747 0696 5F696F62 		.ascii	"_iobs\000"
 11747      7300
 11748              	.LASF221:
 11749 069c 73746174 		.ascii	"status\000"
 11749      757300
 11750              	.LASF195:
 11751 06a3 43795664 		.ascii	"CyVdLvDigitEnable\000"
 11751      4C764469 
 11751      67697445 
 11751      6E61626C 
 11751      6500
 11752              	.LASF56:
 11753 06b5 5F636C6F 		.ascii	"_close\000"
 11753      736500
 11754              	.LASF74:
 11755 06bc 5F5F7364 		.ascii	"__sdidinit\000"
 11755      6964696E 
 11755      697400
 11756              	.LASF188:
 11757 06c7 43795664 		.ascii	"CyVdHvAnalogEnable\000"
 11757      4876416E 
 11757      616C6F67 
 11757      456E6162 
 11757      6C6500
 11758              	.LASF67:
 11759 06da 5F737464 		.ascii	"_stdin\000"
 11759      696E00
 11760              	.LASF99:
 11761 06e1 5F67616D 		.ascii	"_gamma_signgam\000"
ARM GAS  C:\Users\jens-\AppData\Local\Temp\ccdWTNhT.s 			page 276


 11761      6D615F73 
 11761      69676E67 
 11761      616D00
 11762              	.LASF1:
 11763 06f0 6C6F6E67 		.ascii	"long long int\000"
 11763      206C6F6E 
 11763      6720696E 
 11763      7400
 11764              	.LASF46:
 11765 06fe 5F626173 		.ascii	"_base\000"
 11765      6500
 11766              	.LASF79:
 11767 0704 5F667265 		.ascii	"_freelist\000"
 11767      656C6973 
 11767      7400
 11768              	.LASF93:
 11769 070e 5F6D756C 		.ascii	"_mult\000"
 11769      7400
 11770              	.LASF21:
 11771 0714 5F5F554C 		.ascii	"__ULong\000"
 11771      6F6E6700 
 11772              	.LASF160:
 11773 071c 43795379 		.ascii	"CySysTickEnable\000"
 11773      73546963 
 11773      6B456E61 
 11773      626C6500 
 11774              	.LASF111:
 11775 072c 5F776372 		.ascii	"_wcrtomb_state\000"
 11775      746F6D62 
 11775      5F737461 
 11775      746500
 11776              	.LASF261:
 11777 073b 4379494D 		.ascii	"CyIMO_Start\000"
 11777      4F5F5374 
 11777      61727400 
 11778              	.LASF233:
 11779 0747 4379494C 		.ascii	"CyILO_SetPowerMode\000"
 11779      4F5F5365 
 11779      74506F77 
 11779      65724D6F 
 11779      646500
 11780              	.LASF50:
 11781 075a 5F66696C 		.ascii	"_file\000"
 11781      6500
 11782              	.LASF140:
 11783 0760 43795379 		.ascii	"CySysTickInitVar\000"
 11783      73546963 
 11783      6B496E69 
 11783      74566172 
 11783      00
 11784              	.LASF173:
 11785 0771 4379496E 		.ascii	"CyIntGetSysVector\000"
 11785      74476574 
 11785      53797356 
 11785      6563746F 
 11785      7200
 11786              	.LASF189:
ARM GAS  C:\Users\jens-\AppData\Local\Temp\ccdWTNhT.s 			page 277


 11787 0783 696E7452 		.ascii	"intRegTmp\000"
 11787      6567546D 
 11787      7000
 11788              	.LASF184:
 11789 078d 43795379 		.ascii	"CySysTickCallbacks\000"
 11789      73546963 
 11789      6B43616C 
 11789      6C626163 
 11789      6B7300
 11790              	.LASF152:
 11791 07a0 43795379 		.ascii	"CySysTickGetValue\000"
 11791      73546963 
 11791      6B476574 
 11791      56616C75 
 11791      6500
 11792              	.LASF272:
 11793 07b2 706D5477 		.ascii	"pmTwCfg0State\000"
 11793      43666730 
 11793      53746174 
 11793      6500
 11794              	.LASF75:
 11795 07c0 5F5F636C 		.ascii	"__cleanup\000"
 11795      65616E75 
 11795      7000
 11796              	.LASF18:
 11797 07ca 5F6D6273 		.ascii	"_mbstate_t\000"
 11797      74617465 
 11797      5F7400
 11798              	.LASF217:
 11799 07d5 43795854 		.ascii	"CyXTAL_EnableErrStatus\000"
 11799      414C5F45 
 11799      6E61626C 
 11799      65457272 
 11799      53746174 
 11800              	.LASF131:
 11801 07ec 63796973 		.ascii	"cyisraddress\000"
 11801      72616464 
 11801      72657373 
 11801      00
 11802              	.LASF216:
 11803 07f9 43795854 		.ascii	"CyXTAL_DisableErrStatus\000"
 11803      414C5F44 
 11803      69736162 
 11803      6C654572 
 11803      72537461 
 11804              	.LASF223:
 11805 0811 636F756E 		.ascii	"count\000"
 11805      7400
 11806              	.LASF124:
 11807 0817 75696E74 		.ascii	"uint32\000"
 11807      333200
 11808              	.LASF36:
 11809 081e 5F5F746D 		.ascii	"__tm_isdst\000"
 11809      5F697364 
 11809      737400
 11810              	.LASF162:
 11811 0829 43795379 		.ascii	"CySysTickStart\000"
ARM GAS  C:\Users\jens-\AppData\Local\Temp\ccdWTNhT.s 			page 278


 11811      73546963 
 11811      6B537461 
 11811      727400
 11812              	.LASF247:
 11813 0838 43795379 		.ascii	"CySysTickServiceCallbacks\000"
 11813      73546963 
 11813      6B536572 
 11813      76696365 
 11813      43616C6C 
 11814              	.LASF178:
 11815 0852 6D61736B 		.ascii	"mask\000"
 11815      00
 11816              	.LASF150:
 11817 0857 43795379 		.ascii	"CySysTickSetClockSource\000"
 11817      73546963 
 11817      6B536574 
 11817      436C6F63 
 11817      6B536F75 
 11818              	.LASF197:
 11819 086f 43795764 		.ascii	"CyWdtStart\000"
 11819      74537461 
 11819      727400
 11820              	.LASF113:
 11821 087a 5F685F65 		.ascii	"_h_errno\000"
 11821      72726E6F 
 11821      00
 11822              	.LASF220:
 11823 0883 77616974 		.ascii	"wait\000"
 11823      00
 11824              	.LASF231:
 11825 0888 43795854 		.ascii	"CyXTAL_32KHZ_Stop\000"
 11825      414C5F33 
 11825      324B485A 
 11825      5F53746F 
 11825      7000
 11826              	.LASF250:
 11827 089a 43794D61 		.ascii	"CyMasterClk_SetSource\000"
 11827      73746572 
 11827      436C6B5F 
 11827      53657453 
 11827      6F757263 
 11828              	.LASF239:
 11829 08b0 4379494C 		.ascii	"CyILO_Start100K\000"
 11829      4F5F5374 
 11829      61727431 
 11829      30304B00 
 11830              	.LASF256:
 11831 08c0 6E657874 		.ascii	"nextFreq\000"
 11831      46726571 
 11831      00
 11832              	.LASF32:
 11833 08c9 5F5F746D 		.ascii	"__tm_mon\000"
 11833      5F6D6F6E 
 11833      00
 11834              	.LASF234:
 11835 08d2 4379494C 		.ascii	"CyILO_SetSource\000"
 11835      4F5F5365 
ARM GAS  C:\Users\jens-\AppData\Local\Temp\ccdWTNhT.s 			page 279


 11835      74536F75 
 11835      72636500 
 11836              	.LASF2:
 11837 08e2 6C6F6E67 		.ascii	"long double\000"
 11837      20646F75 
 11837      626C6500 
 11838              	.LASF10:
 11839 08ee 5F4C4F43 		.ascii	"_LOCK_T\000"
 11839      4B5F5400 
 11840              	.LASF179:
 11841 08f6 43794469 		.ascii	"CyDisableInts\000"
 11841      7361626C 
 11841      65496E74 
 11841      7300
 11842              	.LASF130:
 11843 0904 72656733 		.ascii	"reg32\000"
 11843      3200
 11844              	.LASF151:
 11845 090a 636C6F63 		.ascii	"clockSource\000"
 11845      6B536F75 
 11845      72636500 
 11846              	.LASF54:
 11847 0916 5F777269 		.ascii	"_write\000"
 11847      746500
 11848              	.LASF258:
 11849 091d 75736250 		.ascii	"usbPowerOn\000"
 11849      6F776572 
 11849      4F6E00
 11850              	.LASF15:
 11851 0928 5F5F7763 		.ascii	"__wchb\000"
 11851      686200
 11852              	.LASF42:
 11853 092f 5F617465 		.ascii	"_atexit\000"
 11853      78697400 
 11854              	.LASF265:
 11855 0937 4379504C 		.ascii	"CyPLL_OUT_SetSource\000"
 11855      4C5F4F55 
 11855      545F5365 
 11855      74536F75 
 11855      72636500 
 11856              	.LASF154:
 11857 094b 43795379 		.ascii	"CySysTickSetReload\000"
 11857      73546963 
 11857      6B536574 
 11857      52656C6F 
 11857      616400
 11858              	.LASF190:
 11859 095e 43795664 		.ascii	"CyVdLvAnalogDisable\000"
 11859      4C76416E 
 11859      616C6F67 
 11859      44697361 
 11859      626C6500 
 11860              	.LASF5:
 11861 0972 73686F72 		.ascii	"short int\000"
 11861      7420696E 
 11861      7400
 11862              	.LASF244:
ARM GAS  C:\Users\jens-\AppData\Local\Temp\ccdWTNhT.s 			page 280


 11863 097c 64697669 		.ascii	"divider\000"
 11863      64657200 
 11864              	.LASF7:
 11865 0984 6C6F6E67 		.ascii	"long int\000"
 11865      20696E74 
 11865      00
 11866              	.LASF175:
 11867 098d 4379466C 		.ascii	"CyFlushCache\000"
 11867      75736843 
 11867      61636865 
 11867      00
 11868              	.LASF164:
 11869 099a 73746174 		.ascii	"stateReg\000"
 11869      65526567 
 11869      00
 11870              	.LASF174:
 11871 09a3 4379496E 		.ascii	"CyIntSetSysVector\000"
 11871      74536574 
 11871      53797356 
 11871      6563746F 
 11871      7200
 11872              	.LASF133:
 11873 09b5 64696554 		.ascii	"dieTemperature\000"
 11873      656D7065 
 11873      72617475 
 11873      726500
 11874              	.LASF132:
 11875 09c4 5370634C 		.ascii	"SpcLockState\000"
 11875      6F636B53 
 11875      74617465 
 11875      00
 11876              	.LASF86:
 11877 09d1 5F5F7366 		.ascii	"__sf\000"
 11877      00
 11878              	.LASF24:
 11879 09d6 5F736967 		.ascii	"_sign\000"
 11879      6E00
 11880              	.LASF134:
 11881 09dc 43795265 		.ascii	"CyResetStatus\000"
 11881      73657453 
 11881      74617475 
 11881      7300
 11882              	.LASF129:
 11883 09ea 72656731 		.ascii	"reg16\000"
 11883      3600
 11884              	.LASF157:
 11885 09f0 43795379 		.ascii	"CySysTickDisableInterrupt\000"
 11885      73546963 
 11885      6B446973 
 11885      61626C65 
 11885      496E7465 
 11886              	.LASF172:
 11887 0a0a 6F6C6449 		.ascii	"oldIsr\000"
 11887      737200
 11888              	.LASF61:
 11889 0a11 5F646174 		.ascii	"_data\000"
 11889      6100
ARM GAS  C:\Users\jens-\AppData\Local\Temp\ccdWTNhT.s 			page 281


 11890              	.LASF279:
 11891 0a17 474E5520 		.ascii	"GNU C17 9.2.1 20191025 (release) [ARM/arm-9-branch "
 11891      43313720 
 11891      392E322E 
 11891      31203230 
 11891      31393130 
 11892 0a4a 72657669 		.ascii	"revision 277599] -mcpu=cortex-m3 -mthumb -mfloat-ab"
 11892      73696F6E 
 11892      20323737 
 11892      3539395D 
 11892      202D6D63 
 11893 0a7d 693D736F 		.ascii	"i=soft -march=armv7-m -g -Og -ffunction-sections -f"
 11893      6674202D 
 11893      6D617263 
 11893      683D6172 
 11893      6D76372D 
 11894 0ab0 6661742D 		.ascii	"fat-lto-objects\000"
 11894      6C746F2D 
 11894      6F626A65 
 11894      63747300 
 11895              	.LASF120:
 11896 0ac0 5F676C6F 		.ascii	"_global_impure_ptr\000"
 11896      62616C5F 
 11896      696D7075 
 11896      72655F70 
 11896      747200
 11897              	.LASF33:
 11898 0ad3 5F5F746D 		.ascii	"__tm_year\000"
 11898      5F796561 
 11898      7200
 11899              	.LASF268:
 11900 0add 71446976 		.ascii	"qDiv\000"
 11900      00
 11901              	.LASF193:
 11902 0ae2 72657365 		.ascii	"reset\000"
 11902      7400
 11903              	.LASF98:
 11904 0ae8 5F6C6F63 		.ascii	"_localtime_buf\000"
 11904      616C7469 
 11904      6D655F62 
 11904      756600
 11905              	.LASF116:
 11906 0af7 5F756E75 		.ascii	"_unused\000"
 11906      73656400 
 11907              	.LASF235:
 11908 0aff 736F7572 		.ascii	"source\000"
 11908      636500
 11909              	.LASF82:
 11910 0b06 5F6E6577 		.ascii	"_new\000"
 11910      00
 11911              	.LASF143:
 11912 0b0b 6E756D62 		.ascii	"number\000"
 11912      657200
 11913              	.LASF80:
 11914 0b12 5F637674 		.ascii	"_cvtlen\000"
 11914      6C656E00 
 11915              	.LASF23:
ARM GAS  C:\Users\jens-\AppData\Local\Temp\ccdWTNhT.s 			page 282


 11916 0b1a 5F6D6178 		.ascii	"_maxwds\000"
 11916      77647300 
 11917              	.LASF105:
 11918 0b22 5F6C3634 		.ascii	"_l64a_buf\000"
 11918      615F6275 
 11918      6600
 11919              	.LASF229:
 11920 0b2c 73746174 		.ascii	"state\000"
 11920      6500
 11921              	.LASF161:
 11922 0b32 43795379 		.ascii	"CySysTickInit\000"
 11922      73546963 
 11922      6B496E69 
 11922      7400
 11923              	.LASF59:
 11924 0b40 5F626C6B 		.ascii	"_blksize\000"
 11924      73697A65 
 11924      00
 11925              	.LASF27:
 11926 0b49 5F5F746D 		.ascii	"__tm\000"
 11926      00
 11927              	.LASF62:
 11928 0b4e 5F6C6F63 		.ascii	"_lock\000"
 11928      6B00
 11929              	.LASF8:
 11930 0b54 6C6F6E67 		.ascii	"long unsigned int\000"
 11930      20756E73 
 11930      69676E65 
 11930      6420696E 
 11930      7400
 11931              	.LASF146:
 11932 0b66 72657456 		.ascii	"retVal\000"
 11932      616C00
 11933              	.LASF171:
 11934 0b6d 61646472 		.ascii	"address\000"
 11934      65737300 
 11935              	.LASF273:
 11936 0b75 706D5477 		.ascii	"pmTwCfg2State\000"
 11936      43666732 
 11936      53746174 
 11936      6500
 11937              	.LASF89:
 11938 0b83 5F6E696F 		.ascii	"_niobs\000"
 11938      627300
 11939              	.LASF13:
 11940 0b8a 77696E74 		.ascii	"wint_t\000"
 11940      5F7400
 11941              	.LASF264:
 11942 0b91 696C6F31 		.ascii	"ilo100KhzEnable\000"
 11942      30304B68 
 11942      7A456E61 
 11942      626C6500 
 11943              	.LASF39:
 11944 0ba1 5F64736F 		.ascii	"_dso_handle\000"
 11944      5F68616E 
 11944      646C6500 
 11945              	.LASF117:
ARM GAS  C:\Users\jens-\AppData\Local\Temp\ccdWTNhT.s 			page 283


 11946 0bad 5F5F6C6F 		.ascii	"__lock\000"
 11946      636B00
 11947              	.LASF206:
 11948 0bb4 4379536F 		.ascii	"CySoftwareReset\000"
 11948      66747761 
 11948      72655265 
 11948      73657400 
 11949              	.LASF127:
 11950 0bc4 63797374 		.ascii	"cystatus\000"
 11950      61747573 
 11950      00
 11951              	.LASF81:
 11952 0bcd 5F637674 		.ascii	"_cvtbuf\000"
 11952      62756600 
 11953              	.LASF4:
 11954 0bd5 756E7369 		.ascii	"unsigned char\000"
 11954      676E6564 
 11954      20636861 
 11954      7200
 11955              	.LASF169:
 11956 0be3 72616D56 		.ascii	"ramVectorTable\000"
 11956      6563746F 
 11956      72546162 
 11956      6C6500
 11957              	.LASF149:
 11958 0bf2 43794765 		.ascii	"CyGetUniqueId\000"
 11958      74556E69 
 11958      71756549 
 11958      6400
 11959              	.LASF145:
 11960 0c00 66756E63 		.ascii	"function\000"
 11960      74696F6E 
 11960      00
 11961              	.LASF219:
 11962 0c09 43795854 		.ascii	"CyXTAL_Start\000"
 11962      414C5F53 
 11962      74617274 
 11962      00
 11963              	.LASF269:
 11964 0c16 63757272 		.ascii	"current\000"
 11964      656E7400 
 11965              	.LASF222:
 11966 0c1e 74696D65 		.ascii	"timeout\000"
 11966      6F757400 
 11967              	.LASF107:
 11968 0c26 5F676574 		.ascii	"_getdate_err\000"
 11968      64617465 
 11968      5F657272 
 11968      00
 11969              	.LASF203:
 11970 0c33 6D696372 		.ascii	"microseconds\000"
 11970      6F736563 
 11970      6F6E6473 
 11970      00
 11971              	.LASF144:
 11972 0c40 756E6971 		.ascii	"uniqueId\000"
 11972      75654964 
ARM GAS  C:\Users\jens-\AppData\Local\Temp\ccdWTNhT.s 			page 284


 11972      00
 11973              	.LASF242:
 11974 0c49 43795573 		.ascii	"CyUsbClk_SetSource\000"
 11974      62436C6B 
 11974      5F536574 
 11974      536F7572 
 11974      636500
 11975              	.LASF94:
 11976 0c5c 5F616464 		.ascii	"_add\000"
 11976      00
 11977              	.LASF158:
 11978 0c61 43795379 		.ascii	"CySysTickEnableInterrupt\000"
 11978      73546963 
 11978      6B456E61 
 11978      626C6549 
 11978      6E746572 
 11979              	.LASF45:
 11980 0c7a 5F5F7362 		.ascii	"__sbuf\000"
 11980      756600
 11981              	.LASF181:
 11982 0c81 43795664 		.ascii	"CyVdRealTimeStatus\000"
 11982      5265616C 
 11982      54696D65 
 11982      53746174 
 11982      757300
 11983              	.LASF186:
 11984 0c94 746D7053 		.ascii	"tmpStatus\000"
 11984      74617475 
 11984      7300
 11985              	.LASF238:
 11986 0c9e 4379494C 		.ascii	"CyILO_Stop100K\000"
 11986      4F5F5374 
 11986      6F703130 
 11986      304B00
 11987              	.LASF88:
 11988 0cad 5F676C75 		.ascii	"_glue\000"
 11988      6500
 11989              	.LASF214:
 11990 0cb3 43795854 		.ascii	"CyXTAL_EnableFaultRecovery\000"
 11990      414C5F45 
 11990      6E61626C 
 11990      65466175 
 11990      6C745265 
 11991              	.LASF211:
 11992 0cce 43795854 		.ascii	"CyXTAL_SetFbVoltage\000"
 11992      414C5F53 
 11992      65744662 
 11992      566F6C74 
 11992      61676500 
 11993              	.LASF194:
 11994 0ce2 74687265 		.ascii	"threshold\000"
 11994      73686F6C 
 11994      6400
 11995              	.LASF85:
 11996 0cec 5F5F7367 		.ascii	"__sglue\000"
 11996      6C756500 
 11997              	.LASF96:
ARM GAS  C:\Users\jens-\AppData\Local\Temp\ccdWTNhT.s 			page 285


 11998 0cf4 5F737472 		.ascii	"_strtok_last\000"
 11998      746F6B5F 
 11998      6C617374 
 11998      00
 11999              	.LASF103:
 12000 0d01 5F6D6274 		.ascii	"_mbtowc_state\000"
 12000      6F77635F 
 12000      73746174 
 12000      6500
 12001              	.LASF274:
 12002 0d0f 4379456E 		.ascii	"CyEnterCriticalSection\000"
 12002      74657243 
 12002      72697469 
 12002      63616C53 
 12002      65637469 
 12003              	.LASF73:
 12004 0d26 5F6C6F63 		.ascii	"_locale\000"
 12004      616C6500 
 12005              	.LASF121:
 12006 0d2e 5F637479 		.ascii	"_ctype_\000"
 12006      70655F00 
 12007              	.LASF38:
 12008 0d36 5F666E61 		.ascii	"_fnargs\000"
 12008      72677300 
 12009              	.LASF3:
 12010 0d3e 7369676E 		.ascii	"signed char\000"
 12010      65642063 
 12010      68617200 
 12011              	.LASF276:
 12012 0d4a 43794465 		.ascii	"CyDelayCycles\000"
 12012      6C617943 
 12012      79636C65 
 12012      7300
 12013              	.LASF65:
 12014 0d58 5F726565 		.ascii	"_reent\000"
 12014      6E7400
 12015              	.LASF6:
 12016 0d5f 73686F72 		.ascii	"short unsigned int\000"
 12016      7420756E 
 12016      7369676E 
 12016      65642069 
 12016      6E7400
 12017              	.LASF135:
 12018 0d72 63796465 		.ascii	"cydelay_freq_hz\000"
 12018      6C61795F 
 12018      66726571 
 12018      5F687A00 
 12019              	.LASF237:
 12020 0d82 4379494C 		.ascii	"CyILO_Enable33K\000"
 12020      4F5F456E 
 12020      61626C65 
 12020      33334B00 
 12021              	.LASF40:
 12022 0d92 5F666E74 		.ascii	"_fntypes\000"
 12022      79706573 
 12022      00
 12023              	.LASF47:
ARM GAS  C:\Users\jens-\AppData\Local\Temp\ccdWTNhT.s 			page 286


 12024 0d9b 5F73697A 		.ascii	"_size\000"
 12024      6500
 12025              	.LASF126:
 12026 0da1 646F7562 		.ascii	"double\000"
 12026      6C6500
 12027              	.LASF148:
 12028 0da8 43795379 		.ascii	"CySysTickGetClockSource\000"
 12028      73546963 
 12028      6B476574 
 12028      436C6F63 
 12028      6B536F75 
 12029              	.LASF11:
 12030 0dc0 5F6F6666 		.ascii	"_off_t\000"
 12030      5F7400
 12031              	.LASF58:
 12032 0dc7 5F6E6275 		.ascii	"_nbuf\000"
 12032      6600
 12033              	.LASF95:
 12034 0dcd 5F756E75 		.ascii	"_unused_rand\000"
 12034      7365645F 
 12034      72616E64 
 12034      00
 12035              	.LASF224:
 12036 0dda 696C6F45 		.ascii	"iloEnableState\000"
 12036      6E61626C 
 12036      65537461 
 12036      746500
 12037              	.LASF72:
 12038 0de9 5F756E73 		.ascii	"_unspecified_locale_info\000"
 12038      70656369 
 12038      66696564 
 12038      5F6C6F63 
 12038      616C655F 
 12039              	.LASF64:
 12040 0e02 5F666C61 		.ascii	"_flags2\000"
 12040      67733200 
 12041              	.LASF41:
 12042 0e0a 5F69735F 		.ascii	"_is_cxa\000"
 12042      63786100 
 12043              	.LASF92:
 12044 0e12 5F736565 		.ascii	"_seed\000"
 12044      6400
 12045              	.LASF100:
 12046 0e18 5F72616E 		.ascii	"_rand_next\000"
 12046      645F6E65 
 12046      787400
 12047              	.LASF118:
 12048 0e23 5F5F6C6F 		.ascii	"__locale_t\000"
 12048      63616C65 
 12048      5F7400
 12049              	.LASF187:
 12050 0e2e 43795664 		.ascii	"CyVdHvAnalogDisable\000"
 12050      4876416E 
 12050      616C6F67 
 12050      44697361 
 12050      626C6500 
 12051              	.LASF55:
ARM GAS  C:\Users\jens-\AppData\Local\Temp\ccdWTNhT.s 			page 287


 12052 0e42 5F736565 		.ascii	"_seek\000"
 12052      6B00
 12053              	.LASF262:
 12054 0e48 706D4674 		.ascii	"pmFtwCfg2Reg\000"
 12054      77436667 
 12054      32526567 
 12054      00
 12055              	.LASF69:
 12056 0e55 5F737464 		.ascii	"_stderr\000"
 12056      65727200 
 12057              	.LASF115:
 12058 0e5d 5F6E6D61 		.ascii	"_nmalloc\000"
 12058      6C6C6F63 
 12058      00
 12059              	.LASF57:
 12060 0e66 5F756275 		.ascii	"_ubuf\000"
 12060      6600
 12061              		.ident	"GCC: (GNU Tools for Arm Embedded Processors 9-2019-q4-major) 9.2.1 20191025 (release) [ARM
