ARM GAS  C:\Users\jens-\AppData\Local\Temp\ccLlrUxa.s 			page 1


   1              		.cpu cortex-m3
   2              		.eabi_attribute 20, 1
   3              		.eabi_attribute 21, 1
   4              		.eabi_attribute 23, 3
   5              		.eabi_attribute 24, 1
   6              		.eabi_attribute 25, 1
   7              		.eabi_attribute 26, 1
   8              		.eabi_attribute 30, 1
   9              		.eabi_attribute 34, 1
  10              		.eabi_attribute 18, 4
  11              		.file	"CySpc.c"
  12              		.text
  13              	.Ltext0:
  14              		.cfi_sections	.debug_frame
  15              		.section	.text.CySpcStart,"ax",%progbits
  16              		.align	1
  17              		.global	CySpcStart
  18              		.arch armv7-m
  19              		.syntax unified
  20              		.thumb
  21              		.thumb_func
  22              		.fpu softvfp
  23              		.type	CySpcStart, %function
  24              	CySpcStart:
  25              	.LFB0:
  26              		.file 1 "Generated_Source\\PSoC5\\CySpc.c"
   1:Generated_Source\PSoC5/CySpc.c **** /***************************************************************************//**
   2:Generated_Source\PSoC5/CySpc.c **** * \file CySpc.c
   3:Generated_Source\PSoC5/CySpc.c **** * \version 5.70
   4:Generated_Source\PSoC5/CySpc.c **** *
   5:Generated_Source\PSoC5/CySpc.c **** * \brief Provides an API for the System Performance Component.
   6:Generated_Source\PSoC5/CySpc.c **** * The SPC functions are not meant to be called directly by the user
   7:Generated_Source\PSoC5/CySpc.c **** * application.
   8:Generated_Source\PSoC5/CySpc.c **** *
   9:Generated_Source\PSoC5/CySpc.c **** ********************************************************************************
  10:Generated_Source\PSoC5/CySpc.c **** * \copyright
  11:Generated_Source\PSoC5/CySpc.c **** * Copyright 2008-2018, Cypress Semiconductor Corporation.  All rights reserved.
  12:Generated_Source\PSoC5/CySpc.c **** * You may use this file only in accordance with the license, terms, conditions,
  13:Generated_Source\PSoC5/CySpc.c **** * disclaimers, and limitations in the end user license agreement accompanying
  14:Generated_Source\PSoC5/CySpc.c **** * the software package with which this file was provided.
  15:Generated_Source\PSoC5/CySpc.c **** *******************************************************************************/
  16:Generated_Source\PSoC5/CySpc.c **** 
  17:Generated_Source\PSoC5/CySpc.c **** #include "CySpc.h"
  18:Generated_Source\PSoC5/CySpc.c **** 
  19:Generated_Source\PSoC5/CySpc.c **** #define CY_SPC_KEY_ONE                      (0xB6u)
  20:Generated_Source\PSoC5/CySpc.c **** #define CY_SPC_KEY_TWO(x)                   ((uint8) (((uint16) 0xD3u) + ((uint16) (x))))
  21:Generated_Source\PSoC5/CySpc.c **** 
  22:Generated_Source\PSoC5/CySpc.c **** /* Command Codes */
  23:Generated_Source\PSoC5/CySpc.c **** #define CY_SPC_CMD_LD_BYTE                  (0x00u)
  24:Generated_Source\PSoC5/CySpc.c **** #define CY_SPC_CMD_LD_MULTI_BYTE            (0x01u)
  25:Generated_Source\PSoC5/CySpc.c **** #define CY_SPC_CMD_LD_ROW                   (0x02u)
  26:Generated_Source\PSoC5/CySpc.c **** #define CY_SPC_CMD_RD_BYTE                  (0x03u)
  27:Generated_Source\PSoC5/CySpc.c **** #define CY_SPC_CMD_RD_MULTI_BYTE            (0x04u)
  28:Generated_Source\PSoC5/CySpc.c **** #define CY_SPC_CMD_WR_ROW                   (0x05u)
  29:Generated_Source\PSoC5/CySpc.c **** #define CY_SPC_CMD_WR_USER_NVL              (0x06u)
  30:Generated_Source\PSoC5/CySpc.c **** #define CY_SPC_CMD_PRG_ROW                  (0x07u)
  31:Generated_Source\PSoC5/CySpc.c **** #define CY_SPC_CMD_ER_SECTOR                (0x08u)
ARM GAS  C:\Users\jens-\AppData\Local\Temp\ccLlrUxa.s 			page 2


  32:Generated_Source\PSoC5/CySpc.c **** #define CY_SPC_CMD_ER_ALL                   (0x09u)
  33:Generated_Source\PSoC5/CySpc.c **** #define CY_SPC_CMD_RD_HIDDEN                (0x0Au)
  34:Generated_Source\PSoC5/CySpc.c **** #define CY_SPC_CMD_PRG_PROTECT              (0x0Bu)
  35:Generated_Source\PSoC5/CySpc.c **** #define CY_SPC_CMD_CHECKSUM                 (0x0Cu)
  36:Generated_Source\PSoC5/CySpc.c **** #define CY_SPC_CMD_DWNLD_ALGORITHM          (0x0Du)
  37:Generated_Source\PSoC5/CySpc.c **** #define CY_SPC_CMD_GET_TEMP                 (0x0Eu)
  38:Generated_Source\PSoC5/CySpc.c **** #define CY_SPC_CMD_GET_ADC                  (0x0Fu)
  39:Generated_Source\PSoC5/CySpc.c **** #define CY_SPC_CMD_RD_NVL_VOLATILE          (0x10u)
  40:Generated_Source\PSoC5/CySpc.c **** #define CY_SPC_CMD_SETUP_TS                 (0x11u)
  41:Generated_Source\PSoC5/CySpc.c **** #define CY_SPC_CMD_DISABLE_TS               (0x12u)
  42:Generated_Source\PSoC5/CySpc.c **** #define CY_SPC_CMD_ER_ROW                   (0x13u)
  43:Generated_Source\PSoC5/CySpc.c **** 
  44:Generated_Source\PSoC5/CySpc.c **** /* Enable bit in Active and Alternate Active mode templates */
  45:Generated_Source\PSoC5/CySpc.c **** #define PM_SPC_PM_EN                        (0x08u)
  46:Generated_Source\PSoC5/CySpc.c **** 
  47:Generated_Source\PSoC5/CySpc.c **** /* Gate calls to the SPC. */
  48:Generated_Source\PSoC5/CySpc.c **** uint8 SpcLockState = CY_SPC_UNLOCKED;
  49:Generated_Source\PSoC5/CySpc.c **** 
  50:Generated_Source\PSoC5/CySpc.c **** 
  51:Generated_Source\PSoC5/CySpc.c **** #if(CY_PSOC5)
  52:Generated_Source\PSoC5/CySpc.c **** 
  53:Generated_Source\PSoC5/CySpc.c ****     /***************************************************************************
  54:Generated_Source\PSoC5/CySpc.c ****     * The wait-state pipeline must be enabled prior to accessing the SPC
  55:Generated_Source\PSoC5/CySpc.c ****     * register interface regardless of CPU frequency. The CySpcLock() saves
  56:Generated_Source\PSoC5/CySpc.c ****     * current wait-state pipeline state and enables it. The CySpcUnlock()
  57:Generated_Source\PSoC5/CySpc.c ****     * function, which must be called after SPC transaction, restores original
  58:Generated_Source\PSoC5/CySpc.c ****     * state.
  59:Generated_Source\PSoC5/CySpc.c ****     ***************************************************************************/
  60:Generated_Source\PSoC5/CySpc.c ****     static uint32 spcWaitPipeBypass = 0u;
  61:Generated_Source\PSoC5/CySpc.c **** 
  62:Generated_Source\PSoC5/CySpc.c **** #endif  /* (CY_PSOC5) */
  63:Generated_Source\PSoC5/CySpc.c **** 
  64:Generated_Source\PSoC5/CySpc.c **** 
  65:Generated_Source\PSoC5/CySpc.c **** /*******************************************************************************
  66:Generated_Source\PSoC5/CySpc.c **** * Function Name: CySpcStart
  67:Generated_Source\PSoC5/CySpc.c **** ****************************************************************************//**
  68:Generated_Source\PSoC5/CySpc.c **** *  Starts the SPC.
  69:Generated_Source\PSoC5/CySpc.c **** *
  70:Generated_Source\PSoC5/CySpc.c **** *******************************************************************************/
  71:Generated_Source\PSoC5/CySpc.c **** void CySpcStart(void) 
  72:Generated_Source\PSoC5/CySpc.c **** {
  27              		.loc 1 72 1 view -0
  28              		.cfi_startproc
  29              		@ args = 0, pretend = 0, frame = 0
  30              		@ frame_needed = 0, uses_anonymous_args = 0
  31 0000 08B5     		push	{r3, lr}
  32              		.cfi_def_cfa_offset 8
  33              		.cfi_offset 3, -8
  34              		.cfi_offset 14, -4
  73:Generated_Source\PSoC5/CySpc.c ****     /* Save current global interrupt enable and disable it */
  74:Generated_Source\PSoC5/CySpc.c ****     uint8 interruptState = CyEnterCriticalSection();
  35              		.loc 1 74 5 view .LVU1
  36              		.loc 1 74 28 is_stmt 0 view .LVU2
  37 0002 FFF7FEFF 		bl	CyEnterCriticalSection
  38              	.LVL0:
  75:Generated_Source\PSoC5/CySpc.c **** 
  76:Generated_Source\PSoC5/CySpc.c ****     CY_SPC_PM_ACT_REG  |= PM_SPC_PM_EN;
ARM GAS  C:\Users\jens-\AppData\Local\Temp\ccLlrUxa.s 			page 3


  39              		.loc 1 76 5 is_stmt 1 view .LVU3
  40              		.loc 1 76 24 is_stmt 0 view .LVU4
  41 0006 064A     		ldr	r2, .L3
  42 0008 1378     		ldrb	r3, [r2]	@ zero_extendqisi2
  43 000a 43F00803 		orr	r3, r3, #8
  44 000e 1370     		strb	r3, [r2]
  77:Generated_Source\PSoC5/CySpc.c ****     CY_SPC_PM_STBY_REG |= PM_SPC_PM_EN;
  45              		.loc 1 77 5 is_stmt 1 view .LVU5
  46              		.loc 1 77 24 is_stmt 0 view .LVU6
  47 0010 1032     		adds	r2, r2, #16
  48 0012 1378     		ldrb	r3, [r2]	@ zero_extendqisi2
  49 0014 43F00803 		orr	r3, r3, #8
  50 0018 1370     		strb	r3, [r2]
  78:Generated_Source\PSoC5/CySpc.c **** 
  79:Generated_Source\PSoC5/CySpc.c ****     /* Restore global interrupt enable state */
  80:Generated_Source\PSoC5/CySpc.c ****     CyExitCriticalSection(interruptState);
  51              		.loc 1 80 5 is_stmt 1 view .LVU7
  52 001a FFF7FEFF 		bl	CyExitCriticalSection
  53              	.LVL1:
  81:Generated_Source\PSoC5/CySpc.c **** }
  54              		.loc 1 81 1 is_stmt 0 view .LVU8
  55 001e 08BD     		pop	{r3, pc}
  56              	.L4:
  57              		.align	2
  58              	.L3:
  59 0020 A0430040 		.word	1073759136
  60              		.cfi_endproc
  61              	.LFE0:
  62              		.size	CySpcStart, .-CySpcStart
  63              		.section	.text.CySpcStop,"ax",%progbits
  64              		.align	1
  65              		.global	CySpcStop
  66              		.syntax unified
  67              		.thumb
  68              		.thumb_func
  69              		.fpu softvfp
  70              		.type	CySpcStop, %function
  71              	CySpcStop:
  72              	.LFB1:
  82:Generated_Source\PSoC5/CySpc.c **** 
  83:Generated_Source\PSoC5/CySpc.c **** 
  84:Generated_Source\PSoC5/CySpc.c **** /*******************************************************************************
  85:Generated_Source\PSoC5/CySpc.c **** * Function Name: CySpcStop
  86:Generated_Source\PSoC5/CySpc.c **** ****************************************************************************//**
  87:Generated_Source\PSoC5/CySpc.c **** *  Stops the SPC.
  88:Generated_Source\PSoC5/CySpc.c **** *
  89:Generated_Source\PSoC5/CySpc.c **** *******************************************************************************/
  90:Generated_Source\PSoC5/CySpc.c **** void CySpcStop(void) 
  91:Generated_Source\PSoC5/CySpc.c **** {
  73              		.loc 1 91 1 is_stmt 1 view -0
  74              		.cfi_startproc
  75              		@ args = 0, pretend = 0, frame = 0
  76              		@ frame_needed = 0, uses_anonymous_args = 0
  77 0000 08B5     		push	{r3, lr}
  78              		.cfi_def_cfa_offset 8
  79              		.cfi_offset 3, -8
  80              		.cfi_offset 14, -4
ARM GAS  C:\Users\jens-\AppData\Local\Temp\ccLlrUxa.s 			page 4


  92:Generated_Source\PSoC5/CySpc.c ****     /* Save current global interrupt enable and disable it */
  93:Generated_Source\PSoC5/CySpc.c ****     uint8 interruptState = CyEnterCriticalSection();
  81              		.loc 1 93 5 view .LVU10
  82              		.loc 1 93 28 is_stmt 0 view .LVU11
  83 0002 FFF7FEFF 		bl	CyEnterCriticalSection
  84              	.LVL2:
  94:Generated_Source\PSoC5/CySpc.c **** 
  95:Generated_Source\PSoC5/CySpc.c ****     CY_SPC_PM_ACT_REG  &= ((uint8)(~PM_SPC_PM_EN));
  85              		.loc 1 95 5 is_stmt 1 view .LVU12
  86              		.loc 1 95 24 is_stmt 0 view .LVU13
  87 0006 064A     		ldr	r2, .L7
  88 0008 1378     		ldrb	r3, [r2]	@ zero_extendqisi2
  89 000a 03F0F703 		and	r3, r3, #247
  90 000e 1370     		strb	r3, [r2]
  96:Generated_Source\PSoC5/CySpc.c ****     CY_SPC_PM_STBY_REG &= ((uint8)(~PM_SPC_PM_EN));
  91              		.loc 1 96 5 is_stmt 1 view .LVU14
  92              		.loc 1 96 24 is_stmt 0 view .LVU15
  93 0010 1032     		adds	r2, r2, #16
  94 0012 1378     		ldrb	r3, [r2]	@ zero_extendqisi2
  95 0014 03F0F703 		and	r3, r3, #247
  96 0018 1370     		strb	r3, [r2]
  97:Generated_Source\PSoC5/CySpc.c **** 
  98:Generated_Source\PSoC5/CySpc.c ****     /* Restore global interrupt enable state */
  99:Generated_Source\PSoC5/CySpc.c ****     CyExitCriticalSection(interruptState);
  97              		.loc 1 99 5 is_stmt 1 view .LVU16
  98 001a FFF7FEFF 		bl	CyExitCriticalSection
  99              	.LVL3:
 100:Generated_Source\PSoC5/CySpc.c **** }
 100              		.loc 1 100 1 is_stmt 0 view .LVU17
 101 001e 08BD     		pop	{r3, pc}
 102              	.L8:
 103              		.align	2
 104              	.L7:
 105 0020 A0430040 		.word	1073759136
 106              		.cfi_endproc
 107              	.LFE1:
 108              		.size	CySpcStop, .-CySpcStop
 109              		.section	.text.CySpcReadData,"ax",%progbits
 110              		.align	1
 111              		.global	CySpcReadData
 112              		.syntax unified
 113              		.thumb
 114              		.thumb_func
 115              		.fpu softvfp
 116              		.type	CySpcReadData, %function
 117              	CySpcReadData:
 118              	.LVL4:
 119              	.LFB2:
 101:Generated_Source\PSoC5/CySpc.c **** 
 102:Generated_Source\PSoC5/CySpc.c **** 
 103:Generated_Source\PSoC5/CySpc.c **** /*******************************************************************************
 104:Generated_Source\PSoC5/CySpc.c **** * Function Name: CySpcReadData
 105:Generated_Source\PSoC5/CySpc.c **** ****************************************************************************//**
 106:Generated_Source\PSoC5/CySpc.c **** *  Reads data from the SPC.
 107:Generated_Source\PSoC5/CySpc.c **** *
 108:Generated_Source\PSoC5/CySpc.c **** *  \param uint8 buffer:
 109:Generated_Source\PSoC5/CySpc.c **** *   Address to store data read.
ARM GAS  C:\Users\jens-\AppData\Local\Temp\ccLlrUxa.s 			page 5


 110:Generated_Source\PSoC5/CySpc.c **** *
 111:Generated_Source\PSoC5/CySpc.c **** *  \param uint8 size:
 112:Generated_Source\PSoC5/CySpc.c **** *   Number of bytes to read from the SPC.
 113:Generated_Source\PSoC5/CySpc.c **** *
 114:Generated_Source\PSoC5/CySpc.c **** * \return
 115:Generated_Source\PSoC5/CySpc.c **** *  uint8:
 116:Generated_Source\PSoC5/CySpc.c **** *   The number of bytes read from the SPC.
 117:Generated_Source\PSoC5/CySpc.c **** *
 118:Generated_Source\PSoC5/CySpc.c **** *******************************************************************************/
 119:Generated_Source\PSoC5/CySpc.c **** uint8 CySpcReadData(uint8 buffer[], uint8 size) 
 120:Generated_Source\PSoC5/CySpc.c **** {
 120              		.loc 1 120 1 is_stmt 1 view -0
 121              		.cfi_startproc
 122              		@ args = 0, pretend = 0, frame = 0
 123              		@ frame_needed = 0, uses_anonymous_args = 0
 124              		.loc 1 120 1 is_stmt 0 view .LVU19
 125 0000 70B5     		push	{r4, r5, r6, lr}
 126              		.cfi_def_cfa_offset 16
 127              		.cfi_offset 4, -16
 128              		.cfi_offset 5, -12
 129              		.cfi_offset 6, -8
 130              		.cfi_offset 14, -4
 131 0002 0646     		mov	r6, r0
 132 0004 0D46     		mov	r5, r1
 121:Generated_Source\PSoC5/CySpc.c ****     uint8 i;
 133              		.loc 1 121 5 is_stmt 1 view .LVU20
 122:Generated_Source\PSoC5/CySpc.c **** 
 123:Generated_Source\PSoC5/CySpc.c ****     for(i = 0u; i < size; i++)
 134              		.loc 1 123 5 view .LVU21
 135              	.LVL5:
 136              		.loc 1 123 11 is_stmt 0 view .LVU22
 137 0006 0024     		movs	r4, #0
 138              		.loc 1 123 5 view .LVU23
 139 0008 0CE0     		b	.L10
 140              	.LVL6:
 141              	.L11:
 124:Generated_Source\PSoC5/CySpc.c ****     {
 125:Generated_Source\PSoC5/CySpc.c ****         while(!CY_SPC_DATA_READY)
 126:Generated_Source\PSoC5/CySpc.c ****         {
 127:Generated_Source\PSoC5/CySpc.c ****             CyDelayUs(1u);
 142              		.loc 1 127 13 is_stmt 1 view .LVU24
 143 000a 0120     		movs	r0, #1
 144 000c FFF7FEFF 		bl	CyDelayUs
 145              	.LVL7:
 146              	.L12:
 125:Generated_Source\PSoC5/CySpc.c ****         {
 147              		.loc 1 125 14 view .LVU25
 125:Generated_Source\PSoC5/CySpc.c ****         {
 148              		.loc 1 125 16 is_stmt 0 view .LVU26
 149 0010 064B     		ldr	r3, .L14
 150 0012 1B78     		ldrb	r3, [r3]	@ zero_extendqisi2
 125:Generated_Source\PSoC5/CySpc.c ****         {
 151              		.loc 1 125 14 view .LVU27
 152 0014 13F0010F 		tst	r3, #1
 153 0018 F7D0     		beq	.L11
 128:Generated_Source\PSoC5/CySpc.c ****         }
 129:Generated_Source\PSoC5/CySpc.c ****         buffer[i] = CY_SPC_CPU_DATA_REG;
ARM GAS  C:\Users\jens-\AppData\Local\Temp\ccLlrUxa.s 			page 6


 154              		.loc 1 129 9 is_stmt 1 discriminator 2 view .LVU28
 155              		.loc 1 129 21 is_stmt 0 discriminator 2 view .LVU29
 156 001a 054B     		ldr	r3, .L14+4
 157 001c 1B78     		ldrb	r3, [r3]	@ zero_extendqisi2
 158              		.loc 1 129 19 discriminator 2 view .LVU30
 159 001e 3355     		strb	r3, [r6, r4]
 123:Generated_Source\PSoC5/CySpc.c ****     {
 160              		.loc 1 123 27 is_stmt 1 discriminator 2 view .LVU31
 123:Generated_Source\PSoC5/CySpc.c ****     {
 161              		.loc 1 123 28 is_stmt 0 discriminator 2 view .LVU32
 162 0020 0134     		adds	r4, r4, #1
 163              	.LVL8:
 123:Generated_Source\PSoC5/CySpc.c ****     {
 164              		.loc 1 123 28 discriminator 2 view .LVU33
 165 0022 E4B2     		uxtb	r4, r4
 166              	.LVL9:
 167              	.L10:
 123:Generated_Source\PSoC5/CySpc.c ****     {
 168              		.loc 1 123 17 is_stmt 1 discriminator 1 view .LVU34
 123:Generated_Source\PSoC5/CySpc.c ****     {
 169              		.loc 1 123 5 is_stmt 0 discriminator 1 view .LVU35
 170 0024 AC42     		cmp	r4, r5
 171 0026 F3D3     		bcc	.L12
 130:Generated_Source\PSoC5/CySpc.c ****     }
 131:Generated_Source\PSoC5/CySpc.c **** 
 132:Generated_Source\PSoC5/CySpc.c ****     return(i);
 172              		.loc 1 132 5 is_stmt 1 view .LVU36
 133:Generated_Source\PSoC5/CySpc.c **** }
 173              		.loc 1 133 1 is_stmt 0 view .LVU37
 174 0028 2046     		mov	r0, r4
 175 002a 70BD     		pop	{r4, r5, r6, pc}
 176              	.LVL10:
 177              	.L15:
 178              		.loc 1 133 1 view .LVU38
 179              		.align	2
 180              	.L14:
 181 002c 22470040 		.word	1073760034
 182 0030 20470040 		.word	1073760032
 183              		.cfi_endproc
 184              	.LFE2:
 185              		.size	CySpcReadData, .-CySpcReadData
 186              		.section	.text.CySpcLoadMultiByte,"ax",%progbits
 187              		.align	1
 188              		.global	CySpcLoadMultiByte
 189              		.syntax unified
 190              		.thumb
 191              		.thumb_func
 192              		.fpu softvfp
 193              		.type	CySpcLoadMultiByte, %function
 194              	CySpcLoadMultiByte:
 195              	.LVL11:
 196              	.LFB3:
 134:Generated_Source\PSoC5/CySpc.c **** 
 135:Generated_Source\PSoC5/CySpc.c **** 
 136:Generated_Source\PSoC5/CySpc.c **** /*******************************************************************************
 137:Generated_Source\PSoC5/CySpc.c **** * Function Name: CySpcLoadMultiByte
 138:Generated_Source\PSoC5/CySpc.c **** ****************************************************************************//**
ARM GAS  C:\Users\jens-\AppData\Local\Temp\ccLlrUxa.s 			page 7


 139:Generated_Source\PSoC5/CySpc.c **** *  Loads 1 to 32 bytes of data into the row latch of a Flash/EEPROM array.
 140:Generated_Source\PSoC5/CySpc.c **** *
 141:Generated_Source\PSoC5/CySpc.c **** *  \param uint8 array:
 142:Generated_Source\PSoC5/CySpc.c **** *   Id of the array.
 143:Generated_Source\PSoC5/CySpc.c **** *
 144:Generated_Source\PSoC5/CySpc.c **** *  \param uint16 address:
 145:Generated_Source\PSoC5/CySpc.c **** *   Flash/eeprom addrress
 146:Generated_Source\PSoC5/CySpc.c **** *
 147:Generated_Source\PSoC5/CySpc.c **** *  \param uint8* buffer:
 148:Generated_Source\PSoC5/CySpc.c **** *   Data to load to the row latch
 149:Generated_Source\PSoC5/CySpc.c **** *
 150:Generated_Source\PSoC5/CySpc.c **** *  \param uint16 number:
 151:Generated_Source\PSoC5/CySpc.c **** *   Number bytes to load.
 152:Generated_Source\PSoC5/CySpc.c **** *
 153:Generated_Source\PSoC5/CySpc.c **** * \return
 154:Generated_Source\PSoC5/CySpc.c **** *  CYRET_STARTED
 155:Generated_Source\PSoC5/CySpc.c **** *  CYRET_CANCELED
 156:Generated_Source\PSoC5/CySpc.c **** *  CYRET_LOCKED
 157:Generated_Source\PSoC5/CySpc.c **** *  CYRET_BAD_PARAM
 158:Generated_Source\PSoC5/CySpc.c **** *
 159:Generated_Source\PSoC5/CySpc.c **** *******************************************************************************/
 160:Generated_Source\PSoC5/CySpc.c **** cystatus CySpcLoadMultiByte(uint8 array, uint16 address, const uint8 buffer[], uint8 size)\
 161:Generated_Source\PSoC5/CySpc.c **** 
 162:Generated_Source\PSoC5/CySpc.c **** {
 197              		.loc 1 162 1 is_stmt 1 view -0
 198              		.cfi_startproc
 199              		@ args = 0, pretend = 0, frame = 0
 200              		@ frame_needed = 0, uses_anonymous_args = 0
 201              		@ link register save eliminated.
 163:Generated_Source\PSoC5/CySpc.c ****     cystatus status = CYRET_STARTED;
 202              		.loc 1 163 5 view .LVU40
 164:Generated_Source\PSoC5/CySpc.c ****     uint8 i;
 203              		.loc 1 164 5 view .LVU41
 165:Generated_Source\PSoC5/CySpc.c **** 
 166:Generated_Source\PSoC5/CySpc.c ****     /***************************************************************************
 167:Generated_Source\PSoC5/CySpc.c ****     * Check if number is correct for array. Number must be less than
 168:Generated_Source\PSoC5/CySpc.c ****     * 32 for Flash or less than 16 for EEPROM.
 169:Generated_Source\PSoC5/CySpc.c ****     ***************************************************************************/
 170:Generated_Source\PSoC5/CySpc.c ****     if(((array < CY_SPC_LAST_FLASH_ARRAYID) && (size < 32u)) ||
 204              		.loc 1 170 5 view .LVU42
 205              		.loc 1 170 7 is_stmt 0 view .LVU43
 206 0000 3E28     		cmp	r0, #62
 207 0002 01D8     		bhi	.L17
 208              		.loc 1 170 45 discriminator 1 view .LVU44
 209 0004 1F2B     		cmp	r3, #31
 210 0006 03D9     		bls	.L18
 211              	.L17:
 212              		.loc 1 170 62 discriminator 3 view .LVU45
 213 0008 3F28     		cmp	r0, #63
 214 000a 28D9     		bls	.L22
 171:Generated_Source\PSoC5/CySpc.c ****        ((array > CY_SPC_LAST_FLASH_ARRAYID) && (size < 16u)))
 215              		.loc 1 171 45 view .LVU46
 216 000c 0F2B     		cmp	r3, #15
 217 000e 28D8     		bhi	.L23
 218              	.L18:
 162:Generated_Source\PSoC5/CySpc.c ****     cystatus status = CYRET_STARTED;
 219              		.loc 1 162 1 view .LVU47
ARM GAS  C:\Users\jens-\AppData\Local\Temp\ccLlrUxa.s 			page 8


 220 0010 30B4     		push	{r4, r5}
 221              		.cfi_def_cfa_offset 8
 222              		.cfi_offset 4, -8
 223              		.cfi_offset 5, -4
 172:Generated_Source\PSoC5/CySpc.c ****     {
 173:Generated_Source\PSoC5/CySpc.c ****         if(CY_SPC_IDLE)
 224              		.loc 1 173 9 is_stmt 1 view .LVU48
 225              		.loc 1 173 12 is_stmt 0 view .LVU49
 226 0012 174C     		ldr	r4, .L29
 227 0014 2478     		ldrb	r4, [r4]	@ zero_extendqisi2
 228              		.loc 1 173 11 view .LVU50
 229 0016 14F0020F 		tst	r4, #2
 230 001a 24D0     		beq	.L24
 174:Generated_Source\PSoC5/CySpc.c ****         {
 175:Generated_Source\PSoC5/CySpc.c ****             CY_SPC_CPU_DATA_REG = CY_SPC_KEY_ONE;
 231              		.loc 1 175 13 is_stmt 1 view .LVU51
 232              		.loc 1 175 33 is_stmt 0 view .LVU52
 233 001c 154C     		ldr	r4, .L29+4
 234 001e B625     		movs	r5, #182
 235 0020 2570     		strb	r5, [r4]
 176:Generated_Source\PSoC5/CySpc.c ****             CY_SPC_CPU_DATA_REG = CY_SPC_KEY_TWO(CY_SPC_CMD_LD_MULTI_BYTE);
 236              		.loc 1 176 13 is_stmt 1 view .LVU53
 237              		.loc 1 176 33 is_stmt 0 view .LVU54
 238 0022 D425     		movs	r5, #212
 239 0024 2570     		strb	r5, [r4]
 177:Generated_Source\PSoC5/CySpc.c ****             CY_SPC_CPU_DATA_REG = CY_SPC_CMD_LD_MULTI_BYTE;
 240              		.loc 1 177 13 is_stmt 1 view .LVU55
 241              		.loc 1 177 33 is_stmt 0 view .LVU56
 242 0026 0125     		movs	r5, #1
 243 0028 2570     		strb	r5, [r4]
 178:Generated_Source\PSoC5/CySpc.c **** 
 179:Generated_Source\PSoC5/CySpc.c ****             if(CY_SPC_BUSY)
 244              		.loc 1 179 13 is_stmt 1 view .LVU57
 245              		.loc 1 179 16 is_stmt 0 view .LVU58
 246 002a 0234     		adds	r4, r4, #2
 247 002c 2478     		ldrb	r4, [r4]	@ zero_extendqisi2
 248              		.loc 1 179 15 view .LVU59
 249 002e 14F00204 		ands	r4, r4, #2
 250 0032 1AD1     		bne	.L25
 180:Generated_Source\PSoC5/CySpc.c ****             {
 181:Generated_Source\PSoC5/CySpc.c ****                 CY_SPC_CPU_DATA_REG = array;
 251              		.loc 1 181 17 is_stmt 1 view .LVU60
 252              		.loc 1 181 37 is_stmt 0 view .LVU61
 253 0034 0F4D     		ldr	r5, .L29+4
 254 0036 2870     		strb	r0, [r5]
 182:Generated_Source\PSoC5/CySpc.c ****                 CY_SPC_CPU_DATA_REG = 1u & HI8(address);
 255              		.loc 1 182 17 is_stmt 1 view .LVU62
 256              		.loc 1 182 42 is_stmt 0 view .LVU63
 257 0038 C1F30020 		ubfx	r0, r1, #8, #1
 258              	.LVL12:
 259              		.loc 1 182 37 view .LVU64
 260 003c 2870     		strb	r0, [r5]
 261              	.LVL13:
 183:Generated_Source\PSoC5/CySpc.c ****                 CY_SPC_CPU_DATA_REG = LO8(address);
 262              		.loc 1 183 17 is_stmt 1 view .LVU65
 263              		.loc 1 183 39 is_stmt 0 view .LVU66
 264 003e C9B2     		uxtb	r1, r1
ARM GAS  C:\Users\jens-\AppData\Local\Temp\ccLlrUxa.s 			page 9


 265              	.LVL14:
 266              		.loc 1 183 37 view .LVU67
 267 0040 2970     		strb	r1, [r5]
 184:Generated_Source\PSoC5/CySpc.c ****                 CY_SPC_CPU_DATA_REG = ((uint8)(size - 1u));
 268              		.loc 1 184 17 is_stmt 1 view .LVU68
 269              		.loc 1 184 40 is_stmt 0 view .LVU69
 270 0042 591E     		subs	r1, r3, #1
 271 0044 C9B2     		uxtb	r1, r1
 272              		.loc 1 184 37 view .LVU70
 273 0046 2970     		strb	r1, [r5]
 185:Generated_Source\PSoC5/CySpc.c **** 
 186:Generated_Source\PSoC5/CySpc.c ****                 for(i = 0u; i < size; i++)
 274              		.loc 1 186 17 is_stmt 1 view .LVU71
 275              	.LVL15:
 276              		.loc 1 186 17 is_stmt 0 view .LVU72
 277 0048 04E0     		b	.L20
 278              	.LVL16:
 279              	.L21:
 187:Generated_Source\PSoC5/CySpc.c ****                 {
 188:Generated_Source\PSoC5/CySpc.c ****                     CY_SPC_CPU_DATA_REG = buffer[i];
 280              		.loc 1 188 21 is_stmt 1 discriminator 3 view .LVU73
 281              		.loc 1 188 49 is_stmt 0 discriminator 3 view .LVU74
 282 004a 105D     		ldrb	r0, [r2, r4]	@ zero_extendqisi2
 283              		.loc 1 188 41 discriminator 3 view .LVU75
 284 004c 0949     		ldr	r1, .L29+4
 285 004e 0870     		strb	r0, [r1]
 186:Generated_Source\PSoC5/CySpc.c ****                 {
 286              		.loc 1 186 39 is_stmt 1 discriminator 3 view .LVU76
 186:Generated_Source\PSoC5/CySpc.c ****                 {
 287              		.loc 1 186 40 is_stmt 0 discriminator 3 view .LVU77
 288 0050 0134     		adds	r4, r4, #1
 289              	.LVL17:
 186:Generated_Source\PSoC5/CySpc.c ****                 {
 290              		.loc 1 186 40 discriminator 3 view .LVU78
 291 0052 E4B2     		uxtb	r4, r4
 292              	.LVL18:
 293              	.L20:
 186:Generated_Source\PSoC5/CySpc.c ****                 {
 294              		.loc 1 186 29 is_stmt 1 discriminator 1 view .LVU79
 186:Generated_Source\PSoC5/CySpc.c ****                 {
 295              		.loc 1 186 17 is_stmt 0 discriminator 1 view .LVU80
 296 0054 9C42     		cmp	r4, r3
 297 0056 F8D3     		bcc	.L21
 163:Generated_Source\PSoC5/CySpc.c ****     uint8 i;
 298              		.loc 1 163 14 view .LVU81
 299 0058 0720     		movs	r0, #7
 300              	.LVL19:
 301              	.L16:
 189:Generated_Source\PSoC5/CySpc.c ****                 }
 190:Generated_Source\PSoC5/CySpc.c ****             }
 191:Generated_Source\PSoC5/CySpc.c ****             else
 192:Generated_Source\PSoC5/CySpc.c ****             {
 193:Generated_Source\PSoC5/CySpc.c ****                 status = CYRET_CANCELED;
 194:Generated_Source\PSoC5/CySpc.c ****             }
 195:Generated_Source\PSoC5/CySpc.c ****         }
 196:Generated_Source\PSoC5/CySpc.c ****         else
 197:Generated_Source\PSoC5/CySpc.c ****         {
ARM GAS  C:\Users\jens-\AppData\Local\Temp\ccLlrUxa.s 			page 10


 198:Generated_Source\PSoC5/CySpc.c ****             status = CYRET_LOCKED;
 199:Generated_Source\PSoC5/CySpc.c ****         }
 200:Generated_Source\PSoC5/CySpc.c ****     }
 201:Generated_Source\PSoC5/CySpc.c ****     else
 202:Generated_Source\PSoC5/CySpc.c ****     {
 203:Generated_Source\PSoC5/CySpc.c ****         status = CYRET_BAD_PARAM;
 204:Generated_Source\PSoC5/CySpc.c ****     }
 205:Generated_Source\PSoC5/CySpc.c **** 
 206:Generated_Source\PSoC5/CySpc.c ****     return(status);
 207:Generated_Source\PSoC5/CySpc.c **** }
 302              		.loc 1 207 1 view .LVU82
 303 005a 30BC     		pop	{r4, r5}
 304              		.cfi_restore 5
 305              		.cfi_restore 4
 306              		.cfi_def_cfa_offset 0
 307 005c 7047     		bx	lr
 308              	.LVL20:
 309              	.L22:
 203:Generated_Source\PSoC5/CySpc.c ****     }
 310              		.loc 1 203 16 view .LVU83
 311 005e 0120     		movs	r0, #1
 312              	.LVL21:
 203:Generated_Source\PSoC5/CySpc.c ****     }
 313              		.loc 1 203 16 view .LVU84
 314 0060 7047     		bx	lr
 315              	.LVL22:
 316              	.L23:
 203:Generated_Source\PSoC5/CySpc.c ****     }
 317              		.loc 1 203 16 view .LVU85
 318 0062 0120     		movs	r0, #1
 319              	.LVL23:
 320              		.loc 1 207 1 view .LVU86
 321 0064 7047     		bx	lr
 322              	.LVL24:
 323              	.L24:
 324              		.cfi_def_cfa_offset 8
 325              		.cfi_offset 4, -8
 326              		.cfi_offset 5, -4
 198:Generated_Source\PSoC5/CySpc.c ****         }
 327              		.loc 1 198 20 view .LVU87
 328 0066 0420     		movs	r0, #4
 329              	.LVL25:
 198:Generated_Source\PSoC5/CySpc.c ****         }
 330              		.loc 1 198 20 view .LVU88
 331 0068 F7E7     		b	.L16
 332              	.LVL26:
 333              	.L25:
 193:Generated_Source\PSoC5/CySpc.c ****             }
 334              		.loc 1 193 24 view .LVU89
 335 006a 0920     		movs	r0, #9
 336              	.LVL27:
 206:Generated_Source\PSoC5/CySpc.c **** }
 337              		.loc 1 206 5 is_stmt 1 view .LVU90
 206:Generated_Source\PSoC5/CySpc.c **** }
 338              		.loc 1 206 11 is_stmt 0 view .LVU91
 339 006c F5E7     		b	.L16
 340              	.L30:
ARM GAS  C:\Users\jens-\AppData\Local\Temp\ccLlrUxa.s 			page 11


 341 006e 00BF     		.align	2
 342              	.L29:
 343 0070 22470040 		.word	1073760034
 344 0074 20470040 		.word	1073760032
 345              		.cfi_endproc
 346              	.LFE3:
 347              		.size	CySpcLoadMultiByte, .-CySpcLoadMultiByte
 348              		.section	.text.CySpcLoadRow,"ax",%progbits
 349              		.align	1
 350              		.global	CySpcLoadRow
 351              		.syntax unified
 352              		.thumb
 353              		.thumb_func
 354              		.fpu softvfp
 355              		.type	CySpcLoadRow, %function
 356              	CySpcLoadRow:
 357              	.LVL28:
 358              	.LFB4:
 208:Generated_Source\PSoC5/CySpc.c **** 
 209:Generated_Source\PSoC5/CySpc.c **** 
 210:Generated_Source\PSoC5/CySpc.c **** /*******************************************************************************
 211:Generated_Source\PSoC5/CySpc.c **** * Function Name: CySpcLoadRow
 212:Generated_Source\PSoC5/CySpc.c **** ****************************************************************************//**
 213:Generated_Source\PSoC5/CySpc.c **** *  Loads a row of data into the row latch of a Flash/EEPROM array.
 214:Generated_Source\PSoC5/CySpc.c **** *
 215:Generated_Source\PSoC5/CySpc.c **** *  The buffer pointer should point to the data that should be written to the
 216:Generated_Source\PSoC5/CySpc.c **** *  flash row directly (no data in ECC/flash will be preserved). It is Flash API
 217:Generated_Source\PSoC5/CySpc.c **** *  responsibility to prepare data: the preserved data are copied from flash into
 218:Generated_Source\PSoC5/CySpc.c **** *  array with the modified data.
 219:Generated_Source\PSoC5/CySpc.c **** *
 220:Generated_Source\PSoC5/CySpc.c **** *  \param uint8 array:
 221:Generated_Source\PSoC5/CySpc.c **** *   Id of the array.
 222:Generated_Source\PSoC5/CySpc.c **** *
 223:Generated_Source\PSoC5/CySpc.c **** *  \param uint8* buffer:
 224:Generated_Source\PSoC5/CySpc.c **** *   Data to be loaded to the row latch
 225:Generated_Source\PSoC5/CySpc.c **** *
 226:Generated_Source\PSoC5/CySpc.c **** *  \param uint8 size:
 227:Generated_Source\PSoC5/CySpc.c **** *   The number of data bytes that the SPC expects to be written. Depends on the
 228:Generated_Source\PSoC5/CySpc.c **** *   type of the array and, if the array is Flash, whether ECC is being enabled
 229:Generated_Source\PSoC5/CySpc.c **** *   or not. There are following values: flash row latch size with ECC enabled,
 230:Generated_Source\PSoC5/CySpc.c **** *   flash row latch size with ECC disabled and EEPROM row latch size.
 231:Generated_Source\PSoC5/CySpc.c **** *
 232:Generated_Source\PSoC5/CySpc.c **** * \return
 233:Generated_Source\PSoC5/CySpc.c **** *  CYRET_STARTED
 234:Generated_Source\PSoC5/CySpc.c **** *  CYRET_CANCELED
 235:Generated_Source\PSoC5/CySpc.c **** *  CYRET_LOCKED
 236:Generated_Source\PSoC5/CySpc.c **** *
 237:Generated_Source\PSoC5/CySpc.c **** *******************************************************************************/
 238:Generated_Source\PSoC5/CySpc.c **** cystatus CySpcLoadRow(uint8 array, const uint8 buffer[], uint16 size)
 239:Generated_Source\PSoC5/CySpc.c **** {
 359              		.loc 1 239 1 is_stmt 1 view -0
 360              		.cfi_startproc
 361              		@ args = 0, pretend = 0, frame = 0
 362              		@ frame_needed = 0, uses_anonymous_args = 0
 363              		@ link register save eliminated.
 240:Generated_Source\PSoC5/CySpc.c ****     cystatus status = CYRET_STARTED;
 364              		.loc 1 240 5 view .LVU93
ARM GAS  C:\Users\jens-\AppData\Local\Temp\ccLlrUxa.s 			page 12


 241:Generated_Source\PSoC5/CySpc.c ****     uint16 i;
 365              		.loc 1 241 5 view .LVU94
 242:Generated_Source\PSoC5/CySpc.c **** 
 243:Generated_Source\PSoC5/CySpc.c ****     /* Make sure the SPC is ready to accept command */
 244:Generated_Source\PSoC5/CySpc.c ****     if(CY_SPC_IDLE)
 366              		.loc 1 244 5 view .LVU95
 367              		.loc 1 244 8 is_stmt 0 view .LVU96
 368 0000 114B     		ldr	r3, .L42
 369 0002 1B78     		ldrb	r3, [r3]	@ zero_extendqisi2
 370              		.loc 1 244 7 view .LVU97
 371 0004 13F0020F 		tst	r3, #2
 372 0008 1AD0     		beq	.L35
 239:Generated_Source\PSoC5/CySpc.c ****     cystatus status = CYRET_STARTED;
 373              		.loc 1 239 1 view .LVU98
 374 000a 10B4     		push	{r4}
 375              		.cfi_def_cfa_offset 4
 376              		.cfi_offset 4, -4
 245:Generated_Source\PSoC5/CySpc.c ****     {
 246:Generated_Source\PSoC5/CySpc.c ****         CY_SPC_CPU_DATA_REG = CY_SPC_KEY_ONE;
 377              		.loc 1 246 9 is_stmt 1 view .LVU99
 378              		.loc 1 246 29 is_stmt 0 view .LVU100
 379 000c 0F4B     		ldr	r3, .L42+4
 380 000e B624     		movs	r4, #182
 381 0010 1C70     		strb	r4, [r3]
 247:Generated_Source\PSoC5/CySpc.c ****         CY_SPC_CPU_DATA_REG = CY_SPC_KEY_TWO(CY_SPC_CMD_LD_ROW);
 382              		.loc 1 247 9 is_stmt 1 view .LVU101
 383              		.loc 1 247 29 is_stmt 0 view .LVU102
 384 0012 D524     		movs	r4, #213
 385 0014 1C70     		strb	r4, [r3]
 248:Generated_Source\PSoC5/CySpc.c ****         CY_SPC_CPU_DATA_REG = CY_SPC_CMD_LD_ROW;
 386              		.loc 1 248 9 is_stmt 1 view .LVU103
 387              		.loc 1 248 29 is_stmt 0 view .LVU104
 388 0016 0224     		movs	r4, #2
 389 0018 1C70     		strb	r4, [r3]
 249:Generated_Source\PSoC5/CySpc.c **** 
 250:Generated_Source\PSoC5/CySpc.c ****         /* Make sure the command was accepted */
 251:Generated_Source\PSoC5/CySpc.c ****         if(CY_SPC_BUSY)
 390              		.loc 1 251 9 is_stmt 1 view .LVU105
 391              		.loc 1 251 12 is_stmt 0 view .LVU106
 392 001a 0233     		adds	r3, r3, #2
 393 001c 1B78     		ldrb	r3, [r3]	@ zero_extendqisi2
 394              		.loc 1 251 11 view .LVU107
 395 001e 13F0020F 		tst	r3, #2
 396 0022 0FD1     		bne	.L36
 252:Generated_Source\PSoC5/CySpc.c ****         {
 253:Generated_Source\PSoC5/CySpc.c ****             CY_SPC_CPU_DATA_REG = array;
 397              		.loc 1 253 13 is_stmt 1 view .LVU108
 398              		.loc 1 253 33 is_stmt 0 view .LVU109
 399 0024 094B     		ldr	r3, .L42+4
 400 0026 1870     		strb	r0, [r3]
 254:Generated_Source\PSoC5/CySpc.c **** 
 255:Generated_Source\PSoC5/CySpc.c ****             for(i = 0u; i < size; i++)
 401              		.loc 1 255 13 is_stmt 1 view .LVU110
 402              	.LVL29:
 403              		.loc 1 255 19 is_stmt 0 view .LVU111
 404 0028 0023     		movs	r3, #0
 405              	.LVL30:
ARM GAS  C:\Users\jens-\AppData\Local\Temp\ccLlrUxa.s 			page 13


 406              	.L33:
 407              		.loc 1 255 25 is_stmt 1 discriminator 1 view .LVU112
 408              		.loc 1 255 13 is_stmt 0 discriminator 1 view .LVU113
 409 002a 9342     		cmp	r3, r2
 410 002c 05D2     		bcs	.L41
 256:Generated_Source\PSoC5/CySpc.c ****             {
 257:Generated_Source\PSoC5/CySpc.c ****                 CY_SPC_CPU_DATA_REG = buffer[i];
 411              		.loc 1 257 17 is_stmt 1 discriminator 3 view .LVU114
 412              		.loc 1 257 45 is_stmt 0 discriminator 3 view .LVU115
 413 002e CC5C     		ldrb	r4, [r1, r3]	@ zero_extendqisi2
 414              		.loc 1 257 37 discriminator 3 view .LVU116
 415 0030 0648     		ldr	r0, .L42+4
 416 0032 0470     		strb	r4, [r0]
 255:Generated_Source\PSoC5/CySpc.c ****             {
 417              		.loc 1 255 35 is_stmt 1 discriminator 3 view .LVU117
 255:Generated_Source\PSoC5/CySpc.c ****             {
 418              		.loc 1 255 36 is_stmt 0 discriminator 3 view .LVU118
 419 0034 0133     		adds	r3, r3, #1
 420              	.LVL31:
 255:Generated_Source\PSoC5/CySpc.c ****             {
 421              		.loc 1 255 36 discriminator 3 view .LVU119
 422 0036 9BB2     		uxth	r3, r3
 423              	.LVL32:
 255:Generated_Source\PSoC5/CySpc.c ****             {
 424              		.loc 1 255 36 discriminator 3 view .LVU120
 425 0038 F7E7     		b	.L33
 426              	.L41:
 240:Generated_Source\PSoC5/CySpc.c ****     uint16 i;
 427              		.loc 1 240 14 view .LVU121
 428 003a 0720     		movs	r0, #7
 429              	.LVL33:
 430              	.L31:
 258:Generated_Source\PSoC5/CySpc.c ****             }
 259:Generated_Source\PSoC5/CySpc.c ****         }
 260:Generated_Source\PSoC5/CySpc.c ****         else
 261:Generated_Source\PSoC5/CySpc.c ****         {
 262:Generated_Source\PSoC5/CySpc.c ****             status = CYRET_CANCELED;
 263:Generated_Source\PSoC5/CySpc.c ****         }
 264:Generated_Source\PSoC5/CySpc.c ****     }
 265:Generated_Source\PSoC5/CySpc.c ****     else
 266:Generated_Source\PSoC5/CySpc.c ****     {
 267:Generated_Source\PSoC5/CySpc.c ****         status = CYRET_LOCKED;
 268:Generated_Source\PSoC5/CySpc.c ****     }
 269:Generated_Source\PSoC5/CySpc.c **** 
 270:Generated_Source\PSoC5/CySpc.c ****     return(status);
 271:Generated_Source\PSoC5/CySpc.c **** }
 431              		.loc 1 271 1 view .LVU122
 432 003c 10BC     		pop	{r4}
 433              		.cfi_restore 4
 434              		.cfi_def_cfa_offset 0
 435 003e 7047     		bx	lr
 436              	.LVL34:
 437              	.L35:
 267:Generated_Source\PSoC5/CySpc.c ****     }
 438              		.loc 1 267 16 view .LVU123
 439 0040 0420     		movs	r0, #4
 440              	.LVL35:
ARM GAS  C:\Users\jens-\AppData\Local\Temp\ccLlrUxa.s 			page 14


 441              		.loc 1 271 1 view .LVU124
 442 0042 7047     		bx	lr
 443              	.LVL36:
 444              	.L36:
 445              		.cfi_def_cfa_offset 4
 446              		.cfi_offset 4, -4
 262:Generated_Source\PSoC5/CySpc.c ****         }
 447              		.loc 1 262 20 view .LVU125
 448 0044 0920     		movs	r0, #9
 449              	.LVL37:
 270:Generated_Source\PSoC5/CySpc.c **** }
 450              		.loc 1 270 5 is_stmt 1 view .LVU126
 270:Generated_Source\PSoC5/CySpc.c **** }
 451              		.loc 1 270 11 is_stmt 0 view .LVU127
 452 0046 F9E7     		b	.L31
 453              	.L43:
 454              		.align	2
 455              	.L42:
 456 0048 22470040 		.word	1073760034
 457 004c 20470040 		.word	1073760032
 458              		.cfi_endproc
 459              	.LFE4:
 460              		.size	CySpcLoadRow, .-CySpcLoadRow
 461              		.section	.text.CySpcLoadRowFull,"ax",%progbits
 462              		.align	1
 463              		.global	CySpcLoadRowFull
 464              		.syntax unified
 465              		.thumb
 466              		.thumb_func
 467              		.fpu softvfp
 468              		.type	CySpcLoadRowFull, %function
 469              	CySpcLoadRowFull:
 470              	.LVL38:
 471              	.LFB5:
 272:Generated_Source\PSoC5/CySpc.c **** 
 273:Generated_Source\PSoC5/CySpc.c **** 
 274:Generated_Source\PSoC5/CySpc.c **** /*******************************************************************************
 275:Generated_Source\PSoC5/CySpc.c **** * Function Name: CySpcLoadRowFull
 276:Generated_Source\PSoC5/CySpc.c **** ****************************************************************************//**
 277:Generated_Source\PSoC5/CySpc.c **** *  Loads a row of data into the row latch of a Flash/EEPROM array.
 278:Generated_Source\PSoC5/CySpc.c **** *
 279:Generated_Source\PSoC5/CySpc.c **** *  The only data that are going to be changed should be passed. The function
 280:Generated_Source\PSoC5/CySpc.c **** *  will handle unmodified data preservation based on DWR settings and input
 281:Generated_Source\PSoC5/CySpc.c **** *  parameters.
 282:Generated_Source\PSoC5/CySpc.c **** *
 283:Generated_Source\PSoC5/CySpc.c **** *  \param uint8 array:
 284:Generated_Source\PSoC5/CySpc.c **** *   Id of the array.
 285:Generated_Source\PSoC5/CySpc.c **** *
 286:Generated_Source\PSoC5/CySpc.c **** *  \param uint16 row:
 287:Generated_Source\PSoC5/CySpc.c **** *   Flash row number to be loaded.
 288:Generated_Source\PSoC5/CySpc.c **** *
 289:Generated_Source\PSoC5/CySpc.c **** *  \param uint8* buffer:
 290:Generated_Source\PSoC5/CySpc.c **** *   Data to be loaded to the row latch
 291:Generated_Source\PSoC5/CySpc.c **** *
 292:Generated_Source\PSoC5/CySpc.c **** *  \param uint8 size:
 293:Generated_Source\PSoC5/CySpc.c **** *   The number of data bytes that the SPC expects to be written. Depends on the
 294:Generated_Source\PSoC5/CySpc.c **** *   type of the array and, if the array is Flash, whether ECC is being enabled
ARM GAS  C:\Users\jens-\AppData\Local\Temp\ccLlrUxa.s 			page 15


 295:Generated_Source\PSoC5/CySpc.c **** *   or not. There are following values: flash row latch size with ECC enabled,
 296:Generated_Source\PSoC5/CySpc.c **** *   flash row latch size with ECC disabled and EEPROM row latch size.
 297:Generated_Source\PSoC5/CySpc.c **** *
 298:Generated_Source\PSoC5/CySpc.c **** * \return
 299:Generated_Source\PSoC5/CySpc.c **** *  CYRET_STARTED
 300:Generated_Source\PSoC5/CySpc.c **** *  CYRET_CANCELED
 301:Generated_Source\PSoC5/CySpc.c **** *  CYRET_LOCKED
 302:Generated_Source\PSoC5/CySpc.c **** *
 303:Generated_Source\PSoC5/CySpc.c **** *******************************************************************************/
 304:Generated_Source\PSoC5/CySpc.c **** cystatus CySpcLoadRowFull(uint8 array, uint16 row, const uint8 buffer[], uint16 size)\
 305:Generated_Source\PSoC5/CySpc.c **** 
 306:Generated_Source\PSoC5/CySpc.c **** {
 472              		.loc 1 306 1 is_stmt 1 view -0
 473              		.cfi_startproc
 474              		@ args = 0, pretend = 0, frame = 0
 475              		@ frame_needed = 0, uses_anonymous_args = 0
 476              		@ link register save eliminated.
 477              		.loc 1 306 1 is_stmt 0 view .LVU129
 478 0000 F0B4     		push	{r4, r5, r6, r7}
 479              		.cfi_def_cfa_offset 16
 480              		.cfi_offset 4, -16
 481              		.cfi_offset 5, -12
 482              		.cfi_offset 6, -8
 483              		.cfi_offset 7, -4
 307:Generated_Source\PSoC5/CySpc.c ****     cystatus status = CYRET_STARTED;
 484              		.loc 1 307 5 is_stmt 1 view .LVU130
 485              	.LVL39:
 308:Generated_Source\PSoC5/CySpc.c ****     uint16 i;
 486              		.loc 1 308 5 view .LVU131
 309:Generated_Source\PSoC5/CySpc.c **** 
 310:Generated_Source\PSoC5/CySpc.c ****     #if (CYDEV_ECC_ENABLE == 0)
 311:Generated_Source\PSoC5/CySpc.c ****         uint32 offset;
 487              		.loc 1 311 9 view .LVU132
 312:Generated_Source\PSoC5/CySpc.c ****     #endif /* (CYDEV_ECC_ENABLE == 0) */
 313:Generated_Source\PSoC5/CySpc.c **** 
 314:Generated_Source\PSoC5/CySpc.c ****     /* Make sure the SPC is ready to accept command */
 315:Generated_Source\PSoC5/CySpc.c ****     if(CY_SPC_IDLE)
 488              		.loc 1 315 5 view .LVU133
 489              		.loc 1 315 8 is_stmt 0 view .LVU134
 490 0002 1D4C     		ldr	r4, .L58
 491 0004 2478     		ldrb	r4, [r4]	@ zero_extendqisi2
 492              		.loc 1 315 7 view .LVU135
 493 0006 14F0020F 		tst	r4, #2
 494 000a 2ED0     		beq	.L50
 495 000c 0746     		mov	r7, r0
 316:Generated_Source\PSoC5/CySpc.c ****     {
 317:Generated_Source\PSoC5/CySpc.c ****         CY_SPC_CPU_DATA_REG = CY_SPC_KEY_ONE;
 496              		.loc 1 317 9 is_stmt 1 view .LVU136
 497              		.loc 1 317 29 is_stmt 0 view .LVU137
 498 000e 1B4C     		ldr	r4, .L58+4
 499 0010 B620     		movs	r0, #182
 500              	.LVL40:
 501              		.loc 1 317 29 view .LVU138
 502 0012 2070     		strb	r0, [r4]
 318:Generated_Source\PSoC5/CySpc.c ****         CY_SPC_CPU_DATA_REG = CY_SPC_KEY_TWO(CY_SPC_CMD_LD_ROW);
 503              		.loc 1 318 9 is_stmt 1 view .LVU139
 504              		.loc 1 318 29 is_stmt 0 view .LVU140
ARM GAS  C:\Users\jens-\AppData\Local\Temp\ccLlrUxa.s 			page 16


 505 0014 D520     		movs	r0, #213
 506 0016 2070     		strb	r0, [r4]
 319:Generated_Source\PSoC5/CySpc.c ****         CY_SPC_CPU_DATA_REG = CY_SPC_CMD_LD_ROW;
 507              		.loc 1 319 9 is_stmt 1 view .LVU141
 508              		.loc 1 319 29 is_stmt 0 view .LVU142
 509 0018 0220     		movs	r0, #2
 510 001a 2070     		strb	r0, [r4]
 320:Generated_Source\PSoC5/CySpc.c **** 
 321:Generated_Source\PSoC5/CySpc.c ****         /* Make sure the command was accepted */
 322:Generated_Source\PSoC5/CySpc.c ****         if(CY_SPC_BUSY)
 511              		.loc 1 322 9 is_stmt 1 view .LVU143
 512              		.loc 1 322 12 is_stmt 0 view .LVU144
 513 001c 1648     		ldr	r0, .L58
 514 001e 0078     		ldrb	r0, [r0]	@ zero_extendqisi2
 515              		.loc 1 322 11 view .LVU145
 516 0020 10F0020F 		tst	r0, #2
 517 0024 24D1     		bne	.L51
 323:Generated_Source\PSoC5/CySpc.c ****         {
 324:Generated_Source\PSoC5/CySpc.c ****             CY_SPC_CPU_DATA_REG = array;
 518              		.loc 1 324 13 is_stmt 1 view .LVU146
 519              		.loc 1 324 33 is_stmt 0 view .LVU147
 520 0026 2770     		strb	r7, [r4]
 325:Generated_Source\PSoC5/CySpc.c **** 
 326:Generated_Source\PSoC5/CySpc.c ****             /*******************************************************************
 327:Generated_Source\PSoC5/CySpc.c ****             * If "Enable Error Correcting Code (ECC)" and "Store Configuration
 328:Generated_Source\PSoC5/CySpc.c ****             * Data in ECC" DWR options are disabled, ECC section is available
 329:Generated_Source\PSoC5/CySpc.c ****             * for user data.
 330:Generated_Source\PSoC5/CySpc.c ****             *******************************************************************/
 331:Generated_Source\PSoC5/CySpc.c ****             #if ((CYDEV_ECC_ENABLE == 0u) && (CYDEV_CONFIGURATION_ECC == 0u))
 332:Generated_Source\PSoC5/CySpc.c **** 
 333:Generated_Source\PSoC5/CySpc.c ****                 /*******************************************************************
 334:Generated_Source\PSoC5/CySpc.c ****                 * If size parameter equals size of the ECC row and selected array
 335:Generated_Source\PSoC5/CySpc.c ****                 * identification corresponds to the flash array (but not to EEPROM
 336:Generated_Source\PSoC5/CySpc.c ****                 * array) then data are going to be written to the ECC section.
 337:Generated_Source\PSoC5/CySpc.c ****                 * In this case flash data must be preserved. The flash data copied
 338:Generated_Source\PSoC5/CySpc.c ****                 * from flash data section to the SPC data register.
 339:Generated_Source\PSoC5/CySpc.c ****                 *******************************************************************/
 340:Generated_Source\PSoC5/CySpc.c ****                 if ((size == CYDEV_ECC_ROW_SIZE) && (array <= CY_SPC_LAST_FLASH_ARRAYID))
 341:Generated_Source\PSoC5/CySpc.c ****                 {
 342:Generated_Source\PSoC5/CySpc.c ****                     offset = CYDEV_FLS_BASE +
 343:Generated_Source\PSoC5/CySpc.c ****                              ((uint32) array * CYDEV_FLS_SECTOR_SIZE) +
 344:Generated_Source\PSoC5/CySpc.c ****                              ((uint32)   row * CYDEV_FLS_ROW_SIZE   );
 345:Generated_Source\PSoC5/CySpc.c **** 
 346:Generated_Source\PSoC5/CySpc.c ****                     for (i = 0u; i < CYDEV_FLS_ROW_SIZE; i++)
 347:Generated_Source\PSoC5/CySpc.c ****                     {
 348:Generated_Source\PSoC5/CySpc.c ****                         CY_SPC_CPU_DATA_REG = CY_GET_XTND_REG8((void CYFAR *)(offset + i));
 349:Generated_Source\PSoC5/CySpc.c ****                     }
 350:Generated_Source\PSoC5/CySpc.c ****                 }
 351:Generated_Source\PSoC5/CySpc.c **** 
 352:Generated_Source\PSoC5/CySpc.c ****             #endif /* ((CYDEV_ECC_ENABLE == 0u) && (CYDEV_CONFIGURATION_ECC == 0u)) */
 353:Generated_Source\PSoC5/CySpc.c **** 
 354:Generated_Source\PSoC5/CySpc.c **** 
 355:Generated_Source\PSoC5/CySpc.c ****             for(i = 0u; i < size; i++)
 521              		.loc 1 355 13 is_stmt 1 view .LVU148
 522              	.LVL41:
 523              		.loc 1 355 19 is_stmt 0 view .LVU149
 524 0028 0024     		movs	r4, #0
ARM GAS  C:\Users\jens-\AppData\Local\Temp\ccLlrUxa.s 			page 17


 525              	.LVL42:
 526              	.L46:
 527              		.loc 1 355 25 is_stmt 1 discriminator 1 view .LVU150
 528              		.loc 1 355 13 is_stmt 0 discriminator 1 view .LVU151
 529 002a 9C42     		cmp	r4, r3
 530 002c 05D2     		bcs	.L55
 356:Generated_Source\PSoC5/CySpc.c ****             {
 357:Generated_Source\PSoC5/CySpc.c ****                 CY_SPC_CPU_DATA_REG = buffer[i];
 531              		.loc 1 357 17 is_stmt 1 discriminator 3 view .LVU152
 532              		.loc 1 357 45 is_stmt 0 discriminator 3 view .LVU153
 533 002e 165D     		ldrb	r6, [r2, r4]	@ zero_extendqisi2
 534              		.loc 1 357 37 discriminator 3 view .LVU154
 535 0030 124D     		ldr	r5, .L58+4
 536 0032 2E70     		strb	r6, [r5]
 355:Generated_Source\PSoC5/CySpc.c ****             {
 537              		.loc 1 355 35 is_stmt 1 discriminator 3 view .LVU155
 355:Generated_Source\PSoC5/CySpc.c ****             {
 538              		.loc 1 355 36 is_stmt 0 discriminator 3 view .LVU156
 539 0034 0134     		adds	r4, r4, #1
 540              	.LVL43:
 355:Generated_Source\PSoC5/CySpc.c ****             {
 541              		.loc 1 355 36 discriminator 3 view .LVU157
 542 0036 A4B2     		uxth	r4, r4
 543              	.LVL44:
 355:Generated_Source\PSoC5/CySpc.c ****             {
 544              		.loc 1 355 36 discriminator 3 view .LVU158
 545 0038 F7E7     		b	.L46
 546              	.L55:
 358:Generated_Source\PSoC5/CySpc.c ****             }
 359:Generated_Source\PSoC5/CySpc.c **** 
 360:Generated_Source\PSoC5/CySpc.c **** 
 361:Generated_Source\PSoC5/CySpc.c ****             /*******************************************************************
 362:Generated_Source\PSoC5/CySpc.c ****             * If "Enable Error Correcting Code (ECC)" DWR option is disabled,
 363:Generated_Source\PSoC5/CySpc.c ****             * ECC section can be used for storing device configuration data
 364:Generated_Source\PSoC5/CySpc.c ****             * ("Store Configuration Data in ECC" DWR option is enabled) or for
 365:Generated_Source\PSoC5/CySpc.c ****             * storing user data in the ECC section ("Store Configuration Data in
 366:Generated_Source\PSoC5/CySpc.c ****             * ECC" DWR option is enabled). In both cases, the data in the ECC
 367:Generated_Source\PSoC5/CySpc.c ****             * section must be preserved if flash data is written.
 368:Generated_Source\PSoC5/CySpc.c ****             *******************************************************************/
 369:Generated_Source\PSoC5/CySpc.c ****             #if (CYDEV_ECC_ENABLE == 0)
 370:Generated_Source\PSoC5/CySpc.c **** 
 371:Generated_Source\PSoC5/CySpc.c **** 
 372:Generated_Source\PSoC5/CySpc.c ****                 /*******************************************************************
 373:Generated_Source\PSoC5/CySpc.c ****                 * If size parameter equals size of the flash row and selected array
 374:Generated_Source\PSoC5/CySpc.c ****                 * identification corresponds to the flash array (but not to EEPROM
 375:Generated_Source\PSoC5/CySpc.c ****                 * array) then data are going to be written to the flash data
 376:Generated_Source\PSoC5/CySpc.c ****                 * section. In this case, ECC section data must be preserved.
 377:Generated_Source\PSoC5/CySpc.c ****                 * The ECC section data copied from ECC section to the SPC data
 378:Generated_Source\PSoC5/CySpc.c ****                 * register.
 379:Generated_Source\PSoC5/CySpc.c ****                 *******************************************************************/
 380:Generated_Source\PSoC5/CySpc.c ****                 if ((size == CYDEV_FLS_ROW_SIZE) && (array <= CY_SPC_LAST_FLASH_ARRAYID))
 547              		.loc 1 380 17 is_stmt 1 view .LVU159
 548              		.loc 1 380 20 is_stmt 0 view .LVU160
 549 003a B3F5807F 		cmp	r3, #256
 550 003e 01D0     		beq	.L56
 307:Generated_Source\PSoC5/CySpc.c ****     uint16 i;
 551              		.loc 1 307 14 view .LVU161
ARM GAS  C:\Users\jens-\AppData\Local\Temp\ccLlrUxa.s 			page 18


 552 0040 0720     		movs	r0, #7
 553 0042 13E0     		b	.L44
 554              	.L56:
 555              		.loc 1 380 50 discriminator 1 view .LVU162
 556 0044 3F2F     		cmp	r7, #63
 557 0046 15D8     		bhi	.L53
 381:Generated_Source\PSoC5/CySpc.c ****                 {
 382:Generated_Source\PSoC5/CySpc.c ****                     offset = CYDEV_ECC_BASE +
 558              		.loc 1 382 21 is_stmt 1 view .LVU163
 559              		.loc 1 382 45 is_stmt 0 view .LVU164
 560 0048 07F51030 		add	r0, r7, #147456
 383:Generated_Source\PSoC5/CySpc.c ****                             ((uint32) array * CYDEV_ECC_SECTOR_SIZE) +
 561              		.loc 1 383 70 view .LVU165
 562 004c 01EB0020 		add	r0, r1, r0, lsl #8
 382:Generated_Source\PSoC5/CySpc.c ****                             ((uint32) array * CYDEV_ECC_SECTOR_SIZE) +
 563              		.loc 1 382 28 view .LVU166
 564 0050 4001     		lsls	r0, r0, #5
 565              	.LVL45:
 384:Generated_Source\PSoC5/CySpc.c ****                             ((uint32) row   * CYDEV_ECC_ROW_SIZE   );
 385:Generated_Source\PSoC5/CySpc.c **** 
 386:Generated_Source\PSoC5/CySpc.c ****                     for (i = 0u; i < CYDEV_ECC_ROW_SIZE; i++)
 566              		.loc 1 386 21 is_stmt 1 view .LVU167
 567              		.loc 1 386 28 is_stmt 0 view .LVU168
 568 0052 0023     		movs	r3, #0
 569              	.LVL46:
 570              	.L48:
 571              		.loc 1 386 34 is_stmt 1 discriminator 1 view .LVU169
 572              		.loc 1 386 21 is_stmt 0 discriminator 1 view .LVU170
 573 0054 1F2B     		cmp	r3, #31
 574 0056 06D8     		bhi	.L57
 387:Generated_Source\PSoC5/CySpc.c ****                     {
 388:Generated_Source\PSoC5/CySpc.c ****                         CY_SPC_CPU_DATA_REG = CY_GET_XTND_REG8((void CYFAR *)(offset + i));
 575              		.loc 1 388 25 is_stmt 1 discriminator 3 view .LVU171
 576              		.loc 1 388 47 is_stmt 0 discriminator 3 view .LVU172
 577 0058 1A5C     		ldrb	r2, [r3, r0]	@ zero_extendqisi2
 578 005a D2B2     		uxtb	r2, r2
 579              		.loc 1 388 45 discriminator 3 view .LVU173
 580 005c 0749     		ldr	r1, .L58+4
 581 005e 0A70     		strb	r2, [r1]
 386:Generated_Source\PSoC5/CySpc.c ****                     {
 582              		.loc 1 386 58 is_stmt 1 discriminator 3 view .LVU174
 386:Generated_Source\PSoC5/CySpc.c ****                     {
 583              		.loc 1 386 59 is_stmt 0 discriminator 3 view .LVU175
 584 0060 0133     		adds	r3, r3, #1
 585              	.LVL47:
 386:Generated_Source\PSoC5/CySpc.c ****                     {
 586              		.loc 1 386 59 discriminator 3 view .LVU176
 587 0062 9BB2     		uxth	r3, r3
 588              	.LVL48:
 386:Generated_Source\PSoC5/CySpc.c ****                     {
 589              		.loc 1 386 59 discriminator 3 view .LVU177
 590 0064 F6E7     		b	.L48
 591              	.L57:
 307:Generated_Source\PSoC5/CySpc.c ****     uint16 i;
 592              		.loc 1 307 14 view .LVU178
 593 0066 0720     		movs	r0, #7
 594              	.LVL49:
ARM GAS  C:\Users\jens-\AppData\Local\Temp\ccLlrUxa.s 			page 19


 307:Generated_Source\PSoC5/CySpc.c ****     uint16 i;
 595              		.loc 1 307 14 view .LVU179
 596 0068 00E0     		b	.L44
 597              	.LVL50:
 598              	.L50:
 389:Generated_Source\PSoC5/CySpc.c ****                     }
 390:Generated_Source\PSoC5/CySpc.c ****                 }
 391:Generated_Source\PSoC5/CySpc.c **** 
 392:Generated_Source\PSoC5/CySpc.c ****             #else
 393:Generated_Source\PSoC5/CySpc.c **** 
 394:Generated_Source\PSoC5/CySpc.c ****                 if(0u != row)
 395:Generated_Source\PSoC5/CySpc.c ****                 {
 396:Generated_Source\PSoC5/CySpc.c ****                     /* To remove unreferenced local variable warning */
 397:Generated_Source\PSoC5/CySpc.c ****                 }
 398:Generated_Source\PSoC5/CySpc.c **** 
 399:Generated_Source\PSoC5/CySpc.c ****             #endif /* (CYDEV_ECC_ENABLE == 0) */
 400:Generated_Source\PSoC5/CySpc.c ****         }
 401:Generated_Source\PSoC5/CySpc.c ****         else
 402:Generated_Source\PSoC5/CySpc.c ****         {
 403:Generated_Source\PSoC5/CySpc.c ****             status = CYRET_CANCELED;
 404:Generated_Source\PSoC5/CySpc.c ****         }
 405:Generated_Source\PSoC5/CySpc.c ****     }
 406:Generated_Source\PSoC5/CySpc.c ****     else
 407:Generated_Source\PSoC5/CySpc.c ****     {
 408:Generated_Source\PSoC5/CySpc.c ****         status = CYRET_LOCKED;
 599              		.loc 1 408 16 view .LVU180
 600 006a 0420     		movs	r0, #4
 601              	.LVL51:
 602              	.L44:
 409:Generated_Source\PSoC5/CySpc.c ****     }
 410:Generated_Source\PSoC5/CySpc.c **** 
 411:Generated_Source\PSoC5/CySpc.c ****     return(status);
 412:Generated_Source\PSoC5/CySpc.c **** }
 603              		.loc 1 412 1 view .LVU181
 604 006c F0BC     		pop	{r4, r5, r6, r7}
 605              		.cfi_remember_state
 606              		.cfi_restore 7
 607              		.cfi_restore 6
 608              		.cfi_restore 5
 609              		.cfi_restore 4
 610              		.cfi_def_cfa_offset 0
 611 006e 7047     		bx	lr
 612              	.LVL52:
 613              	.L51:
 614              		.cfi_restore_state
 403:Generated_Source\PSoC5/CySpc.c ****         }
 615              		.loc 1 403 20 view .LVU182
 616 0070 0920     		movs	r0, #9
 617 0072 FBE7     		b	.L44
 618              	.LVL53:
 619              	.L53:
 307:Generated_Source\PSoC5/CySpc.c ****     uint16 i;
 620              		.loc 1 307 14 view .LVU183
 621 0074 0720     		movs	r0, #7
 411:Generated_Source\PSoC5/CySpc.c **** }
 622              		.loc 1 411 5 is_stmt 1 view .LVU184
 411:Generated_Source\PSoC5/CySpc.c **** }
ARM GAS  C:\Users\jens-\AppData\Local\Temp\ccLlrUxa.s 			page 20


 623              		.loc 1 411 11 is_stmt 0 view .LVU185
 624 0076 F9E7     		b	.L44
 625              	.L59:
 626              		.align	2
 627              	.L58:
 628 0078 22470040 		.word	1073760034
 629 007c 20470040 		.word	1073760032
 630              		.cfi_endproc
 631              	.LFE5:
 632              		.size	CySpcLoadRowFull, .-CySpcLoadRowFull
 633              		.section	.text.CySpcWriteRow,"ax",%progbits
 634              		.align	1
 635              		.global	CySpcWriteRow
 636              		.syntax unified
 637              		.thumb
 638              		.thumb_func
 639              		.fpu softvfp
 640              		.type	CySpcWriteRow, %function
 641              	CySpcWriteRow:
 642              	.LVL54:
 643              	.LFB6:
 413:Generated_Source\PSoC5/CySpc.c **** 
 414:Generated_Source\PSoC5/CySpc.c **** 
 415:Generated_Source\PSoC5/CySpc.c **** /*******************************************************************************
 416:Generated_Source\PSoC5/CySpc.c **** * Function Name: CySpcWriteRow
 417:Generated_Source\PSoC5/CySpc.c **** ****************************************************************************//**
 418:Generated_Source\PSoC5/CySpc.c **** *  Erases then programs a row in Flash/EEPROM with data in row latch.
 419:Generated_Source\PSoC5/CySpc.c **** *
 420:Generated_Source\PSoC5/CySpc.c **** *  \param uint8 array:
 421:Generated_Source\PSoC5/CySpc.c **** *   Id of the array.
 422:Generated_Source\PSoC5/CySpc.c **** *
 423:Generated_Source\PSoC5/CySpc.c **** *  \param uint16 address:
 424:Generated_Source\PSoC5/CySpc.c **** *   flash/eeprom addrress
 425:Generated_Source\PSoC5/CySpc.c **** *
 426:Generated_Source\PSoC5/CySpc.c **** *  \param uint8 tempPolarity:
 427:Generated_Source\PSoC5/CySpc.c **** *   temperature polarity.
 428:Generated_Source\PSoC5/CySpc.c **** *   \param 1: the Temp Magnitude is interpreted as a positive value
 429:Generated_Source\PSoC5/CySpc.c **** *   \param 0: the Temp Magnitude is interpreted as a negative value
 430:Generated_Source\PSoC5/CySpc.c **** *
 431:Generated_Source\PSoC5/CySpc.c **** *  \param uint8 tempMagnitude:
 432:Generated_Source\PSoC5/CySpc.c **** *   temperature magnitude.
 433:Generated_Source\PSoC5/CySpc.c **** *
 434:Generated_Source\PSoC5/CySpc.c **** * \return
 435:Generated_Source\PSoC5/CySpc.c **** *  CYRET_STARTED
 436:Generated_Source\PSoC5/CySpc.c **** *  CYRET_CANCELED
 437:Generated_Source\PSoC5/CySpc.c **** *  CYRET_LOCKED
 438:Generated_Source\PSoC5/CySpc.c **** *
 439:Generated_Source\PSoC5/CySpc.c **** *******************************************************************************/
 440:Generated_Source\PSoC5/CySpc.c **** cystatus CySpcWriteRow(uint8 array, uint16 address, uint8 tempPolarity, uint8 tempMagnitude)\
 441:Generated_Source\PSoC5/CySpc.c **** 
 442:Generated_Source\PSoC5/CySpc.c **** {
 644              		.loc 1 442 1 is_stmt 1 view -0
 645              		.cfi_startproc
 646              		@ args = 0, pretend = 0, frame = 0
 647              		@ frame_needed = 0, uses_anonymous_args = 0
 648              		@ link register save eliminated.
 649              		.loc 1 442 1 is_stmt 0 view .LVU187
ARM GAS  C:\Users\jens-\AppData\Local\Temp\ccLlrUxa.s 			page 21


 650 0000 30B4     		push	{r4, r5}
 651              		.cfi_def_cfa_offset 8
 652              		.cfi_offset 4, -8
 653              		.cfi_offset 5, -4
 443:Generated_Source\PSoC5/CySpc.c ****     cystatus status = CYRET_STARTED;
 654              		.loc 1 443 5 is_stmt 1 view .LVU188
 655              	.LVL55:
 444:Generated_Source\PSoC5/CySpc.c **** 
 445:Generated_Source\PSoC5/CySpc.c ****     /* Make sure the SPC is ready to accept command */
 446:Generated_Source\PSoC5/CySpc.c ****     if(CY_SPC_IDLE)
 656              		.loc 1 446 5 view .LVU189
 657              		.loc 1 446 8 is_stmt 0 view .LVU190
 658 0002 104C     		ldr	r4, .L65
 659 0004 2478     		ldrb	r4, [r4]	@ zero_extendqisi2
 660              		.loc 1 446 7 view .LVU191
 661 0006 14F0020F 		tst	r4, #2
 662 000a 15D0     		beq	.L62
 447:Generated_Source\PSoC5/CySpc.c ****     {
 448:Generated_Source\PSoC5/CySpc.c ****         CY_SPC_CPU_DATA_REG = CY_SPC_KEY_ONE;
 663              		.loc 1 448 9 is_stmt 1 view .LVU192
 664              		.loc 1 448 29 is_stmt 0 view .LVU193
 665 000c 0E4C     		ldr	r4, .L65+4
 666 000e B625     		movs	r5, #182
 667 0010 2570     		strb	r5, [r4]
 449:Generated_Source\PSoC5/CySpc.c ****         CY_SPC_CPU_DATA_REG = CY_SPC_KEY_TWO(CY_SPC_CMD_WR_ROW);
 668              		.loc 1 449 9 is_stmt 1 view .LVU194
 669              		.loc 1 449 29 is_stmt 0 view .LVU195
 670 0012 D825     		movs	r5, #216
 671 0014 2570     		strb	r5, [r4]
 450:Generated_Source\PSoC5/CySpc.c ****         CY_SPC_CPU_DATA_REG = CY_SPC_CMD_WR_ROW;
 672              		.loc 1 450 9 is_stmt 1 view .LVU196
 673              		.loc 1 450 29 is_stmt 0 view .LVU197
 674 0016 0525     		movs	r5, #5
 675 0018 2570     		strb	r5, [r4]
 451:Generated_Source\PSoC5/CySpc.c **** 
 452:Generated_Source\PSoC5/CySpc.c ****         /* Make sure the command was accepted */
 453:Generated_Source\PSoC5/CySpc.c ****         if(CY_SPC_BUSY)
 676              		.loc 1 453 9 is_stmt 1 view .LVU198
 677              		.loc 1 453 12 is_stmt 0 view .LVU199
 678 001a 0234     		adds	r4, r4, #2
 679 001c 2478     		ldrb	r4, [r4]	@ zero_extendqisi2
 680              		.loc 1 453 11 view .LVU200
 681 001e 14F0020F 		tst	r4, #2
 682 0022 0CD1     		bne	.L63
 454:Generated_Source\PSoC5/CySpc.c ****         {
 455:Generated_Source\PSoC5/CySpc.c ****             CY_SPC_CPU_DATA_REG = array;
 683              		.loc 1 455 13 is_stmt 1 view .LVU201
 684              		.loc 1 455 33 is_stmt 0 view .LVU202
 685 0024 084C     		ldr	r4, .L65+4
 686 0026 2070     		strb	r0, [r4]
 456:Generated_Source\PSoC5/CySpc.c ****             CY_SPC_CPU_DATA_REG = HI8(address);
 687              		.loc 1 456 13 is_stmt 1 view .LVU203
 688              		.loc 1 456 35 is_stmt 0 view .LVU204
 689 0028 080A     		lsrs	r0, r1, #8
 690              	.LVL56:
 691              		.loc 1 456 33 view .LVU205
 692 002a 2070     		strb	r0, [r4]
ARM GAS  C:\Users\jens-\AppData\Local\Temp\ccLlrUxa.s 			page 22


 693              	.LVL57:
 457:Generated_Source\PSoC5/CySpc.c ****             CY_SPC_CPU_DATA_REG = LO8(address);
 694              		.loc 1 457 13 is_stmt 1 view .LVU206
 695              		.loc 1 457 35 is_stmt 0 view .LVU207
 696 002c C9B2     		uxtb	r1, r1
 697              	.LVL58:
 698              		.loc 1 457 33 view .LVU208
 699 002e 2170     		strb	r1, [r4]
 458:Generated_Source\PSoC5/CySpc.c ****             CY_SPC_CPU_DATA_REG = tempPolarity;
 700              		.loc 1 458 13 is_stmt 1 view .LVU209
 701              		.loc 1 458 33 is_stmt 0 view .LVU210
 702 0030 2270     		strb	r2, [r4]
 459:Generated_Source\PSoC5/CySpc.c ****             CY_SPC_CPU_DATA_REG = tempMagnitude;
 703              		.loc 1 459 13 is_stmt 1 view .LVU211
 704              		.loc 1 459 33 is_stmt 0 view .LVU212
 705 0032 2370     		strb	r3, [r4]
 443:Generated_Source\PSoC5/CySpc.c **** 
 706              		.loc 1 443 14 view .LVU213
 707 0034 0720     		movs	r0, #7
 708 0036 00E0     		b	.L60
 709              	.LVL59:
 710              	.L62:
 460:Generated_Source\PSoC5/CySpc.c ****         }
 461:Generated_Source\PSoC5/CySpc.c ****         else
 462:Generated_Source\PSoC5/CySpc.c ****         {
 463:Generated_Source\PSoC5/CySpc.c ****             status = CYRET_CANCELED;
 464:Generated_Source\PSoC5/CySpc.c ****         }
 465:Generated_Source\PSoC5/CySpc.c ****     }
 466:Generated_Source\PSoC5/CySpc.c ****     else
 467:Generated_Source\PSoC5/CySpc.c ****     {
 468:Generated_Source\PSoC5/CySpc.c ****         status = CYRET_LOCKED;
 711              		.loc 1 468 16 view .LVU214
 712 0038 0420     		movs	r0, #4
 713              	.LVL60:
 714              	.L60:
 469:Generated_Source\PSoC5/CySpc.c ****     }
 470:Generated_Source\PSoC5/CySpc.c **** 
 471:Generated_Source\PSoC5/CySpc.c ****     return(status);
 472:Generated_Source\PSoC5/CySpc.c **** }
 715              		.loc 1 472 1 view .LVU215
 716 003a 30BC     		pop	{r4, r5}
 717              		.cfi_remember_state
 718              		.cfi_restore 5
 719              		.cfi_restore 4
 720              		.cfi_def_cfa_offset 0
 721 003c 7047     		bx	lr
 722              	.LVL61:
 723              	.L63:
 724              		.cfi_restore_state
 463:Generated_Source\PSoC5/CySpc.c ****         }
 725              		.loc 1 463 20 view .LVU216
 726 003e 0920     		movs	r0, #9
 727              	.LVL62:
 471:Generated_Source\PSoC5/CySpc.c **** }
 728              		.loc 1 471 5 is_stmt 1 view .LVU217
 471:Generated_Source\PSoC5/CySpc.c **** }
 729              		.loc 1 471 11 is_stmt 0 view .LVU218
ARM GAS  C:\Users\jens-\AppData\Local\Temp\ccLlrUxa.s 			page 23


 730 0040 FBE7     		b	.L60
 731              	.L66:
 732 0042 00BF     		.align	2
 733              	.L65:
 734 0044 22470040 		.word	1073760034
 735 0048 20470040 		.word	1073760032
 736              		.cfi_endproc
 737              	.LFE6:
 738              		.size	CySpcWriteRow, .-CySpcWriteRow
 739              		.section	.text.CySpcEraseSector,"ax",%progbits
 740              		.align	1
 741              		.global	CySpcEraseSector
 742              		.syntax unified
 743              		.thumb
 744              		.thumb_func
 745              		.fpu softvfp
 746              		.type	CySpcEraseSector, %function
 747              	CySpcEraseSector:
 748              	.LVL63:
 749              	.LFB7:
 473:Generated_Source\PSoC5/CySpc.c **** 
 474:Generated_Source\PSoC5/CySpc.c **** 
 475:Generated_Source\PSoC5/CySpc.c **** /*******************************************************************************
 476:Generated_Source\PSoC5/CySpc.c **** * Function Name: CySpcEraseSector
 477:Generated_Source\PSoC5/CySpc.c **** ****************************************************************************//**
 478:Generated_Source\PSoC5/CySpc.c **** *  Erases all data in the addressed sector (block of 64 rows).
 479:Generated_Source\PSoC5/CySpc.c **** *
 480:Generated_Source\PSoC5/CySpc.c **** *  \param uint8 array:
 481:Generated_Source\PSoC5/CySpc.c **** *   Id of the array.
 482:Generated_Source\PSoC5/CySpc.c **** *
 483:Generated_Source\PSoC5/CySpc.c **** *  \param uint8 sectorNumber:
 484:Generated_Source\PSoC5/CySpc.c **** *   Zero based sector number within Flash/EEPROM array
 485:Generated_Source\PSoC5/CySpc.c **** *
 486:Generated_Source\PSoC5/CySpc.c **** * \return
 487:Generated_Source\PSoC5/CySpc.c **** *  CYRET_STARTED
 488:Generated_Source\PSoC5/CySpc.c **** *  CYRET_CANCELED
 489:Generated_Source\PSoC5/CySpc.c **** *  CYRET_LOCKED
 490:Generated_Source\PSoC5/CySpc.c **** *
 491:Generated_Source\PSoC5/CySpc.c **** *******************************************************************************/
 492:Generated_Source\PSoC5/CySpc.c **** cystatus CySpcEraseSector(uint8 array, uint8 sectorNumber)
 493:Generated_Source\PSoC5/CySpc.c **** {
 750              		.loc 1 493 1 is_stmt 1 view -0
 751              		.cfi_startproc
 752              		@ args = 0, pretend = 0, frame = 0
 753              		@ frame_needed = 0, uses_anonymous_args = 0
 754              		@ link register save eliminated.
 494:Generated_Source\PSoC5/CySpc.c ****     cystatus status = CYRET_STARTED;
 755              		.loc 1 494 5 view .LVU220
 495:Generated_Source\PSoC5/CySpc.c **** 
 496:Generated_Source\PSoC5/CySpc.c ****     /* Make sure the SPC is ready to accept command */
 497:Generated_Source\PSoC5/CySpc.c ****     if(CY_SPC_IDLE)
 756              		.loc 1 497 5 view .LVU221
 757              		.loc 1 497 8 is_stmt 0 view .LVU222
 758 0000 0C4B     		ldr	r3, .L71
 759 0002 1B78     		ldrb	r3, [r3]	@ zero_extendqisi2
 760              		.loc 1 497 7 view .LVU223
 761 0004 13F0020F 		tst	r3, #2
ARM GAS  C:\Users\jens-\AppData\Local\Temp\ccLlrUxa.s 			page 24


 762 0008 10D0     		beq	.L69
 498:Generated_Source\PSoC5/CySpc.c ****     {
 499:Generated_Source\PSoC5/CySpc.c ****         CY_SPC_CPU_DATA_REG = CY_SPC_KEY_ONE;
 763              		.loc 1 499 9 is_stmt 1 view .LVU224
 764              		.loc 1 499 29 is_stmt 0 view .LVU225
 765 000a 0B4B     		ldr	r3, .L71+4
 766 000c B622     		movs	r2, #182
 767 000e 1A70     		strb	r2, [r3]
 500:Generated_Source\PSoC5/CySpc.c ****         CY_SPC_CPU_DATA_REG = CY_SPC_KEY_TWO(CY_SPC_CMD_ER_SECTOR);
 768              		.loc 1 500 9 is_stmt 1 view .LVU226
 769              		.loc 1 500 29 is_stmt 0 view .LVU227
 770 0010 DB22     		movs	r2, #219
 771 0012 1A70     		strb	r2, [r3]
 501:Generated_Source\PSoC5/CySpc.c ****         CY_SPC_CPU_DATA_REG = CY_SPC_CMD_ER_SECTOR;
 772              		.loc 1 501 9 is_stmt 1 view .LVU228
 773              		.loc 1 501 29 is_stmt 0 view .LVU229
 774 0014 0822     		movs	r2, #8
 775 0016 1A70     		strb	r2, [r3]
 502:Generated_Source\PSoC5/CySpc.c **** 
 503:Generated_Source\PSoC5/CySpc.c ****         /* Make sure the command was accepted */
 504:Generated_Source\PSoC5/CySpc.c ****         if(CY_SPC_BUSY)
 776              		.loc 1 504 9 is_stmt 1 view .LVU230
 777              		.loc 1 504 12 is_stmt 0 view .LVU231
 778 0018 0233     		adds	r3, r3, #2
 779 001a 1B78     		ldrb	r3, [r3]	@ zero_extendqisi2
 780              		.loc 1 504 11 view .LVU232
 781 001c 13F0020F 		tst	r3, #2
 782 0020 06D1     		bne	.L70
 505:Generated_Source\PSoC5/CySpc.c ****         {
 506:Generated_Source\PSoC5/CySpc.c ****             CY_SPC_CPU_DATA_REG = array;
 783              		.loc 1 506 13 is_stmt 1 view .LVU233
 784              		.loc 1 506 33 is_stmt 0 view .LVU234
 785 0022 054B     		ldr	r3, .L71+4
 786 0024 1870     		strb	r0, [r3]
 507:Generated_Source\PSoC5/CySpc.c ****             CY_SPC_CPU_DATA_REG = sectorNumber;
 787              		.loc 1 507 13 is_stmt 1 view .LVU235
 788              		.loc 1 507 33 is_stmt 0 view .LVU236
 789 0026 1970     		strb	r1, [r3]
 494:Generated_Source\PSoC5/CySpc.c **** 
 790              		.loc 1 494 14 view .LVU237
 791 0028 0720     		movs	r0, #7
 792              	.LVL64:
 494:Generated_Source\PSoC5/CySpc.c **** 
 793              		.loc 1 494 14 view .LVU238
 794 002a 7047     		bx	lr
 795              	.LVL65:
 796              	.L69:
 508:Generated_Source\PSoC5/CySpc.c ****         }
 509:Generated_Source\PSoC5/CySpc.c ****         else
 510:Generated_Source\PSoC5/CySpc.c ****         {
 511:Generated_Source\PSoC5/CySpc.c ****             status = CYRET_CANCELED;
 512:Generated_Source\PSoC5/CySpc.c ****         }
 513:Generated_Source\PSoC5/CySpc.c ****     }
 514:Generated_Source\PSoC5/CySpc.c ****     else
 515:Generated_Source\PSoC5/CySpc.c ****     {
 516:Generated_Source\PSoC5/CySpc.c ****         status = CYRET_LOCKED;
 797              		.loc 1 516 16 view .LVU239
ARM GAS  C:\Users\jens-\AppData\Local\Temp\ccLlrUxa.s 			page 25


 798 002c 0420     		movs	r0, #4
 799              	.LVL66:
 800              		.loc 1 516 16 view .LVU240
 801 002e 7047     		bx	lr
 802              	.LVL67:
 803              	.L70:
 511:Generated_Source\PSoC5/CySpc.c ****         }
 804              		.loc 1 511 20 view .LVU241
 805 0030 0920     		movs	r0, #9
 806              	.LVL68:
 517:Generated_Source\PSoC5/CySpc.c ****     }
 518:Generated_Source\PSoC5/CySpc.c **** 
 519:Generated_Source\PSoC5/CySpc.c ****     return(status);
 807              		.loc 1 519 5 is_stmt 1 view .LVU242
 520:Generated_Source\PSoC5/CySpc.c **** }
 808              		.loc 1 520 1 is_stmt 0 view .LVU243
 809 0032 7047     		bx	lr
 810              	.L72:
 811              		.align	2
 812              	.L71:
 813 0034 22470040 		.word	1073760034
 814 0038 20470040 		.word	1073760032
 815              		.cfi_endproc
 816              	.LFE7:
 817              		.size	CySpcEraseSector, .-CySpcEraseSector
 818              		.section	.text.CySpcEraseRow,"ax",%progbits
 819              		.align	1
 820              		.global	CySpcEraseRow
 821              		.syntax unified
 822              		.thumb
 823              		.thumb_func
 824              		.fpu softvfp
 825              		.type	CySpcEraseRow, %function
 826              	CySpcEraseRow:
 827              	.LVL69:
 828              	.LFB8:
 521:Generated_Source\PSoC5/CySpc.c **** 
 522:Generated_Source\PSoC5/CySpc.c **** 
 523:Generated_Source\PSoC5/CySpc.c **** /*******************************************************************************
 524:Generated_Source\PSoC5/CySpc.c **** * Function Name: CySpcEraseRow
 525:Generated_Source\PSoC5/CySpc.c **** ****************************************************************************//**
 526:Generated_Source\PSoC5/CySpc.c **** *  Erases a row in Flash.
 527:Generated_Source\PSoC5/CySpc.c **** *
 528:Generated_Source\PSoC5/CySpc.c **** *  \param uint8 array:
 529:Generated_Source\PSoC5/CySpc.c **** *   Id of the array.
 530:Generated_Source\PSoC5/CySpc.c **** *
 531:Generated_Source\PSoC5/CySpc.c **** *  \param uint16 address:
 532:Generated_Source\PSoC5/CySpc.c **** *   Flash address
 533:Generated_Source\PSoC5/CySpc.c **** *
 534:Generated_Source\PSoC5/CySpc.c **** *  \param uint8 tempPolarity:
 535:Generated_Source\PSoC5/CySpc.c **** *   temperature polarity.
 536:Generated_Source\PSoC5/CySpc.c **** *   \param 1: the Temp Magnitude is interpreted as a positive value
 537:Generated_Source\PSoC5/CySpc.c **** *   \param 0: the Temp Magnitude is interpreted as a negative value
 538:Generated_Source\PSoC5/CySpc.c **** *
 539:Generated_Source\PSoC5/CySpc.c **** *  \param uint8 tempMagnitude:
 540:Generated_Source\PSoC5/CySpc.c **** *   temperature magnitude.
 541:Generated_Source\PSoC5/CySpc.c **** *
ARM GAS  C:\Users\jens-\AppData\Local\Temp\ccLlrUxa.s 			page 26


 542:Generated_Source\PSoC5/CySpc.c **** * \return
 543:Generated_Source\PSoC5/CySpc.c **** *  CYRET_STARTED
 544:Generated_Source\PSoC5/CySpc.c **** *  CYRET_CANCELED
 545:Generated_Source\PSoC5/CySpc.c **** *  CYRET_LOCKED
 546:Generated_Source\PSoC5/CySpc.c **** *
 547:Generated_Source\PSoC5/CySpc.c **** *******************************************************************************/
 548:Generated_Source\PSoC5/CySpc.c **** cystatus CySpcEraseRow(uint8 array, uint16 address, uint8 tempPolarity, uint8 tempMagnitude)\
 549:Generated_Source\PSoC5/CySpc.c **** 
 550:Generated_Source\PSoC5/CySpc.c **** {
 829              		.loc 1 550 1 is_stmt 1 view -0
 830              		.cfi_startproc
 831              		@ args = 0, pretend = 0, frame = 0
 832              		@ frame_needed = 0, uses_anonymous_args = 0
 833              		@ link register save eliminated.
 834              		.loc 1 550 1 is_stmt 0 view .LVU245
 835 0000 30B4     		push	{r4, r5}
 836              		.cfi_def_cfa_offset 8
 837              		.cfi_offset 4, -8
 838              		.cfi_offset 5, -4
 551:Generated_Source\PSoC5/CySpc.c ****     cystatus status = CYRET_STARTED;
 839              		.loc 1 551 5 is_stmt 1 view .LVU246
 840              	.LVL70:
 552:Generated_Source\PSoC5/CySpc.c **** 
 553:Generated_Source\PSoC5/CySpc.c ****     /* Make sure the SPC is ready to accept command */
 554:Generated_Source\PSoC5/CySpc.c ****     if(CY_SPC_IDLE)
 841              		.loc 1 554 5 view .LVU247
 842              		.loc 1 554 8 is_stmt 0 view .LVU248
 843 0002 104C     		ldr	r4, .L78
 844 0004 2478     		ldrb	r4, [r4]	@ zero_extendqisi2
 845              		.loc 1 554 7 view .LVU249
 846 0006 14F0020F 		tst	r4, #2
 847 000a 15D0     		beq	.L75
 555:Generated_Source\PSoC5/CySpc.c ****     {
 556:Generated_Source\PSoC5/CySpc.c ****         CY_SPC_CPU_DATA_REG = CY_SPC_KEY_ONE;
 848              		.loc 1 556 9 is_stmt 1 view .LVU250
 849              		.loc 1 556 29 is_stmt 0 view .LVU251
 850 000c 0E4C     		ldr	r4, .L78+4
 851 000e B625     		movs	r5, #182
 852 0010 2570     		strb	r5, [r4]
 557:Generated_Source\PSoC5/CySpc.c ****         CY_SPC_CPU_DATA_REG = CY_SPC_KEY_TWO(CY_SPC_CMD_ER_ROW);
 853              		.loc 1 557 9 is_stmt 1 view .LVU252
 854              		.loc 1 557 29 is_stmt 0 view .LVU253
 855 0012 E625     		movs	r5, #230
 856 0014 2570     		strb	r5, [r4]
 558:Generated_Source\PSoC5/CySpc.c ****         CY_SPC_CPU_DATA_REG = CY_SPC_CMD_ER_ROW;
 857              		.loc 1 558 9 is_stmt 1 view .LVU254
 858              		.loc 1 558 29 is_stmt 0 view .LVU255
 859 0016 1325     		movs	r5, #19
 860 0018 2570     		strb	r5, [r4]
 559:Generated_Source\PSoC5/CySpc.c **** 
 560:Generated_Source\PSoC5/CySpc.c ****         /* Make sure the command was accepted */
 561:Generated_Source\PSoC5/CySpc.c ****         if(CY_SPC_BUSY)
 861              		.loc 1 561 9 is_stmt 1 view .LVU256
 862              		.loc 1 561 12 is_stmt 0 view .LVU257
 863 001a 0234     		adds	r4, r4, #2
 864 001c 2478     		ldrb	r4, [r4]	@ zero_extendqisi2
 865              		.loc 1 561 11 view .LVU258
ARM GAS  C:\Users\jens-\AppData\Local\Temp\ccLlrUxa.s 			page 27


 866 001e 14F0020F 		tst	r4, #2
 867 0022 0CD1     		bne	.L76
 562:Generated_Source\PSoC5/CySpc.c ****         {
 563:Generated_Source\PSoC5/CySpc.c ****             CY_SPC_CPU_DATA_REG = array;
 868              		.loc 1 563 13 is_stmt 1 view .LVU259
 869              		.loc 1 563 33 is_stmt 0 view .LVU260
 870 0024 084C     		ldr	r4, .L78+4
 871 0026 2070     		strb	r0, [r4]
 564:Generated_Source\PSoC5/CySpc.c ****             CY_SPC_CPU_DATA_REG = HI8(address);
 872              		.loc 1 564 13 is_stmt 1 view .LVU261
 873              		.loc 1 564 35 is_stmt 0 view .LVU262
 874 0028 080A     		lsrs	r0, r1, #8
 875              	.LVL71:
 876              		.loc 1 564 33 view .LVU263
 877 002a 2070     		strb	r0, [r4]
 878              	.LVL72:
 565:Generated_Source\PSoC5/CySpc.c ****             CY_SPC_CPU_DATA_REG = LO8(address);
 879              		.loc 1 565 13 is_stmt 1 view .LVU264
 880              		.loc 1 565 35 is_stmt 0 view .LVU265
 881 002c C9B2     		uxtb	r1, r1
 882              	.LVL73:
 883              		.loc 1 565 33 view .LVU266
 884 002e 2170     		strb	r1, [r4]
 566:Generated_Source\PSoC5/CySpc.c ****             CY_SPC_CPU_DATA_REG = tempPolarity;
 885              		.loc 1 566 13 is_stmt 1 view .LVU267
 886              		.loc 1 566 33 is_stmt 0 view .LVU268
 887 0030 2270     		strb	r2, [r4]
 567:Generated_Source\PSoC5/CySpc.c ****             CY_SPC_CPU_DATA_REG = tempMagnitude;
 888              		.loc 1 567 13 is_stmt 1 view .LVU269
 889              		.loc 1 567 33 is_stmt 0 view .LVU270
 890 0032 2370     		strb	r3, [r4]
 551:Generated_Source\PSoC5/CySpc.c **** 
 891              		.loc 1 551 14 view .LVU271
 892 0034 0720     		movs	r0, #7
 893 0036 00E0     		b	.L73
 894              	.LVL74:
 895              	.L75:
 568:Generated_Source\PSoC5/CySpc.c ****         }
 569:Generated_Source\PSoC5/CySpc.c ****         else
 570:Generated_Source\PSoC5/CySpc.c ****         {
 571:Generated_Source\PSoC5/CySpc.c ****             status = CYRET_CANCELED;
 572:Generated_Source\PSoC5/CySpc.c ****         }
 573:Generated_Source\PSoC5/CySpc.c ****     }
 574:Generated_Source\PSoC5/CySpc.c ****     else
 575:Generated_Source\PSoC5/CySpc.c ****     {
 576:Generated_Source\PSoC5/CySpc.c ****         status = CYRET_LOCKED;
 896              		.loc 1 576 16 view .LVU272
 897 0038 0420     		movs	r0, #4
 898              	.LVL75:
 899              	.L73:
 577:Generated_Source\PSoC5/CySpc.c ****     }
 578:Generated_Source\PSoC5/CySpc.c **** 
 579:Generated_Source\PSoC5/CySpc.c ****     return(status);
 580:Generated_Source\PSoC5/CySpc.c **** }
 900              		.loc 1 580 1 view .LVU273
 901 003a 30BC     		pop	{r4, r5}
 902              		.cfi_remember_state
ARM GAS  C:\Users\jens-\AppData\Local\Temp\ccLlrUxa.s 			page 28


 903              		.cfi_restore 5
 904              		.cfi_restore 4
 905              		.cfi_def_cfa_offset 0
 906 003c 7047     		bx	lr
 907              	.LVL76:
 908              	.L76:
 909              		.cfi_restore_state
 571:Generated_Source\PSoC5/CySpc.c ****         }
 910              		.loc 1 571 20 view .LVU274
 911 003e 0920     		movs	r0, #9
 912              	.LVL77:
 579:Generated_Source\PSoC5/CySpc.c **** }
 913              		.loc 1 579 5 is_stmt 1 view .LVU275
 579:Generated_Source\PSoC5/CySpc.c **** }
 914              		.loc 1 579 11 is_stmt 0 view .LVU276
 915 0040 FBE7     		b	.L73
 916              	.L79:
 917 0042 00BF     		.align	2
 918              	.L78:
 919 0044 22470040 		.word	1073760034
 920 0048 20470040 		.word	1073760032
 921              		.cfi_endproc
 922              	.LFE8:
 923              		.size	CySpcEraseRow, .-CySpcEraseRow
 924              		.section	.text.CySpcGetTemp,"ax",%progbits
 925              		.align	1
 926              		.global	CySpcGetTemp
 927              		.syntax unified
 928              		.thumb
 929              		.thumb_func
 930              		.fpu softvfp
 931              		.type	CySpcGetTemp, %function
 932              	CySpcGetTemp:
 933              	.LVL78:
 934              	.LFB9:
 581:Generated_Source\PSoC5/CySpc.c **** 
 582:Generated_Source\PSoC5/CySpc.c **** 
 583:Generated_Source\PSoC5/CySpc.c **** /*******************************************************************************
 584:Generated_Source\PSoC5/CySpc.c **** * Function Name: CySpcGetTemp
 585:Generated_Source\PSoC5/CySpc.c **** ****************************************************************************//**
 586:Generated_Source\PSoC5/CySpc.c **** *  Returns the internal die temperature
 587:Generated_Source\PSoC5/CySpc.c **** *
 588:Generated_Source\PSoC5/CySpc.c **** *  \param uint8 numSamples:
 589:Generated_Source\PSoC5/CySpc.c **** *   Number of samples. Valid values are 1-5, resulting in 2 - 32 samples
 590:Generated_Source\PSoC5/CySpc.c **** *   respectively.
 591:Generated_Source\PSoC5/CySpc.c **** *
 592:Generated_Source\PSoC5/CySpc.c **** * \param uint16 timerPeriod:
 593:Generated_Source\PSoC5/CySpc.c **** *   Number of ADC ACLK cycles. A valid 14 bit value is accepted, higher 2 bits
 594:Generated_Source\PSoC5/CySpc.c **** *   of 16 bit values are ignored.
 595:Generated_Source\PSoC5/CySpc.c **** *
 596:Generated_Source\PSoC5/CySpc.c **** * \param uint8 clkDivSelect:
 597:Generated_Source\PSoC5/CySpc.c **** *   ADC ACLK clock divide value. Valid values are 2 - 225.
 598:Generated_Source\PSoC5/CySpc.c **** *
 599:Generated_Source\PSoC5/CySpc.c **** * \return
 600:Generated_Source\PSoC5/CySpc.c **** *  CYRET_STARTED
 601:Generated_Source\PSoC5/CySpc.c **** *  CYRET_CANCELED
 602:Generated_Source\PSoC5/CySpc.c **** *  CYRET_LOCKED
ARM GAS  C:\Users\jens-\AppData\Local\Temp\ccLlrUxa.s 			page 29


 603:Generated_Source\PSoC5/CySpc.c **** *
 604:Generated_Source\PSoC5/CySpc.c **** *******************************************************************************/
 605:Generated_Source\PSoC5/CySpc.c **** cystatus CySpcGetTemp(uint8 numSamples)
 606:Generated_Source\PSoC5/CySpc.c **** {
 935              		.loc 1 606 1 is_stmt 1 view -0
 936              		.cfi_startproc
 937              		@ args = 0, pretend = 0, frame = 0
 938              		@ frame_needed = 0, uses_anonymous_args = 0
 939              		@ link register save eliminated.
 607:Generated_Source\PSoC5/CySpc.c ****     cystatus status = CYRET_STARTED;
 940              		.loc 1 607 5 view .LVU278
 608:Generated_Source\PSoC5/CySpc.c **** 
 609:Generated_Source\PSoC5/CySpc.c ****     /* Make sure the SPC is ready to accept command */
 610:Generated_Source\PSoC5/CySpc.c ****     if(CY_SPC_IDLE)
 941              		.loc 1 610 5 view .LVU279
 942              		.loc 1 610 8 is_stmt 0 view .LVU280
 943 0000 0C4B     		ldr	r3, .L84
 944 0002 1B78     		ldrb	r3, [r3]	@ zero_extendqisi2
 945              		.loc 1 610 7 view .LVU281
 946 0004 13F0020F 		tst	r3, #2
 947 0008 0FD0     		beq	.L82
 611:Generated_Source\PSoC5/CySpc.c ****     {
 612:Generated_Source\PSoC5/CySpc.c ****         CY_SPC_CPU_DATA_REG = CY_SPC_KEY_ONE;
 948              		.loc 1 612 9 is_stmt 1 view .LVU282
 949              		.loc 1 612 29 is_stmt 0 view .LVU283
 950 000a 0B4B     		ldr	r3, .L84+4
 951 000c B622     		movs	r2, #182
 952 000e 1A70     		strb	r2, [r3]
 613:Generated_Source\PSoC5/CySpc.c ****         CY_SPC_CPU_DATA_REG = CY_SPC_KEY_TWO(CY_SPC_CMD_GET_TEMP);
 953              		.loc 1 613 9 is_stmt 1 view .LVU284
 954              		.loc 1 613 29 is_stmt 0 view .LVU285
 955 0010 E122     		movs	r2, #225
 956 0012 1A70     		strb	r2, [r3]
 614:Generated_Source\PSoC5/CySpc.c ****         CY_SPC_CPU_DATA_REG = CY_SPC_CMD_GET_TEMP;
 957              		.loc 1 614 9 is_stmt 1 view .LVU286
 958              		.loc 1 614 29 is_stmt 0 view .LVU287
 959 0014 0E22     		movs	r2, #14
 960 0016 1A70     		strb	r2, [r3]
 615:Generated_Source\PSoC5/CySpc.c **** 
 616:Generated_Source\PSoC5/CySpc.c ****         /* Make sure the command was accepted */
 617:Generated_Source\PSoC5/CySpc.c ****         if(CY_SPC_BUSY)
 961              		.loc 1 617 9 is_stmt 1 view .LVU288
 962              		.loc 1 617 12 is_stmt 0 view .LVU289
 963 0018 0233     		adds	r3, r3, #2
 964 001a 1B78     		ldrb	r3, [r3]	@ zero_extendqisi2
 965              		.loc 1 617 11 view .LVU290
 966 001c 13F0020F 		tst	r3, #2
 967 0020 05D1     		bne	.L83
 618:Generated_Source\PSoC5/CySpc.c ****         {
 619:Generated_Source\PSoC5/CySpc.c ****             CY_SPC_CPU_DATA_REG = numSamples;
 968              		.loc 1 619 13 is_stmt 1 view .LVU291
 969              		.loc 1 619 33 is_stmt 0 view .LVU292
 970 0022 054B     		ldr	r3, .L84+4
 971 0024 1870     		strb	r0, [r3]
 607:Generated_Source\PSoC5/CySpc.c **** 
 972              		.loc 1 607 14 view .LVU293
 973 0026 0720     		movs	r0, #7
ARM GAS  C:\Users\jens-\AppData\Local\Temp\ccLlrUxa.s 			page 30


 974              	.LVL79:
 607:Generated_Source\PSoC5/CySpc.c **** 
 975              		.loc 1 607 14 view .LVU294
 976 0028 7047     		bx	lr
 977              	.LVL80:
 978              	.L82:
 620:Generated_Source\PSoC5/CySpc.c ****         }
 621:Generated_Source\PSoC5/CySpc.c ****         else
 622:Generated_Source\PSoC5/CySpc.c ****         {
 623:Generated_Source\PSoC5/CySpc.c ****             status = CYRET_CANCELED;
 624:Generated_Source\PSoC5/CySpc.c ****         }
 625:Generated_Source\PSoC5/CySpc.c ****     }
 626:Generated_Source\PSoC5/CySpc.c ****     else
 627:Generated_Source\PSoC5/CySpc.c ****     {
 628:Generated_Source\PSoC5/CySpc.c ****         status = CYRET_LOCKED;
 979              		.loc 1 628 16 view .LVU295
 980 002a 0420     		movs	r0, #4
 981              	.LVL81:
 982              		.loc 1 628 16 view .LVU296
 983 002c 7047     		bx	lr
 984              	.LVL82:
 985              	.L83:
 623:Generated_Source\PSoC5/CySpc.c ****         }
 986              		.loc 1 623 20 view .LVU297
 987 002e 0920     		movs	r0, #9
 988              	.LVL83:
 629:Generated_Source\PSoC5/CySpc.c ****     }
 630:Generated_Source\PSoC5/CySpc.c **** 
 631:Generated_Source\PSoC5/CySpc.c ****     return(status);
 989              		.loc 1 631 5 is_stmt 1 view .LVU298
 632:Generated_Source\PSoC5/CySpc.c **** }
 990              		.loc 1 632 1 is_stmt 0 view .LVU299
 991 0030 7047     		bx	lr
 992              	.L85:
 993 0032 00BF     		.align	2
 994              	.L84:
 995 0034 22470040 		.word	1073760034
 996 0038 20470040 		.word	1073760032
 997              		.cfi_endproc
 998              	.LFE9:
 999              		.size	CySpcGetTemp, .-CySpcGetTemp
 1000              		.section	.text.CySpcLock,"ax",%progbits
 1001              		.align	1
 1002              		.global	CySpcLock
 1003              		.syntax unified
 1004              		.thumb
 1005              		.thumb_func
 1006              		.fpu softvfp
 1007              		.type	CySpcLock, %function
 1008              	CySpcLock:
 1009              	.LFB10:
 633:Generated_Source\PSoC5/CySpc.c **** 
 634:Generated_Source\PSoC5/CySpc.c **** 
 635:Generated_Source\PSoC5/CySpc.c **** /*******************************************************************************
 636:Generated_Source\PSoC5/CySpc.c **** * Function Name: CySpcLock
 637:Generated_Source\PSoC5/CySpc.c **** ****************************************************************************//**
 638:Generated_Source\PSoC5/CySpc.c **** *  Locks the SPC so it can not be used by someone else:
ARM GAS  C:\Users\jens-\AppData\Local\Temp\ccLlrUxa.s 			page 31


 639:Generated_Source\PSoC5/CySpc.c **** *   - Saves wait-pipeline enable state and enable pipeline (PSoC5)
 640:Generated_Source\PSoC5/CySpc.c **** *
 641:Generated_Source\PSoC5/CySpc.c **** * \return
 642:Generated_Source\PSoC5/CySpc.c **** *  CYRET_SUCCESS - if the resource was free.
 643:Generated_Source\PSoC5/CySpc.c **** *  CYRET_LOCKED  - if the SPC is in use.
 644:Generated_Source\PSoC5/CySpc.c **** *
 645:Generated_Source\PSoC5/CySpc.c **** *******************************************************************************/
 646:Generated_Source\PSoC5/CySpc.c **** cystatus CySpcLock(void)
 647:Generated_Source\PSoC5/CySpc.c **** {
 1010              		.loc 1 647 1 is_stmt 1 view -0
 1011              		.cfi_startproc
 1012              		@ args = 0, pretend = 0, frame = 0
 1013              		@ frame_needed = 0, uses_anonymous_args = 0
 1014 0000 10B5     		push	{r4, lr}
 1015              		.cfi_def_cfa_offset 8
 1016              		.cfi_offset 4, -8
 1017              		.cfi_offset 14, -4
 648:Generated_Source\PSoC5/CySpc.c ****     cystatus status = CYRET_LOCKED;
 1018              		.loc 1 648 5 view .LVU301
 1019              	.LVL84:
 649:Generated_Source\PSoC5/CySpc.c ****     uint8 interruptState;
 1020              		.loc 1 649 5 view .LVU302
 650:Generated_Source\PSoC5/CySpc.c **** 
 651:Generated_Source\PSoC5/CySpc.c ****     /* Enter critical section */
 652:Generated_Source\PSoC5/CySpc.c ****     interruptState = CyEnterCriticalSection();
 1021              		.loc 1 652 5 view .LVU303
 1022              		.loc 1 652 22 is_stmt 0 view .LVU304
 1023 0002 FFF7FEFF 		bl	CyEnterCriticalSection
 1024              	.LVL85:
 653:Generated_Source\PSoC5/CySpc.c **** 
 654:Generated_Source\PSoC5/CySpc.c ****     if(CY_SPC_UNLOCKED == SpcLockState)
 1025              		.loc 1 654 5 is_stmt 1 view .LVU305
 1026              		.loc 1 654 24 is_stmt 0 view .LVU306
 1027 0006 0E4B     		ldr	r3, .L90
 1028 0008 1B78     		ldrb	r3, [r3]	@ zero_extendqisi2
 1029              		.loc 1 654 7 view .LVU307
 1030 000a 9BB9     		cbnz	r3, .L88
 655:Generated_Source\PSoC5/CySpc.c ****     {
 656:Generated_Source\PSoC5/CySpc.c ****         SpcLockState = CY_SPC_LOCKED;
 1031              		.loc 1 656 9 is_stmt 1 view .LVU308
 1032              		.loc 1 656 22 is_stmt 0 view .LVU309
 1033 000c 0C4B     		ldr	r3, .L90
 1034 000e 0122     		movs	r2, #1
 1035 0010 1A70     		strb	r2, [r3]
 657:Generated_Source\PSoC5/CySpc.c ****         status = CYRET_SUCCESS;
 1036              		.loc 1 657 9 is_stmt 1 view .LVU310
 1037              	.LVL86:
 658:Generated_Source\PSoC5/CySpc.c **** 
 659:Generated_Source\PSoC5/CySpc.c ****         #if(CY_PSOC5)
 660:Generated_Source\PSoC5/CySpc.c **** 
 661:Generated_Source\PSoC5/CySpc.c ****             if(0u != (CY_SPC_CPU_WAITPIPE_REG & CY_SPC_CPU_WAITPIPE_BYPASS))
 1038              		.loc 1 661 13 view .LVU311
 1039              		.loc 1 661 23 is_stmt 0 view .LVU312
 1040 0012 0C4B     		ldr	r3, .L90+4
 1041 0014 1C68     		ldr	r4, [r3]
 1042              		.loc 1 661 15 view .LVU313
 1043 0016 1440     		ands	r4, r4, r2
ARM GAS  C:\Users\jens-\AppData\Local\Temp\ccLlrUxa.s 			page 32


 1044 0018 0DD0     		beq	.L87
 662:Generated_Source\PSoC5/CySpc.c ****             {
 663:Generated_Source\PSoC5/CySpc.c ****                 /* Enable pipeline registers */
 664:Generated_Source\PSoC5/CySpc.c ****                 CY_SPC_CPU_WAITPIPE_REG &= ((uint32)(~CY_SPC_CPU_WAITPIPE_BYPASS));
 1045              		.loc 1 664 17 is_stmt 1 view .LVU314
 1046              		.loc 1 664 41 is_stmt 0 view .LVU315
 1047 001a 1A46     		mov	r2, r3
 1048 001c 1B68     		ldr	r3, [r3]
 1049 001e 23F00103 		bic	r3, r3, #1
 1050 0022 1360     		str	r3, [r2]
 665:Generated_Source\PSoC5/CySpc.c **** 
 666:Generated_Source\PSoC5/CySpc.c ****                 /* At least 2 NOP instructions are recommended */
 667:Generated_Source\PSoC5/CySpc.c ****                 CY_NOP;
 1051              		.loc 1 667 17 is_stmt 1 view .LVU316
 1052              		.syntax unified
 1053              	@ 667 "Generated_Source\PSoC5\CySpc.c" 1
 1054 0024 00BF     		NOP
 1055              	
 1056              	@ 0 "" 2
 668:Generated_Source\PSoC5/CySpc.c ****                 CY_NOP;
 1057              		.loc 1 668 17 view .LVU317
 1058              	@ 668 "Generated_Source\PSoC5\CySpc.c" 1
 1059 0026 00BF     		NOP
 1060              	
 1061              	@ 0 "" 2
 669:Generated_Source\PSoC5/CySpc.c ****                 CY_NOP;
 1062              		.loc 1 669 17 view .LVU318
 1063              	@ 669 "Generated_Source\PSoC5\CySpc.c" 1
 1064 0028 00BF     		NOP
 1065              	
 1066              	@ 0 "" 2
 670:Generated_Source\PSoC5/CySpc.c **** 
 671:Generated_Source\PSoC5/CySpc.c ****                 spcWaitPipeBypass = CY_SPC_CPU_WAITPIPE_BYPASS;
 1067              		.loc 1 671 17 view .LVU319
 1068              		.loc 1 671 35 is_stmt 0 view .LVU320
 1069              		.thumb
 1070              		.syntax unified
 1071 002a 054B     		ldr	r3, .L90
 1072 002c 0122     		movs	r2, #1
 1073 002e 5A60     		str	r2, [r3, #4]
 657:Generated_Source\PSoC5/CySpc.c **** 
 1074              		.loc 1 657 16 view .LVU321
 1075 0030 0024     		movs	r4, #0
 1076 0032 00E0     		b	.L87
 1077              	.LVL87:
 1078              	.L88:
 648:Generated_Source\PSoC5/CySpc.c ****     uint8 interruptState;
 1079              		.loc 1 648 14 view .LVU322
 1080 0034 0424     		movs	r4, #4
 1081              	.LVL88:
 1082              	.L87:
 672:Generated_Source\PSoC5/CySpc.c ****             }
 673:Generated_Source\PSoC5/CySpc.c **** 
 674:Generated_Source\PSoC5/CySpc.c ****         #endif  /* (CY_PSOC5) */
 675:Generated_Source\PSoC5/CySpc.c ****     }
 676:Generated_Source\PSoC5/CySpc.c **** 
 677:Generated_Source\PSoC5/CySpc.c ****     /* Exit critical section */
ARM GAS  C:\Users\jens-\AppData\Local\Temp\ccLlrUxa.s 			page 33


 678:Generated_Source\PSoC5/CySpc.c ****     CyExitCriticalSection(interruptState);
 1083              		.loc 1 678 5 is_stmt 1 view .LVU323
 1084 0036 FFF7FEFF 		bl	CyExitCriticalSection
 1085              	.LVL89:
 679:Generated_Source\PSoC5/CySpc.c **** 
 680:Generated_Source\PSoC5/CySpc.c ****     return(status);
 1086              		.loc 1 680 5 view .LVU324
 681:Generated_Source\PSoC5/CySpc.c **** }
 1087              		.loc 1 681 1 is_stmt 0 view .LVU325
 1088 003a 2046     		mov	r0, r4
 1089 003c 10BD     		pop	{r4, pc}
 1090              	.LVL90:
 1091              	.L91:
 1092              		.loc 1 681 1 view .LVU326
 1093 003e 00BF     		.align	2
 1094              	.L90:
 1095 0040 00000000 		.word	.LANCHOR0
 1096 0044 04000840 		.word	1074266116
 1097              		.cfi_endproc
 1098              	.LFE10:
 1099              		.size	CySpcLock, .-CySpcLock
 1100              		.section	.text.CySpcUnlock,"ax",%progbits
 1101              		.align	1
 1102              		.global	CySpcUnlock
 1103              		.syntax unified
 1104              		.thumb
 1105              		.thumb_func
 1106              		.fpu softvfp
 1107              		.type	CySpcUnlock, %function
 1108              	CySpcUnlock:
 1109              	.LFB11:
 682:Generated_Source\PSoC5/CySpc.c **** 
 683:Generated_Source\PSoC5/CySpc.c **** 
 684:Generated_Source\PSoC5/CySpc.c **** /*******************************************************************************
 685:Generated_Source\PSoC5/CySpc.c **** * Function Name: CySpcUnlock
 686:Generated_Source\PSoC5/CySpc.c **** ****************************************************************************//**
 687:Generated_Source\PSoC5/CySpc.c **** *  Unlocks the SPC so it can be used by someone else:
 688:Generated_Source\PSoC5/CySpc.c **** *   - Restores wait-pipeline enable state (PSoC5)
 689:Generated_Source\PSoC5/CySpc.c **** *
 690:Generated_Source\PSoC5/CySpc.c **** *******************************************************************************/
 691:Generated_Source\PSoC5/CySpc.c **** void CySpcUnlock(void)
 692:Generated_Source\PSoC5/CySpc.c **** {
 1110              		.loc 1 692 1 is_stmt 1 view -0
 1111              		.cfi_startproc
 1112              		@ args = 0, pretend = 0, frame = 0
 1113              		@ frame_needed = 0, uses_anonymous_args = 0
 1114 0000 08B5     		push	{r3, lr}
 1115              		.cfi_def_cfa_offset 8
 1116              		.cfi_offset 3, -8
 1117              		.cfi_offset 14, -4
 693:Generated_Source\PSoC5/CySpc.c ****     uint8 interruptState;
 1118              		.loc 1 693 5 view .LVU328
 694:Generated_Source\PSoC5/CySpc.c **** 
 695:Generated_Source\PSoC5/CySpc.c ****     /* Enter critical section */
 696:Generated_Source\PSoC5/CySpc.c ****     interruptState = CyEnterCriticalSection();
 1119              		.loc 1 696 5 view .LVU329
 1120              		.loc 1 696 22 is_stmt 0 view .LVU330
ARM GAS  C:\Users\jens-\AppData\Local\Temp\ccLlrUxa.s 			page 34


 1121 0002 FFF7FEFF 		bl	CyEnterCriticalSection
 1122              	.LVL91:
 697:Generated_Source\PSoC5/CySpc.c **** 
 698:Generated_Source\PSoC5/CySpc.c ****     /* Release the SPC object */
 699:Generated_Source\PSoC5/CySpc.c ****     SpcLockState = CY_SPC_UNLOCKED;
 1123              		.loc 1 699 5 is_stmt 1 view .LVU331
 1124              		.loc 1 699 18 is_stmt 0 view .LVU332
 1125 0006 0A4B     		ldr	r3, .L96
 1126 0008 0022     		movs	r2, #0
 1127 000a 1A70     		strb	r2, [r3]
 700:Generated_Source\PSoC5/CySpc.c **** 
 701:Generated_Source\PSoC5/CySpc.c ****     #if(CY_PSOC5)
 702:Generated_Source\PSoC5/CySpc.c **** 
 703:Generated_Source\PSoC5/CySpc.c ****         if(CY_SPC_CPU_WAITPIPE_BYPASS == spcWaitPipeBypass)
 1128              		.loc 1 703 9 is_stmt 1 view .LVU333
 1129              		.loc 1 703 39 is_stmt 0 view .LVU334
 1130 000c 5B68     		ldr	r3, [r3, #4]
 1131              		.loc 1 703 11 view .LVU335
 1132 000e 012B     		cmp	r3, #1
 1133 0010 02D0     		beq	.L95
 1134              	.L93:
 704:Generated_Source\PSoC5/CySpc.c ****         {
 705:Generated_Source\PSoC5/CySpc.c ****             /* Force to bypass pipeline registers */
 706:Generated_Source\PSoC5/CySpc.c ****             CY_SPC_CPU_WAITPIPE_REG |= CY_SPC_CPU_WAITPIPE_BYPASS;
 707:Generated_Source\PSoC5/CySpc.c **** 
 708:Generated_Source\PSoC5/CySpc.c ****             /* At least 2 NOP instructions are recommended */
 709:Generated_Source\PSoC5/CySpc.c ****             CY_NOP;
 710:Generated_Source\PSoC5/CySpc.c ****             CY_NOP;
 711:Generated_Source\PSoC5/CySpc.c ****             CY_NOP;
 712:Generated_Source\PSoC5/CySpc.c **** 
 713:Generated_Source\PSoC5/CySpc.c ****             spcWaitPipeBypass = 0u;
 714:Generated_Source\PSoC5/CySpc.c ****         }
 715:Generated_Source\PSoC5/CySpc.c **** 
 716:Generated_Source\PSoC5/CySpc.c ****     #endif  /* (CY_PSOC5) */
 717:Generated_Source\PSoC5/CySpc.c **** 
 718:Generated_Source\PSoC5/CySpc.c ****     /* Exit critical section */
 719:Generated_Source\PSoC5/CySpc.c ****     CyExitCriticalSection(interruptState);
 1135              		.loc 1 719 5 is_stmt 1 view .LVU336
 1136 0012 FFF7FEFF 		bl	CyExitCriticalSection
 1137              	.LVL92:
 720:Generated_Source\PSoC5/CySpc.c **** }
 1138              		.loc 1 720 1 is_stmt 0 view .LVU337
 1139 0016 08BD     		pop	{r3, pc}
 1140              	.LVL93:
 1141              	.L95:
 706:Generated_Source\PSoC5/CySpc.c **** 
 1142              		.loc 1 706 13 is_stmt 1 view .LVU338
 706:Generated_Source\PSoC5/CySpc.c **** 
 1143              		.loc 1 706 37 is_stmt 0 view .LVU339
 1144 0018 064A     		ldr	r2, .L96+4
 1145 001a 1368     		ldr	r3, [r2]
 1146 001c 43F00103 		orr	r3, r3, #1
 1147 0020 1360     		str	r3, [r2]
 709:Generated_Source\PSoC5/CySpc.c ****             CY_NOP;
 1148              		.loc 1 709 13 is_stmt 1 view .LVU340
 1149              		.syntax unified
 1150              	@ 709 "Generated_Source\PSoC5\CySpc.c" 1
ARM GAS  C:\Users\jens-\AppData\Local\Temp\ccLlrUxa.s 			page 35


 1151 0022 00BF     		NOP
 1152              	
 1153              	@ 0 "" 2
 710:Generated_Source\PSoC5/CySpc.c ****             CY_NOP;
 1154              		.loc 1 710 13 view .LVU341
 1155              	@ 710 "Generated_Source\PSoC5\CySpc.c" 1
 1156 0024 00BF     		NOP
 1157              	
 1158              	@ 0 "" 2
 711:Generated_Source\PSoC5/CySpc.c **** 
 1159              		.loc 1 711 13 view .LVU342
 1160              	@ 711 "Generated_Source\PSoC5\CySpc.c" 1
 1161 0026 00BF     		NOP
 1162              	
 1163              	@ 0 "" 2
 713:Generated_Source\PSoC5/CySpc.c ****         }
 1164              		.loc 1 713 13 view .LVU343
 713:Generated_Source\PSoC5/CySpc.c ****         }
 1165              		.loc 1 713 31 is_stmt 0 view .LVU344
 1166              		.thumb
 1167              		.syntax unified
 1168 0028 014B     		ldr	r3, .L96
 1169 002a 0022     		movs	r2, #0
 1170 002c 5A60     		str	r2, [r3, #4]
 1171 002e F0E7     		b	.L93
 1172              	.L97:
 1173              		.align	2
 1174              	.L96:
 1175 0030 00000000 		.word	.LANCHOR0
 1176 0034 04000840 		.word	1074266116
 1177              		.cfi_endproc
 1178              	.LFE11:
 1179              		.size	CySpcUnlock, .-CySpcUnlock
 1180              		.section	.text.CySpcGetAlgorithm,"ax",%progbits
 1181              		.align	1
 1182              		.global	CySpcGetAlgorithm
 1183              		.syntax unified
 1184              		.thumb
 1185              		.thumb_func
 1186              		.fpu softvfp
 1187              		.type	CySpcGetAlgorithm, %function
 1188              	CySpcGetAlgorithm:
 1189              	.LFB12:
 721:Generated_Source\PSoC5/CySpc.c **** 
 722:Generated_Source\PSoC5/CySpc.c **** 
 723:Generated_Source\PSoC5/CySpc.c **** /*******************************************************************************
 724:Generated_Source\PSoC5/CySpc.c **** * Function Name: CySpcGetAlgorithm
 725:Generated_Source\PSoC5/CySpc.c **** ****************************************************************************//**
 726:Generated_Source\PSoC5/CySpc.c **** *  Downloads SPC algorithm from SPC SROM into SRAM.
 727:Generated_Source\PSoC5/CySpc.c **** *
 728:Generated_Source\PSoC5/CySpc.c **** * \return
 729:Generated_Source\PSoC5/CySpc.c **** *  CYRET_STARTED
 730:Generated_Source\PSoC5/CySpc.c **** *  CYRET_LOCKED
 731:Generated_Source\PSoC5/CySpc.c **** *
 732:Generated_Source\PSoC5/CySpc.c **** *******************************************************************************/
 733:Generated_Source\PSoC5/CySpc.c **** cystatus CySpcGetAlgorithm(void)
 734:Generated_Source\PSoC5/CySpc.c **** {
ARM GAS  C:\Users\jens-\AppData\Local\Temp\ccLlrUxa.s 			page 36


 1190              		.loc 1 734 1 is_stmt 1 view -0
 1191              		.cfi_startproc
 1192              		@ args = 0, pretend = 0, frame = 0
 1193              		@ frame_needed = 0, uses_anonymous_args = 0
 1194              		@ link register save eliminated.
 735:Generated_Source\PSoC5/CySpc.c ****     cystatus status = CYRET_STARTED;
 1195              		.loc 1 735 5 view .LVU346
 1196              	.LVL94:
 736:Generated_Source\PSoC5/CySpc.c **** 
 737:Generated_Source\PSoC5/CySpc.c ****     /* Make sure the SPC is ready to accept command */
 738:Generated_Source\PSoC5/CySpc.c ****     if(CY_SPC_IDLE)
 1197              		.loc 1 738 5 view .LVU347
 1198              		.loc 1 738 8 is_stmt 0 view .LVU348
 1199 0000 074B     		ldr	r3, .L101
 1200 0002 1B78     		ldrb	r3, [r3]	@ zero_extendqisi2
 1201              		.loc 1 738 7 view .LVU349
 1202 0004 13F0020F 		tst	r3, #2
 1203 0008 08D0     		beq	.L100
 739:Generated_Source\PSoC5/CySpc.c ****     {
 740:Generated_Source\PSoC5/CySpc.c ****         CY_SPC_CPU_DATA_REG = CY_SPC_KEY_ONE;
 1204              		.loc 1 740 9 is_stmt 1 view .LVU350
 1205              		.loc 1 740 29 is_stmt 0 view .LVU351
 1206 000a 064B     		ldr	r3, .L101+4
 1207 000c B622     		movs	r2, #182
 1208 000e 1A70     		strb	r2, [r3]
 741:Generated_Source\PSoC5/CySpc.c ****         CY_SPC_CPU_DATA_REG = CY_SPC_KEY_TWO(CY_SPC_CMD_DWNLD_ALGORITHM);
 1209              		.loc 1 741 9 is_stmt 1 view .LVU352
 1210              		.loc 1 741 29 is_stmt 0 view .LVU353
 1211 0010 E022     		movs	r2, #224
 1212 0012 1A70     		strb	r2, [r3]
 742:Generated_Source\PSoC5/CySpc.c ****         CY_SPC_CPU_DATA_REG = CY_SPC_CMD_DWNLD_ALGORITHM;
 1213              		.loc 1 742 9 is_stmt 1 view .LVU354
 1214              		.loc 1 742 29 is_stmt 0 view .LVU355
 1215 0014 0D22     		movs	r2, #13
 1216 0016 1A70     		strb	r2, [r3]
 735:Generated_Source\PSoC5/CySpc.c **** 
 1217              		.loc 1 735 14 view .LVU356
 1218 0018 0720     		movs	r0, #7
 1219 001a 7047     		bx	lr
 1220              	.L100:
 743:Generated_Source\PSoC5/CySpc.c ****     }
 744:Generated_Source\PSoC5/CySpc.c ****     else
 745:Generated_Source\PSoC5/CySpc.c ****     {
 746:Generated_Source\PSoC5/CySpc.c ****         status = CYRET_LOCKED;
 1221              		.loc 1 746 16 view .LVU357
 1222 001c 0420     		movs	r0, #4
 1223              	.LVL95:
 747:Generated_Source\PSoC5/CySpc.c ****     }
 748:Generated_Source\PSoC5/CySpc.c **** 
 749:Generated_Source\PSoC5/CySpc.c ****     return(status);
 1224              		.loc 1 749 5 is_stmt 1 view .LVU358
 750:Generated_Source\PSoC5/CySpc.c **** }
 1225              		.loc 1 750 1 is_stmt 0 view .LVU359
 1226 001e 7047     		bx	lr
 1227              	.L102:
 1228              		.align	2
 1229              	.L101:
ARM GAS  C:\Users\jens-\AppData\Local\Temp\ccLlrUxa.s 			page 37


 1230 0020 22470040 		.word	1073760034
 1231 0024 20470040 		.word	1073760032
 1232              		.cfi_endproc
 1233              	.LFE12:
 1234              		.size	CySpcGetAlgorithm, .-CySpcGetAlgorithm
 1235              		.global	SpcLockState
 1236              		.bss
 1237              		.align	2
 1238              		.set	.LANCHOR0,. + 0
 1239              		.type	SpcLockState, %object
 1240              		.size	SpcLockState, 1
 1241              	SpcLockState:
 1242 0000 00       		.space	1
 1243 0001 000000   		.space	3
 1244              		.type	spcWaitPipeBypass, %object
 1245              		.size	spcWaitPipeBypass, 4
 1246              	spcWaitPipeBypass:
 1247 0004 00000000 		.space	4
 1248              		.text
 1249              	.Letext0:
 1250              		.file 2 "Generated_Source\\PSoC5\\cytypes.h"
 1251              		.file 3 "c:\\program files (x86)\\cypress\\psoc creator\\4.2\\psoc creator\\import\\gnu\\arm\\5.4.
 1252              		.file 4 "c:\\program files (x86)\\cypress\\psoc creator\\4.2\\psoc creator\\import\\gnu\\arm\\5.4.
 1253              		.file 5 "c:\\program files (x86)\\cypress\\psoc creator\\4.2\\psoc creator\\import\\gnu\\arm\\5.4.
 1254              		.file 6 "c:\\program files (x86)\\cypress\\psoc creator\\4.2\\psoc creator\\import\\gnu\\arm\\5.4.
 1255              		.file 7 "c:\\program files (x86)\\cypress\\psoc creator\\4.2\\psoc creator\\import\\gnu\\arm\\5.4.
 1256              		.file 8 "Generated_Source\\PSoC5\\CyFlash.h"
 1257              		.file 9 "Generated_Source\\PSoC5\\CyLib.h"
 1258              		.file 10 "Generated_Source\\PSoC5\\CySpc.h"