ARM GAS  C:\Users\jens-\AppData\Local\Temp\ccVgIrSa.s 			page 1


   1              		.cpu cortex-m3
   2              		.eabi_attribute 20, 1
   3              		.eabi_attribute 21, 1
   4              		.eabi_attribute 23, 3
   5              		.eabi_attribute 24, 1
   6              		.eabi_attribute 25, 1
   7              		.eabi_attribute 26, 1
   8              		.eabi_attribute 30, 1
   9              		.eabi_attribute 34, 1
  10              		.eabi_attribute 18, 4
  11              		.file	"cyfitter_cfg.c"
  12              		.text
  13              	.Ltext0:
  14              		.cfi_sections	.debug_frame
  15              		.section	.text.CyClockStartupError,"ax",%progbits
  16              		.align	1
  17              		.arch armv7-m
  18              		.syntax unified
  19              		.thumb
  20              		.thumb_func
  21              		.fpu softvfp
  22              		.type	CyClockStartupError, %function
  23              	CyClockStartupError:
  24              	.LFB3:
  25              		.file 1 "Generated_Source\\PSoC5\\cyfitter_cfg.c"
   1:Generated_Source\PSoC5/cyfitter_cfg.c **** 
   2:Generated_Source\PSoC5/cyfitter_cfg.c **** /*******************************************************************************
   3:Generated_Source\PSoC5/cyfitter_cfg.c **** * File Name: cyfitter_cfg.c
   4:Generated_Source\PSoC5/cyfitter_cfg.c **** * 
   5:Generated_Source\PSoC5/cyfitter_cfg.c **** * PSoC Creator  4.2
   6:Generated_Source\PSoC5/cyfitter_cfg.c **** *
   7:Generated_Source\PSoC5/cyfitter_cfg.c **** * Description:
   8:Generated_Source\PSoC5/cyfitter_cfg.c **** * This file contains device initialization code.
   9:Generated_Source\PSoC5/cyfitter_cfg.c **** * Except for the user defined sections in CyClockStartupError(), this file should not be modified.
  10:Generated_Source\PSoC5/cyfitter_cfg.c **** * This file is automatically generated by PSoC Creator.
  11:Generated_Source\PSoC5/cyfitter_cfg.c **** *
  12:Generated_Source\PSoC5/cyfitter_cfg.c **** ********************************************************************************
  13:Generated_Source\PSoC5/cyfitter_cfg.c **** * Copyright (c) 2007-2018 Cypress Semiconductor.  All rights reserved.
  14:Generated_Source\PSoC5/cyfitter_cfg.c **** * You may use this file only in accordance with the license, terms, conditions, 
  15:Generated_Source\PSoC5/cyfitter_cfg.c **** * disclaimers, and limitations in the end user license agreement accompanying 
  16:Generated_Source\PSoC5/cyfitter_cfg.c **** * the software package with which this file was provided.
  17:Generated_Source\PSoC5/cyfitter_cfg.c **** ********************************************************************************/
  18:Generated_Source\PSoC5/cyfitter_cfg.c **** 
  19:Generated_Source\PSoC5/cyfitter_cfg.c **** #include <string.h>
  20:Generated_Source\PSoC5/cyfitter_cfg.c **** #include "cytypes.h"
  21:Generated_Source\PSoC5/cyfitter_cfg.c **** #include "cydevice_trm.h"
  22:Generated_Source\PSoC5/cyfitter_cfg.c **** #include "cyfitter.h"
  23:Generated_Source\PSoC5/cyfitter_cfg.c **** #include "CyLib.h"
  24:Generated_Source\PSoC5/cyfitter_cfg.c **** #include "cyfitter_cfg.h"
  25:Generated_Source\PSoC5/cyfitter_cfg.c **** #include "cyapicallbacks.h"
  26:Generated_Source\PSoC5/cyfitter_cfg.c **** 
  27:Generated_Source\PSoC5/cyfitter_cfg.c **** #define CY_NEED_CYCLOCKSTARTUPERROR 1
  28:Generated_Source\PSoC5/cyfitter_cfg.c **** 
  29:Generated_Source\PSoC5/cyfitter_cfg.c **** 
  30:Generated_Source\PSoC5/cyfitter_cfg.c **** #if defined(__GNUC__) || defined(__ARMCC_VERSION)
  31:Generated_Source\PSoC5/cyfitter_cfg.c ****     #define CYPACKED 
  32:Generated_Source\PSoC5/cyfitter_cfg.c ****     #define CYPACKED_ATTR __attribute__ ((packed))
ARM GAS  C:\Users\jens-\AppData\Local\Temp\ccVgIrSa.s 			page 2


  33:Generated_Source\PSoC5/cyfitter_cfg.c ****     #define CYALIGNED __attribute__ ((aligned))
  34:Generated_Source\PSoC5/cyfitter_cfg.c ****     #define CY_CFG_UNUSED __attribute__ ((unused))
  35:Generated_Source\PSoC5/cyfitter_cfg.c ****     #ifndef CY_CFG_SECTION
  36:Generated_Source\PSoC5/cyfitter_cfg.c ****         #define CY_CFG_SECTION __attribute__ ((section(".psocinit")))
  37:Generated_Source\PSoC5/cyfitter_cfg.c ****     #endif
  38:Generated_Source\PSoC5/cyfitter_cfg.c ****     
  39:Generated_Source\PSoC5/cyfitter_cfg.c ****     #if defined(__ARMCC_VERSION)
  40:Generated_Source\PSoC5/cyfitter_cfg.c ****         #define CY_CFG_MEMORY_BARRIER() __memory_changed()
  41:Generated_Source\PSoC5/cyfitter_cfg.c ****     #else
  42:Generated_Source\PSoC5/cyfitter_cfg.c ****         #define CY_CFG_MEMORY_BARRIER() __sync_synchronize()
  43:Generated_Source\PSoC5/cyfitter_cfg.c ****     #endif
  44:Generated_Source\PSoC5/cyfitter_cfg.c ****     
  45:Generated_Source\PSoC5/cyfitter_cfg.c **** #elif defined(__ICCARM__)
  46:Generated_Source\PSoC5/cyfitter_cfg.c ****     #include <intrinsics.h>
  47:Generated_Source\PSoC5/cyfitter_cfg.c **** 
  48:Generated_Source\PSoC5/cyfitter_cfg.c ****     #define CYPACKED __packed
  49:Generated_Source\PSoC5/cyfitter_cfg.c ****     #define CYPACKED_ATTR 
  50:Generated_Source\PSoC5/cyfitter_cfg.c ****     #define CYALIGNED _Pragma("data_alignment=4")
  51:Generated_Source\PSoC5/cyfitter_cfg.c ****     #define CY_CFG_UNUSED _Pragma("diag_suppress=Pe177")
  52:Generated_Source\PSoC5/cyfitter_cfg.c ****     #define CY_CFG_SECTION _Pragma("location=\".psocinit\"")
  53:Generated_Source\PSoC5/cyfitter_cfg.c ****     
  54:Generated_Source\PSoC5/cyfitter_cfg.c ****     #define CY_CFG_MEMORY_BARRIER() __DMB()
  55:Generated_Source\PSoC5/cyfitter_cfg.c ****     
  56:Generated_Source\PSoC5/cyfitter_cfg.c **** #else
  57:Generated_Source\PSoC5/cyfitter_cfg.c ****     #error Unsupported toolchain
  58:Generated_Source\PSoC5/cyfitter_cfg.c **** #endif
  59:Generated_Source\PSoC5/cyfitter_cfg.c **** 
  60:Generated_Source\PSoC5/cyfitter_cfg.c **** #ifndef CYCODE
  61:Generated_Source\PSoC5/cyfitter_cfg.c ****     #define CYCODE
  62:Generated_Source\PSoC5/cyfitter_cfg.c **** #endif
  63:Generated_Source\PSoC5/cyfitter_cfg.c **** #ifndef CYDATA
  64:Generated_Source\PSoC5/cyfitter_cfg.c ****     #define CYDATA
  65:Generated_Source\PSoC5/cyfitter_cfg.c **** #endif
  66:Generated_Source\PSoC5/cyfitter_cfg.c **** #ifndef CYFAR
  67:Generated_Source\PSoC5/cyfitter_cfg.c ****     #define CYFAR
  68:Generated_Source\PSoC5/cyfitter_cfg.c **** #endif
  69:Generated_Source\PSoC5/cyfitter_cfg.c **** #ifndef CYXDATA
  70:Generated_Source\PSoC5/cyfitter_cfg.c ****     #define CYXDATA
  71:Generated_Source\PSoC5/cyfitter_cfg.c **** #endif
  72:Generated_Source\PSoC5/cyfitter_cfg.c **** 
  73:Generated_Source\PSoC5/cyfitter_cfg.c **** 
  74:Generated_Source\PSoC5/cyfitter_cfg.c **** CY_CFG_UNUSED
  75:Generated_Source\PSoC5/cyfitter_cfg.c **** static void CYMEMZERO(void *s, size_t n);
  76:Generated_Source\PSoC5/cyfitter_cfg.c **** CY_CFG_UNUSED
  77:Generated_Source\PSoC5/cyfitter_cfg.c **** static void CYMEMZERO(void *s, size_t n)
  78:Generated_Source\PSoC5/cyfitter_cfg.c **** {
  79:Generated_Source\PSoC5/cyfitter_cfg.c **** 	(void)memset(s, 0, n);
  80:Generated_Source\PSoC5/cyfitter_cfg.c **** }
  81:Generated_Source\PSoC5/cyfitter_cfg.c **** CY_CFG_UNUSED
  82:Generated_Source\PSoC5/cyfitter_cfg.c **** static void CYCONFIGCPY(void *dest, const void *src, size_t n);
  83:Generated_Source\PSoC5/cyfitter_cfg.c **** CY_CFG_UNUSED
  84:Generated_Source\PSoC5/cyfitter_cfg.c **** static void CYCONFIGCPY(void *dest, const void *src, size_t n)
  85:Generated_Source\PSoC5/cyfitter_cfg.c **** {
  86:Generated_Source\PSoC5/cyfitter_cfg.c **** 	(void)memcpy(dest, src, n);
  87:Generated_Source\PSoC5/cyfitter_cfg.c **** }
  88:Generated_Source\PSoC5/cyfitter_cfg.c **** CY_CFG_UNUSED
  89:Generated_Source\PSoC5/cyfitter_cfg.c **** static void CYCONFIGCPYCODE(void *dest, const void *src, size_t n);
ARM GAS  C:\Users\jens-\AppData\Local\Temp\ccVgIrSa.s 			page 3


  90:Generated_Source\PSoC5/cyfitter_cfg.c **** CY_CFG_UNUSED
  91:Generated_Source\PSoC5/cyfitter_cfg.c **** static void CYCONFIGCPYCODE(void *dest, const void *src, size_t n)
  92:Generated_Source\PSoC5/cyfitter_cfg.c **** {
  93:Generated_Source\PSoC5/cyfitter_cfg.c **** 	(void)memcpy(dest, src, n);
  94:Generated_Source\PSoC5/cyfitter_cfg.c **** }
  95:Generated_Source\PSoC5/cyfitter_cfg.c **** 
  96:Generated_Source\PSoC5/cyfitter_cfg.c **** 
  97:Generated_Source\PSoC5/cyfitter_cfg.c **** 
  98:Generated_Source\PSoC5/cyfitter_cfg.c **** 
  99:Generated_Source\PSoC5/cyfitter_cfg.c **** /* Clock startup error codes                                                   */
 100:Generated_Source\PSoC5/cyfitter_cfg.c **** #define CYCLOCKSTART_NO_ERROR    0u
 101:Generated_Source\PSoC5/cyfitter_cfg.c **** #define CYCLOCKSTART_XTAL_ERROR  1u
 102:Generated_Source\PSoC5/cyfitter_cfg.c **** #define CYCLOCKSTART_32KHZ_ERROR 2u
 103:Generated_Source\PSoC5/cyfitter_cfg.c **** #define CYCLOCKSTART_PLL_ERROR   3u
 104:Generated_Source\PSoC5/cyfitter_cfg.c **** #define CYCLOCKSTART_FLL_ERROR   4u
 105:Generated_Source\PSoC5/cyfitter_cfg.c **** #define CYCLOCKSTART_WCO_ERROR   5u
 106:Generated_Source\PSoC5/cyfitter_cfg.c **** 
 107:Generated_Source\PSoC5/cyfitter_cfg.c **** 
 108:Generated_Source\PSoC5/cyfitter_cfg.c **** #ifdef CY_NEED_CYCLOCKSTARTUPERROR
 109:Generated_Source\PSoC5/cyfitter_cfg.c **** /*******************************************************************************
 110:Generated_Source\PSoC5/cyfitter_cfg.c **** * Function Name: CyClockStartupError
 111:Generated_Source\PSoC5/cyfitter_cfg.c **** ********************************************************************************
 112:Generated_Source\PSoC5/cyfitter_cfg.c **** * Summary:
 113:Generated_Source\PSoC5/cyfitter_cfg.c **** *  If an error is encountered during clock configuration (crystal startup error,
 114:Generated_Source\PSoC5/cyfitter_cfg.c **** *  PLL lock error, etc.), the system will end up here.  Unless reimplemented by
 115:Generated_Source\PSoC5/cyfitter_cfg.c **** *  the customer, this function will stop in an infinite loop.
 116:Generated_Source\PSoC5/cyfitter_cfg.c **** *
 117:Generated_Source\PSoC5/cyfitter_cfg.c **** * Parameters:
 118:Generated_Source\PSoC5/cyfitter_cfg.c **** *   void
 119:Generated_Source\PSoC5/cyfitter_cfg.c **** *
 120:Generated_Source\PSoC5/cyfitter_cfg.c **** * Return:
 121:Generated_Source\PSoC5/cyfitter_cfg.c **** *   void
 122:Generated_Source\PSoC5/cyfitter_cfg.c **** *
 123:Generated_Source\PSoC5/cyfitter_cfg.c **** *******************************************************************************/
 124:Generated_Source\PSoC5/cyfitter_cfg.c **** CY_CFG_UNUSED
 125:Generated_Source\PSoC5/cyfitter_cfg.c **** static void CyClockStartupError(uint8 errorCode);
 126:Generated_Source\PSoC5/cyfitter_cfg.c **** CY_CFG_UNUSED
 127:Generated_Source\PSoC5/cyfitter_cfg.c **** static void CyClockStartupError(uint8 errorCode)
 128:Generated_Source\PSoC5/cyfitter_cfg.c **** {
  26              		.loc 1 128 1 view -0
  27              		.cfi_startproc
  28              		@ Volatile: function does not return.
  29              		@ args = 0, pretend = 0, frame = 0
  30              		@ frame_needed = 0, uses_anonymous_args = 0
  31              		@ link register save eliminated.
  32              	.LVL0:
  33              	.L2:
 129:Generated_Source\PSoC5/cyfitter_cfg.c ****     /* To remove the compiler warning if errorCode not used.                */
 130:Generated_Source\PSoC5/cyfitter_cfg.c ****     errorCode = errorCode;
 131:Generated_Source\PSoC5/cyfitter_cfg.c **** 
 132:Generated_Source\PSoC5/cyfitter_cfg.c ****     /* If we have a clock startup error (bad MHz crystal, PLL lock, etc.),  */
 133:Generated_Source\PSoC5/cyfitter_cfg.c ****     /* we will end up here to allow the customer to implement something to  */
 134:Generated_Source\PSoC5/cyfitter_cfg.c ****     /* deal with the clock condition.                                       */
 135:Generated_Source\PSoC5/cyfitter_cfg.c **** 
 136:Generated_Source\PSoC5/cyfitter_cfg.c **** #ifdef CY_CFG_CLOCK_STARTUP_ERROR_CALLBACK
 137:Generated_Source\PSoC5/cyfitter_cfg.c ****     CY_CFG_Clock_Startup_ErrorCallback();
 138:Generated_Source\PSoC5/cyfitter_cfg.c **** #else
ARM GAS  C:\Users\jens-\AppData\Local\Temp\ccVgIrSa.s 			page 4


 139:Generated_Source\PSoC5/cyfitter_cfg.c ****     /*  If not using CY_CFG_CLOCK_STARTUP_ERROR_CALLBACK, place your clock startup code here. */
 140:Generated_Source\PSoC5/cyfitter_cfg.c ****     /* `#START CyClockStartupError` */
 141:Generated_Source\PSoC5/cyfitter_cfg.c **** 
 142:Generated_Source\PSoC5/cyfitter_cfg.c **** 
 143:Generated_Source\PSoC5/cyfitter_cfg.c **** 
 144:Generated_Source\PSoC5/cyfitter_cfg.c ****     /* `#END` */
 145:Generated_Source\PSoC5/cyfitter_cfg.c **** 
 146:Generated_Source\PSoC5/cyfitter_cfg.c ****     while(1) {}
  34              		.loc 1 146 5 discriminator 1 view .LVU1
  35              		.loc 1 146 15 discriminator 1 view .LVU2
  36              		.loc 1 146 10 discriminator 1 view .LVU3
  37 0000 FEE7     		b	.L2
  38              		.cfi_endproc
  39              	.LFE3:
  40              		.size	CyClockStartupError, .-CyClockStartupError
  41              		.section	.text.cfg_write_bytes32,"ax",%progbits
  42              		.align	1
  43              		.syntax unified
  44              		.thumb
  45              		.thumb_func
  46              		.fpu softvfp
  47              		.type	cfg_write_bytes32, %function
  48              	cfg_write_bytes32:
  49              	.LVL1:
  50              	.LFB4:
 147:Generated_Source\PSoC5/cyfitter_cfg.c **** #endif /* CY_CFG_CLOCK_STARTUP_ERROR_CALLBACK */
 148:Generated_Source\PSoC5/cyfitter_cfg.c **** }
 149:Generated_Source\PSoC5/cyfitter_cfg.c **** #endif
 150:Generated_Source\PSoC5/cyfitter_cfg.c **** 
 151:Generated_Source\PSoC5/cyfitter_cfg.c **** #define CY_CFG_BASE_ADDR_COUNT 15u
 152:Generated_Source\PSoC5/cyfitter_cfg.c **** CYPACKED typedef struct
 153:Generated_Source\PSoC5/cyfitter_cfg.c **** {
 154:Generated_Source\PSoC5/cyfitter_cfg.c **** 	uint8 offset;
 155:Generated_Source\PSoC5/cyfitter_cfg.c **** 	uint8 value;
 156:Generated_Source\PSoC5/cyfitter_cfg.c **** } CYPACKED_ATTR cy_cfg_addrvalue_t;
 157:Generated_Source\PSoC5/cyfitter_cfg.c **** 
 158:Generated_Source\PSoC5/cyfitter_cfg.c **** #define cy_cfg_addr_table ((const uint32 CYFAR *)0x48000000u)
 159:Generated_Source\PSoC5/cyfitter_cfg.c **** #define cy_cfg_data_table ((const cy_cfg_addrvalue_t CYFAR *)0x4800003Cu)
 160:Generated_Source\PSoC5/cyfitter_cfg.c **** 
 161:Generated_Source\PSoC5/cyfitter_cfg.c **** /* IOPORT_7 Address: CYDEV_PRTDSI_PRT12_BASE Size (bytes): 6 */
 162:Generated_Source\PSoC5/cyfitter_cfg.c **** #define BS_IOPORT_7_VAL ((const uint8 CYFAR *)0x480002D4u)
 163:Generated_Source\PSoC5/cyfitter_cfg.c **** 
 164:Generated_Source\PSoC5/cyfitter_cfg.c **** /* UDB_0_1_1_CONFIG Address: CYDEV_UCFG_B1_P4_U0_BASE Size (bytes): 128 */
 165:Generated_Source\PSoC5/cyfitter_cfg.c **** #define BS_UDB_0_1_1_CONFIG_VAL ((const uint8 CYFAR *)0x480002DCu)
 166:Generated_Source\PSoC5/cyfitter_cfg.c **** 
 167:Generated_Source\PSoC5/cyfitter_cfg.c **** /* IOPINS0_7 Address: CYREG_PRT12_DR Size (bytes): 10 */
 168:Generated_Source\PSoC5/cyfitter_cfg.c **** #define BS_IOPINS0_7_VAL ((const uint8 CYFAR *)0x4800035Cu)
 169:Generated_Source\PSoC5/cyfitter_cfg.c **** 
 170:Generated_Source\PSoC5/cyfitter_cfg.c **** /* IOPINS0_1 Address: CYREG_PRT1_DM0 Size (bytes): 8 */
 171:Generated_Source\PSoC5/cyfitter_cfg.c **** #define BS_IOPINS0_1_VAL ((const uint8 CYFAR *)0x48000368u)
 172:Generated_Source\PSoC5/cyfitter_cfg.c **** 
 173:Generated_Source\PSoC5/cyfitter_cfg.c **** /* IOPINS0_2 Address: CYREG_PRT2_DM0 Size (bytes): 8 */
 174:Generated_Source\PSoC5/cyfitter_cfg.c **** #define BS_IOPINS0_2_VAL ((const uint8 CYFAR *)0x48000370u)
 175:Generated_Source\PSoC5/cyfitter_cfg.c **** 
 176:Generated_Source\PSoC5/cyfitter_cfg.c **** 
 177:Generated_Source\PSoC5/cyfitter_cfg.c **** /*******************************************************************************
 178:Generated_Source\PSoC5/cyfitter_cfg.c **** * Function Name: cfg_write_bytes32
ARM GAS  C:\Users\jens-\AppData\Local\Temp\ccVgIrSa.s 			page 5


 179:Generated_Source\PSoC5/cyfitter_cfg.c **** ********************************************************************************
 180:Generated_Source\PSoC5/cyfitter_cfg.c **** * Summary:
 181:Generated_Source\PSoC5/cyfitter_cfg.c **** *  This function is used for setting up the chip configuration areas that
 182:Generated_Source\PSoC5/cyfitter_cfg.c **** *  contain relatively sparse data.
 183:Generated_Source\PSoC5/cyfitter_cfg.c **** *
 184:Generated_Source\PSoC5/cyfitter_cfg.c **** * Parameters:
 185:Generated_Source\PSoC5/cyfitter_cfg.c **** *   void
 186:Generated_Source\PSoC5/cyfitter_cfg.c **** *
 187:Generated_Source\PSoC5/cyfitter_cfg.c **** * Return:
 188:Generated_Source\PSoC5/cyfitter_cfg.c **** *   void
 189:Generated_Source\PSoC5/cyfitter_cfg.c **** *
 190:Generated_Source\PSoC5/cyfitter_cfg.c **** *******************************************************************************/
 191:Generated_Source\PSoC5/cyfitter_cfg.c **** static void cfg_write_bytes32(const uint32 addr_table[], const cy_cfg_addrvalue_t data_table[]);
 192:Generated_Source\PSoC5/cyfitter_cfg.c **** static void cfg_write_bytes32(const uint32 addr_table[], const cy_cfg_addrvalue_t data_table[])
 193:Generated_Source\PSoC5/cyfitter_cfg.c **** {
  51              		.loc 1 193 1 view -0
  52              		.cfi_startproc
  53              		@ args = 0, pretend = 0, frame = 0
  54              		@ frame_needed = 0, uses_anonymous_args = 0
  55              		@ link register save eliminated.
  56              		.loc 1 193 1 is_stmt 0 view .LVU5
  57 0000 F0B4     		push	{r4, r5, r6, r7}
  58              		.cfi_def_cfa_offset 16
  59              		.cfi_offset 4, -16
  60              		.cfi_offset 5, -12
  61              		.cfi_offset 6, -8
  62              		.cfi_offset 7, -4
 194:Generated_Source\PSoC5/cyfitter_cfg.c **** 	/* For 32-bit little-endian architectures */
 195:Generated_Source\PSoC5/cyfitter_cfg.c **** 	uint32 i, j = 0u;
  63              		.loc 1 195 2 is_stmt 1 view .LVU6
  64              	.LVL2:
 196:Generated_Source\PSoC5/cyfitter_cfg.c **** 	for (i = 0u; i < CY_CFG_BASE_ADDR_COUNT; i++)
  65              		.loc 1 196 2 view .LVU7
 195:Generated_Source\PSoC5/cyfitter_cfg.c **** 	for (i = 0u; i < CY_CFG_BASE_ADDR_COUNT; i++)
  66              		.loc 1 195 12 is_stmt 0 view .LVU8
  67 0002 0022     		movs	r2, #0
  68              		.loc 1 196 9 view .LVU9
  69 0004 1746     		mov	r7, r2
  70              		.loc 1 196 2 view .LVU10
  71 0006 0BE0     		b	.L4
  72              	.LVL3:
  73              	.L6:
  74              	.LBB2:
 197:Generated_Source\PSoC5/cyfitter_cfg.c **** 	{
 198:Generated_Source\PSoC5/cyfitter_cfg.c **** 		uint32 baseAddr = addr_table[i];
 199:Generated_Source\PSoC5/cyfitter_cfg.c **** 		uint8 count = (uint8)baseAddr;
 200:Generated_Source\PSoC5/cyfitter_cfg.c **** 		baseAddr &= 0xFFFFFF00u;
 201:Generated_Source\PSoC5/cyfitter_cfg.c **** 		while (count != 0u)
 202:Generated_Source\PSoC5/cyfitter_cfg.c **** 		{
 203:Generated_Source\PSoC5/cyfitter_cfg.c **** 			CY_SET_REG8((void *)(baseAddr + data_table[j].offset), data_table[j].value);
  75              		.loc 1 203 4 is_stmt 1 view .LVU11
  76 0008 01EB4205 		add	r5, r1, r2, lsl #1
  77 000c 11F81240 		ldrb	r4, [r1, r2, lsl #1]	@ zero_extendqisi2
  78 0010 6D78     		ldrb	r5, [r5, #1]	@ zero_extendqisi2
  79 0012 A555     		strb	r5, [r4, r6]
 204:Generated_Source\PSoC5/cyfitter_cfg.c **** 			j++;
  80              		.loc 1 204 4 view .LVU12
ARM GAS  C:\Users\jens-\AppData\Local\Temp\ccVgIrSa.s 			page 6


  81              		.loc 1 204 5 is_stmt 0 view .LVU13
  82 0014 0132     		adds	r2, r2, #1
  83              	.LVL4:
 205:Generated_Source\PSoC5/cyfitter_cfg.c **** 			count--;
  84              		.loc 1 205 4 is_stmt 1 view .LVU14
  85              		.loc 1 205 9 is_stmt 0 view .LVU15
  86 0016 013B     		subs	r3, r3, #1
  87              	.LVL5:
  88              		.loc 1 205 9 view .LVU16
  89 0018 DBB2     		uxtb	r3, r3
  90              	.LVL6:
  91              	.L5:
 201:Generated_Source\PSoC5/cyfitter_cfg.c **** 		{
  92              		.loc 1 201 9 is_stmt 1 view .LVU17
  93 001a 002B     		cmp	r3, #0
  94 001c F4D1     		bne	.L6
 201:Generated_Source\PSoC5/cyfitter_cfg.c **** 		{
  95              		.loc 1 201 9 is_stmt 0 view .LVU18
  96              	.LBE2:
 196:Generated_Source\PSoC5/cyfitter_cfg.c **** 	{
  97              		.loc 1 196 43 is_stmt 1 discriminator 2 view .LVU19
 196:Generated_Source\PSoC5/cyfitter_cfg.c **** 	{
  98              		.loc 1 196 44 is_stmt 0 discriminator 2 view .LVU20
  99 001e 0137     		adds	r7, r7, #1
 100              	.LVL7:
 101              	.L4:
 196:Generated_Source\PSoC5/cyfitter_cfg.c **** 	{
 102              		.loc 1 196 15 is_stmt 1 discriminator 1 view .LVU21
 196:Generated_Source\PSoC5/cyfitter_cfg.c **** 	{
 103              		.loc 1 196 2 is_stmt 0 discriminator 1 view .LVU22
 104 0020 0E2F     		cmp	r7, #14
 105 0022 05D8     		bhi	.L9
 106              	.LBB3:
 198:Generated_Source\PSoC5/cyfitter_cfg.c **** 		uint8 count = (uint8)baseAddr;
 107              		.loc 1 198 3 is_stmt 1 view .LVU23
 198:Generated_Source\PSoC5/cyfitter_cfg.c **** 		uint8 count = (uint8)baseAddr;
 108              		.loc 1 198 10 is_stmt 0 view .LVU24
 109 0024 50F82760 		ldr	r6, [r0, r7, lsl #2]
 110              	.LVL8:
 199:Generated_Source\PSoC5/cyfitter_cfg.c **** 		baseAddr &= 0xFFFFFF00u;
 111              		.loc 1 199 3 is_stmt 1 view .LVU25
 199:Generated_Source\PSoC5/cyfitter_cfg.c **** 		baseAddr &= 0xFFFFFF00u;
 112              		.loc 1 199 9 is_stmt 0 view .LVU26
 113 0028 F3B2     		uxtb	r3, r6
 114              	.LVL9:
 200:Generated_Source\PSoC5/cyfitter_cfg.c **** 		while (count != 0u)
 115              		.loc 1 200 3 is_stmt 1 view .LVU27
 200:Generated_Source\PSoC5/cyfitter_cfg.c **** 		while (count != 0u)
 116              		.loc 1 200 12 is_stmt 0 view .LVU28
 117 002a 26F0FF06 		bic	r6, r6, #255
 118              	.LVL10:
 201:Generated_Source\PSoC5/cyfitter_cfg.c **** 		{
 119              		.loc 1 201 3 is_stmt 1 view .LVU29
 201:Generated_Source\PSoC5/cyfitter_cfg.c **** 		{
 120              		.loc 1 201 9 is_stmt 0 view .LVU30
 121 002e F4E7     		b	.L5
 122              	.LVL11:
ARM GAS  C:\Users\jens-\AppData\Local\Temp\ccVgIrSa.s 			page 7


 123              	.L9:
 201:Generated_Source\PSoC5/cyfitter_cfg.c **** 		{
 124              		.loc 1 201 9 view .LVU31
 125              	.LBE3:
 206:Generated_Source\PSoC5/cyfitter_cfg.c **** 		}
 207:Generated_Source\PSoC5/cyfitter_cfg.c **** 	}
 208:Generated_Source\PSoC5/cyfitter_cfg.c **** }
 126              		.loc 1 208 1 view .LVU32
 127 0030 F0BC     		pop	{r4, r5, r6, r7}
 128              		.cfi_restore 7
 129              		.cfi_restore 6
 130              		.cfi_restore 5
 131              		.cfi_restore 4
 132              		.cfi_def_cfa_offset 0
 133              	.LVL12:
 134              		.loc 1 208 1 view .LVU33
 135 0032 7047     		bx	lr
 136              		.cfi_endproc
 137              	.LFE4:
 138              		.size	cfg_write_bytes32, .-cfg_write_bytes32
 139              		.section	.text.AnalogSetDefault,"ax",%progbits
 140              		.align	1
 141              		.syntax unified
 142              		.thumb
 143              		.thumb_func
 144              		.fpu softvfp
 145              		.type	AnalogSetDefault, %function
 146              	AnalogSetDefault:
 147              	.LFB6:
 209:Generated_Source\PSoC5/cyfitter_cfg.c **** 
 210:Generated_Source\PSoC5/cyfitter_cfg.c **** /*******************************************************************************
 211:Generated_Source\PSoC5/cyfitter_cfg.c **** * Function Name: ClockSetup
 212:Generated_Source\PSoC5/cyfitter_cfg.c **** ********************************************************************************
 213:Generated_Source\PSoC5/cyfitter_cfg.c **** *
 214:Generated_Source\PSoC5/cyfitter_cfg.c **** * Summary:
 215:Generated_Source\PSoC5/cyfitter_cfg.c **** *  Performs the initialization of all of the clocks in the device based on the
 216:Generated_Source\PSoC5/cyfitter_cfg.c **** *  settings in the Clock tab of the DWR.  This includes enabling the requested
 217:Generated_Source\PSoC5/cyfitter_cfg.c **** *  clocks and setting the necessary dividers to produce the desired frequency. 
 218:Generated_Source\PSoC5/cyfitter_cfg.c **** *
 219:Generated_Source\PSoC5/cyfitter_cfg.c **** * Parameters:
 220:Generated_Source\PSoC5/cyfitter_cfg.c **** *  void
 221:Generated_Source\PSoC5/cyfitter_cfg.c **** *
 222:Generated_Source\PSoC5/cyfitter_cfg.c **** * Return:
 223:Generated_Source\PSoC5/cyfitter_cfg.c **** *  void
 224:Generated_Source\PSoC5/cyfitter_cfg.c **** *
 225:Generated_Source\PSoC5/cyfitter_cfg.c **** *******************************************************************************/
 226:Generated_Source\PSoC5/cyfitter_cfg.c **** static void ClockSetup(void);
 227:Generated_Source\PSoC5/cyfitter_cfg.c **** static void ClockSetup(void)
 228:Generated_Source\PSoC5/cyfitter_cfg.c **** {
 229:Generated_Source\PSoC5/cyfitter_cfg.c **** 	uint32 timeout;
 230:Generated_Source\PSoC5/cyfitter_cfg.c **** 	uint8 pllLock;
 231:Generated_Source\PSoC5/cyfitter_cfg.c **** 
 232:Generated_Source\PSoC5/cyfitter_cfg.c **** 
 233:Generated_Source\PSoC5/cyfitter_cfg.c **** 	/* Configure Digital Clocks based on settings from Clock DWR */
 234:Generated_Source\PSoC5/cyfitter_cfg.c **** 	CY_SET_XTND_REG16((void CYFAR *)(CYREG_CLKDIST_DCFG0_CFG0), 0x0033u);
 235:Generated_Source\PSoC5/cyfitter_cfg.c **** 	CY_SET_XTND_REG8((void CYFAR *)(CYREG_CLKDIST_DCFG0_CFG0 + 0x2u), 0x18u);
 236:Generated_Source\PSoC5/cyfitter_cfg.c **** 
ARM GAS  C:\Users\jens-\AppData\Local\Temp\ccVgIrSa.s 			page 8


 237:Generated_Source\PSoC5/cyfitter_cfg.c **** 	/* Configure ILO based on settings from Clock DWR */
 238:Generated_Source\PSoC5/cyfitter_cfg.c **** 	CY_SET_XTND_REG8((void CYFAR *)(CYREG_SLOWCLK_ILO_CR0), 0x02u);
 239:Generated_Source\PSoC5/cyfitter_cfg.c **** 	CY_SET_XTND_REG8((void CYFAR *)(CYREG_CLKDIST_CR), 0x08u);
 240:Generated_Source\PSoC5/cyfitter_cfg.c **** 
 241:Generated_Source\PSoC5/cyfitter_cfg.c **** 	/* Configure IMO based on settings from Clock DWR */
 242:Generated_Source\PSoC5/cyfitter_cfg.c **** 	CY_SET_XTND_REG8((void CYFAR *)(CYREG_FASTCLK_IMO_CR), 0x03u);
 243:Generated_Source\PSoC5/cyfitter_cfg.c **** 	CY_SET_XTND_REG8((void CYFAR *)(CYREG_IMO_TR1), (CY_GET_XTND_REG8((void CYFAR *)CYREG_FLSHID_CUST_
 244:Generated_Source\PSoC5/cyfitter_cfg.c **** 
 245:Generated_Source\PSoC5/cyfitter_cfg.c **** 	/* Configure PLL based on settings from Clock DWR */
 246:Generated_Source\PSoC5/cyfitter_cfg.c **** 	CY_SET_XTND_REG16((void CYFAR *)(CYREG_FASTCLK_PLL_P), 0x0008u);
 247:Generated_Source\PSoC5/cyfitter_cfg.c **** 	CY_SET_XTND_REG16((void CYFAR *)(CYREG_FASTCLK_PLL_CFG0), 0x1251u);
 248:Generated_Source\PSoC5/cyfitter_cfg.c **** 	/* Wait up to 250us for the PLL to lock */
 249:Generated_Source\PSoC5/cyfitter_cfg.c **** 	pllLock = 0u;
 250:Generated_Source\PSoC5/cyfitter_cfg.c **** 	for (timeout = 250u / 10u; (timeout > 0u) && (pllLock != 0x03u); timeout--)
 251:Generated_Source\PSoC5/cyfitter_cfg.c **** 	{ 
 252:Generated_Source\PSoC5/cyfitter_cfg.c **** 		pllLock = 0x03u & ((uint8)((uint8)pllLock << 1) | ((CY_GET_XTND_REG8((void CYFAR *)CYREG_FASTCLK_
 253:Generated_Source\PSoC5/cyfitter_cfg.c **** 		CyDelayCycles(10u * 48u); /* Delay 10us based on 48MHz clock */
 254:Generated_Source\PSoC5/cyfitter_cfg.c **** 	}
 255:Generated_Source\PSoC5/cyfitter_cfg.c **** 	/* If we ran out of time the PLL didn't lock so go to the error function */
 256:Generated_Source\PSoC5/cyfitter_cfg.c **** 	if (timeout == 0u)
 257:Generated_Source\PSoC5/cyfitter_cfg.c **** 	{
 258:Generated_Source\PSoC5/cyfitter_cfg.c **** 		CyClockStartupError(CYCLOCKSTART_PLL_ERROR);
 259:Generated_Source\PSoC5/cyfitter_cfg.c **** 	}
 260:Generated_Source\PSoC5/cyfitter_cfg.c **** 
 261:Generated_Source\PSoC5/cyfitter_cfg.c **** 	/* Configure Bus/Master Clock based on settings from Clock DWR */
 262:Generated_Source\PSoC5/cyfitter_cfg.c **** 	CY_SET_XTND_REG16((void CYFAR *)(CYREG_CLKDIST_MSTR0), 0x0100u);
 263:Generated_Source\PSoC5/cyfitter_cfg.c **** 	CY_SET_XTND_REG8((void CYFAR *)(CYREG_CLKDIST_MSTR0), 0x07u);
 264:Generated_Source\PSoC5/cyfitter_cfg.c **** 	CY_SET_XTND_REG8((void CYFAR *)(CYREG_CLKDIST_BCFG0), 0x00u);
 265:Generated_Source\PSoC5/cyfitter_cfg.c **** 	CY_SET_XTND_REG8((void CYFAR *)(CYREG_CLKDIST_BCFG2), 0x48u);
 266:Generated_Source\PSoC5/cyfitter_cfg.c **** 	CY_SET_XTND_REG8((void CYFAR *)(CYREG_CLKDIST_MSTR0), 0x00u);
 267:Generated_Source\PSoC5/cyfitter_cfg.c **** 	CY_SET_XTND_REG8((void CYFAR *)(CYREG_CLKDIST_LD), 0x02u);
 268:Generated_Source\PSoC5/cyfitter_cfg.c **** 
 269:Generated_Source\PSoC5/cyfitter_cfg.c **** 	CY_SET_XTND_REG8((void CYFAR *)(CYREG_PM_ACT_CFG2), ((CY_GET_XTND_REG8((void CYFAR *)CYREG_PM_ACT_
 270:Generated_Source\PSoC5/cyfitter_cfg.c **** }
 271:Generated_Source\PSoC5/cyfitter_cfg.c **** 
 272:Generated_Source\PSoC5/cyfitter_cfg.c **** 
 273:Generated_Source\PSoC5/cyfitter_cfg.c **** /* Analog API Functions */
 274:Generated_Source\PSoC5/cyfitter_cfg.c **** 
 275:Generated_Source\PSoC5/cyfitter_cfg.c **** 
 276:Generated_Source\PSoC5/cyfitter_cfg.c **** /*******************************************************************************
 277:Generated_Source\PSoC5/cyfitter_cfg.c **** * Function Name: AnalogSetDefault
 278:Generated_Source\PSoC5/cyfitter_cfg.c **** ********************************************************************************
 279:Generated_Source\PSoC5/cyfitter_cfg.c **** *
 280:Generated_Source\PSoC5/cyfitter_cfg.c **** * Summary:
 281:Generated_Source\PSoC5/cyfitter_cfg.c **** *  Sets up the analog portions of the chip to default values based on chip
 282:Generated_Source\PSoC5/cyfitter_cfg.c **** *  configuration options from the project.
 283:Generated_Source\PSoC5/cyfitter_cfg.c **** *
 284:Generated_Source\PSoC5/cyfitter_cfg.c **** * Parameters:
 285:Generated_Source\PSoC5/cyfitter_cfg.c **** *  void
 286:Generated_Source\PSoC5/cyfitter_cfg.c **** *
 287:Generated_Source\PSoC5/cyfitter_cfg.c **** * Return:
 288:Generated_Source\PSoC5/cyfitter_cfg.c **** *  void
 289:Generated_Source\PSoC5/cyfitter_cfg.c **** *
 290:Generated_Source\PSoC5/cyfitter_cfg.c **** *******************************************************************************/
 291:Generated_Source\PSoC5/cyfitter_cfg.c **** static void AnalogSetDefault(void);
 292:Generated_Source\PSoC5/cyfitter_cfg.c **** static void AnalogSetDefault(void)
 293:Generated_Source\PSoC5/cyfitter_cfg.c **** {
ARM GAS  C:\Users\jens-\AppData\Local\Temp\ccVgIrSa.s 			page 9


 148              		.loc 1 293 1 is_stmt 1 view -0
 149              		.cfi_startproc
 150              		@ args = 0, pretend = 0, frame = 0
 151              		@ frame_needed = 0, uses_anonymous_args = 0
 152              		@ link register save eliminated.
 294:Generated_Source\PSoC5/cyfitter_cfg.c **** 	uint8 bg_xover_inl_trim = CY_GET_XTND_REG8((void CYFAR *)(CYREG_FLSHID_MFG_CFG_BG_XOVER_INL_TRIM +
 153              		.loc 1 294 2 view .LVU35
 154              		.loc 1 294 8 is_stmt 0 view .LVU36
 155 0000 064B     		ldr	r3, .L11
 156 0002 1B78     		ldrb	r3, [r3]	@ zero_extendqisi2
 157              	.LVL13:
 295:Generated_Source\PSoC5/cyfitter_cfg.c **** 	CY_SET_XTND_REG8((void CYFAR *)(CYREG_BG_DFT0), (bg_xover_inl_trim & 0x07u));
 158              		.loc 1 295 2 is_stmt 1 view .LVU37
 159 0004 03F00701 		and	r1, r3, #7
 160 0008 054A     		ldr	r2, .L11+4
 161 000a 1170     		strb	r1, [r2]
 296:Generated_Source\PSoC5/cyfitter_cfg.c **** 	CY_SET_XTND_REG8((void CYFAR *)(CYREG_BG_DFT1), ((bg_xover_inl_trim >> 4) & 0x0Fu));
 162              		.loc 1 296 2 view .LVU38
 163 000c 1B09     		lsrs	r3, r3, #4
 164              	.LVL14:
 165              		.loc 1 296 2 is_stmt 0 view .LVU39
 166 000e 0132     		adds	r2, r2, #1
 167 0010 1370     		strb	r3, [r2]
 297:Generated_Source\PSoC5/cyfitter_cfg.c **** 	CY_SET_XTND_REG8((void CYFAR *)CYREG_PUMP_CR0, 0x44u);
 168              		.loc 1 297 2 is_stmt 1 view .LVU40
 169 0012 044B     		ldr	r3, .L11+8
 170 0014 4422     		movs	r2, #68
 171 0016 1A70     		strb	r2, [r3]
 298:Generated_Source\PSoC5/cyfitter_cfg.c **** }
 172              		.loc 1 298 1 is_stmt 0 view .LVU41
 173 0018 7047     		bx	lr
 174              	.L12:
 175 001a 00BF     		.align	2
 176              	.L11:
 177 001c CF010049 		.word	1224737231
 178 0020 6E580040 		.word	1073764462
 179 0024 76580040 		.word	1073764470
 180              		.cfi_endproc
 181              	.LFE6:
 182              		.size	AnalogSetDefault, .-AnalogSetDefault
 183              		.section	.text.CYMEMZERO,"ax",%progbits
 184              		.align	1
 185              		.syntax unified
 186              		.thumb
 187              		.thumb_func
 188              		.fpu softvfp
 189              		.type	CYMEMZERO, %function
 190              	CYMEMZERO:
 191              	.LVL15:
 192              	.LFB0:
  78:Generated_Source\PSoC5/cyfitter_cfg.c **** 	(void)memset(s, 0, n);
 193              		.loc 1 78 1 is_stmt 1 view -0
 194              		.cfi_startproc
 195              		@ args = 0, pretend = 0, frame = 0
 196              		@ frame_needed = 0, uses_anonymous_args = 0
  78:Generated_Source\PSoC5/cyfitter_cfg.c **** 	(void)memset(s, 0, n);
 197              		.loc 1 78 1 is_stmt 0 view .LVU43
ARM GAS  C:\Users\jens-\AppData\Local\Temp\ccVgIrSa.s 			page 10


 198 0000 08B5     		push	{r3, lr}
 199              		.cfi_def_cfa_offset 8
 200              		.cfi_offset 3, -8
 201              		.cfi_offset 14, -4
 202 0002 0A46     		mov	r2, r1
  79:Generated_Source\PSoC5/cyfitter_cfg.c **** }
 203              		.loc 1 79 2 is_stmt 1 view .LVU44
  79:Generated_Source\PSoC5/cyfitter_cfg.c **** }
 204              		.loc 1 79 8 is_stmt 0 view .LVU45
 205 0004 0021     		movs	r1, #0
 206              	.LVL16:
  79:Generated_Source\PSoC5/cyfitter_cfg.c **** }
 207              		.loc 1 79 8 view .LVU46
 208 0006 FFF7FEFF 		bl	memset
 209              	.LVL17:
  80:Generated_Source\PSoC5/cyfitter_cfg.c **** CY_CFG_UNUSED
 210              		.loc 1 80 1 view .LVU47
 211 000a 08BD     		pop	{r3, pc}
 212              		.cfi_endproc
 213              	.LFE0:
 214              		.size	CYMEMZERO, .-CYMEMZERO
 215              		.section	.text.ClockSetup,"ax",%progbits
 216              		.align	1
 217              		.syntax unified
 218              		.thumb
 219              		.thumb_func
 220              		.fpu softvfp
 221              		.type	ClockSetup, %function
 222              	ClockSetup:
 223              	.LFB5:
 228:Generated_Source\PSoC5/cyfitter_cfg.c **** 	uint32 timeout;
 224              		.loc 1 228 1 is_stmt 1 view -0
 225              		.cfi_startproc
 226              		@ args = 0, pretend = 0, frame = 0
 227              		@ frame_needed = 0, uses_anonymous_args = 0
 228 0000 38B5     		push	{r3, r4, r5, lr}
 229              		.cfi_def_cfa_offset 16
 230              		.cfi_offset 3, -16
 231              		.cfi_offset 4, -12
 232              		.cfi_offset 5, -8
 233              		.cfi_offset 14, -4
 229:Generated_Source\PSoC5/cyfitter_cfg.c **** 	uint8 pllLock;
 234              		.loc 1 229 2 view .LVU49
 230:Generated_Source\PSoC5/cyfitter_cfg.c **** 
 235              		.loc 1 230 2 view .LVU50
 234:Generated_Source\PSoC5/cyfitter_cfg.c **** 	CY_SET_XTND_REG8((void CYFAR *)(CYREG_CLKDIST_DCFG0_CFG0 + 0x2u), 0x18u);
 236              		.loc 1 234 2 view .LVU51
 237 0002 254B     		ldr	r3, .L22
 238 0004 3322     		movs	r2, #51
 239 0006 1A80     		strh	r2, [r3]	@ movhi
 235:Generated_Source\PSoC5/cyfitter_cfg.c **** 
 240              		.loc 1 235 2 view .LVU52
 241 0008 0233     		adds	r3, r3, #2
 242 000a 1822     		movs	r2, #24
 243 000c 1A70     		strb	r2, [r3]
 238:Generated_Source\PSoC5/cyfitter_cfg.c **** 	CY_SET_XTND_REG8((void CYFAR *)(CYREG_CLKDIST_CR), 0x08u);
 244              		.loc 1 238 2 view .LVU53
ARM GAS  C:\Users\jens-\AppData\Local\Temp\ccVgIrSa.s 			page 11


 245 000e 03F27E23 		addw	r3, r3, #638
 246 0012 0222     		movs	r2, #2
 247 0014 1A70     		strb	r2, [r3]
 239:Generated_Source\PSoC5/cyfitter_cfg.c **** 
 248              		.loc 1 239 2 view .LVU54
 249 0016 0822     		movs	r2, #8
 250 0018 4FF04023 		mov	r3, #1073758208
 251 001c 1A70     		strb	r2, [r3]
 242:Generated_Source\PSoC5/cyfitter_cfg.c **** 	CY_SET_XTND_REG8((void CYFAR *)(CYREG_IMO_TR1), (CY_GET_XTND_REG8((void CYFAR *)CYREG_FLSHID_CUST_
 252              		.loc 1 242 2 view .LVU55
 253 001e 03F50073 		add	r3, r3, #512
 254 0022 0321     		movs	r1, #3
 255 0024 1970     		strb	r1, [r3]
 243:Generated_Source\PSoC5/cyfitter_cfg.c **** 
 256              		.loc 1 243 2 view .LVU56
 257 0026 1D4B     		ldr	r3, .L22+4
 258 0028 1B78     		ldrb	r3, [r3]	@ zero_extendqisi2
 259 002a DBB2     		uxtb	r3, r3
 260 002c 1C49     		ldr	r1, .L22+8
 261 002e 0B70     		strb	r3, [r1]
 246:Generated_Source\PSoC5/cyfitter_cfg.c **** 	CY_SET_XTND_REG16((void CYFAR *)(CYREG_FASTCLK_PLL_CFG0), 0x1251u);
 262              		.loc 1 246 2 view .LVU57
 263 0030 1C4B     		ldr	r3, .L22+12
 264 0032 1A80     		strh	r2, [r3]	@ movhi
 247:Generated_Source\PSoC5/cyfitter_cfg.c **** 	/* Wait up to 250us for the PLL to lock */
 265              		.loc 1 247 2 view .LVU58
 266 0034 023B     		subs	r3, r3, #2
 267 0036 41F25122 		movw	r2, #4689
 268 003a 1A80     		strh	r2, [r3]	@ movhi
 249:Generated_Source\PSoC5/cyfitter_cfg.c **** 	for (timeout = 250u / 10u; (timeout > 0u) && (pllLock != 0x03u); timeout--)
 269              		.loc 1 249 2 view .LVU59
 270              	.LVL18:
 250:Generated_Source\PSoC5/cyfitter_cfg.c **** 	{ 
 271              		.loc 1 250 2 view .LVU60
 249:Generated_Source\PSoC5/cyfitter_cfg.c **** 	for (timeout = 250u / 10u; (timeout > 0u) && (pllLock != 0x03u); timeout--)
 272              		.loc 1 249 10 is_stmt 0 view .LVU61
 273 003c 0024     		movs	r4, #0
 250:Generated_Source\PSoC5/cyfitter_cfg.c **** 	{ 
 274              		.loc 1 250 15 view .LVU62
 275 003e 1925     		movs	r5, #25
 250:Generated_Source\PSoC5/cyfitter_cfg.c **** 	{ 
 276              		.loc 1 250 2 view .LVU63
 277 0040 0CE0     		b	.L16
 278              	.LVL19:
 279              	.L18:
 252:Generated_Source\PSoC5/cyfitter_cfg.c **** 		CyDelayCycles(10u * 48u); /* Delay 10us based on 48MHz clock */
 280              		.loc 1 252 3 is_stmt 1 discriminator 4 view .LVU64
 252:Generated_Source\PSoC5/cyfitter_cfg.c **** 		CyDelayCycles(10u * 48u); /* Delay 10us based on 48MHz clock */
 281              		.loc 1 252 55 is_stmt 0 discriminator 4 view .LVU65
 282 0042 194B     		ldr	r3, .L22+16
 283 0044 1B78     		ldrb	r3, [r3]	@ zero_extendqisi2
 252:Generated_Source\PSoC5/cyfitter_cfg.c **** 		CyDelayCycles(10u * 48u); /* Delay 10us based on 48MHz clock */
 284              		.loc 1 252 117 discriminator 4 view .LVU66
 285 0046 03F00103 		and	r3, r3, #1
 252:Generated_Source\PSoC5/cyfitter_cfg.c **** 		CyDelayCycles(10u * 48u); /* Delay 10us based on 48MHz clock */
 286              		.loc 1 252 51 discriminator 4 view .LVU67
 287 004a 43EA4404 		orr	r4, r3, r4, lsl #1
ARM GAS  C:\Users\jens-\AppData\Local\Temp\ccVgIrSa.s 			page 12


 288              	.LVL20:
 252:Generated_Source\PSoC5/cyfitter_cfg.c **** 		CyDelayCycles(10u * 48u); /* Delay 10us based on 48MHz clock */
 289              		.loc 1 252 11 discriminator 4 view .LVU68
 290 004e 04F00304 		and	r4, r4, #3
 291              	.LVL21:
 253:Generated_Source\PSoC5/cyfitter_cfg.c **** 	}
 292              		.loc 1 253 3 is_stmt 1 discriminator 4 view .LVU69
 293 0052 4FF4F070 		mov	r0, #480
 294 0056 FFF7FEFF 		bl	CyDelayCycles
 295              	.LVL22:
 250:Generated_Source\PSoC5/cyfitter_cfg.c **** 	{ 
 296              		.loc 1 250 67 discriminator 4 view .LVU70
 250:Generated_Source\PSoC5/cyfitter_cfg.c **** 	{ 
 297              		.loc 1 250 74 is_stmt 0 discriminator 4 view .LVU71
 298 005a 013D     		subs	r5, r5, #1
 299              	.LVL23:
 300              	.L16:
 250:Generated_Source\PSoC5/cyfitter_cfg.c **** 	{ 
 301              		.loc 1 250 29 is_stmt 1 discriminator 1 view .LVU72
 250:Generated_Source\PSoC5/cyfitter_cfg.c **** 	{ 
 302              		.loc 1 250 2 is_stmt 0 discriminator 1 view .LVU73
 303 005c 0DB1     		cbz	r5, .L17
 250:Generated_Source\PSoC5/cyfitter_cfg.c **** 	{ 
 304              		.loc 1 250 44 discriminator 3 view .LVU74
 305 005e 032C     		cmp	r4, #3
 306 0060 EFD1     		bne	.L18
 307              	.L17:
 256:Generated_Source\PSoC5/cyfitter_cfg.c **** 	{
 308              		.loc 1 256 2 is_stmt 1 view .LVU75
 256:Generated_Source\PSoC5/cyfitter_cfg.c **** 	{
 309              		.loc 1 256 5 is_stmt 0 view .LVU76
 310 0062 ADB1     		cbz	r5, .L21
 262:Generated_Source\PSoC5/cyfitter_cfg.c **** 	CY_SET_XTND_REG8((void CYFAR *)(CYREG_CLKDIST_MSTR0), 0x07u);
 311              		.loc 1 262 2 is_stmt 1 view .LVU77
 312 0064 114B     		ldr	r3, .L22+20
 313 0066 4FF48072 		mov	r2, #256
 314 006a 1A80     		strh	r2, [r3]	@ movhi
 263:Generated_Source\PSoC5/cyfitter_cfg.c **** 	CY_SET_XTND_REG8((void CYFAR *)(CYREG_CLKDIST_BCFG0), 0x00u);
 315              		.loc 1 263 2 view .LVU78
 316 006c 0722     		movs	r2, #7
 317 006e 1A70     		strb	r2, [r3]
 264:Generated_Source\PSoC5/cyfitter_cfg.c **** 	CY_SET_XTND_REG8((void CYFAR *)(CYREG_CLKDIST_BCFG2), 0x48u);
 318              		.loc 1 264 2 view .LVU79
 319 0070 0022     		movs	r2, #0
 320 0072 0F49     		ldr	r1, .L22+24
 321 0074 0A70     		strb	r2, [r1]
 265:Generated_Source\PSoC5/cyfitter_cfg.c **** 	CY_SET_XTND_REG8((void CYFAR *)(CYREG_CLKDIST_MSTR0), 0x00u);
 322              		.loc 1 265 2 view .LVU80
 323 0076 0231     		adds	r1, r1, #2
 324 0078 4820     		movs	r0, #72
 325 007a 0870     		strb	r0, [r1]
 266:Generated_Source\PSoC5/cyfitter_cfg.c **** 	CY_SET_XTND_REG8((void CYFAR *)(CYREG_CLKDIST_LD), 0x02u);
 326              		.loc 1 266 2 view .LVU81
 327 007c 1A70     		strb	r2, [r3]
 267:Generated_Source\PSoC5/cyfitter_cfg.c **** 
 328              		.loc 1 267 2 view .LVU82
 329 007e 033B     		subs	r3, r3, #3
ARM GAS  C:\Users\jens-\AppData\Local\Temp\ccVgIrSa.s 			page 13


 330 0080 0222     		movs	r2, #2
 331 0082 1A70     		strb	r2, [r3]
 269:Generated_Source\PSoC5/cyfitter_cfg.c **** }
 332              		.loc 1 269 2 view .LVU83
 333 0084 0B4A     		ldr	r2, .L22+28
 334 0086 1378     		ldrb	r3, [r2]	@ zero_extendqisi2
 335 0088 43F00103 		orr	r3, r3, #1
 336 008c 1370     		strb	r3, [r2]
 270:Generated_Source\PSoC5/cyfitter_cfg.c **** 
 337              		.loc 1 270 1 is_stmt 0 view .LVU84
 338 008e 38BD     		pop	{r3, r4, r5, pc}
 339              	.LVL24:
 340              	.L21:
 258:Generated_Source\PSoC5/cyfitter_cfg.c **** 	}
 341              		.loc 1 258 3 is_stmt 1 view .LVU85
 342 0090 0320     		movs	r0, #3
 343 0092 FFF7FEFF 		bl	CyClockStartupError
 344              	.LVL25:
 345              	.L23:
 346 0096 00BF     		.align	2
 347              	.L22:
 348 0098 80400040 		.word	1073758336
 349 009c 08010049 		.word	1224737032
 350 00a0 A1460040 		.word	1073759905
 351 00a4 22420040 		.word	1073758754
 352 00a8 25420040 		.word	1073758757
 353 00ac 04400040 		.word	1073758212
 354 00b0 06400040 		.word	1073758214
 355 00b4 A2430040 		.word	1073759138
 356              		.cfi_endproc
 357              	.LFE5:
 358              		.size	ClockSetup, .-ClockSetup
 359              		.section	.text.CYCONFIGCPY,"ax",%progbits
 360              		.align	1
 361              		.syntax unified
 362              		.thumb
 363              		.thumb_func
 364              		.fpu softvfp
 365              		.type	CYCONFIGCPY, %function
 366              	CYCONFIGCPY:
 367              	.LVL26:
 368              	.LFB1:
  85:Generated_Source\PSoC5/cyfitter_cfg.c **** 	(void)memcpy(dest, src, n);
 369              		.loc 1 85 1 view -0
 370              		.cfi_startproc
 371              		@ args = 0, pretend = 0, frame = 0
 372              		@ frame_needed = 0, uses_anonymous_args = 0
  85:Generated_Source\PSoC5/cyfitter_cfg.c **** 	(void)memcpy(dest, src, n);
 373              		.loc 1 85 1 is_stmt 0 view .LVU87
 374 0000 08B5     		push	{r3, lr}
 375              		.cfi_def_cfa_offset 8
 376              		.cfi_offset 3, -8
 377              		.cfi_offset 14, -4
  86:Generated_Source\PSoC5/cyfitter_cfg.c **** }
 378              		.loc 1 86 2 is_stmt 1 view .LVU88
  86:Generated_Source\PSoC5/cyfitter_cfg.c **** }
 379              		.loc 1 86 8 is_stmt 0 view .LVU89
ARM GAS  C:\Users\jens-\AppData\Local\Temp\ccVgIrSa.s 			page 14


 380 0002 FFF7FEFF 		bl	memcpy
 381              	.LVL27:
  87:Generated_Source\PSoC5/cyfitter_cfg.c **** CY_CFG_UNUSED
 382              		.loc 1 87 1 view .LVU90
 383 0006 08BD     		pop	{r3, pc}
 384              		.cfi_endproc
 385              	.LFE1:
 386              		.size	CYCONFIGCPY, .-CYCONFIGCPY
 387              		.section	.text.SetAnalogRoutingPumps,"ax",%progbits
 388              		.align	1
 389              		.global	SetAnalogRoutingPumps
 390              		.syntax unified
 391              		.thumb
 392              		.thumb_func
 393              		.fpu softvfp
 394              		.type	SetAnalogRoutingPumps, %function
 395              	SetAnalogRoutingPumps:
 396              	.LVL28:
 397              	.LFB7:
 299:Generated_Source\PSoC5/cyfitter_cfg.c **** 
 300:Generated_Source\PSoC5/cyfitter_cfg.c **** 
 301:Generated_Source\PSoC5/cyfitter_cfg.c **** /*******************************************************************************
 302:Generated_Source\PSoC5/cyfitter_cfg.c **** * Function Name: SetAnalogRoutingPumps
 303:Generated_Source\PSoC5/cyfitter_cfg.c **** ********************************************************************************
 304:Generated_Source\PSoC5/cyfitter_cfg.c **** *
 305:Generated_Source\PSoC5/cyfitter_cfg.c **** * Summary:
 306:Generated_Source\PSoC5/cyfitter_cfg.c **** * Enables or disables the analog pumps feeding analog routing switches.
 307:Generated_Source\PSoC5/cyfitter_cfg.c **** * Intended to be called at startup, based on the Vdda system configuration;
 308:Generated_Source\PSoC5/cyfitter_cfg.c **** * may be called during operation when the user informs us that the Vdda voltage
 309:Generated_Source\PSoC5/cyfitter_cfg.c **** * crossed the pump threshold.
 310:Generated_Source\PSoC5/cyfitter_cfg.c **** *
 311:Generated_Source\PSoC5/cyfitter_cfg.c **** * Parameters:
 312:Generated_Source\PSoC5/cyfitter_cfg.c **** *  enabled - 1 to enable the pumps, 0 to disable the pumps
 313:Generated_Source\PSoC5/cyfitter_cfg.c **** *
 314:Generated_Source\PSoC5/cyfitter_cfg.c **** * Return:
 315:Generated_Source\PSoC5/cyfitter_cfg.c **** *  void
 316:Generated_Source\PSoC5/cyfitter_cfg.c **** *
 317:Generated_Source\PSoC5/cyfitter_cfg.c **** *******************************************************************************/
 318:Generated_Source\PSoC5/cyfitter_cfg.c **** void SetAnalogRoutingPumps(uint8 enabled)
 319:Generated_Source\PSoC5/cyfitter_cfg.c **** {
 398              		.loc 1 319 1 is_stmt 1 view -0
 399              		.cfi_startproc
 400              		@ args = 0, pretend = 0, frame = 0
 401              		@ frame_needed = 0, uses_anonymous_args = 0
 402              		@ link register save eliminated.
 320:Generated_Source\PSoC5/cyfitter_cfg.c **** 	uint8 regValue = CY_GET_XTND_REG8((void CYFAR *)CYREG_PUMP_CR0);
 403              		.loc 1 320 2 view .LVU92
 404              		.loc 1 320 8 is_stmt 0 view .LVU93
 405 0000 024A     		ldr	r2, .L27
 406 0002 1378     		ldrb	r3, [r2]	@ zero_extendqisi2
 407 0004 DBB2     		uxtb	r3, r3
 408              	.LVL29:
 321:Generated_Source\PSoC5/cyfitter_cfg.c **** 	if (enabled != 0u)
 409              		.loc 1 321 2 is_stmt 1 view .LVU94
 322:Generated_Source\PSoC5/cyfitter_cfg.c **** 	{
 323:Generated_Source\PSoC5/cyfitter_cfg.c **** 		regValue |= 0x00u;
 324:Generated_Source\PSoC5/cyfitter_cfg.c **** 	}
ARM GAS  C:\Users\jens-\AppData\Local\Temp\ccVgIrSa.s 			page 15


 325:Generated_Source\PSoC5/cyfitter_cfg.c **** 	else
 326:Generated_Source\PSoC5/cyfitter_cfg.c **** 	{
 327:Generated_Source\PSoC5/cyfitter_cfg.c **** 		regValue &= (uint8)~0x00u;
 328:Generated_Source\PSoC5/cyfitter_cfg.c **** 	}
 329:Generated_Source\PSoC5/cyfitter_cfg.c **** 	CY_SET_XTND_REG8((void CYFAR *)CYREG_PUMP_CR0, regValue);
 410              		.loc 1 329 2 view .LVU95
 411 0006 1370     		strb	r3, [r2]
 330:Generated_Source\PSoC5/cyfitter_cfg.c **** }
 412              		.loc 1 330 1 is_stmt 0 view .LVU96
 413 0008 7047     		bx	lr
 414              	.L28:
 415 000a 00BF     		.align	2
 416              	.L27:
 417 000c 76580040 		.word	1073764470
 418              		.cfi_endproc
 419              	.LFE7:
 420              		.size	SetAnalogRoutingPumps, .-SetAnalogRoutingPumps
 421              		.section	.text.cyfitter_cfg,"ax",%progbits
 422              		.align	1
 423              		.global	cyfitter_cfg
 424              		.syntax unified
 425              		.thumb
 426              		.thumb_func
 427              		.fpu softvfp
 428              		.type	cyfitter_cfg, %function
 429              	cyfitter_cfg:
 430              	.LFB8:
 331:Generated_Source\PSoC5/cyfitter_cfg.c **** 
 332:Generated_Source\PSoC5/cyfitter_cfg.c **** 
 333:Generated_Source\PSoC5/cyfitter_cfg.c **** 
 334:Generated_Source\PSoC5/cyfitter_cfg.c **** 
 335:Generated_Source\PSoC5/cyfitter_cfg.c **** /*******************************************************************************
 336:Generated_Source\PSoC5/cyfitter_cfg.c **** * Function Name: cyfitter_cfg
 337:Generated_Source\PSoC5/cyfitter_cfg.c **** ********************************************************************************
 338:Generated_Source\PSoC5/cyfitter_cfg.c **** * Summary:
 339:Generated_Source\PSoC5/cyfitter_cfg.c **** *  This function is called by the start-up code for the selected device. It
 340:Generated_Source\PSoC5/cyfitter_cfg.c **** *  performs all of the necessary device configuration based on the design
 341:Generated_Source\PSoC5/cyfitter_cfg.c **** *  settings.  This includes settings from the Design Wide Resources (DWR) such
 342:Generated_Source\PSoC5/cyfitter_cfg.c **** *  as Clocks and Pins as well as any component configuration that is necessary.
 343:Generated_Source\PSoC5/cyfitter_cfg.c **** *
 344:Generated_Source\PSoC5/cyfitter_cfg.c **** * Parameters:
 345:Generated_Source\PSoC5/cyfitter_cfg.c **** *   void
 346:Generated_Source\PSoC5/cyfitter_cfg.c **** *
 347:Generated_Source\PSoC5/cyfitter_cfg.c **** * Return:
 348:Generated_Source\PSoC5/cyfitter_cfg.c **** *   void
 349:Generated_Source\PSoC5/cyfitter_cfg.c **** *
 350:Generated_Source\PSoC5/cyfitter_cfg.c **** *******************************************************************************/
 351:Generated_Source\PSoC5/cyfitter_cfg.c **** 
 352:Generated_Source\PSoC5/cyfitter_cfg.c **** void cyfitter_cfg(void)
 353:Generated_Source\PSoC5/cyfitter_cfg.c **** {
 431              		.loc 1 353 1 is_stmt 1 view -0
 432              		.cfi_startproc
 433              		@ args = 0, pretend = 0, frame = 0
 434              		@ frame_needed = 0, uses_anonymous_args = 0
 435 0000 38B5     		push	{r3, r4, r5, lr}
 436              		.cfi_def_cfa_offset 16
 437              		.cfi_offset 3, -16
ARM GAS  C:\Users\jens-\AppData\Local\Temp\ccVgIrSa.s 			page 16


 438              		.cfi_offset 4, -12
 439              		.cfi_offset 5, -8
 440              		.cfi_offset 14, -4
 354:Generated_Source\PSoC5/cyfitter_cfg.c **** #ifdef CYGlobalIntDisable
 355:Generated_Source\PSoC5/cyfitter_cfg.c **** 	/* Disable interrupts by default. Let user enable if/when they want. */
 356:Generated_Source\PSoC5/cyfitter_cfg.c **** 	CYGlobalIntDisable
 441              		.loc 1 356 2 view .LVU98
 442              		.syntax unified
 443              	@ 356 "Generated_Source\PSoC5\cyfitter_cfg.c" 1
 444 0002 72B6     		CPSID   i
 445              	@ 0 "" 2
 357:Generated_Source\PSoC5/cyfitter_cfg.c **** #endif
 358:Generated_Source\PSoC5/cyfitter_cfg.c **** 
 359:Generated_Source\PSoC5/cyfitter_cfg.c **** 	/* Enable/Disable Debug functionality based on settings from System DWR */
 360:Generated_Source\PSoC5/cyfitter_cfg.c **** 	CY_SET_XTND_REG8((void CYFAR *)CYREG_MLOGIC_DEBUG, (CY_GET_XTND_REG8((void CYFAR *)CYREG_MLOGIC_DE
 446              		.loc 1 360 2 view .LVU99
 447              		.thumb
 448              		.syntax unified
 449 0004 334A     		ldr	r2, .L36
 450 0006 1378     		ldrb	r3, [r2]	@ zero_extendqisi2
 451 0008 43F00403 		orr	r3, r3, #4
 452 000c 1370     		strb	r3, [r2]
 453              	.LBB4:
 361:Generated_Source\PSoC5/cyfitter_cfg.c **** 
 362:Generated_Source\PSoC5/cyfitter_cfg.c **** 	{
 363:Generated_Source\PSoC5/cyfitter_cfg.c **** 
 364:Generated_Source\PSoC5/cyfitter_cfg.c **** 		CYPACKED typedef struct {
 454              		.loc 1 364 12 view .LVU100
 365:Generated_Source\PSoC5/cyfitter_cfg.c **** 			void CYFAR *address;
 366:Generated_Source\PSoC5/cyfitter_cfg.c **** 			uint16 size;
 367:Generated_Source\PSoC5/cyfitter_cfg.c **** 		} CYPACKED_ATTR cfg_memset_t;
 368:Generated_Source\PSoC5/cyfitter_cfg.c **** 
 369:Generated_Source\PSoC5/cyfitter_cfg.c **** 
 370:Generated_Source\PSoC5/cyfitter_cfg.c **** 		CYPACKED typedef struct {
 455              		.loc 1 370 12 view .LVU101
 371:Generated_Source\PSoC5/cyfitter_cfg.c **** 			void CYFAR *dest;
 372:Generated_Source\PSoC5/cyfitter_cfg.c **** 			const void CYFAR *src;
 373:Generated_Source\PSoC5/cyfitter_cfg.c **** 			uint16 size;
 374:Generated_Source\PSoC5/cyfitter_cfg.c **** 		} CYPACKED_ATTR cfg_memcpy_t;
 375:Generated_Source\PSoC5/cyfitter_cfg.c **** 
 376:Generated_Source\PSoC5/cyfitter_cfg.c **** 		static const cfg_memset_t CYCODE cfg_memset_list[] = {
 456              		.loc 1 376 3 view .LVU102
 377:Generated_Source\PSoC5/cyfitter_cfg.c **** 			/* address, size */
 378:Generated_Source\PSoC5/cyfitter_cfg.c **** 			{(void CYFAR *)(CYREG_I2C_XCFG), 25u},
 379:Generated_Source\PSoC5/cyfitter_cfg.c **** 			{(void CYFAR *)(CYREG_PRT0_DR), 16u},
 380:Generated_Source\PSoC5/cyfitter_cfg.c **** 			{(void CYFAR *)(CYREG_PRT3_DR), 64u},
 381:Generated_Source\PSoC5/cyfitter_cfg.c **** 			{(void CYFAR *)(CYREG_PRT15_DR), 16u},
 382:Generated_Source\PSoC5/cyfitter_cfg.c **** 			{(void CYFAR *)(CYDEV_UCFG_B0_P0_U0_BASE), 4096u},
 383:Generated_Source\PSoC5/cyfitter_cfg.c **** 			{(void CYFAR *)(CYDEV_UCFG_B1_P2_U0_BASE), 1024u},
 384:Generated_Source\PSoC5/cyfitter_cfg.c **** 			{(void CYFAR *)(CYDEV_UCFG_B1_P4_U1_BASE), 896u},
 385:Generated_Source\PSoC5/cyfitter_cfg.c **** 			{(void CYFAR *)(CYDEV_UCFG_DSI0_BASE), 2560u},
 386:Generated_Source\PSoC5/cyfitter_cfg.c **** 			{(void CYFAR *)(CYDEV_UCFG_DSI12_BASE), 512u},
 387:Generated_Source\PSoC5/cyfitter_cfg.c **** 			{(void CYFAR *)(CYREG_BCTL0_MDCLK_EN), 32u},
 388:Generated_Source\PSoC5/cyfitter_cfg.c **** 		};
 389:Generated_Source\PSoC5/cyfitter_cfg.c **** 
 390:Generated_Source\PSoC5/cyfitter_cfg.c **** 		static const cfg_memcpy_t CYCODE cfg_memcpy_list [] = {
 457              		.loc 1 390 3 view .LVU103
ARM GAS  C:\Users\jens-\AppData\Local\Temp\ccVgIrSa.s 			page 17


 391:Generated_Source\PSoC5/cyfitter_cfg.c **** 			/* dest, src, size */
 392:Generated_Source\PSoC5/cyfitter_cfg.c **** 			{(void CYFAR *)(CYDEV_PRTDSI_PRT12_BASE), BS_IOPORT_7_VAL, 6u},
 393:Generated_Source\PSoC5/cyfitter_cfg.c **** 			{(void CYFAR *)(CYDEV_UCFG_B1_P4_U0_BASE), BS_UDB_0_1_1_CONFIG_VAL, 128u},
 394:Generated_Source\PSoC5/cyfitter_cfg.c **** 		};
 395:Generated_Source\PSoC5/cyfitter_cfg.c **** 
 396:Generated_Source\PSoC5/cyfitter_cfg.c **** 		uint8 CYDATA i;
 458              		.loc 1 396 3 view .LVU104
 397:Generated_Source\PSoC5/cyfitter_cfg.c **** 
 398:Generated_Source\PSoC5/cyfitter_cfg.c **** 		/* Zero out critical memory blocks before beginning configuration */
 399:Generated_Source\PSoC5/cyfitter_cfg.c **** 		for (i = 0u; i < (sizeof(cfg_memset_list)/sizeof(cfg_memset_list[0])); i++)
 459              		.loc 1 399 3 view .LVU105
 460              	.LVL30:
 461              		.loc 1 399 10 is_stmt 0 view .LVU106
 462 000e 0024     		movs	r4, #0
 463              	.LVL31:
 464              	.L30:
 465              		.loc 1 399 16 is_stmt 1 discriminator 1 view .LVU107
 466              		.loc 1 399 3 is_stmt 0 discriminator 1 view .LVU108
 467 0010 092C     		cmp	r4, #9
 468 0012 0CD8     		bhi	.L35
 469              	.LBB5:
 400:Generated_Source\PSoC5/cyfitter_cfg.c **** 		{
 401:Generated_Source\PSoC5/cyfitter_cfg.c **** 			const cfg_memset_t CYCODE * CYDATA ms = &cfg_memset_list[i];
 470              		.loc 1 401 4 is_stmt 1 discriminator 3 view .LVU109
 471              	.LVL32:
 402:Generated_Source\PSoC5/cyfitter_cfg.c **** 			CYMEMZERO(ms->address, (size_t)(uint32)(ms->size));
 472              		.loc 1 402 4 discriminator 3 view .LVU110
 473              		.loc 1 402 46 is_stmt 0 discriminator 3 view .LVU111
 474 0014 3048     		ldr	r0, .L36+4
 475 0016 04EB4402 		add	r2, r4, r4, lsl #1
 476 001a 5300     		lsls	r3, r2, #1
 477 001c 1A46     		mov	r2, r3
 478 001e 0344     		add	r3, r3, r0
 479              		.loc 1 402 4 discriminator 3 view .LVU112
 480 0020 9988     		ldrh	r1, [r3, #4]
 481 0022 8058     		ldr	r0, [r0, r2]	@ unaligned
 482 0024 FFF7FEFF 		bl	CYMEMZERO
 483              	.LVL33:
 484              	.LBE5:
 399:Generated_Source\PSoC5/cyfitter_cfg.c **** 		{
 485              		.loc 1 399 74 is_stmt 1 discriminator 3 view .LVU113
 399:Generated_Source\PSoC5/cyfitter_cfg.c **** 		{
 486              		.loc 1 399 75 is_stmt 0 discriminator 3 view .LVU114
 487 0028 0134     		adds	r4, r4, #1
 488              	.LVL34:
 399:Generated_Source\PSoC5/cyfitter_cfg.c **** 		{
 489              		.loc 1 399 75 discriminator 3 view .LVU115
 490 002a E4B2     		uxtb	r4, r4
 491              	.LVL35:
 399:Generated_Source\PSoC5/cyfitter_cfg.c **** 		{
 492              		.loc 1 399 75 discriminator 3 view .LVU116
 493 002c F0E7     		b	.L30
 494              	.L35:
 403:Generated_Source\PSoC5/cyfitter_cfg.c **** 		}
 404:Generated_Source\PSoC5/cyfitter_cfg.c **** 
 405:Generated_Source\PSoC5/cyfitter_cfg.c **** 		/* Copy device configuration data into registers */
 406:Generated_Source\PSoC5/cyfitter_cfg.c **** 		for (i = 0u; i < (sizeof(cfg_memcpy_list)/sizeof(cfg_memcpy_list[0])); i++)
ARM GAS  C:\Users\jens-\AppData\Local\Temp\ccVgIrSa.s 			page 18


 495              		.loc 1 406 10 view .LVU117
 496 002e 0024     		movs	r4, #0
 497              	.LVL36:
 498              		.loc 1 406 10 view .LVU118
 499 0030 0CE0     		b	.L32
 500              	.LVL37:
 501              	.L33:
 502              	.LBB6:
 407:Generated_Source\PSoC5/cyfitter_cfg.c **** 		{
 408:Generated_Source\PSoC5/cyfitter_cfg.c **** 			const cfg_memcpy_t CYCODE * CYDATA mc = &cfg_memcpy_list[i];
 503              		.loc 1 408 4 is_stmt 1 discriminator 3 view .LVU119
 409:Generated_Source\PSoC5/cyfitter_cfg.c **** 			void * CYDATA destPtr = mc->dest;
 504              		.loc 1 409 4 discriminator 3 view .LVU120
 505              		.loc 1 409 18 is_stmt 0 discriminator 3 view .LVU121
 506 0032 294A     		ldr	r2, .L36+4
 507 0034 04EB8401 		add	r1, r4, r4, lsl #2
 508 0038 4B00     		lsls	r3, r1, #1
 509 003a 1344     		add	r3, r3, r2
 510              	.LVL38:
 410:Generated_Source\PSoC5/cyfitter_cfg.c **** 			const void * CYDATA srcPtr = mc->src;
 511              		.loc 1 410 4 is_stmt 1 discriminator 3 view .LVU122
 411:Generated_Source\PSoC5/cyfitter_cfg.c **** 			uint16 CYDATA numBytes = mc->size;
 512              		.loc 1 411 4 discriminator 3 view .LVU123
 412:Generated_Source\PSoC5/cyfitter_cfg.c **** 			CYCONFIGCPY(destPtr, srcPtr, numBytes);
 513              		.loc 1 412 4 discriminator 3 view .LVU124
 514 003c B3F84420 		ldrh	r2, [r3, #68]
 515 0040 196C     		ldr	r1, [r3, #64]	@ unaligned
 516              	.LVL39:
 517              		.loc 1 412 4 is_stmt 0 discriminator 3 view .LVU125
 518 0042 D86B     		ldr	r0, [r3, #60]	@ unaligned
 519              	.LVL40:
 520              		.loc 1 412 4 discriminator 3 view .LVU126
 521 0044 FFF7FEFF 		bl	CYCONFIGCPY
 522              	.LVL41:
 523              		.loc 1 412 4 discriminator 3 view .LVU127
 524              	.LBE6:
 406:Generated_Source\PSoC5/cyfitter_cfg.c **** 		{
 525              		.loc 1 406 74 is_stmt 1 discriminator 3 view .LVU128
 406:Generated_Source\PSoC5/cyfitter_cfg.c **** 		{
 526              		.loc 1 406 75 is_stmt 0 discriminator 3 view .LVU129
 527 0048 0134     		adds	r4, r4, #1
 528              	.LVL42:
 406:Generated_Source\PSoC5/cyfitter_cfg.c **** 		{
 529              		.loc 1 406 75 discriminator 3 view .LVU130
 530 004a E4B2     		uxtb	r4, r4
 531              	.LVL43:
 532              	.L32:
 406:Generated_Source\PSoC5/cyfitter_cfg.c **** 		{
 533              		.loc 1 406 16 is_stmt 1 discriminator 1 view .LVU131
 406:Generated_Source\PSoC5/cyfitter_cfg.c **** 		{
 534              		.loc 1 406 3 is_stmt 0 discriminator 1 view .LVU132
 535 004c 012C     		cmp	r4, #1
 536 004e F0D9     		bls	.L33
 413:Generated_Source\PSoC5/cyfitter_cfg.c **** 		}
 414:Generated_Source\PSoC5/cyfitter_cfg.c **** 
 415:Generated_Source\PSoC5/cyfitter_cfg.c **** 		cfg_write_bytes32(cy_cfg_addr_table, cy_cfg_data_table);
 537              		.loc 1 415 3 is_stmt 1 view .LVU133
ARM GAS  C:\Users\jens-\AppData\Local\Temp\ccVgIrSa.s 			page 19


 538 0050 2249     		ldr	r1, .L36+8
 539 0052 4FF09040 		mov	r0, #1207959552
 540 0056 FFF7FEFF 		bl	cfg_write_bytes32
 541              	.LVL44:
 416:Generated_Source\PSoC5/cyfitter_cfg.c **** 
 417:Generated_Source\PSoC5/cyfitter_cfg.c **** 		/* Enable digital routing */
 418:Generated_Source\PSoC5/cyfitter_cfg.c **** 		CY_SET_XTND_REG8((void CYFAR *)CYREG_BCTL0_BANK_CTL, CY_GET_XTND_REG8((void CYFAR *)CYREG_BCTL0_B
 542              		.loc 1 418 3 view .LVU134
 543 005a 214A     		ldr	r2, .L36+12
 544 005c 1378     		ldrb	r3, [r2]	@ zero_extendqisi2
 545 005e 43F00203 		orr	r3, r3, #2
 546 0062 1370     		strb	r3, [r2]
 419:Generated_Source\PSoC5/cyfitter_cfg.c **** 		CY_SET_XTND_REG8((void CYFAR *)CYREG_BCTL1_BANK_CTL, CY_GET_XTND_REG8((void CYFAR *)CYREG_BCTL1_B
 547              		.loc 1 419 3 view .LVU135
 548 0064 1032     		adds	r2, r2, #16
 549 0066 1378     		ldrb	r3, [r2]	@ zero_extendqisi2
 550 0068 43F00203 		orr	r3, r3, #2
 551 006c 1370     		strb	r3, [r2]
 420:Generated_Source\PSoC5/cyfitter_cfg.c **** 
 421:Generated_Source\PSoC5/cyfitter_cfg.c **** 		/* Enable UDB array */
 422:Generated_Source\PSoC5/cyfitter_cfg.c **** 		CY_SET_XTND_REG8((void CYFAR *)CYREG_PM_ACT_CFG0, CY_GET_XTND_REG8((void CYFAR *)CYREG_PM_ACT_CFG
 552              		.loc 1 422 3 view .LVU136
 553 006e 1D4C     		ldr	r4, .L36+16
 554              	.LVL45:
 555              		.loc 1 422 3 is_stmt 0 view .LVU137
 556 0070 2378     		ldrb	r3, [r4]	@ zero_extendqisi2
 557 0072 43F04003 		orr	r3, r3, #64
 558 0076 2370     		strb	r3, [r4]
 423:Generated_Source\PSoC5/cyfitter_cfg.c **** 		CY_SET_XTND_REG8((void CYFAR *)CYREG_PM_AVAIL_CR2, CY_GET_XTND_REG8((void CYFAR *)CYREG_PM_AVAIL_
 559              		.loc 1 423 3 is_stmt 1 view .LVU138
 560 0078 A2F58632 		sub	r2, r2, #68608
 561 007c 513A     		subs	r2, r2, #81
 562 007e 1378     		ldrb	r3, [r2]	@ zero_extendqisi2
 563 0080 43F01003 		orr	r3, r3, #16
 564 0084 1370     		strb	r3, [r2]
 565              	.LBE4:
 424:Generated_Source\PSoC5/cyfitter_cfg.c **** 	}
 425:Generated_Source\PSoC5/cyfitter_cfg.c **** 
 426:Generated_Source\PSoC5/cyfitter_cfg.c **** 
 427:Generated_Source\PSoC5/cyfitter_cfg.c **** 	/* Perform second pass device configuration. These items must be configured in specific order afte
 428:Generated_Source\PSoC5/cyfitter_cfg.c **** 	CYCONFIGCPY((void CYFAR *)(CYREG_PRT12_DR), (const void CYFAR *)(BS_IOPINS0_7_VAL), 10u);
 566              		.loc 1 428 2 view .LVU139
 567 0086 0A22     		movs	r2, #10
 568 0088 1749     		ldr	r1, .L36+20
 569 008a 1848     		ldr	r0, .L36+24
 570 008c FFF7FEFF 		bl	CYCONFIGCPY
 571              	.LVL46:
 429:Generated_Source\PSoC5/cyfitter_cfg.c **** 	CYCONFIGCPY((void CYFAR *)(CYREG_PRT1_DM0), (const void CYFAR *)(BS_IOPINS0_1_VAL), 8u);
 572              		.loc 1 429 2 view .LVU140
 573 0090 0822     		movs	r2, #8
 574 0092 1749     		ldr	r1, .L36+28
 575 0094 1748     		ldr	r0, .L36+32
 576 0096 FFF7FEFF 		bl	CYCONFIGCPY
 577              	.LVL47:
 430:Generated_Source\PSoC5/cyfitter_cfg.c **** 	CYCONFIGCPY((void CYFAR *)(CYREG_PRT2_DM0), (const void CYFAR *)(BS_IOPINS0_2_VAL), 8u);
 578              		.loc 1 430 2 view .LVU141
 579 009a 0822     		movs	r2, #8
ARM GAS  C:\Users\jens-\AppData\Local\Temp\ccVgIrSa.s 			page 20


 580 009c 1649     		ldr	r1, .L36+36
 581 009e 1748     		ldr	r0, .L36+40
 582 00a0 FFF7FEFF 		bl	CYCONFIGCPY
 583              	.LVL48:
 431:Generated_Source\PSoC5/cyfitter_cfg.c **** 	/* Switch Boost to the precision bandgap reference from its internal reference */
 432:Generated_Source\PSoC5/cyfitter_cfg.c **** 	CY_SET_REG8((void CYXDATA *)CYREG_BOOST_CR2, (CY_GET_REG8((void CYXDATA *)CYREG_BOOST_CR2) | 0x08u
 584              		.loc 1 432 2 view .LVU142
 585 00a4 164A     		ldr	r2, .L36+44
 586 00a6 1378     		ldrb	r3, [r2]	@ zero_extendqisi2
 587 00a8 43F00803 		orr	r3, r3, #8
 588 00ac 1370     		strb	r3, [r2]
 433:Generated_Source\PSoC5/cyfitter_cfg.c **** 
 434:Generated_Source\PSoC5/cyfitter_cfg.c **** 	/* Set Flash Cycles based on max possible frequency in case a glitch occurs during ClockSetup(). *
 435:Generated_Source\PSoC5/cyfitter_cfg.c **** 	CY_SET_XTND_REG8((void CYFAR *)(CYREG_CACHE_CC_CTL), (((CYDEV_INSTRUCT_CACHE_ENABLED) != 0) ? 0x61
 589              		.loc 1 435 2 view .LVU143
 590 00ae 154D     		ldr	r5, .L36+48
 591 00b0 6123     		movs	r3, #97
 592 00b2 2B70     		strb	r3, [r5]
 436:Generated_Source\PSoC5/cyfitter_cfg.c **** 	/* Setup clocks based on selections from Clock DWR */
 437:Generated_Source\PSoC5/cyfitter_cfg.c **** 	ClockSetup();
 593              		.loc 1 437 2 view .LVU144
 594 00b4 FFF7FEFF 		bl	ClockSetup
 595              	.LVL49:
 438:Generated_Source\PSoC5/cyfitter_cfg.c **** 	/* Set Flash Cycles based on newly configured 24.00MHz Bus Clock. */
 439:Generated_Source\PSoC5/cyfitter_cfg.c **** 	CY_SET_XTND_REG8((void CYFAR *)(CYREG_CACHE_CC_CTL), (((CYDEV_INSTRUCT_CACHE_ENABLED) != 0) ? 0x81
 596              		.loc 1 439 2 view .LVU145
 597 00b8 8123     		movs	r3, #129
 598 00ba 2B70     		strb	r3, [r5]
 440:Generated_Source\PSoC5/cyfitter_cfg.c **** 	CY_SET_XTND_REG8((void CYFAR *)(CYREG_PANTHER_WAITPIPE), 0x01u);
 599              		.loc 1 440 2 view .LVU146
 600 00bc 124B     		ldr	r3, .L36+52
 601 00be 0122     		movs	r2, #1
 602 00c0 1A70     		strb	r2, [r3]
 441:Generated_Source\PSoC5/cyfitter_cfg.c **** 
 442:Generated_Source\PSoC5/cyfitter_cfg.c **** 	/* Perform basic analog initialization to defaults */
 443:Generated_Source\PSoC5/cyfitter_cfg.c **** 	AnalogSetDefault();
 603              		.loc 1 443 2 view .LVU147
 604 00c2 FFF7FEFF 		bl	AnalogSetDefault
 605              	.LVL50:
 444:Generated_Source\PSoC5/cyfitter_cfg.c **** 
 445:Generated_Source\PSoC5/cyfitter_cfg.c **** 	/* Configure alternate active mode */
 446:Generated_Source\PSoC5/cyfitter_cfg.c **** 	CYCONFIGCPY((void CYFAR *)CYDEV_PM_STBY_BASE, (const void CYFAR *)CYDEV_PM_ACT_BASE, 14u);
 606              		.loc 1 446 2 view .LVU148
 607 00c6 0E22     		movs	r2, #14
 608 00c8 2146     		mov	r1, r4
 609 00ca 1048     		ldr	r0, .L36+56
 610 00cc FFF7FEFF 		bl	CYCONFIGCPY
 611              	.LVL51:
 447:Generated_Source\PSoC5/cyfitter_cfg.c **** }
 612              		.loc 1 447 1 is_stmt 0 view .LVU149
 613 00d0 38BD     		pop	{r3, r4, r5, pc}
 614              	.L37:
 615 00d2 00BF     		.align	2
 616              	.L36:
 617 00d4 E8460040 		.word	1073759976
 618 00d8 00000000 		.word	.LANCHOR0
 619 00dc 3C000048 		.word	1207959612
ARM GAS  C:\Users\jens-\AppData\Local\Temp\ccVgIrSa.s 			page 21


 620 00e0 03500140 		.word	1073827843
 621 00e4 A0430040 		.word	1073759136
 622 00e8 5C030048 		.word	1207960412
 623 00ec C0510040 		.word	1073762752
 624 00f0 68030048 		.word	1207960424
 625 00f4 12510040 		.word	1073762578
 626 00f8 70030048 		.word	1207960432
 627 00fc 22510040 		.word	1073762594
 628 0100 22430040 		.word	1073759010
 629 0104 00480040 		.word	1073760256
 630 0108 04000840 		.word	1074266116
 631 010c B0430040 		.word	1073759152
 632              		.cfi_endproc
 633              	.LFE8:
 634              		.size	cyfitter_cfg, .-cyfitter_cfg
 635              		.section	.rodata
 636              		.align	2
 637              		.set	.LANCHOR0,. + 0
 638              		.type	cfg_memset_list.5148, %object
 639              		.size	cfg_memset_list.5148, 60
 640              	cfg_memset_list.5148:
 641 0000 C8490040 		.word	1073760712
 642 0004 1900     		.short	25
 643 0006 00510040 		.4byte	1073762560
 644 000a 1000     		.short	16
 645 000c 30510040 		.word	1073762608
 646 0010 4000     		.short	64
 647 0012 F0510040 		.4byte	1073762800
 648 0016 1000     		.short	16
 649 0018 00000140 		.word	1073807360
 650 001c 0010     		.short	4096
 651 001e 00140140 		.4byte	1073812480
 652 0022 0004     		.short	1024
 653 0024 80180140 		.word	1073813632
 654 0028 8003     		.short	896
 655 002a 00400140 		.4byte	1073823744
 656 002e 000A     		.short	2560
 657 0030 004C0140 		.word	1073826816
 658 0034 0002     		.short	512
 659 0036 00500140 		.4byte	1073827840
 660 003a 2000     		.short	32
 661              		.type	cfg_memcpy_list.5149, %object
 662              		.size	cfg_memcpy_list.5149, 20
 663              	cfg_memcpy_list.5149:
 664 003c 60520040 		.word	1073762912
 665 0040 D4020048 		.word	1207960276
 666 0044 0600     		.short	6
 667 0046 00180140 		.4byte	1073813504
 668 004a DC020048 		.4byte	1207960284
 669 004e 8000     		.short	128
 670              		.text
 671              	.Letext0:
 672              		.file 2 "c:\\program files (x86)\\cypress\\psoc creator\\4.2\\psoc creator\\import\\gnu\\arm\\5.4.
 673              		.file 3 "c:\\program files (x86)\\cypress\\psoc creator\\4.2\\psoc creator\\import\\gnu\\arm\\5.4.
 674              		.file 4 "c:\\program files (x86)\\cypress\\psoc creator\\4.2\\psoc creator\\import\\gnu\\arm\\5.4.
 675              		.file 5 "c:\\program files (x86)\\cypress\\psoc creator\\4.2\\psoc creator\\import\\gnu\\arm\\5.4.
 676              		.file 6 "Generated_Source\\PSoC5\\cytypes.h"
ARM GAS  C:\Users\jens-\AppData\Local\Temp\ccVgIrSa.s 			page 22


 677              		.file 7 "c:\\program files (x86)\\cypress\\psoc creator\\4.2\\psoc creator\\import\\gnu\\arm\\5.4.
 678              		.file 8 "Generated_Source\\PSoC5\\CySpc.h"
 679              		.file 9 "Generated_Source\\PSoC5\\CyFlash.h"
 680              		.file 10 "Generated_Source\\PSoC5\\CyLib.h"
 681              		.file 11 "<built-in>"