ARM GAS  C:\Users\jens-\AppData\Local\Temp\ccYtkWAk.s 			page 1


   1              		.cpu cortex-m3
   2              		.eabi_attribute 20, 1
   3              		.eabi_attribute 21, 1
   4              		.eabi_attribute 23, 3
   5              		.eabi_attribute 24, 1
   6              		.eabi_attribute 25, 1
   7              		.eabi_attribute 26, 1
   8              		.eabi_attribute 30, 1
   9              		.eabi_attribute 34, 1
  10              		.eabi_attribute 18, 4
  11              		.file	"Tester.c"
  12              		.text
  13              	.Ltext0:
  14              		.cfi_sections	.debug_frame
  15              		.section	.rodata.str1.4,"aMS",%progbits,1
  16              		.align	2
  17              	.LC0:
  18 0000 48656C6C 		.ascii	"Hello there, i am your debugger today \015\012\000"
  18      6F207468 
  18      6572652C 
  18      20692061 
  18      6D20796F 
  19              		.section	.text.Tester_Init,"ax",%progbits
  20              		.align	1
  21              		.global	Tester_Init
  22              		.arch armv7-m
  23              		.syntax unified
  24              		.thumb
  25              		.thumb_func
  26              		.fpu softvfp
  27              		.type	Tester_Init, %function
  28              	Tester_Init:
  29              	.LVL0:
  30              	.LFB63:
  31              		.file 1 "Tester.c"
   1:Tester.c      **** /* ========================================
   2:Tester.c      ****  *
   3:Tester.c      ****  * Copyright YOUR COMPANY, THE YEAR
   4:Tester.c      ****  * All Rights Reserved
   5:Tester.c      ****  * UNPUBLISHED, LICENSED SOFTWARE.
   6:Tester.c      ****  *
   7:Tester.c      ****  * CONFIDENTIAL AND PROPRIETARY INFORMATION
   8:Tester.c      ****  * WHICH IS THE PROPERTY OF your company.
   9:Tester.c      ****  *
  10:Tester.c      ****  * ========================================
  11:Tester.c      **** */
  12:Tester.c      **** #include "Tester.h"
  13:Tester.c      **** #include "project.h"
  14:Tester.c      **** 
  15:Tester.c      **** void Tester_Init(const Tester *this)
  16:Tester.c      **** {
  32              		.loc 1 16 1 view -0
  33              		.cfi_startproc
  34              		@ args = 0, pretend = 0, frame = 0
  35              		@ frame_needed = 0, uses_anonymous_args = 0
  36              		.loc 1 16 1 is_stmt 0 view .LVU1
  37 0000 08B5     		push	{r3, lr}
ARM GAS  C:\Users\jens-\AppData\Local\Temp\ccYtkWAk.s 			page 2


  38              		.cfi_def_cfa_offset 8
  39              		.cfi_offset 3, -8
  40              		.cfi_offset 14, -4
  17:Tester.c      ****     UART_tester_Start();
  41              		.loc 1 17 5 is_stmt 1 view .LVU2
  42 0002 FFF7FEFF 		bl	UART_tester_Start
  43              	.LVL1:
  18:Tester.c      ****     UART_tester_PutString("Hello there, i am your debugger today \r\n");
  44              		.loc 1 18 5 view .LVU3
  45 0006 0248     		ldr	r0, .L3
  46 0008 FFF7FEFF 		bl	UART_tester_PutString
  47              	.LVL2:
  19:Tester.c      **** }
  48              		.loc 1 19 1 is_stmt 0 view .LVU4
  49 000c 08BD     		pop	{r3, pc}
  50              	.L4:
  51 000e 00BF     		.align	2
  52              	.L3:
  53 0010 00000000 		.word	.LC0
  54              		.cfi_endproc
  55              	.LFE63:
  56              		.size	Tester_Init, .-Tester_Init
  57              		.section	.text.writeTester,"ax",%progbits
  58              		.align	1
  59              		.global	writeTester
  60              		.syntax unified
  61              		.thumb
  62              		.thumb_func
  63              		.fpu softvfp
  64              		.type	writeTester, %function
  65              	writeTester:
  66              	.LVL3:
  67              	.LFB64:
  20:Tester.c      **** void writeTester(const Tester *this, const char* buff)
  21:Tester.c      **** {
  68              		.loc 1 21 1 is_stmt 1 view -0
  69              		.cfi_startproc
  70              		@ args = 0, pretend = 0, frame = 0
  71              		@ frame_needed = 0, uses_anonymous_args = 0
  72              		.loc 1 21 1 is_stmt 0 view .LVU6
  73 0000 08B5     		push	{r3, lr}
  74              		.cfi_def_cfa_offset 8
  75              		.cfi_offset 3, -8
  76              		.cfi_offset 14, -4
  22:Tester.c      ****     UART_tester_PutString(buff);
  77              		.loc 1 22 5 is_stmt 1 view .LVU7
  78 0002 0846     		mov	r0, r1
  79              	.LVL4:
  80              		.loc 1 22 5 is_stmt 0 view .LVU8
  81 0004 FFF7FEFF 		bl	UART_tester_PutString
  82              	.LVL5:
  23:Tester.c      **** }
  83              		.loc 1 23 1 view .LVU9
  84 0008 08BD     		pop	{r3, pc}
  85              		.cfi_endproc
  86              	.LFE64:
  87              		.size	writeTester, .-writeTester
ARM GAS  C:\Users\jens-\AppData\Local\Temp\ccYtkWAk.s 			page 3


  88              		.section	.text.blinkLED,"ax",%progbits
  89              		.align	1
  90              		.global	blinkLED
  91              		.syntax unified
  92              		.thumb
  93              		.thumb_func
  94              		.fpu softvfp
  95              		.type	blinkLED, %function
  96              	blinkLED:
  97              	.LVL6:
  98              	.LFB65:
  24:Tester.c      **** void blinkLED(const Tester *this)
  25:Tester.c      **** {
  99              		.loc 1 25 1 is_stmt 1 view -0
 100              		.cfi_startproc
 101              		@ args = 0, pretend = 0, frame = 0
 102              		@ frame_needed = 0, uses_anonymous_args = 0
 103              		.loc 1 25 1 is_stmt 0 view .LVU11
 104 0000 08B5     		push	{r3, lr}
 105              		.cfi_def_cfa_offset 8
 106              		.cfi_offset 3, -8
 107              		.cfi_offset 14, -4
  26:Tester.c      ****     LED_Write(1);
 108              		.loc 1 26 5 is_stmt 1 view .LVU12
 109 0002 0120     		movs	r0, #1
 110              	.LVL7:
 111              		.loc 1 26 5 is_stmt 0 view .LVU13
 112 0004 FFF7FEFF 		bl	LED_Write
 113              	.LVL8:
  27:Tester.c      ****     CyDelay(1000);
 114              		.loc 1 27 5 is_stmt 1 view .LVU14
 115 0008 4FF47A70 		mov	r0, #1000
 116 000c FFF7FEFF 		bl	CyDelay
 117              	.LVL9:
  28:Tester.c      ****     LED_Write(0);
 118              		.loc 1 28 5 view .LVU15
 119 0010 0020     		movs	r0, #0
 120 0012 FFF7FEFF 		bl	LED_Write
 121              	.LVL10:
  29:Tester.c      ****     CyDelay(1000);
 122              		.loc 1 29 5 view .LVU16
 123 0016 4FF47A70 		mov	r0, #1000
 124 001a FFF7FEFF 		bl	CyDelay
 125              	.LVL11:
  30:Tester.c      **** }
 126              		.loc 1 30 1 is_stmt 0 view .LVU17
 127 001e 08BD     		pop	{r3, pc}
 128              		.cfi_endproc
 129              	.LFE65:
 130              		.size	blinkLED, .-blinkLED
 131              		.section	.text.FiveSecDelay,"ax",%progbits
 132              		.align	1
 133              		.global	FiveSecDelay
 134              		.syntax unified
 135              		.thumb
 136              		.thumb_func
 137              		.fpu softvfp
ARM GAS  C:\Users\jens-\AppData\Local\Temp\ccYtkWAk.s 			page 4


 138              		.type	FiveSecDelay, %function
 139              	FiveSecDelay:
 140              	.LVL12:
 141              	.LFB66:
  31:Tester.c      **** void FiveSecDelay(const Tester *this)
  32:Tester.c      **** {
 142              		.loc 1 32 1 is_stmt 1 view -0
 143              		.cfi_startproc
 144              		@ args = 0, pretend = 0, frame = 0
 145              		@ frame_needed = 0, uses_anonymous_args = 0
 146              		.loc 1 32 1 is_stmt 0 view .LVU19
 147 0000 08B5     		push	{r3, lr}
 148              		.cfi_def_cfa_offset 8
 149              		.cfi_offset 3, -8
 150              		.cfi_offset 14, -4
  33:Tester.c      ****     CyDelay(5000);
 151              		.loc 1 33 5 is_stmt 1 view .LVU20
 152 0002 41F28830 		movw	r0, #5000
 153              	.LVL13:
 154              		.loc 1 33 5 is_stmt 0 view .LVU21
 155 0006 FFF7FEFF 		bl	CyDelay
 156              	.LVL14:
  34:Tester.c      **** }
 157              		.loc 1 34 1 view .LVU22
 158 000a 08BD     		pop	{r3, pc}
 159              		.cfi_endproc
 160              	.LFE66:
 161              		.size	FiveSecDelay, .-FiveSecDelay
 162              		.text
 163              	.Letext0:
 164              		.file 2 "c:\\program files (x86)\\cypress\\psoc creator\\4.2\\psoc creator\\import\\gnu\\arm\\5.4.
 165              		.file 3 "c:\\program files (x86)\\cypress\\psoc creator\\4.2\\psoc creator\\import\\gnu\\arm\\5.4.
 166              		.file 4 "Tester.h"
 167              		.file 5 "Generated_Source\\PSoC5/cytypes.h"
 168              		.file 6 "c:\\program files (x86)\\cypress\\psoc creator\\4.2\\psoc creator\\import\\gnu\\arm\\5.4.
 169              		.file 7 "c:\\program files (x86)\\cypress\\psoc creator\\4.2\\psoc creator\\import\\gnu\\arm\\5.4.
 170              		.file 8 "c:\\program files (x86)\\cypress\\psoc creator\\4.2\\psoc creator\\import\\gnu\\arm\\5.4.
 171              		.file 9 "c:\\program files (x86)\\cypress\\psoc creator\\4.2\\psoc creator\\import\\gnu\\arm\\5.4.
 172              		.file 10 "c:\\program files (x86)\\cypress\\psoc creator\\4.2\\psoc creator\\import\\gnu\\arm\\5.4
 173              		.file 11 "Generated_Source\\PSoC5/CySpc.h"
 174              		.file 12 "Generated_Source\\PSoC5/CyFlash.h"
 175              		.file 13 "Generated_Source\\PSoC5/CyLib.h"
 176              		.file 14 "Generated_Source\\PSoC5/I2C_1.h"
 177              		.file 15 "Generated_Source\\PSoC5/I2C_1_PVT.h"
 178              		.file 16 "Generated_Source\\PSoC5/UART_tester.h"
 179              		.file 17 "Generated_Source\\PSoC5/core_cm3.h"
 180              		.file 18 "Generated_Source\\PSoC5/LED.h"